
rsort.riscv:     file format elf64-littleriscv


Disassembly of section .text.init:

0000000080000000 <_start>:
    80000000:	4081                	li	ra,0
    80000002:	4101                	li	sp,0
    80000004:	4181                	li	gp,0
    80000006:	4201                	li	tp,0
    80000008:	4281                	li	t0,0
    8000000a:	4301                	li	t1,0
    8000000c:	4381                	li	t2,0
    8000000e:	4401                	li	s0,0
    80000010:	4481                	li	s1,0
    80000012:	4501                	li	a0,0
    80000014:	4581                	li	a1,0
    80000016:	4601                	li	a2,0
    80000018:	4681                	li	a3,0
    8000001a:	4701                	li	a4,0
    8000001c:	4781                	li	a5,0
    8000001e:	4801                	li	a6,0
    80000020:	4881                	li	a7,0
    80000022:	4901                	li	s2,0
    80000024:	4981                	li	s3,0
    80000026:	4a01                	li	s4,0
    80000028:	4a81                	li	s5,0
    8000002a:	4b01                	li	s6,0
    8000002c:	4b81                	li	s7,0
    8000002e:	4c01                	li	s8,0
    80000030:	4c81                	li	s9,0
    80000032:	4d01                	li	s10,0
    80000034:	4d81                	li	s11,0
    80000036:	4e01                	li	t3,0
    80000038:	4e81                	li	t4,0
    8000003a:	4f01                	li	t5,0
    8000003c:	4f81                	li	t6,0
    8000003e:	62f9                	lui	t0,0x1e
    80000040:	6002829b          	addw	t0,t0,1536 # 1e600 <buflen.1+0x1e5c0>
    80000044:	3002a073          	csrs	mstatus,t0
    80000048:	4285                	li	t0,1
    8000004a:	02fe                	sll	t0,t0,0x1f
    8000004c:	0002d863          	bgez	t0,8000005c <_start+0x5c>
    80000050:	4505                	li	a0,1
    80000052:	00001297          	auipc	t0,0x1
    80000056:	faa2a723          	sw	a0,-82(t0) # 80001000 <tohost>
    8000005a:	bfdd                	j	80000050 <_start+0x50>
    8000005c:	00000297          	auipc	t0,0x0
    80000060:	09028293          	add	t0,t0,144 # 800000ec <_start+0xec>
    80000064:	30529073          	csrw	mtvec,t0
    80000068:	00301073          	fscsr	zero
    8000006c:	f0000053          	fmv.w.x	ft0,zero
    80000070:	f00000d3          	fmv.w.x	ft1,zero
    80000074:	f0000153          	fmv.w.x	ft2,zero
    80000078:	f00001d3          	fmv.w.x	ft3,zero
    8000007c:	f0000253          	fmv.w.x	ft4,zero
    80000080:	f00002d3          	fmv.w.x	ft5,zero
    80000084:	f0000353          	fmv.w.x	ft6,zero
    80000088:	f00003d3          	fmv.w.x	ft7,zero
    8000008c:	f0000453          	fmv.w.x	fs0,zero
    80000090:	f00004d3          	fmv.w.x	fs1,zero
    80000094:	f0000553          	fmv.w.x	fa0,zero
    80000098:	f00005d3          	fmv.w.x	fa1,zero
    8000009c:	f0000653          	fmv.w.x	fa2,zero
    800000a0:	f00006d3          	fmv.w.x	fa3,zero
    800000a4:	f0000753          	fmv.w.x	fa4,zero
    800000a8:	f00007d3          	fmv.w.x	fa5,zero
    800000ac:	f0000853          	fmv.w.x	fa6,zero
    800000b0:	f00008d3          	fmv.w.x	fa7,zero
    800000b4:	f0000953          	fmv.w.x	fs2,zero
    800000b8:	f00009d3          	fmv.w.x	fs3,zero
    800000bc:	f0000a53          	fmv.w.x	fs4,zero
    800000c0:	f0000ad3          	fmv.w.x	fs5,zero
    800000c4:	f0000b53          	fmv.w.x	fs6,zero
    800000c8:	f0000bd3          	fmv.w.x	fs7,zero
    800000cc:	f0000c53          	fmv.w.x	fs8,zero
    800000d0:	f0000cd3          	fmv.w.x	fs9,zero
    800000d4:	f0000d53          	fmv.w.x	fs10,zero
    800000d8:	f0000dd3          	fmv.w.x	fs11,zero
    800000dc:	f0000e53          	fmv.w.x	ft8,zero
    800000e0:	f0000ed3          	fmv.w.x	ft9,zero
    800000e4:	f0000f53          	fmv.w.x	ft10,zero
    800000e8:	f0000fd3          	fmv.w.x	ft11,zero
    800000ec:	00000297          	auipc	t0,0x0
    800000f0:	03c28293          	add	t0,t0,60 # 80000128 <trap_entry>
    800000f4:	30529073          	csrw	mtvec,t0
    800000f8:	00007197          	auipc	gp,0x7
    800000fc:	19018193          	add	gp,gp,400 # 80007288 <__global_pointer$>
    80000100:	00009217          	auipc	tp,0x9
    80000104:	bbf20213          	add	tp,tp,-1089 # 80008cbf <_end+0x3f>
    80000108:	fc027213          	and	tp,tp,-64
    8000010c:	f1402573          	csrr	a0,mhartid
    80000110:	4585                	li	a1,1
    80000112:	00b57063          	bgeu	a0,a1,80000112 <_start+0x112>
    80000116:	00150113          	add	sp,a0,1
    8000011a:	0146                	sll	sp,sp,0x11
    8000011c:	9112                	add	sp,sp,tp
    8000011e:	01151613          	sll	a2,a0,0x11
    80000122:	9232                	add	tp,tp,a2
    80000124:	7400206f          	j	80002864 <_init>

0000000080000128 <trap_entry>:
    80000128:	716d                	add	sp,sp,-272
    8000012a:	e406                	sd	ra,8(sp)
    8000012c:	e80a                	sd	sp,16(sp)
    8000012e:	ec0e                	sd	gp,24(sp)
    80000130:	f012                	sd	tp,32(sp)
    80000132:	f416                	sd	t0,40(sp)
    80000134:	f81a                	sd	t1,48(sp)
    80000136:	fc1e                	sd	t2,56(sp)
    80000138:	e0a2                	sd	s0,64(sp)
    8000013a:	e4a6                	sd	s1,72(sp)
    8000013c:	e8aa                	sd	a0,80(sp)
    8000013e:	ecae                	sd	a1,88(sp)
    80000140:	f0b2                	sd	a2,96(sp)
    80000142:	f4b6                	sd	a3,104(sp)
    80000144:	f8ba                	sd	a4,112(sp)
    80000146:	fcbe                	sd	a5,120(sp)
    80000148:	e142                	sd	a6,128(sp)
    8000014a:	e546                	sd	a7,136(sp)
    8000014c:	e94a                	sd	s2,144(sp)
    8000014e:	ed4e                	sd	s3,152(sp)
    80000150:	f152                	sd	s4,160(sp)
    80000152:	f556                	sd	s5,168(sp)
    80000154:	f95a                	sd	s6,176(sp)
    80000156:	fd5e                	sd	s7,184(sp)
    80000158:	e1e2                	sd	s8,192(sp)
    8000015a:	e5e6                	sd	s9,200(sp)
    8000015c:	e9ea                	sd	s10,208(sp)
    8000015e:	edee                	sd	s11,216(sp)
    80000160:	f1f2                	sd	t3,224(sp)
    80000162:	f5f6                	sd	t4,232(sp)
    80000164:	f9fa                	sd	t5,240(sp)
    80000166:	fdfe                	sd	t6,248(sp)
    80000168:	34202573          	csrr	a0,mcause
    8000016c:	341025f3          	csrr	a1,mepc
    80000170:	860a                	mv	a2,sp
    80000172:	4ca020ef          	jal	8000263c <handle_trap>
    80000176:	34151073          	csrw	mepc,a0
    8000017a:	6289                	lui	t0,0x2
    8000017c:	8002829b          	addw	t0,t0,-2048 # 1800 <buflen.1+0x17c0>
    80000180:	3002a073          	csrs	mstatus,t0
    80000184:	60a2                	ld	ra,8(sp)
    80000186:	6142                	ld	sp,16(sp)
    80000188:	61e2                	ld	gp,24(sp)
    8000018a:	7202                	ld	tp,32(sp)
    8000018c:	72a2                	ld	t0,40(sp)
    8000018e:	7342                	ld	t1,48(sp)
    80000190:	73e2                	ld	t2,56(sp)
    80000192:	6406                	ld	s0,64(sp)
    80000194:	64a6                	ld	s1,72(sp)
    80000196:	6546                	ld	a0,80(sp)
    80000198:	65e6                	ld	a1,88(sp)
    8000019a:	7606                	ld	a2,96(sp)
    8000019c:	76a6                	ld	a3,104(sp)
    8000019e:	7746                	ld	a4,112(sp)
    800001a0:	77e6                	ld	a5,120(sp)
    800001a2:	680a                	ld	a6,128(sp)
    800001a4:	68aa                	ld	a7,136(sp)
    800001a6:	694a                	ld	s2,144(sp)
    800001a8:	69ea                	ld	s3,152(sp)
    800001aa:	7a0a                	ld	s4,160(sp)
    800001ac:	7aaa                	ld	s5,168(sp)
    800001ae:	7b4a                	ld	s6,176(sp)
    800001b0:	7bea                	ld	s7,184(sp)
    800001b2:	6c0e                	ld	s8,192(sp)
    800001b4:	6cae                	ld	s9,200(sp)
    800001b6:	6d4e                	ld	s10,208(sp)
    800001b8:	6dee                	ld	s11,216(sp)
    800001ba:	7e0e                	ld	t3,224(sp)
    800001bc:	7eae                	ld	t4,232(sp)
    800001be:	7f4e                	ld	t5,240(sp)
    800001c0:	7fee                	ld	t6,248(sp)
    800001c2:	6151                	add	sp,sp,272
    800001c4:	30200073          	mret
    800001c8:	0000                	unimp

Disassembly of section .text:

0000000080002000 <verify.constprop.0>:
    80002000:	87aa                	mv	a5,a0
    80002002:	00003717          	auipc	a4,0x3
    80002006:	a8670713          	add	a4,a4,-1402 # 80004a88 <input_data>
    8000200a:	4501                	li	a0,0
    8000200c:	a809                	j	8000201e <verify.constprop.0+0x1e>
    8000200e:	0006051b          	sext.w	a0,a2
    80002012:	03169663          	bne	a3,a7,8000203e <verify.constprop.0+0x3e>
    80002016:	0721                	add	a4,a4,8
    80002018:	07a1                	add	a5,a5,8
    8000201a:	02030163          	beqz	t1,8000203c <verify.constprop.0+0x3c>
    8000201e:	430c                	lw	a1,0(a4)
    80002020:	0007a803          	lw	a6,0(a5)
    80002024:	4354                	lw	a3,4(a4)
    80002026:	0025061b          	addw	a2,a0,2
    8000202a:	0047a883          	lw	a7,4(a5)
    8000202e:	8006031b          	addw	t1,a2,-2048
    80002032:	2681                	sext.w	a3,a3
    80002034:	fcb80de3          	beq	a6,a1,8000200e <verify.constprop.0+0xe>
    80002038:	2505                	addw	a0,a0,1
    8000203a:	8082                	ret
    8000203c:	4501                	li	a0,0
    8000203e:	8082                	ret

0000000080002040 <sort>:
    80002040:	00251893          	sll	a7,a0,0x2
    80002044:	ff388713          	add	a4,a7,-13
    80002048:	7159                	add	sp,sp,-112
    8000204a:	ff077e13          	and	t3,a4,-16
    8000204e:	ff088793          	add	a5,a7,-16
    80002052:	6705                	lui	a4,0x1
    80002054:	f4a2                	sd	s0,104(sp)
    80002056:	f0a6                	sd	s1,96(sp)
    80002058:	ecca                	sd	s2,88(sp)
    8000205a:	e8ce                	sd	s3,80(sp)
    8000205c:	e4d2                	sd	s4,72(sp)
    8000205e:	e0d6                	sd	s5,64(sp)
    80002060:	fc5a                	sd	s6,56(sp)
    80002062:	f85e                	sd	s7,48(sp)
    80002064:	f462                	sd	s8,40(sp)
    80002066:	f066                	sd	s9,32(sp)
    80002068:	ec6a                	sd	s10,24(sp)
    8000206a:	e86e                	sd	s11,16(sp)
    8000206c:	fff7c793          	not	a5,a5
    80002070:	81010113          	add	sp,sp,-2032
    80002074:	80070713          	add	a4,a4,-2048 # 800 <buflen.1+0x7c0>
    80002078:	8532                	mv	a0,a2
    8000207a:	880a                	mv	a6,sp
    8000207c:	82ae                	mv	t0,a1
    8000207e:	ff488393          	add	t2,a7,-12
    80002082:	ffc88f93          	add	t6,a7,-4
    80002086:	01080f13          	add	t5,a6,16
    8000208a:	4601                	li	a2,0
    8000208c:	9742                	add	a4,a4,a6
    8000208e:	0e41                	add	t3,t3,16
    80002090:	ff07f313          	and	t1,a5,-16
    80002094:	02000e93          	li	t4,32
    80002098:	87c2                	mv	a5,a6
    8000209a:	0007b023          	sd	zero,0(a5)
    8000209e:	07a1                	add	a5,a5,8
    800020a0:	fee79de3          	bne	a5,a4,8000209a <sort+0x5a>
    800020a4:	007589b3          	add	s3,a1,t2
    800020a8:	1f35f263          	bgeu	a1,s3,8000228c <sort+0x24c>
    800020ac:	0006091b          	sext.w	s2,a2
    800020b0:	84ae                	mv	s1,a1
    800020b2:	0004aa03          	lw	s4,0(s1)
    800020b6:	40c0                	lw	s0,4(s1)
    800020b8:	4494                	lw	a3,8(s1)
    800020ba:	012a5a3b          	srlw	s4,s4,s2
    800020be:	0ffa7a13          	zext.b	s4,s4
    800020c2:	0a0e                	sll	s4,s4,0x3
    800020c4:	9a42                	add	s4,s4,a6
    800020c6:	000a3a83          	ld	s5,0(s4)
    800020ca:	0124543b          	srlw	s0,s0,s2
    800020ce:	0ff47413          	zext.b	s0,s0
    800020d2:	0a85                	add	s5,s5,1
    800020d4:	040e                	sll	s0,s0,0x3
    800020d6:	44dc                	lw	a5,12(s1)
    800020d8:	9442                	add	s0,s0,a6
    800020da:	015a3023          	sd	s5,0(s4)
    800020de:	00043a03          	ld	s4,0(s0)
    800020e2:	0126d6bb          	srlw	a3,a3,s2
    800020e6:	0ff6f693          	zext.b	a3,a3
    800020ea:	0a05                	add	s4,s4,1
    800020ec:	068e                	sll	a3,a3,0x3
    800020ee:	01443023          	sd	s4,0(s0)
    800020f2:	96c2                	add	a3,a3,a6
    800020f4:	6280                	ld	s0,0(a3)
    800020f6:	0127d7bb          	srlw	a5,a5,s2
    800020fa:	0ff7f793          	zext.b	a5,a5
    800020fe:	0405                	add	s0,s0,1
    80002100:	078e                	sll	a5,a5,0x3
    80002102:	e280                	sd	s0,0(a3)
    80002104:	97c2                	add	a5,a5,a6
    80002106:	6394                	ld	a3,0(a5)
    80002108:	04c1                	add	s1,s1,16
    8000210a:	0685                	add	a3,a3,1
    8000210c:	e394                	sd	a3,0(a5)
    8000210e:	fb34e2e3          	bltu	s1,s3,800020b2 <sort+0x72>
    80002112:	01c586b3          	add	a3,a1,t3
    80002116:	011584b3          	add	s1,a1,a7
    8000211a:	0006091b          	sext.w	s2,a2
    8000211e:	0096ff63          	bgeu	a3,s1,8000213c <sort+0xfc>
    80002122:	429c                	lw	a5,0(a3)
    80002124:	0691                	add	a3,a3,4
    80002126:	0127d7bb          	srlw	a5,a5,s2
    8000212a:	0ff7f793          	zext.b	a5,a5
    8000212e:	078e                	sll	a5,a5,0x3
    80002130:	97c2                	add	a5,a5,a6
    80002132:	6380                	ld	s0,0(a5)
    80002134:	0405                	add	s0,s0,1
    80002136:	e380                	sd	s0,0(a5)
    80002138:	fe96e5e3          	bltu	a3,s1,80002122 <sort+0xe2>
    8000213c:	00883403          	ld	s0,8(a6)
    80002140:	00083683          	ld	a3,0(a6)
    80002144:	87fa                	mv	a5,t5
    80002146:	9436                	add	s0,s0,a3
    80002148:	00883423          	sd	s0,8(a6)
    8000214c:	6394                	ld	a3,0(a5)
    8000214e:	6784                	ld	s1,8(a5)
    80002150:	07c1                	add	a5,a5,16
    80002152:	96a2                	add	a3,a3,s0
    80002154:	00968433          	add	s0,a3,s1
    80002158:	fed7b823          	sd	a3,-16(a5)
    8000215c:	fe87bc23          	sd	s0,-8(a5)
    80002160:	fee796e3          	bne	a5,a4,8000214c <sort+0x10c>
    80002164:	01f58a33          	add	s4,a1,t6
    80002168:	00c58a93          	add	s5,a1,12
    8000216c:	095a6f63          	bltu	s4,s5,8000220a <sort+0x1ca>
    80002170:	0006091b          	sext.w	s2,a2
    80002174:	84d2                	mv	s1,s4
    80002176:	0004ac83          	lw	s9,0(s1)
    8000217a:	ffc4ac03          	lw	s8,-4(s1)
    8000217e:	ff84ab03          	lw	s6,-8(s1)
    80002182:	012cd7bb          	srlw	a5,s9,s2
    80002186:	0ff7f793          	zext.b	a5,a5
    8000218a:	078e                	sll	a5,a5,0x3
    8000218c:	97c2                	add	a5,a5,a6
    8000218e:	0007bd03          	ld	s10,0(a5)
    80002192:	012c56bb          	srlw	a3,s8,s2
    80002196:	0ff6f693          	zext.b	a3,a3
    8000219a:	fffd0413          	add	s0,s10,-1
    8000219e:	068e                	sll	a3,a3,0x3
    800021a0:	ff44a983          	lw	s3,-12(s1)
    800021a4:	96c2                	add	a3,a3,a6
    800021a6:	e380                	sd	s0,0(a5)
    800021a8:	6280                	ld	s0,0(a3)
    800021aa:	012b5bbb          	srlw	s7,s6,s2
    800021ae:	0ffbfb93          	zext.b	s7,s7
    800021b2:	fff40793          	add	a5,s0,-1
    800021b6:	0b8e                	sll	s7,s7,0x3
    800021b8:	e29c                	sd	a5,0(a3)
    800021ba:	9bc2                	add	s7,s7,a6
    800021bc:	000bb683          	ld	a3,0(s7)
    800021c0:	0129d7bb          	srlw	a5,s3,s2
    800021c4:	0ff7f793          	zext.b	a5,a5
    800021c8:	fff68d93          	add	s11,a3,-1
    800021cc:	078e                	sll	a5,a5,0x3
    800021ce:	01bbb023          	sd	s11,0(s7)
    800021d2:	97c2                	add	a5,a5,a6
    800021d4:	0007bb83          	ld	s7,0(a5)
    800021d8:	0d0a                	sll	s10,s10,0x2
    800021da:	9d2a                	add	s10,s10,a0
    800021dc:	fffb8d93          	add	s11,s7,-1
    800021e0:	01b7b023          	sd	s11,0(a5)
    800021e4:	040a                	sll	s0,s0,0x2
    800021e6:	ff9d2e23          	sw	s9,-4(s10)
    800021ea:	942a                	add	s0,s0,a0
    800021ec:	068a                	sll	a3,a3,0x2
    800021ee:	ff842e23          	sw	s8,-4(s0)
    800021f2:	96aa                	add	a3,a3,a0
    800021f4:	002b9793          	sll	a5,s7,0x2
    800021f8:	ff66ae23          	sw	s6,-4(a3)
    800021fc:	97aa                	add	a5,a5,a0
    800021fe:	ff37ae23          	sw	s3,-4(a5)
    80002202:	14c1                	add	s1,s1,-16
    80002204:	f754f9e3          	bgeu	s1,s5,80002176 <sort+0x136>
    80002208:	9a1a                	add	s4,s4,t1
    8000220a:	0006091b          	sext.w	s2,a2
    8000220e:	02ba6563          	bltu	s4,a1,80002238 <sort+0x1f8>
    80002212:	000a2483          	lw	s1,0(s4)
    80002216:	1a71                	add	s4,s4,-4
    80002218:	0124d7bb          	srlw	a5,s1,s2
    8000221c:	0ff7f793          	zext.b	a5,a5
    80002220:	078e                	sll	a5,a5,0x3
    80002222:	97c2                	add	a5,a5,a6
    80002224:	6394                	ld	a3,0(a5)
    80002226:	16fd                	add	a3,a3,-1
    80002228:	00269413          	sll	s0,a3,0x2
    8000222c:	e394                	sd	a3,0(a5)
    8000222e:	008507b3          	add	a5,a0,s0
    80002232:	c384                	sw	s1,0(a5)
    80002234:	fcba7fe3          	bgeu	s4,a1,80002212 <sort+0x1d2>
    80002238:	0621                	add	a2,a2,8
    8000223a:	01d60663          	beq	a2,t4,80002246 <sort+0x206>
    8000223e:	87ae                	mv	a5,a1
    80002240:	85aa                	mv	a1,a0
    80002242:	853e                	mv	a0,a5
    80002244:	bd91                	j	80002098 <sort+0x58>
    80002246:	02a28363          	beq	t0,a0,8000226c <sort+0x22c>
    8000224a:	7f010113          	add	sp,sp,2032
    8000224e:	7426                	ld	s0,104(sp)
    80002250:	7486                	ld	s1,96(sp)
    80002252:	6966                	ld	s2,88(sp)
    80002254:	69c6                	ld	s3,80(sp)
    80002256:	6a26                	ld	s4,72(sp)
    80002258:	6a86                	ld	s5,64(sp)
    8000225a:	7b62                	ld	s6,56(sp)
    8000225c:	7bc2                	ld	s7,48(sp)
    8000225e:	7c22                	ld	s8,40(sp)
    80002260:	7c82                	ld	s9,32(sp)
    80002262:	6d62                	ld	s10,24(sp)
    80002264:	6dc2                	ld	s11,16(sp)
    80002266:	8646                	mv	a2,a7
    80002268:	6165                	add	sp,sp,112
    8000226a:	a329                	j	80002774 <memcpy>
    8000226c:	7f010113          	add	sp,sp,2032
    80002270:	7426                	ld	s0,104(sp)
    80002272:	7486                	ld	s1,96(sp)
    80002274:	6966                	ld	s2,88(sp)
    80002276:	69c6                	ld	s3,80(sp)
    80002278:	6a26                	ld	s4,72(sp)
    8000227a:	6a86                	ld	s5,64(sp)
    8000227c:	7b62                	ld	s6,56(sp)
    8000227e:	7bc2                	ld	s7,48(sp)
    80002280:	7c22                	ld	s8,40(sp)
    80002282:	7c82                	ld	s9,32(sp)
    80002284:	6d62                	ld	s10,24(sp)
    80002286:	6dc2                	ld	s11,16(sp)
    80002288:	6165                	add	sp,sp,112
    8000228a:	8082                	ret
    8000228c:	86ae                	mv	a3,a1
    8000228e:	b561                	j	80002116 <sort+0xd6>

0000000080002290 <vprintfmt>:
    80002290:	7149                	add	sp,sp,-368
    80002292:	f2a2                	sd	s0,352(sp)
    80002294:	eea6                	sd	s1,344(sp)
    80002296:	eaca                	sd	s2,336(sp)
    80002298:	e2d2                	sd	s4,320(sp)
    8000229a:	fe56                	sd	s5,312(sp)
    8000229c:	fa5a                	sd	s6,304(sp)
    8000229e:	f65e                	sd	s7,296(sp)
    800022a0:	f686                	sd	ra,360(sp)
    800022a2:	e6ce                	sd	s3,328(sp)
    800022a4:	f262                	sd	s8,288(sp)
    800022a6:	ee66                	sd	s9,280(sp)
    800022a8:	ea6a                	sd	s10,272(sp)
    800022aa:	e66e                	sd	s11,264(sp)
    800022ac:	892a                	mv	s2,a0
    800022ae:	84ae                	mv	s1,a1
    800022b0:	8432                	mv	s0,a2
    800022b2:	8ab6                	mv	s5,a3
    800022b4:	02500a13          	li	s4,37
    800022b8:	05500b93          	li	s7,85
    800022bc:	84c18b13          	add	s6,gp,-1972 # 80006ad4 <input_data+0x204c>
    800022c0:	a029                	j	800022ca <vprintfmt+0x3a>
    800022c2:	cd1d                	beqz	a0,80002300 <vprintfmt+0x70>
    800022c4:	85a6                	mv	a1,s1
    800022c6:	0405                	add	s0,s0,1
    800022c8:	9902                	jalr	s2
    800022ca:	00044503          	lbu	a0,0(s0)
    800022ce:	ff451ae3          	bne	a0,s4,800022c2 <vprintfmt+0x32>
    800022d2:	00144683          	lbu	a3,1(s0)
    800022d6:	00140993          	add	s3,s0,1
    800022da:	874e                	mv	a4,s3
    800022dc:	02000c93          	li	s9,32
    800022e0:	5c7d                	li	s8,-1
    800022e2:	5dfd                	li	s11,-1
    800022e4:	4601                	li	a2,0
    800022e6:	fdd6879b          	addw	a5,a3,-35
    800022ea:	0ff7f793          	zext.b	a5,a5
    800022ee:	00170413          	add	s0,a4,1
    800022f2:	04fbe263          	bltu	s7,a5,80002336 <vprintfmt+0xa6>
    800022f6:	078a                	sll	a5,a5,0x2
    800022f8:	97da                	add	a5,a5,s6
    800022fa:	439c                	lw	a5,0(a5)
    800022fc:	97da                	add	a5,a5,s6
    800022fe:	8782                	jr	a5
    80002300:	70b6                	ld	ra,360(sp)
    80002302:	7416                	ld	s0,352(sp)
    80002304:	64f6                	ld	s1,344(sp)
    80002306:	6956                	ld	s2,336(sp)
    80002308:	69b6                	ld	s3,328(sp)
    8000230a:	6a16                	ld	s4,320(sp)
    8000230c:	7af2                	ld	s5,312(sp)
    8000230e:	7b52                	ld	s6,304(sp)
    80002310:	7bb2                	ld	s7,296(sp)
    80002312:	7c12                	ld	s8,288(sp)
    80002314:	6cf2                	ld	s9,280(sp)
    80002316:	6d52                	ld	s10,272(sp)
    80002318:	6db2                	ld	s11,264(sp)
    8000231a:	6175                	add	sp,sp,368
    8000231c:	8082                	ret
    8000231e:	8cb6                	mv	s9,a3
    80002320:	00174683          	lbu	a3,1(a4)
    80002324:	8722                	mv	a4,s0
    80002326:	00170413          	add	s0,a4,1
    8000232a:	fdd6879b          	addw	a5,a3,-35
    8000232e:	0ff7f793          	zext.b	a5,a5
    80002332:	fcfbf2e3          	bgeu	s7,a5,800022f6 <vprintfmt+0x66>
    80002336:	85a6                	mv	a1,s1
    80002338:	02500513          	li	a0,37
    8000233c:	9902                	jalr	s2
    8000233e:	844e                	mv	s0,s3
    80002340:	b769                	j	800022ca <vprintfmt+0x3a>
    80002342:	fd068c1b          	addw	s8,a3,-48
    80002346:	00174683          	lbu	a3,1(a4)
    8000234a:	47a5                	li	a5,9
    8000234c:	fd06871b          	addw	a4,a3,-48
    80002350:	0006859b          	sext.w	a1,a3
    80002354:	20e7e863          	bltu	a5,a4,80002564 <vprintfmt+0x2d4>
    80002358:	8722                	mv	a4,s0
    8000235a:	4825                	li	a6,9
    8000235c:	00174683          	lbu	a3,1(a4)
    80002360:	002c179b          	sllw	a5,s8,0x2
    80002364:	018787bb          	addw	a5,a5,s8
    80002368:	0017979b          	sllw	a5,a5,0x1
    8000236c:	9fad                	addw	a5,a5,a1
    8000236e:	fd06851b          	addw	a0,a3,-48
    80002372:	0705                	add	a4,a4,1
    80002374:	fd078c1b          	addw	s8,a5,-48
    80002378:	0006859b          	sext.w	a1,a3
    8000237c:	fea870e3          	bgeu	a6,a0,8000235c <vprintfmt+0xcc>
    80002380:	f60dd3e3          	bgez	s11,800022e6 <vprintfmt+0x56>
    80002384:	8de2                	mv	s11,s8
    80002386:	5c7d                	li	s8,-1
    80002388:	bfb9                	j	800022e6 <vprintfmt+0x56>
    8000238a:	00174683          	lbu	a3,1(a4)
    8000238e:	8722                	mv	a4,s0
    80002390:	bf99                	j	800022e6 <vprintfmt+0x56>
    80002392:	85a6                	mv	a1,s1
    80002394:	02500513          	li	a0,37
    80002398:	9902                	jalr	s2
    8000239a:	bf05                	j	800022ca <vprintfmt+0x3a>
    8000239c:	000aac03          	lw	s8,0(s5)
    800023a0:	00174683          	lbu	a3,1(a4)
    800023a4:	0aa1                	add	s5,s5,8
    800023a6:	8722                	mv	a4,s0
    800023a8:	bfe1                	j	80002380 <vprintfmt+0xf0>
    800023aa:	03000513          	li	a0,48
    800023ae:	85a6                	mv	a1,s1
    800023b0:	9902                	jalr	s2
    800023b2:	85a6                	mv	a1,s1
    800023b4:	07800513          	li	a0,120
    800023b8:	9902                	jalr	s2
    800023ba:	46c1                	li	a3,16
    800023bc:	008a8713          	add	a4,s5,8
    800023c0:	000ab783          	ld	a5,0(s5)
    800023c4:	8aba                	mv	s5,a4
    800023c6:	02d7f5b3          	remu	a1,a5,a3
    800023ca:	000c899b          	sext.w	s3,s9
    800023ce:	0050                	add	a2,sp,4
    800023d0:	4705                	li	a4,1
    800023d2:	c02e                	sw	a1,0(sp)
    800023d4:	16d7e663          	bltu	a5,a3,80002540 <vprintfmt+0x2b0>
    800023d8:	02d7d7b3          	divu	a5,a5,a3
    800023dc:	0611                	add	a2,a2,4
    800023de:	8c3a                	mv	s8,a4
    800023e0:	2705                	addw	a4,a4,1
    800023e2:	02d7f5b3          	remu	a1,a5,a3
    800023e6:	feb62e23          	sw	a1,-4(a2)
    800023ea:	fed7f7e3          	bgeu	a5,a3,800023d8 <vprintfmt+0x148>
    800023ee:	fffd8c9b          	addw	s9,s11,-1
    800023f2:	fff70d1b          	addw	s10,a4,-1
    800023f6:	01b75863          	bge	a4,s11,80002406 <vprintfmt+0x176>
    800023fa:	3cfd                	addw	s9,s9,-1
    800023fc:	85a6                	mv	a1,s1
    800023fe:	854e                	mv	a0,s3
    80002400:	9902                	jalr	s2
    80002402:	ffac9ce3          	bne	s9,s10,800023fa <vprintfmt+0x16a>
    80002406:	0c0a                	sll	s8,s8,0x2
    80002408:	018109b3          	add	s3,sp,s8
    8000240c:	ffc10c93          	add	s9,sp,-4
    80002410:	4c25                	li	s8,9
    80002412:	0009a783          	lw	a5,0(s3)
    80002416:	05700513          	li	a0,87
    8000241a:	00fc6463          	bltu	s8,a5,80002422 <vprintfmt+0x192>
    8000241e:	03000513          	li	a0,48
    80002422:	19f1                	add	s3,s3,-4
    80002424:	85a6                	mv	a1,s1
    80002426:	9d3d                	addw	a0,a0,a5
    80002428:	9902                	jalr	s2
    8000242a:	ff3c94e3          	bne	s9,s3,80002412 <vprintfmt+0x182>
    8000242e:	bd71                	j	800022ca <vprintfmt+0x3a>
    80002430:	4785                	li	a5,1
    80002432:	008a8c13          	add	s8,s5,8
    80002436:	00c7c463          	blt	a5,a2,8000243e <vprintfmt+0x1ae>
    8000243a:	10060563          	beqz	a2,80002544 <vprintfmt+0x2b4>
    8000243e:	000ab983          	ld	s3,0(s5)
    80002442:	1009c863          	bltz	s3,80002552 <vprintfmt+0x2c2>
    80002446:	87ce                	mv	a5,s3
    80002448:	8ae2                	mv	s5,s8
    8000244a:	46a9                	li	a3,10
    8000244c:	bfad                	j	800023c6 <vprintfmt+0x136>
    8000244e:	00174683          	lbu	a3,1(a4)
    80002452:	2605                	addw	a2,a2,1
    80002454:	8722                	mv	a4,s0
    80002456:	bd41                	j	800022e6 <vprintfmt+0x56>
    80002458:	46c1                	li	a3,16
    8000245a:	4785                	li	a5,1
    8000245c:	008a8713          	add	a4,s5,8
    80002460:	f6c7c0e3          	blt	a5,a2,800023c0 <vprintfmt+0x130>
    80002464:	fe31                	bnez	a2,800023c0 <vprintfmt+0x130>
    80002466:	000ae783          	lwu	a5,0(s5)
    8000246a:	8aba                	mv	s5,a4
    8000246c:	bfa9                	j	800023c6 <vprintfmt+0x136>
    8000246e:	000abd03          	ld	s10,0(s5)
    80002472:	0aa1                	add	s5,s5,8
    80002474:	040d0263          	beqz	s10,800024b8 <vprintfmt+0x228>
    80002478:	09b05d63          	blez	s11,80002512 <vprintfmt+0x282>
    8000247c:	02d00793          	li	a5,45
    80002480:	04fc9e63          	bne	s9,a5,800024dc <vprintfmt+0x24c>
    80002484:	000d4503          	lbu	a0,0(s10)
    80002488:	c105                	beqz	a0,800024a8 <vprintfmt+0x218>
    8000248a:	59fd                	li	s3,-1
    8000248c:	000c4563          	bltz	s8,80002496 <vprintfmt+0x206>
    80002490:	3c7d                	addw	s8,s8,-1
    80002492:	013c0963          	beq	s8,s3,800024a4 <vprintfmt+0x214>
    80002496:	85a6                	mv	a1,s1
    80002498:	0d05                	add	s10,s10,1
    8000249a:	9902                	jalr	s2
    8000249c:	000d4503          	lbu	a0,0(s10)
    800024a0:	3dfd                	addw	s11,s11,-1
    800024a2:	f56d                	bnez	a0,8000248c <vprintfmt+0x1fc>
    800024a4:	e3b053e3          	blez	s11,800022ca <vprintfmt+0x3a>
    800024a8:	3dfd                	addw	s11,s11,-1
    800024aa:	85a6                	mv	a1,s1
    800024ac:	02000513          	li	a0,32
    800024b0:	9902                	jalr	s2
    800024b2:	fe0d9be3          	bnez	s11,800024a8 <vprintfmt+0x218>
    800024b6:	bd11                	j	800022ca <vprintfmt+0x3a>
    800024b8:	00004d17          	auipc	s10,0x4
    800024bc:	5d8d0d13          	add	s10,s10,1496 # 80006a90 <input_data+0x2008>
    800024c0:	02800513          	li	a0,40
    800024c4:	fdb053e3          	blez	s11,8000248a <vprintfmt+0x1fa>
    800024c8:	02d00793          	li	a5,45
    800024cc:	00004d17          	auipc	s10,0x4
    800024d0:	5c4d0d13          	add	s10,s10,1476 # 80006a90 <input_data+0x2008>
    800024d4:	02800513          	li	a0,40
    800024d8:	fafc89e3          	beq	s9,a5,8000248a <vprintfmt+0x1fa>
    800024dc:	000d861b          	sext.w	a2,s11
    800024e0:	87ea                	mv	a5,s10
    800024e2:	018d06b3          	add	a3,s10,s8
    800024e6:	000c1663          	bnez	s8,800024f2 <vprintfmt+0x262>
    800024ea:	a829                	j	80002504 <vprintfmt+0x274>
    800024ec:	0785                	add	a5,a5,1
    800024ee:	00d78563          	beq	a5,a3,800024f8 <vprintfmt+0x268>
    800024f2:	0007c703          	lbu	a4,0(a5)
    800024f6:	fb7d                	bnez	a4,800024ec <vprintfmt+0x25c>
    800024f8:	41a787b3          	sub	a5,a5,s10
    800024fc:	40f60dbb          	subw	s11,a2,a5
    80002500:	01b05963          	blez	s11,80002512 <vprintfmt+0x282>
    80002504:	2c81                	sext.w	s9,s9
    80002506:	3dfd                	addw	s11,s11,-1
    80002508:	85a6                	mv	a1,s1
    8000250a:	8566                	mv	a0,s9
    8000250c:	9902                	jalr	s2
    8000250e:	fe0d9ce3          	bnez	s11,80002506 <vprintfmt+0x276>
    80002512:	000d4503          	lbu	a0,0(s10)
    80002516:	da050ae3          	beqz	a0,800022ca <vprintfmt+0x3a>
    8000251a:	59fd                	li	s3,-1
    8000251c:	bf85                	j	8000248c <vprintfmt+0x1fc>
    8000251e:	fffdc793          	not	a5,s11
    80002522:	97fd                	sra	a5,a5,0x3f
    80002524:	00fdf7b3          	and	a5,s11,a5
    80002528:	00174683          	lbu	a3,1(a4)
    8000252c:	00078d9b          	sext.w	s11,a5
    80002530:	8722                	mv	a4,s0
    80002532:	bb55                	j	800022e6 <vprintfmt+0x56>
    80002534:	000aa503          	lw	a0,0(s5)
    80002538:	85a6                	mv	a1,s1
    8000253a:	0aa1                	add	s5,s5,8
    8000253c:	9902                	jalr	s2
    8000253e:	b371                	j	800022ca <vprintfmt+0x3a>
    80002540:	4c01                	li	s8,0
    80002542:	b575                	j	800023ee <vprintfmt+0x15e>
    80002544:	000aa983          	lw	s3,0(s5)
    80002548:	bded                	j	80002442 <vprintfmt+0x1b2>
    8000254a:	46a9                	li	a3,10
    8000254c:	b739                	j	8000245a <vprintfmt+0x1ca>
    8000254e:	46a1                	li	a3,8
    80002550:	b729                	j	8000245a <vprintfmt+0x1ca>
    80002552:	85a6                	mv	a1,s1
    80002554:	02d00513          	li	a0,45
    80002558:	9902                	jalr	s2
    8000255a:	8ae2                	mv	s5,s8
    8000255c:	413007b3          	neg	a5,s3
    80002560:	46a9                	li	a3,10
    80002562:	b595                	j	800023c6 <vprintfmt+0x136>
    80002564:	8722                	mv	a4,s0
    80002566:	bd29                	j	80002380 <vprintfmt+0xf0>

0000000080002568 <sprintf_putch.0>:
    80002568:	619c                	ld	a5,0(a1)
    8000256a:	00a78023          	sb	a0,0(a5)
    8000256e:	619c                	ld	a5,0(a1)
    80002570:	0785                	add	a5,a5,1
    80002572:	e19c                	sd	a5,0(a1)
    80002574:	8082                	ret

0000000080002576 <putchar>:
    80002576:	04022803          	lw	a6,64(tp) # 40 <buflen.1>
    8000257a:	00020793          	mv	a5,tp
    8000257e:	97c2                	add	a5,a5,a6
    80002580:	7159                	add	sp,sp,-112
    80002582:	0018069b          	addw	a3,a6,1
    80002586:	04d22023          	sw	a3,64(tp) # 40 <buflen.1>
    8000258a:	00a78023          	sb	a0,0(a5)
    8000258e:	03f10713          	add	a4,sp,63
    80002592:	47a9                	li	a5,10
    80002594:	fc077713          	and	a4,a4,-64
    80002598:	00f50963          	beq	a0,a5,800025aa <putchar+0x34>
    8000259c:	04000793          	li	a5,64
    800025a0:	00f68563          	beq	a3,a5,800025aa <putchar+0x34>
    800025a4:	4501                	li	a0,0
    800025a6:	6165                	add	sp,sp,112
    800025a8:	8082                	ret
    800025aa:	04000793          	li	a5,64
    800025ae:	e31c                	sd	a5,0(a4)
    800025b0:	4785                	li	a5,1
    800025b2:	e71c                	sd	a5,8(a4)
    800025b4:	00020613          	mv	a2,tp
    800025b8:	eb10                	sd	a2,16(a4)
    800025ba:	ef14                	sd	a3,24(a4)
    800025bc:	0ff0000f          	fence
    800025c0:	fffff697          	auipc	a3,0xfffff
    800025c4:	a8068693          	add	a3,a3,-1408 # 80001040 <fromhost>
    800025c8:	fffff797          	auipc	a5,0xfffff
    800025cc:	a2e7bc23          	sd	a4,-1480(a5) # 80001000 <tohost>
    800025d0:	629c                	ld	a5,0(a3)
    800025d2:	dffd                	beqz	a5,800025d0 <putchar+0x5a>
    800025d4:	fffff797          	auipc	a5,0xfffff
    800025d8:	a607b623          	sd	zero,-1428(a5) # 80001040 <fromhost>
    800025dc:	0ff0000f          	fence
    800025e0:	04022023          	sw	zero,64(tp) # 40 <buflen.1>
    800025e4:	631c                	ld	a5,0(a4)
    800025e6:	4501                	li	a0,0
    800025e8:	6165                	add	sp,sp,112
    800025ea:	8082                	ret

00000000800025ec <setStats>:
    800025ec:	b0002773          	csrr	a4,mcycle
    800025f0:	00006797          	auipc	a5,0x6
    800025f4:	64078793          	add	a5,a5,1600 # 80008c30 <counters>
    800025f8:	c511                	beqz	a0,80002604 <setStats+0x18>
    800025fa:	e398                	sd	a4,0(a5)
    800025fc:	b0202773          	csrr	a4,minstret
    80002600:	e798                	sd	a4,8(a5)
    80002602:	8082                	ret
    80002604:	6394                	ld	a3,0(a5)
    80002606:	00004617          	auipc	a2,0x4
    8000260a:	49260613          	add	a2,a2,1170 # 80006a98 <input_data+0x2010>
    8000260e:	eb90                	sd	a2,16(a5)
    80002610:	8f15                	sub	a4,a4,a3
    80002612:	e398                	sd	a4,0(a5)
    80002614:	b0202773          	csrr	a4,minstret
    80002618:	6794                	ld	a3,8(a5)
    8000261a:	00004617          	auipc	a2,0x4
    8000261e:	48660613          	add	a2,a2,1158 # 80006aa0 <input_data+0x2018>
    80002622:	ef90                	sd	a2,24(a5)
    80002624:	8f15                	sub	a4,a4,a3
    80002626:	e798                	sd	a4,8(a5)
    80002628:	8082                	ret

000000008000262a <tohost_exit>:
    8000262a:	00151793          	sll	a5,a0,0x1
    8000262e:	0017e793          	or	a5,a5,1
    80002632:	fffff717          	auipc	a4,0xfffff
    80002636:	9cf73723          	sd	a5,-1586(a4) # 80001000 <tohost>
    8000263a:	a001                	j	8000263a <tohost_exit+0x10>

000000008000263c <handle_trap>:
    8000263c:	6785                	lui	a5,0x1
    8000263e:	a7378793          	add	a5,a5,-1421 # a73 <buflen.1+0xa33>
    80002642:	fffff717          	auipc	a4,0xfffff
    80002646:	9af73f23          	sd	a5,-1602(a4) # 80001000 <tohost>
    8000264a:	a001                	j	8000264a <handle_trap+0xe>

000000008000264c <exit>:
    8000264c:	1141                	add	sp,sp,-16
    8000264e:	e406                	sd	ra,8(sp)
    80002650:	fdbff0ef          	jal	8000262a <tohost_exit>

0000000080002654 <abort>:
    80002654:	10d00793          	li	a5,269
    80002658:	fffff717          	auipc	a4,0xfffff
    8000265c:	9af73423          	sd	a5,-1624(a4) # 80001000 <tohost>
    80002660:	a001                	j	80002660 <abort+0xc>

0000000080002662 <printstr>:
    80002662:	00054783          	lbu	a5,0(a0)
    80002666:	7159                	add	sp,sp,-112
    80002668:	03f10693          	add	a3,sp,63
    8000266c:	fc06f693          	and	a3,a3,-64
    80002670:	c3b9                	beqz	a5,800026b6 <printstr+0x54>
    80002672:	87aa                	mv	a5,a0
    80002674:	0017c703          	lbu	a4,1(a5)
    80002678:	0785                	add	a5,a5,1
    8000267a:	ff6d                	bnez	a4,80002674 <printstr+0x12>
    8000267c:	8f89                	sub	a5,a5,a0
    8000267e:	04000713          	li	a4,64
    80002682:	e298                	sd	a4,0(a3)
    80002684:	4705                	li	a4,1
    80002686:	e698                	sd	a4,8(a3)
    80002688:	ea88                	sd	a0,16(a3)
    8000268a:	ee9c                	sd	a5,24(a3)
    8000268c:	0ff0000f          	fence
    80002690:	fffff717          	auipc	a4,0xfffff
    80002694:	9b070713          	add	a4,a4,-1616 # 80001040 <fromhost>
    80002698:	fffff797          	auipc	a5,0xfffff
    8000269c:	96d7b423          	sd	a3,-1688(a5) # 80001000 <tohost>
    800026a0:	631c                	ld	a5,0(a4)
    800026a2:	dffd                	beqz	a5,800026a0 <printstr+0x3e>
    800026a4:	fffff797          	auipc	a5,0xfffff
    800026a8:	9807be23          	sd	zero,-1636(a5) # 80001040 <fromhost>
    800026ac:	0ff0000f          	fence
    800026b0:	629c                	ld	a5,0(a3)
    800026b2:	6165                	add	sp,sp,112
    800026b4:	8082                	ret
    800026b6:	4781                	li	a5,0
    800026b8:	b7d9                	j	8000267e <printstr+0x1c>

00000000800026ba <thread_entry>:
    800026ba:	e101                	bnez	a0,800026ba <thread_entry>
    800026bc:	8082                	ret

00000000800026be <printhex>:
    800026be:	7179                	add	sp,sp,-48
    800026c0:	87aa                	mv	a5,a0
    800026c2:	f406                	sd	ra,40(sp)
    800026c4:	0028                	add	a0,sp,8
    800026c6:	01710713          	add	a4,sp,23
    800026ca:	4825                	li	a6,9
    800026cc:	a011                	j	800026d0 <printhex+0x12>
    800026ce:	8736                	mv	a4,a3
    800026d0:	00f7f613          	and	a2,a5,15
    800026d4:	86b2                	mv	a3,a2
    800026d6:	05700593          	li	a1,87
    800026da:	00c86463          	bltu	a6,a2,800026e2 <printhex+0x24>
    800026de:	03000593          	li	a1,48
    800026e2:	9ead                	addw	a3,a3,a1
    800026e4:	00d70023          	sb	a3,0(a4)
    800026e8:	8391                	srl	a5,a5,0x4
    800026ea:	fff70693          	add	a3,a4,-1
    800026ee:	fee510e3          	bne	a0,a4,800026ce <printhex+0x10>
    800026f2:	00010c23          	sb	zero,24(sp)
    800026f6:	f6dff0ef          	jal	80002662 <printstr>
    800026fa:	70a2                	ld	ra,40(sp)
    800026fc:	6145                	add	sp,sp,48
    800026fe:	8082                	ret

0000000080002700 <printf>:
    80002700:	711d                	add	sp,sp,-96
    80002702:	02810313          	add	t1,sp,40
    80002706:	8e2a                	mv	t3,a0
    80002708:	f42e                	sd	a1,40(sp)
    8000270a:	f832                	sd	a2,48(sp)
    8000270c:	fc36                	sd	a3,56(sp)
    8000270e:	00000517          	auipc	a0,0x0
    80002712:	e6850513          	add	a0,a0,-408 # 80002576 <putchar>
    80002716:	869a                	mv	a3,t1
    80002718:	8672                	mv	a2,t3
    8000271a:	4581                	li	a1,0
    8000271c:	ec06                	sd	ra,24(sp)
    8000271e:	e0ba                	sd	a4,64(sp)
    80002720:	e4be                	sd	a5,72(sp)
    80002722:	e8c2                	sd	a6,80(sp)
    80002724:	ecc6                	sd	a7,88(sp)
    80002726:	e41a                	sd	t1,8(sp)
    80002728:	b69ff0ef          	jal	80002290 <vprintfmt>
    8000272c:	60e2                	ld	ra,24(sp)
    8000272e:	4501                	li	a0,0
    80002730:	6125                	add	sp,sp,96
    80002732:	8082                	ret

0000000080002734 <sprintf>:
    80002734:	711d                	add	sp,sp,-96
    80002736:	03010313          	add	t1,sp,48
    8000273a:	f022                	sd	s0,32(sp)
    8000273c:	e42a                	sd	a0,8(sp)
    8000273e:	f832                	sd	a2,48(sp)
    80002740:	fc36                	sd	a3,56(sp)
    80002742:	842a                	mv	s0,a0
    80002744:	862e                	mv	a2,a1
    80002746:	00000517          	auipc	a0,0x0
    8000274a:	e2250513          	add	a0,a0,-478 # 80002568 <sprintf_putch.0>
    8000274e:	002c                	add	a1,sp,8
    80002750:	869a                	mv	a3,t1
    80002752:	f406                	sd	ra,40(sp)
    80002754:	e4be                	sd	a5,72(sp)
    80002756:	e0ba                	sd	a4,64(sp)
    80002758:	e8c2                	sd	a6,80(sp)
    8000275a:	ecc6                	sd	a7,88(sp)
    8000275c:	ec1a                	sd	t1,24(sp)
    8000275e:	b33ff0ef          	jal	80002290 <vprintfmt>
    80002762:	67a2                	ld	a5,8(sp)
    80002764:	00078023          	sb	zero,0(a5)
    80002768:	6522                	ld	a0,8(sp)
    8000276a:	70a2                	ld	ra,40(sp)
    8000276c:	9d01                	subw	a0,a0,s0
    8000276e:	7402                	ld	s0,32(sp)
    80002770:	6125                	add	sp,sp,96
    80002772:	8082                	ret

0000000080002774 <memcpy>:
    80002774:	00b567b3          	or	a5,a0,a1
    80002778:	8fd1                	or	a5,a5,a2
    8000277a:	8b9d                	and	a5,a5,7
    8000277c:	00c50833          	add	a6,a0,a2
    80002780:	cf91                	beqz	a5,8000279c <memcpy+0x28>
    80002782:	962e                	add	a2,a2,a1
    80002784:	87aa                	mv	a5,a0
    80002786:	09057c63          	bgeu	a0,a6,8000281e <memcpy+0xaa>
    8000278a:	0005c703          	lbu	a4,0(a1)
    8000278e:	0585                	add	a1,a1,1
    80002790:	0785                	add	a5,a5,1
    80002792:	fee78fa3          	sb	a4,-1(a5)
    80002796:	fec59ae3          	bne	a1,a2,8000278a <memcpy+0x16>
    8000279a:	8082                	ret
    8000279c:	04050693          	add	a3,a0,64
    800027a0:	0906f063          	bgeu	a3,a6,80002820 <memcpy+0xac>
    800027a4:	87b6                	mv	a5,a3
    800027a6:	872e                	mv	a4,a1
    800027a8:	00073383          	ld	t2,0(a4)
    800027ac:	00873283          	ld	t0,8(a4)
    800027b0:	01073f83          	ld	t6,16(a4)
    800027b4:	01873f03          	ld	t5,24(a4)
    800027b8:	02073e83          	ld	t4,32(a4)
    800027bc:	02873e03          	ld	t3,40(a4)
    800027c0:	03073303          	ld	t1,48(a4)
    800027c4:	03873883          	ld	a7,56(a4)
    800027c8:	04078793          	add	a5,a5,64
    800027cc:	f877b023          	sd	t2,-128(a5)
    800027d0:	f857b423          	sd	t0,-120(a5)
    800027d4:	f9f7b823          	sd	t6,-112(a5)
    800027d8:	f9e7bc23          	sd	t5,-104(a5)
    800027dc:	fbd7b023          	sd	t4,-96(a5)
    800027e0:	fbc7b423          	sd	t3,-88(a5)
    800027e4:	fa67b823          	sd	t1,-80(a5)
    800027e8:	fb17bc23          	sd	a7,-72(a5)
    800027ec:	04070713          	add	a4,a4,64
    800027f0:	fb07ece3          	bltu	a5,a6,800027a8 <memcpy+0x34>
    800027f4:	fbf60613          	add	a2,a2,-65
    800027f8:	fc067793          	and	a5,a2,-64
    800027fc:	04078793          	add	a5,a5,64
    80002800:	fc067613          	and	a2,a2,-64
    80002804:	95be                	add	a1,a1,a5
    80002806:	00c687b3          	add	a5,a3,a2
    8000280a:	f907f8e3          	bgeu	a5,a6,8000279a <memcpy+0x26>
    8000280e:	6198                	ld	a4,0(a1)
    80002810:	07a1                	add	a5,a5,8
    80002812:	05a1                	add	a1,a1,8
    80002814:	fee7bc23          	sd	a4,-8(a5)
    80002818:	ff07ebe3          	bltu	a5,a6,8000280e <memcpy+0x9a>
    8000281c:	8082                	ret
    8000281e:	8082                	ret
    80002820:	87aa                	mv	a5,a0
    80002822:	b7e5                	j	8000280a <memcpy+0x96>

0000000080002824 <memset>:
    80002824:	00c567b3          	or	a5,a0,a2
    80002828:	8b9d                	and	a5,a5,7
    8000282a:	962a                	add	a2,a2,a0
    8000282c:	0ff5f713          	zext.b	a4,a1
    80002830:	cb91                	beqz	a5,80002844 <memset+0x20>
    80002832:	87aa                	mv	a5,a0
    80002834:	02c57763          	bgeu	a0,a2,80002862 <memset+0x3e>
    80002838:	0785                	add	a5,a5,1
    8000283a:	fee78fa3          	sb	a4,-1(a5)
    8000283e:	fec79de3          	bne	a5,a2,80002838 <memset+0x14>
    80002842:	8082                	ret
    80002844:	00004797          	auipc	a5,0x4
    80002848:	2447b783          	ld	a5,580(a5) # 80006a88 <input_data+0x2000>
    8000284c:	02f70733          	mul	a4,a4,a5
    80002850:	fec579e3          	bgeu	a0,a2,80002842 <memset+0x1e>
    80002854:	87aa                	mv	a5,a0
    80002856:	07a1                	add	a5,a5,8
    80002858:	fee7bc23          	sd	a4,-8(a5)
    8000285c:	fec7ede3          	bltu	a5,a2,80002856 <memset+0x32>
    80002860:	8082                	ret
    80002862:	8082                	ret

0000000080002864 <_init>:
    80002864:	7171                	add	sp,sp,-176
    80002866:	00006797          	auipc	a5,0x6
    8000286a:	3ea78793          	add	a5,a5,1002 # 80008c50 <_tdata_begin>
    8000286e:	e152                	sd	s4,128(sp)
    80002870:	00006a17          	auipc	s4,0x6
    80002874:	3e0a0a13          	add	s4,s4,992 # 80008c50 <_tdata_begin>
    80002878:	e54e                	sd	s3,136(sp)
    8000287a:	40fa09b3          	sub	s3,s4,a5
    8000287e:	ed26                	sd	s1,152(sp)
    80002880:	e94a                	sd	s2,144(sp)
    80002882:	84aa                	mv	s1,a0
    80002884:	892e                	mv	s2,a1
    80002886:	8512                	mv	a0,tp
    80002888:	85be                	mv	a1,a5
    8000288a:	864e                	mv	a2,s3
    8000288c:	f506                	sd	ra,168(sp)
    8000288e:	f122                	sd	s0,160(sp)
    80002890:	fcd6                	sd	s5,120(sp)
    80002892:	8a92                	mv	s5,tp
    80002894:	ee1ff0ef          	jal	80002774 <memcpy>
    80002898:	00006617          	auipc	a2,0x6
    8000289c:	42c60613          	add	a2,a2,1068 # 80008cc4 <_tbss_end>
    800028a0:	41460633          	sub	a2,a2,s4
    800028a4:	4581                	li	a1,0
    800028a6:	013a8533          	add	a0,s5,s3
    800028aa:	f7bff0ef          	jal	80002824 <memset>
    800028ae:	85ca                	mv	a1,s2
    800028b0:	8526                	mv	a0,s1
    800028b2:	e09ff0ef          	jal	800026ba <thread_entry>
    800028b6:	4581                	li	a1,0
    800028b8:	4501                	li	a0,0
    800028ba:	146000ef          	jal	80002a00 <main>
    800028be:	00006917          	auipc	s2,0x6
    800028c2:	37290913          	add	s2,s2,882 # 80008c30 <counters>
    800028c6:	00093683          	ld	a3,0(s2)
    800028ca:	03f10413          	add	s0,sp,63
    800028ce:	fc047413          	and	s0,s0,-64
    800028d2:	84aa                	mv	s1,a0
    800028d4:	ea85                	bnez	a3,80002904 <_init+0xa0>
    800028d6:	00893683          	ld	a3,8(s2)
    800028da:	e681                	bnez	a3,800028e2 <_init+0x7e>
    800028dc:	8526                	mv	a0,s1
    800028de:	d4dff0ef          	jal	8000262a <tohost_exit>
    800028e2:	89a2                	mv	s3,s0
    800028e4:	01893603          	ld	a2,24(s2)
    800028e8:	854e                	mv	a0,s3
    800028ea:	00004597          	auipc	a1,0x4
    800028ee:	1de58593          	add	a1,a1,478 # 80006ac8 <input_data+0x2040>
    800028f2:	e43ff0ef          	jal	80002734 <sprintf>
    800028f6:	99aa                	add	s3,s3,a0
    800028f8:	ff3402e3          	beq	s0,s3,800028dc <_init+0x78>
    800028fc:	8522                	mv	a0,s0
    800028fe:	d65ff0ef          	jal	80002662 <printstr>
    80002902:	bfe9                	j	800028dc <_init+0x78>
    80002904:	01093603          	ld	a2,16(s2)
    80002908:	00004597          	auipc	a1,0x4
    8000290c:	1c058593          	add	a1,a1,448 # 80006ac8 <input_data+0x2040>
    80002910:	8522                	mv	a0,s0
    80002912:	e23ff0ef          	jal	80002734 <sprintf>
    80002916:	00893683          	ld	a3,8(s2)
    8000291a:	00a409b3          	add	s3,s0,a0
    8000291e:	dee9                	beqz	a3,800028f8 <_init+0x94>
    80002920:	b7d1                	j	800028e4 <_init+0x80>

0000000080002922 <strlen>:
    80002922:	00054783          	lbu	a5,0(a0)
    80002926:	cb89                	beqz	a5,80002938 <strlen+0x16>
    80002928:	87aa                	mv	a5,a0
    8000292a:	0017c703          	lbu	a4,1(a5)
    8000292e:	0785                	add	a5,a5,1
    80002930:	ff6d                	bnez	a4,8000292a <strlen+0x8>
    80002932:	40a78533          	sub	a0,a5,a0
    80002936:	8082                	ret
    80002938:	4501                	li	a0,0
    8000293a:	8082                	ret

000000008000293c <strnlen>:
    8000293c:	00b506b3          	add	a3,a0,a1
    80002940:	87aa                	mv	a5,a0
    80002942:	e589                	bnez	a1,8000294c <strnlen+0x10>
    80002944:	a829                	j	8000295e <strnlen+0x22>
    80002946:	0785                	add	a5,a5,1
    80002948:	00f68863          	beq	a3,a5,80002958 <strnlen+0x1c>
    8000294c:	0007c703          	lbu	a4,0(a5)
    80002950:	fb7d                	bnez	a4,80002946 <strnlen+0xa>
    80002952:	40a78533          	sub	a0,a5,a0
    80002956:	8082                	ret
    80002958:	40a68533          	sub	a0,a3,a0
    8000295c:	8082                	ret
    8000295e:	4501                	li	a0,0
    80002960:	8082                	ret

0000000080002962 <strcmp>:
    80002962:	00054783          	lbu	a5,0(a0)
    80002966:	0585                	add	a1,a1,1
    80002968:	0505                	add	a0,a0,1
    8000296a:	fff5c703          	lbu	a4,-1(a1)
    8000296e:	c799                	beqz	a5,8000297c <strcmp+0x1a>
    80002970:	fee789e3          	beq	a5,a4,80002962 <strcmp>
    80002974:	0007851b          	sext.w	a0,a5
    80002978:	9d19                	subw	a0,a0,a4
    8000297a:	8082                	ret
    8000297c:	4501                	li	a0,0
    8000297e:	bfed                	j	80002978 <strcmp+0x16>

0000000080002980 <strcpy>:
    80002980:	87aa                	mv	a5,a0
    80002982:	0005c703          	lbu	a4,0(a1)
    80002986:	0785                	add	a5,a5,1
    80002988:	0585                	add	a1,a1,1
    8000298a:	fee78fa3          	sb	a4,-1(a5)
    8000298e:	fb75                	bnez	a4,80002982 <strcpy+0x2>
    80002990:	8082                	ret

0000000080002992 <atol>:
    80002992:	00054703          	lbu	a4,0(a0)
    80002996:	02000693          	li	a3,32
    8000299a:	87aa                	mv	a5,a0
    8000299c:	00d71763          	bne	a4,a3,800029aa <atol+0x18>
    800029a0:	0017c703          	lbu	a4,1(a5)
    800029a4:	0785                	add	a5,a5,1
    800029a6:	fed70de3          	beq	a4,a3,800029a0 <atol+0xe>
    800029aa:	02d00693          	li	a3,45
    800029ae:	04d70263          	beq	a4,a3,800029f2 <atol+0x60>
    800029b2:	02b00693          	li	a3,43
    800029b6:	02d70763          	beq	a4,a3,800029e4 <atol+0x52>
    800029ba:	0007c683          	lbu	a3,0(a5)
    800029be:	4581                	li	a1,0
    800029c0:	c69d                	beqz	a3,800029ee <atol+0x5c>
    800029c2:	4501                	li	a0,0
    800029c4:	0785                	add	a5,a5,1
    800029c6:	00251713          	sll	a4,a0,0x2
    800029ca:	fd06861b          	addw	a2,a3,-48
    800029ce:	0007c683          	lbu	a3,0(a5)
    800029d2:	972a                	add	a4,a4,a0
    800029d4:	0706                	sll	a4,a4,0x1
    800029d6:	00e60533          	add	a0,a2,a4
    800029da:	f6ed                	bnez	a3,800029c4 <atol+0x32>
    800029dc:	c991                	beqz	a1,800029f0 <atol+0x5e>
    800029de:	40a00533          	neg	a0,a0
    800029e2:	8082                	ret
    800029e4:	0017c683          	lbu	a3,1(a5)
    800029e8:	4581                	li	a1,0
    800029ea:	0785                	add	a5,a5,1
    800029ec:	faf9                	bnez	a3,800029c2 <atol+0x30>
    800029ee:	4501                	li	a0,0
    800029f0:	8082                	ret
    800029f2:	0017c683          	lbu	a3,1(a5)
    800029f6:	4585                	li	a1,1
    800029f8:	0785                	add	a5,a5,1
    800029fa:	f6e1                	bnez	a3,800029c2 <atol+0x30>
    800029fc:	4501                	li	a0,0
    800029fe:	bfcd                	j	800029f0 <atol+0x5e>

Disassembly of section .text.startup:

0000000080002a00 <main>:
    80002a00:	1141                	add	sp,sp,-16
    80002a02:	e022                	sd	s0,0(sp)
    80002a04:	6405                	lui	s0,0x1
    80002a06:	80040513          	add	a0,s0,-2048 # 800 <buflen.1+0x7c0>
    80002a0a:	00004617          	auipc	a2,0x4
    80002a0e:	22660613          	add	a2,a2,550 # 80006c30 <scratch.0>
    80002a12:	00000597          	auipc	a1,0x0
    80002a16:	07658593          	add	a1,a1,118 # 80002a88 <verify_data>
    80002a1a:	e406                	sd	ra,8(sp)
    80002a1c:	e24ff0ef          	jal	80002040 <sort>
    80002a20:	00002517          	auipc	a0,0x2
    80002a24:	06850513          	add	a0,a0,104 # 80004a88 <input_data>
    80002a28:	dd8ff0ef          	jal	80002000 <verify.constprop.0>
    80002a2c:	c511                	beqz	a0,80002a38 <main+0x38>
    80002a2e:	60a2                	ld	ra,8(sp)
    80002a30:	6402                	ld	s0,0(sp)
    80002a32:	4505                	li	a0,1
    80002a34:	0141                	add	sp,sp,16
    80002a36:	8082                	ret
    80002a38:	4505                	li	a0,1
    80002a3a:	bb3ff0ef          	jal	800025ec <setStats>
    80002a3e:	80040513          	add	a0,s0,-2048
    80002a42:	00004617          	auipc	a2,0x4
    80002a46:	1ee60613          	add	a2,a2,494 # 80006c30 <scratch.0>
    80002a4a:	00002597          	auipc	a1,0x2
    80002a4e:	03e58593          	add	a1,a1,62 # 80004a88 <input_data>
    80002a52:	deeff0ef          	jal	80002040 <sort>
    80002a56:	4501                	li	a0,0
    80002a58:	b95ff0ef          	jal	800025ec <setStats>
    80002a5c:	6402                	ld	s0,0(sp)
    80002a5e:	60a2                	ld	ra,8(sp)
    80002a60:	00000517          	auipc	a0,0x0
    80002a64:	02850513          	add	a0,a0,40 # 80002a88 <verify_data>
    80002a68:	0141                	add	sp,sp,16
    80002a6a:	d96ff06f          	j	80002000 <verify.constprop.0>
    80002a6e:	1141                	add	sp,sp,-16
    80002a70:	00004517          	auipc	a0,0x4
    80002a74:	04050513          	add	a0,a0,64 # 80006ab0 <input_data+0x2028>
    80002a78:	e406                	sd	ra,8(sp)
    80002a7a:	be9ff0ef          	jal	80002662 <printstr>
    80002a7e:	60a2                	ld	ra,8(sp)
    80002a80:	557d                	li	a0,-1
    80002a82:	0141                	add	sp,sp,16
    80002a84:	8082                	ret

Disassembly of section .data:

0000000080002a88 <verify_data>:
    80002a88:	000a8b27          	vse8.v	v22,(s5),v0.t
    80002a8c:	bef4                	fsd	fa3,248(a3)
    80002a8e:	000d                	c.nop	3
    80002a90:	83c4                	.2byte	0x83c4
    80002a92:	0021                	c.nop	8
    80002a94:	9b62                	add	s6,s6,s8
    80002a96:	0026                	c.slli	zero,0x9
    80002a98:	0030356f          	jal	a0,8000629a <input_data+0x1812>
    80002a9c:	be92                	fsd	ft4,376(sp)
    80002a9e:	0035                	c.nop	13
    80002aa0:	0039e5ef          	jal	a1,800a12a2 <_tbss_end+0x985de>
    80002aa4:	82bc                	.2byte	0x82bc
    80002aa6:	003d                	c.nop	15
    80002aa8:	02d6                	sll	t0,t0,0x15
    80002aaa:	0051                	c.nop	20
    80002aac:	d704                	sw	s1,40(a4)
    80002aae:	0051                	c.nop	20
    80002ab0:	00949033          	sll	zero,s1,s1
    80002ab4:	1df9                	add	s11,s11,-2
    80002ab6:	779600af          	.4byte	0x779600af
    80002aba:	00c2                	sll	ra,ra,0x10
    80002abc:	1040                	add	s0,sp,36
    80002abe:	00c4                	add	s1,sp,68
    80002ac0:	00c56a53          	fadd.s	fs4,fa0,fa2,unknown
    80002ac4:	1f1d                	add	t5,t5,-25
    80002ac6:	00c9                	add	ra,ra,18
    80002ac8:	00d3e7bb          	.4byte	0xd3e7bb
    80002acc:	8b4c                	.2byte	0x8b4c
    80002ace:	459500d7          	vmadc.vvm	v1,v25,v10,v0
    80002ad2:	00d9                	add	ra,ra,22
    80002ad4:	6bd8                	ld	a4,144(a5)
    80002ad6:	00fa                	sll	ra,ra,0x1e
    80002ad8:	0125630f          	.4byte	0x125630f
    80002adc:	ffb9                	bnez	a5,80002a3a <main+0x3a>
    80002ade:	013a                	sll	sp,sp,0xe
    80002ae0:	d932                	sw	a2,176(sp)
    80002ae2:	0144                	add	s1,sp,132
    80002ae4:	c7f5                	beqz	a5,80002bd0 <verify_data+0x148>
    80002ae6:	0151                	add	sp,sp,20
    80002ae8:	54ee                	lw	s1,248(sp)
    80002aea:	5b5b015b          	.4byte	0x5b5b015b
    80002aee:	00ad0163          	beq	s10,a0,80002af0 <verify_data+0x68>
    80002af2:	0174                	add	a3,sp,140
    80002af4:	fa95                	bnez	a3,80002a28 <main+0x28>
    80002af6:	018a                	sll	gp,gp,0x2
    80002af8:	30b0                	fld	fa2,96(s1)
    80002afa:	0191                	add	gp,gp,4 # 8000728c <__global_pointer$+0x4>
    80002afc:	019736cb          	fnmsub.s	fa3,fa4,fs9,ft0,rup
    80002b00:	befe                	fsd	ft11,376(sp)
    80002b02:	01a1                	add	gp,gp,8 # 80007290 <__global_pointer$+0x8>
    80002b04:	9418                	.2byte	0x9418
    80002b06:	01a4                	add	s1,sp,200
    80002b08:	2a85                	addw	s5,s5,1
    80002b0a:	532401af          	.4byte	0x532401af
    80002b0e:	e9c701b7          	lui	gp,0xe9c70
    80002b12:	01d8                	add	a4,sp,196
    80002b14:	01db5cd7          	vfadd.vf	v25,v29,fs6,v0.t
    80002b18:	c8a5                	beqz	s1,80002b88 <verify_data+0x100>
    80002b1a:	01e1                	add	gp,gp,24 # ffffffffe9c70018 <_tbss_end+0xffffffff69c67354>
    80002b1c:	2134                	fld	fa3,64(a0)
    80002b1e:	01e2                	sll	gp,gp,0x18
    80002b20:	2442                	fld	fs0,16(sp)
    80002b22:	021f 2b34 0223      	.byte	0x1f, 0x02, 0x34, 0x2b, 0x23, 0x02
    80002b28:	d6fc                	sw	a5,108(a3)
    80002b2a:	0234                	add	a3,sp,264
    80002b2c:	bdad                	j	800029a6 <atol+0x14>
    80002b2e:	0236                	sll	tp,tp,0xd
    80002b30:	4c36                	lw	s8,76(sp)
    80002b32:	024d                	add	tp,tp,19 # 13 <buf.2+0x13>
    80002b34:	8266                	mv	tp,s9
    80002b36:	027c                	add	a5,sp,268
    80002b38:	31ca                	fld	ft3,176(sp)
    80002b3a:	0281                	add	t0,t0,0
    80002b3c:	b6de                	fsd	fs7,360(sp)
    80002b3e:	029e                	sll	t0,t0,0x7
    80002b40:	b6a6                	fsd	fs1,360(sp)
    80002b42:	02cd                	add	t0,t0,19
    80002b44:	127d                	add	tp,tp,-1 # ffffffffffffffff <_tbss_end+0xffffffff7fff733b>
    80002b46:	02d4                	add	a3,sp,324
    80002b48:	3e02                	fld	ft8,32(sp)
    80002b4a:	02d4                	add	a3,sp,324
    80002b4c:	02e12ea7          	fsw	fa4,61(sp)
    80002b50:	4258                	lw	a4,4(a2)
    80002b52:	02e8                	add	a0,sp,332
    80002b54:	03065ce3          	bge	a2,a6,8000338c <verify_data+0x904>
    80002b58:	b802                	fsd	ft0,48(sp)
    80002b5a:	0309                	add	t1,t1,2
    80002b5c:	c325                	beqz	a4,80002bbc <verify_data+0x134>
    80002b5e:	0314                	add	a3,sp,384
    80002b60:	f686                	sd	ra,360(sp)
    80002b62:	0335                	add	t1,t1,13
    80002b64:	472e                	lw	a4,200(sp)
    80002b66:	034e                	sll	t1,t1,0x13
    80002b68:	705c                	ld	a5,160(s0)
    80002b6a:	55e00377          	.4byte	0x55e00377
    80002b6e:	0378                	add	a4,sp,396
    80002b70:	2382                	fld	ft7,0(sp)
    80002b72:	038a                	sll	t2,t2,0x2
    80002b74:	b6cd                	j	80002756 <sprintf+0x22>
    80002b76:	b922039b          	addw	t2,tp,-1134 # fffffffffffffb92 <_tbss_end+0xffffffff7fff6ece>
    80002b7a:	03ad                	add	t2,t2,11
    80002b7c:	3e1f 03b5 08ea      	.byte	0x1f, 0x3e, 0xb5, 0x03, 0xea, 0x08
    80002b82:	03c5                	add	t2,t2,17
    80002b84:	b410                	fsd	fa2,40(s0)
    80002b86:	03dc                	add	a5,sp,452
    80002b88:	ea69                	bnez	a2,80002c5a <verify_data+0x1d2>
    80002b8a:	a10703f7          	.4byte	0xa10703f7
    80002b8e:	040e                	sll	s0,s0,0x3
    80002b90:	aaf4                	fsd	fa3,208(a3)
    80002b92:	041e                	sll	s0,s0,0x7
    80002b94:	6f58                	ld	a4,152(a4)
    80002b96:	042a                	sll	s0,s0,0xa
    80002b98:	042c2c93          	slti	s9,s8,66
    80002b9c:	c4c2                	sw	a6,72(sp)
    80002b9e:	0439                	add	s0,s0,14
    80002ba0:	82a8                	.2byte	0x82a8
    80002ba2:	e231044f          	fnmadd.d	fs0,ft2,ft3,ft8,rne
    80002ba6:	0456                	sll	s0,s0,0x15
    80002ba8:	f6c6                	sd	a7,360(sp)
    80002baa:	0458                	add	a4,sp,516
    80002bac:	b2da                	fsd	fs6,352(sp)
    80002bae:	0476                	sll	s0,s0,0x1d
    80002bb0:	7e24                	ld	s1,120(a2)
    80002bb2:	0486                	sll	s1,s1,0x1
    80002bb4:	86b6                	mv	a3,a3
    80002bb6:	0498                	add	a4,sp,576
    80002bb8:	49b6                	lw	s3,76(sp)
    80002bba:	049e                	sll	s1,s1,0x7
    80002bbc:	80f2                	mv	ra,t3
    80002bbe:	9c1c04ab          	.4byte	0x9c1c04ab
    80002bc2:	04c9                	add	s1,s1,18
    80002bc4:	deea                	sw	s10,124(sp)
    80002bc6:	04ca                	sll	s1,s1,0x12
    80002bc8:	04d2734b          	.4byte	0x4d2734b
    80002bcc:	04da198b          	.4byte	0x4da198b
    80002bd0:	a428                	fsd	fa0,72(s0)
    80002bd2:	04f0                	add	a2,sp,588
    80002bd4:	d981                	beqz	a1,80002ae4 <verify_data+0x5c>
    80002bd6:	3571050f          	.4byte	0x3571050f
    80002bda:	053d                	add	a0,a0,15
    80002bdc:	5552                	lw	a0,52(sp)
    80002bde:	24a4054b          	.4byte	0x24a4054b
    80002be2:	0554                	add	a3,sp,644
    80002be4:	415f 055e 41a4      	.byte	0x5f, 0x41, 0x5e, 0x05, 0xa4, 0x41
    80002bea:	f25c056f          	jal	a0,7ffc3b0e <buflen.1+0x7ffc3ace>
    80002bee:	057f 45bf 0585 efda 	.byte	0x7f, 0x05, 0xbf, 0x45, 0x85, 0x05, 0xda, 0xef, 0x88, 0x05
    80002bf6:	0588 
    80002bf8:	058dfb67          	.4byte	0x58dfb67
    80002bfc:	05a5ef07          	vluxei32.v	v30,(a1),v26,v0.t
    80002c00:	1220                	add	s0,sp,296
    80002c02:	05b5                	add	a1,a1,13
    80002c04:	6e11                	lui	t3,0x4
    80002c06:	05ee                	sll	a1,a1,0x1b
    80002c08:	a4ed                	j	80002ef2 <verify_data+0x46a>
    80002c0a:	063c                	add	a5,sp,776
    80002c0c:	0340                	add	s0,sp,388
    80002c0e:	063e                	sll	a2,a2,0xf
    80002c10:	091f 0648 d5d4      	.byte	0x1f, 0x09, 0x48, 0x06, 0xd4, 0xd5
    80002c16:	0654                	add	a3,sp,772
    80002c18:	065a84b7          	lui	s1,0x65a8
    80002c1c:	06622783          	lw	a5,102(tp) # 66 <buflen.1+0x26>
    80002c20:	2422                	fld	fs0,8(sp)
    80002c22:	47c40663          	beq	s0,t3,8000308e <verify_data+0x606>
    80002c26:	0670                	add	a2,sp,780
    80002c28:	3ad6                	fld	fs5,368(sp)
    80002c2a:	0675                	add	a2,a2,29
    80002c2c:	417f 0676 895f 0679 	.byte	0x7f, 0x41, 0x76, 0x06, 0x5f, 0x89, 0x79, 0x06, 0x00, 0xc1, 0x7f, 0x06, 0xe4, 0x3e, 0x87, 0x06, 0x48, 0x86
    80002c34:	c100 067f 3ee4 0687 
    80002c3c:	8648 
    80002c3e:	06ad                	add	a3,a3,11
    80002c40:	e19d                	bnez	a1,80002c66 <verify_data+0x1de>
    80002c42:	06b6                	sll	a3,a3,0xd
    80002c44:	06c34b8b          	.4byte	0x6c34b8b
    80002c48:	1870                	add	a2,sp,60
    80002c4a:	06c5                	add	a3,a3,17
    80002c4c:	9628                	.2byte	0x9628
    80002c4e:	06ce                	sll	a3,a3,0x13
    80002c50:	02e2                	sll	t0,t0,0x18
    80002c52:	b7c306db          	.4byte	0xb7c306db
    80002c56:	06f5                	add	a3,a3,29
    80002c58:	3fc0                	fld	fs0,184(a5)
    80002c5a:	06fd                	add	a3,a3,31
    80002c5c:	8f21                	xor	a4,a4,s0
    80002c5e:	06fd                	add	a3,a3,31
    80002c60:	f79f 0704 25d6      	.byte	0x9f, 0xf7, 0x04, 0x07, 0xd6, 0x25
    80002c66:	071c                	add	a5,sp,896
    80002c68:	d1ee                	sw	s11,224(sp)
    80002c6a:	0721                	add	a4,a4,8
    80002c6c:	07477a3f 075a3493 	.8byte	0x75a349307477a3f
    80002c74:	076267bf 079f193f 	.8byte	0x79f193f076267bf
    80002c7c:	afe9                	j	80003456 <verify_data+0x9ce>
    80002c7e:	07a1                	add	a5,a5,8
    80002c80:	a8fc                	fsd	fa5,208(s1)
    80002c82:	154507bf 7b3807d5 	.8byte	0x7b3807d5154507bf
    80002c8a:	07f9                	add	a5,a5,30
    80002c8c:	08039873          	csrrw	a6,0x80,t2
    80002c90:	2215                	addw	tp,tp,5 # 5 <buf.2+0x5>
    80002c92:	080c                	add	a1,sp,16
    80002c94:	49ca                	lw	s3,144(sp)
    80002c96:	0816                	sll	a6,a6,0x5
    80002c98:	082b2a17          	auipc	s4,0x82b2
    80002c9c:	9b68                	.2byte	0x9b68
    80002c9e:	0836                	sll	a6,a6,0xd
    80002ca0:	8469                	sra	s0,s0,0x1a
    80002ca2:	0850                	add	a2,sp,20
    80002ca4:	08606c9b          	.4byte	0x8606c9b
    80002ca8:	da71                	beqz	a2,80002c7c <verify_data+0x1f4>
    80002caa:	08ad                	add	a7,a7,11
    80002cac:	08b3d3db          	.4byte	0x8b3d3db
    80002cb0:	09fd                	add	s3,s3,31
    80002cb2:	08d4                	add	a3,sp,84
    80002cb4:	08da5b6b          	.4byte	0x8da5b6b
    80002cb8:	2c11                	addw	s8,s8,4
    80002cba:	08e4                	add	s1,sp,92
    80002cbc:	08fe3757          	.4byte	0x8fe3757
    80002cc0:	6d30                	ld	a2,88(a0)
    80002cc2:	0906                	sll	s2,s2,0x1
    80002cc4:	8185                	srl	a1,a1,0x1
    80002cc6:	03e50913          	add	s2,a0,62
    80002cca:	094a                	sll	s2,s2,0x12
    80002ccc:	f9c1                	bnez	a1,80002c5c <verify_data+0x1d4>
    80002cce:	f94f0953          	.4byte	0xf94f0953
    80002cd2:	89600957          	vssubu.vv	v18,v22,v0,v0.t
    80002cd6:	099f 54b6 09a0      	.byte	0x9f, 0x09, 0xb6, 0x54, 0xa0, 0x09
    80002cdc:	b5b6                	fsd	fa3,232(sp)
    80002cde:	09bc                	add	a5,sp,216
    80002ce0:	09fe3077          	.4byte	0x9fe3077
    80002ce4:	4130                	lw	a2,64(a0)
    80002ce6:	379b0a0f          	.4byte	0x379b0a0f
    80002cea:	d3450a17          	auipc	s4,0xd3450
    80002cee:	0a1d                	add	s4,s4,7 # 53452cf1 <buflen.1+0x53452cb1>
    80002cf0:	4a15                	li	s4,5
    80002cf2:	0a26                	sll	s4,s4,0x9
    80002cf4:	2f1a                	fld	ft10,384(sp)
    80002cf6:	0a42                	sll	s4,s4,0x10
    80002cf8:	0a50ba03          	ld	s4,165(ra)
    80002cfc:	53d9                	li	t2,-10
    80002cfe:	0a5c                	add	a5,sp,276
    80002d00:	48d2                	lw	a7,20(sp)
    80002d02:	0a60                	add	s0,sp,284
    80002d04:	0a6dc44f          	fnmadd.d	fs0,fs11,ft6,ft1,rmm
    80002d08:	c97f 0a79 2930 0a7b 	.byte	0x7f, 0xc9, 0x79, 0x0a, 0x30, 0x29, 0x7b, 0x0a, 0x25, 0xea, 0x7d, 0x0a, 0x74, 0x58, 0x8e, 0x0a, 0x99, 0xd0
    80002d10:	ea25 0a7d 5874 0a8e 
    80002d18:	d099 
    80002d1a:	0aa9                	add	s5,s5,10
    80002d1c:	f591                	bnez	a1,80002c28 <verify_data+0x1a0>
    80002d1e:	0ac2                	sll	s5,s5,0x10
    80002d20:	0ac3bca3          	sd	a2,185(t2)
    80002d24:	8142                	mv	sp,a6
    80002d26:	0ad2                	sll	s5,s5,0x14
    80002d28:	3aae                	fld	fs5,232(sp)
    80002d2a:	0ae2                	sll	s5,s5,0x18
    80002d2c:	ba5a                	fsd	fs6,304(sp)
    80002d2e:	0af2                	sll	s5,s5,0x1c
    80002d30:	0b0fe933          	.4byte	0xb0fe933
    80002d34:	eae8                	sd	a0,208(a3)
    80002d36:	0b10                	add	a2,sp,400
    80002d38:	d360                	sw	s0,100(a4)
    80002d3a:	0b15                	add	s6,s6,5
    80002d3c:	dbe0                	sw	s0,116(a5)
    80002d3e:	dcd00b17          	auipc	s6,0xdcd00
    80002d42:	0b18                	add	a4,sp,400
    80002d44:	e892                	sd	tp,80(sp)
    80002d46:	0b34                	add	a3,sp,408
    80002d48:	0b5676e3          	bgeu	a2,s5,800035f4 <verify_data+0xb6c>
    80002d4c:	5a9a                	lw	s5,164(sp)
    80002d4e:	7c260b5b          	.4byte	0x7c260b5b
    80002d52:	0b5f 4814 0b8e      	.byte	0x5f, 0x0b, 0x14, 0x48, 0x8e, 0x0b
    80002d58:	3f66                	fld	ft10,120(sp)
    80002d5a:	0ba5                	add	s7,s7,9
    80002d5c:	db0a                	sw	sp,180(sp)
    80002d5e:	0bb4                	add	a3,sp,472
    80002d60:	b420                	fsd	fs0,104(s0)
    80002d62:	0bcc                	add	a1,sp,468
    80002d64:	16b9                	add	a3,a3,-18
    80002d66:	0bd0                	add	a2,sp,468
    80002d68:	cd60                	sw	s0,92(a0)
    80002d6a:	0bd0                	add	a2,sp,468
    80002d6c:	0919                	add	s2,s2,6
    80002d6e:	0bed                	add	s7,s7,27
    80002d70:	9f16                	add	t5,t5,t0
    80002d72:	f2ea0bef          	jal	s7,7ffa34a0 <buflen.1+0x7ffa3460>
    80002d76:	0c11                	add	s8,s8,4
    80002d78:	0c30a657          	vredxor.vs	v12,v3,v1,v0.t
    80002d7c:	2cec                	fld	fa1,216(s1)
    80002d7e:	0c38                	add	a4,sp,536
    80002d80:	0c514963          	blt	sp,t0,80002e52 <verify_data+0x3ca>
    80002d84:	45e2                	lw	a1,24(sp)
    80002d86:	0c68                	add	a0,sp,540
    80002d88:	6fc0                	ld	s0,152(a5)
    80002d8a:	0c6c                	add	a1,sp,540
    80002d8c:	d928                	sw	a0,112(a0)
    80002d8e:	0c85                	add	s9,s9,1
    80002d90:	c4ff 0c8f 366e 0c92 	.byte	0xff, 0xc4, 0x8f, 0x0c, 0x6e, 0x36, 0x92, 0x0c, 0xc0, 0x90, 0xa3, 0x0c, 0x91, 0x65, 0xaf, 0x0c, 0x09, 0x75
    80002d98:	90c0 0ca3 6591 0caf 
    80002da0:	7509 
    80002da2:	0ccc                	add	a1,sp,596
    80002da4:	ea80                	sd	s0,16(a3)
    80002da6:	0cd0                	add	a2,sp,596
    80002da8:	8aa1                	and	a3,a3,8
    80002daa:	0ce6                	sll	s9,s9,0x19
    80002dac:	68ec                	ld	a1,208(s1)
    80002dae:	0ce8                	add	a0,sp,604
    80002db0:	cc9f 0cfa a7e9      	.byte	0x9f, 0xcc, 0xfa, 0x0c, 0xe9, 0xa7
    80002db6:	0d08                	add	a0,sp,656
    80002db8:	3b0a                	fld	fs6,160(sp)
    80002dba:	0d31                	add	s10,s10,12
    80002dbc:	0d36494b          	.4byte	0xd36494b
    80002dc0:	88d1                	and	s1,s1,20
    80002dc2:	9e8b0d43          	vmsge.vx	v26,v8,s6
    80002dc6:	0d6a                	sll	s10,s10,0x1a
    80002dc8:	18cd                	add	a7,a7,-13
    80002dca:	7e030d77          	.4byte	0x7e030d77
    80002dce:	85140d77          	.4byte	0x85140d77
    80002dd2:	90d40d83          	lb	s11,-1779(s0)
    80002dd6:	507c0d83          	lb	s11,1287(s8)
    80002dda:	0d86                	sll	s11,s11,0x1
    80002ddc:	0d8789af          	.4byte	0xd8789af
    80002de0:	0d8e43d3          	.4byte	0xd8e43d3
    80002de4:	05ac                	add	a1,sp,712
    80002de6:	0d95                	add	s11,s11,5
    80002de8:	a911                	j	800031fc <verify_data+0x774>
    80002dea:	0da5                	add	s11,s11,9
    80002dec:	1500                	add	s0,sp,672
    80002dee:	0db4                	add	a3,sp,728
    80002df0:	b6ca                	fsd	fs2,360(sp)
    80002df2:	0dba                	sll	s11,s11,0xe
    80002df4:	323a                	fld	ft4,424(sp)
    80002df6:	8d110dbf a4550dc7 	.8byte	0xa4550dc78d110dbf
    80002dfe:	0dd6                	sll	s11,s11,0x15
    80002e00:	27b1                	addw	a5,a5,12
    80002e02:	124f0df3          	.4byte	0x124f0df3
    80002e06:	0e1e                	sll	t3,t3,0x7
    80002e08:	0e20a51b          	.4byte	0xe20a51b
    80002e0c:	d8e0                	sw	s0,116(s1)
    80002e0e:	3b240e33          	.4byte	0x3b240e33
    80002e12:	0e38                	add	a4,sp,792
    80002e14:	f698                	sd	a4,40(a3)
    80002e16:	0e4d                	add	t3,t3,19 # 4013 <buflen.1+0x3fd3>
    80002e18:	0e578ce3          	beq	a5,t0,80003710 <verify_data+0xc88>
    80002e1c:	b631                	j	80002928 <strlen+0x6>
    80002e1e:	0e64                	add	s1,sp,796
    80002e20:	938a                	add	t2,t2,sp
    80002e22:	0e65                	add	t3,t3,25
    80002e24:	3a1d                	addw	s4,s4,-25
    80002e26:	0e68                	add	a0,sp,796
    80002e28:	f848                	sd	a0,176(s0)
    80002e2a:	0e95                	add	t4,t4,5
    80002e2c:	06c9                	add	a3,a3,18
    80002e2e:	0e9a                	sll	t4,t4,0x6
    80002e30:	83b2                	mv	t2,a2
    80002e32:	0e9f a14b 0ebc      	.byte	0x9f, 0x0e, 0x4b, 0xa1, 0xbc, 0x0e
    80002e38:	be14                	fsd	fa3,56(a2)
    80002e3a:	c3680ebf 1ec70ebf 	.8byte	0x1ec70ebfc3680ebf
    80002e42:	0ee2                	sll	t4,t4,0x18
    80002e44:	0ee70b53          	.4byte	0xee70b53
    80002e48:	ab91                	j	8000339c <verify_data+0x914>
    80002e4a:	0ee8                	add	a0,sp,860
    80002e4c:	db66                	sw	s9,180(sp)
    80002e4e:	0ef1                	add	t4,t4,28
    80002e50:	cfda                	sw	s6,220(sp)
    80002e52:	cd000ef3          	.4byte	0xcd000ef3
    80002e56:	0efd                	add	t4,t4,31
    80002e58:	2f3e                	fld	ft10,456(sp)
    80002e5a:	0f22                	sll	t5,t5,0x8
    80002e5c:	73da                	ld	t2,432(sp)
    80002e5e:	0f36                	sll	t5,t5,0xd
    80002e60:	760e                	ld	a2,224(sp)
    80002e62:	0f45                	add	t5,t5,17
    80002e64:	61f6                	ld	gp,344(sp)
    80002e66:	9eb70f4f          	.4byte	0x9eb70f4f
    80002e6a:	0f5c                	add	a5,sp,916
    80002e6c:	0f637b73          	csrrc	s6,0xf6,6
    80002e70:	c1b1                	beqz	a1,80002eb4 <verify_data+0x42c>
    80002e72:	dcbd0f7b          	.4byte	0xdcbd0f7b
    80002e76:	5fc40f7b          	.4byte	0x5fc40f7b
    80002e7a:	82b70f83          	lb	t6,-2005(a4)
    80002e7e:	0f89                	add	t6,t6,2
    80002e80:	9338                	.2byte	0x9338
    80002e82:	0f89                	add	t6,t6,2
    80002e84:	0f8b5fbf 0f97096e 	.8byte	0xf97096e0f8b5fbf
    80002e8c:	1efe                	sll	t4,t4,0x3f
    80002e8e:	0fd1                	add	t6,t6,20
    80002e90:	c2dc                	sw	a5,4(a3)
    80002e92:	0fec                	add	a1,sp,988
    80002e94:	b0dc                	fsd	fa5,160(s1)
    80002e96:	0ffa                	sll	t6,t6,0x1e
    80002e98:	2d4e                	fld	fs10,208(sp)
    80002e9a:	233d100b          	.4byte	0x233d100b
    80002e9e:	101e                	c.slli	zero,0x27
    80002ea0:	10244d23          	vmsge.vx	v26,v2,s0,v0.t
    80002ea4:	f81f 1034 4c25      	.byte	0x1f, 0xf8, 0x34, 0x10, 0x25, 0x4c
    80002eaa:	1060                	add	s0,sp,44
    80002eac:	45f5                	li	a1,29
    80002eae:	108a                	sll	ra,ra,0x22
    80002eb0:	0f29                	add	t5,t5,10
    80002eb2:	1091                	add	ra,ra,-28
    80002eb4:	0db2                	sll	s11,s11,0xc
    80002eb6:	10a5                	add	ra,ra,-23
    80002eb8:	8f9a                	mv	t6,t1
    80002eba:	10c4                	add	s1,sp,100
    80002ebc:	10e4ceaf          	.4byte	0x10e4ceaf
    80002ec0:	8979                	and	a0,a0,30
    80002ec2:	dde610f7          	.4byte	0xdde610f7
    80002ec6:	1122                	sll	sp,sp,0x28
    80002ec8:	112b5d0f          	.4byte	0x112b5d0f
    80002ecc:	43c8                	lw	a0,4(a5)
    80002ece:	1144                	add	s1,sp,164
    80002ed0:	dc36                	sw	a3,56(sp)
    80002ed2:	115c                	add	a5,sp,164
    80002ed4:	7eec                	ld	a1,248(a3)
    80002ed6:	1178                	add	a4,sp,172
    80002ed8:	0002                	c.slli64	zero
    80002eda:	1189                	add	gp,gp,-30 # 8000726a <scratch.0+0x63a>
    80002edc:	119f8227          	.4byte	0x119f8227
    80002ee0:	4fc8                	lw	a0,28(a5)
    80002ee2:	182611cf          	fnmadd.s	ft3,fa2,ft2,ft3,rtz
    80002ee6:	11da                	sll	gp,gp,0x36
    80002ee8:	8de8                	.2byte	0x8de8
    80002eea:	11e4                	add	s1,sp,236
    80002eec:	12e0                	add	s0,sp,364
    80002eee:	3fa611eb          	.4byte	0x3fa611eb
    80002ef2:	11f6                	sll	gp,gp,0x3d
    80002ef4:	04bd                	add	s1,s1,15 # 65a800f <buflen.1+0x65a7fcf>
    80002ef6:	2b6111fb          	.4byte	0x2b6111fb
    80002efa:	824211fb          	.4byte	0x824211fb
    80002efe:	51f61203          	lh	tp,1311(a2)
    80002f02:	121c                	add	a5,sp,288
    80002f04:	acb4                	fsd	fa3,88(s1)
    80002f06:	1220                	add	s0,sp,296
    80002f08:	e474                	sd	a3,200(s0)
    80002f0a:	1221                	add	tp,tp,-24 # ffffffffffffffe8 <_tbss_end+0xffffffff7fff7324>
    80002f0c:	321c                	fld	fa5,32(a2)
    80002f0e:	1225                	add	tp,tp,-23 # ffffffffffffffe9 <_tbss_end+0xffffffff7fff7325>
    80002f10:	671f 1235 6343      	.byte	0x1f, 0x67, 0x35, 0x12, 0x43, 0x63
    80002f16:	1239                	add	tp,tp,-18 # ffffffffffffffee <_tbss_end+0xffffffff7fff732a>
    80002f18:	c895                	beqz	s1,80002f4c <verify_data+0x4c4>
    80002f1a:	63be125b          	.4byte	0x63be125b
    80002f1e:	1266                	sll	tp,tp,0x39
    80002f20:	6746                	ld	a4,80(sp)
    80002f22:	1268                	add	a0,sp,300
    80002f24:	c920                	sw	s0,80(a0)
    80002f26:	1268                	add	a0,sp,300
    80002f28:	6408                	ld	a0,8(s0)
    80002f2a:	127e                	sll	tp,tp,0x3f
    80002f2c:	6db5                	lui	s11,0xd
    80002f2e:	1744128b          	.4byte	0x1744128b
    80002f32:	12dd                	add	t0,t0,-9
    80002f34:	12f40083          	lb	ra,303(s0)
    80002f38:	bfaa                	fsd	fa0,504(sp)
    80002f3a:	e74112ff c0ac1314 	.byte	0xff, 0x12, 0x41, 0xe7, 0x14, 0x13, 0xac, 0xc0, 0x3c, 0x13, 0x41, 0x24
    80002f42:	2441133c 
    80002f46:	0e9b1353          	.4byte	0xe9b1353
    80002f4a:	1364                	add	s1,sp,428
    80002f4c:	136948cb          	fnmsub.d	fa7,fs2,fs6,ft2,rmm
    80002f50:	4dd8                	lw	a4,28(a1)
    80002f52:	1395                	add	t2,t2,-27
    80002f54:	e4b2                	sd	a2,72(sp)
    80002f56:	139c                	add	a5,sp,480
    80002f58:	db86                	sw	ra,244(sp)
    80002f5a:	a26a13a7          	.4byte	0xa26a13a7
    80002f5e:	13b2                	sll	t2,t2,0x2c
    80002f60:	13bf00c7          	fmsub.d	ft1,ft10,fs11,ft2,rne
    80002f64:	13ccfe2f          	.4byte	0x13ccfe2f
    80002f68:	b436                	fsd	fa3,40(sp)
    80002f6a:	13e5                	add	t2,t2,-7
    80002f6c:	13e702e3          	beq	a4,t5,80003890 <verify_data+0xe08>
    80002f70:	0138                	add	a4,sp,136
    80002f72:	13e9                	add	t2,t2,-6
    80002f74:	a794                	fsd	fa3,8(a5)
    80002f76:	13fe                	sll	t2,t2,0x3f
    80002f78:	140a3777          	.4byte	0x140a3777
    80002f7c:	98ae                	add	a7,a7,a1
    80002f7e:	142d                	add	s0,s0,-21
    80002f80:	8655                	sra	a2,a2,0x15
    80002f82:	bdd61447          	.4byte	0xbdd61447
    80002f86:	144a                	sll	s0,s0,0x32
    80002f88:	81a2                	mv	gp,s0
    80002f8a:	145a                	sll	s0,s0,0x36
    80002f8c:	145d8bd7          	vmin.vv	v23,v5,v27,v0.t
    80002f90:	14624fa3          	vmsge.vx	v31,v6,tp,v0.t
    80002f94:	5a5e                	lw	s4,244(sp)
    80002f96:	1472                	sll	s0,s0,0x3c
    80002f98:	14739627          	.4byte	0x14739627
    80002f9c:	2e08                	fld	fa0,24(a2)
    80002f9e:	147c                	add	a5,sp,556
    80002fa0:	e22a                	sd	a0,256(sp)
    80002fa2:	1488                	add	a0,sp,608
    80002fa4:	2630                	fld	fa2,72(a2)
    80002fa6:	148e                	sll	s1,s1,0x23
    80002fa8:	14a8aca7          	fsw	fa0,345(a7)
    80002fac:	108a                	sll	ra,ra,0x22
    80002fae:	14c0                	add	s0,sp,612
    80002fb0:	14d11f33          	.4byte	0x14d11f33
    80002fb4:	14df5beb          	.4byte	0x14df5beb
    80002fb8:	26d6                	fld	fa3,336(sp)
    80002fba:	caae14f7          	.4byte	0xcaae14f7
    80002fbe:	1518                	add	a4,sp,672
    80002fc0:	3f1e                	fld	ft10,480(sp)
    80002fc2:	1532                	sll	a0,a0,0x2c
    80002fc4:	7742                	ld	a4,48(sp)
    80002fc6:	1540                	add	s0,sp,676
    80002fc8:	1541dfdb          	.4byte	0x1541dfdb
    80002fcc:	63a5                	lui	t2,0x9
    80002fce:	1542                	sll	a0,a0,0x30
    80002fd0:	1fe2                	sll	t6,t6,0x38
    80002fd2:	1571                	add	a0,a0,-4
    80002fd4:	d1f1                	beqz	a1,80002f98 <verify_data+0x510>
    80002fd6:	157e                	sll	a0,a0,0x3f
    80002fd8:	18e0                	add	s0,sp,124
    80002fda:	159f b440 15aa      	.byte	0x9f, 0x15, 0x40, 0xb4, 0xaa, 0x15
    80002fe0:	15bb2fe7          	.4byte	0x15bb2fe7
    80002fe4:	a9d0                	fsd	fa2,144(a1)
    80002fe6:	a7d115bb          	.4byte	0xa7d115bb
    80002fea:	15c5                	add	a1,a1,-15
    80002fec:	7f16                	ld	t5,352(sp)
    80002fee:	15ce                	sll	a1,a1,0x33
    80002ff0:	68b2                	ld	a7,264(sp)
    80002ff2:	0f8915db          	.4byte	0xf8915db
    80002ff6:	15ee                	sll	a1,a1,0x3b
    80002ff8:	15f77ee7          	.4byte	0x15f77ee7
    80002ffc:	15fcce2f          	.4byte	0x15fcce2f
    80003000:	12d6                	sll	t0,t0,0x35
    80003002:	1629                	add	a2,a2,-22
    80003004:	8dc1                	or	a1,a1,s0
    80003006:	1630                	add	a2,sp,808
    80003008:	5f2d                	li	t5,-21
    8000300a:	eb5f1633          	.4byte	0xeb5f1633
    8000300e:	fd611633          	.4byte	0xfd611633
    80003012:	163e                	sll	a2,a2,0x2f
    80003014:	2ff2                	fld	ft11,280(sp)
    80003016:	1640                	add	s0,sp,804
    80003018:	379a                	fld	fa5,416(sp)
    8000301a:	39421667          	.4byte	0x39421667
    8000301e:	1675                	add	a2,a2,-3
    80003020:	bf1f 1695 42fc      	.byte	0x1f, 0xbf, 0x95, 0x16, 0xfc, 0x42
    80003026:	169e                	sll	a3,a3,0x27
    80003028:	6ad2                	ld	s5,272(sp)
    8000302a:	0ad616a7          	.4byte	0xad616a7
    8000302e:	534b16b7          	lui	a3,0x534b1
    80003032:	16be                	sll	a3,a3,0x2f
    80003034:	d8e5                	beqz	s1,80003024 <verify_data+0x59c>
    80003036:	4eab16c3          	vmsge.vx	v13,v10,s6
    8000303a:	098116cb          	fnmsub.s	fa3,ft2,fs8,ft1,rtz
    8000303e:	1700                	add	s0,sp,928
    80003040:	1692                	sll	a3,a3,0x24
    80003042:	170d                	add	a4,a4,-29
    80003044:	1621                	add	a2,a2,-24
    80003046:	1712                	sll	a4,a4,0x24
    80003048:	17155447          	.4byte	0x17155447
    8000304c:	7b35                	lui	s6,0xfffed
    8000304e:	171a                	sll	a4,a4,0x26
    80003050:	172d75a3          	vmsge.vx	v11,v18,s10
    80003054:	3a26                	fld	fs4,104(sp)
    80003056:	46e31733          	.4byte	0x46e31733
    8000305a:	174a                	sll	a4,a4,0x32
    8000305c:	1753184b          	.4byte	0x1753184b
    80003060:	b7d5                	j	80003044 <verify_data+0x5bc>
    80003062:	1790                	add	a2,sp,992
    80003064:	394c                	fld	fa1,176(a0)
    80003066:	17bc                	add	a5,sp,1000
    80003068:	bb4a                	fsd	fs2,432(sp)
    8000306a:	17bc                	add	a5,sp,1000
    8000306c:	e6da                	sd	s6,328(sp)
    8000306e:	17c6                	sll	a5,a5,0x31
    80003070:	ff59                	bnez	a4,8000300e <verify_data+0x586>
    80003072:	17c9                	add	a5,a5,-14
    80003074:	3abd                	addw	s5,s5,-17
    80003076:	61c617cf          	fnmadd.s	fa5,fa2,ft8,fa2,rtz
    8000307a:	974017d7          	.4byte	0x974017d7
    8000307e:	17ed                	add	a5,a5,-5
    80003080:	eeec                	sd	a1,216(a3)
    80003082:	1802                	sll	a6,a6,0x20
    80003084:	10d2                	sll	ra,ra,0x34
    80003086:	1aef180b          	.4byte	0x1aef180b
    8000308a:	184e                	sll	a6,a6,0x33
    8000308c:	8e8d                	sub	a3,a3,a1
    8000308e:	188c                	add	a1,sp,112
    80003090:	c656                	sw	s5,12(sp)
    80003092:	189e                	sll	a7,a7,0x27
    80003094:	a1ce                	fsd	fs3,192(sp)
    80003096:	18d2                	sll	a7,a7,0x34
    80003098:	9675                	sra	a2,a2,0x3d
    8000309a:	3dfe18e3          	bne	t3,t6,80003c6a <verify_data+0x11e2>
    8000309e:	18fa                	sll	a7,a7,0x3e
    800030a0:	19de                	sll	s3,s3,0x37
    800030a2:	b28018fb          	.4byte	0xb28018fb
    800030a6:	1900                	add	s0,sp,176
    800030a8:	4ff0                	lw	a2,92(a5)
    800030aa:	190a                	sll	s2,s2,0x22
    800030ac:	191afacb          	fnmsub.s	fs5,fs5,fa7,ft3
    800030b0:	ed44                	sd	s1,152(a0)
    800030b2:	0a531927          	.4byte	0xa531927
    800030b6:	b1bf193b          	.4byte	0xb1bf193b
    800030ba:	194e                	sll	s2,s2,0x33
    800030bc:	19a2b58b          	.4byte	0x19a2b58b
    800030c0:	5cc9                	li	s9,-14
    800030c2:	19c1                	add	s3,s3,-16
    800030c4:	1980                	add	s0,sp,240
    800030c6:	19c9                	add	s3,s3,-14
    800030c8:	19cee96b          	.4byte	0x19cee96b
    800030cc:	59f1                	li	s3,-4
    800030ce:	19d5                	add	s3,s3,-11
    800030d0:	4af1                	li	s5,28
    800030d2:	306d19eb          	.4byte	0x306d19eb
    800030d6:	19f1                	add	s3,s3,-4
    800030d8:	f8f2                	sd	t3,112(sp)
    800030da:	19f1                	add	s3,s3,-4
    800030dc:	1886                	sll	a7,a7,0x21
    800030de:	1a04                	add	s1,sp,304
    800030e0:	af00                	fsd	fs0,24(a4)
    800030e2:	1a05                	add	s4,s4,-31
    800030e4:	1a067347          	fmsub.d	ft6,fa2,ft0,ft3
    800030e8:	efe9                	bnez	a5,800031c2 <verify_data+0x73a>
    800030ea:	1a16                	sll	s4,s4,0x25
    800030ec:	34a2                	fld	fs1,40(sp)
    800030ee:	1a26                	sll	s4,s4,0x29
    800030f0:	6680                	ld	s0,8(a3)
    800030f2:	1a72                	sll	s4,s4,0x3c
    800030f4:	6a3e                	ld	s4,456(sp)
    800030f6:	1a7c                	add	a5,sp,316
    800030f8:	1a9b193f 1ab845a1 	.8byte	0x1ab845a11a9b193f
    80003100:	c174                	sw	a3,68(a0)
    80003102:	1abe                	sll	s5,s5,0x2f
    80003104:	8f99                	sub	a5,a5,a4
    80003106:	1ae8                	add	a0,sp,380
    80003108:	88d5                	and	s1,s1,21
    8000310a:	1afe                	sll	s5,s5,0x3f
    8000310c:	fbb4                	sd	a3,112(a5)
    8000310e:	1b14                	add	a3,sp,432
    80003110:	2e78                	fld	fa4,216(a2)
    80003112:	1b16                	sll	s6,s6,0x25
    80003114:	1b1ae0d3          	fdiv.d	ft1,fs5,fa7,unknown
    80003118:	d252                	sw	s4,36(sp)
    8000311a:	0fbf1b2b          	.4byte	0xfbf1b2b
    8000311e:	1b35                	add	s6,s6,-19 # fffffffffffecfed <_tbss_end+0xffffffff7ffe4329>
    80003120:	fb86                	sd	ra,496(sp)
    80003122:	1b60                	add	s0,sp,444
    80003124:	1b717563          	bgeu	sp,s7,800032ce <verify_data+0x846>
    80003128:	ab66                	fsd	fs9,400(sp)
    8000312a:	1b78                	add	a4,sp,444
    8000312c:	0f16                	sll	t5,t5,0x5
    8000312e:	1b81                	add	s7,s7,-32
    80003130:	1b825af3          	csrrw	s5,0x1b8,4
    80003134:	e83e                	sd	a5,16(sp)
    80003136:	1b94                	add	a3,sp,496
    80003138:	a632                	fsd	fa2,264(sp)
    8000313a:	1b96                	sll	s7,s7,0x25
    8000313c:	1baab177          	.4byte	0x1baab177
    80003140:	1bb4383f 1bb928d5 	.8byte	0x1bb928d51bb4383f
    80003148:	0309                	add	t1,t1,2
    8000314a:	1c05                	add	s8,s8,-31
    8000314c:	84d0                	.2byte	0x84d0
    8000314e:	1c2d                	add	s8,s8,-21
    80003150:	1c2f74ab          	.4byte	0x1c2f74ab
    80003154:	4355                	li	t1,21
    80003156:	1c36                	sll	s8,s8,0x2d
    80003158:	4b00                	lw	s0,16(a4)
    8000315a:	a9601c73          	csrrw	s8,0xa96,zero
    8000315e:	1c74                	add	a3,sp,572
    80003160:	b4a9                	j	80002baa <verify_data+0x122>
    80003162:	1c88                	add	a0,sp,624
    80003164:	0ac5                	add	s5,s5,17
    80003166:	1cb4                	add	a3,sp,632
    80003168:	12d4                	add	a3,sp,356
    8000316a:	1cb4                	add	a3,sp,632
    8000316c:	bb55                	j	80002f20 <verify_data+0x498>
    8000316e:	1cc8                	add	a0,sp,628
    80003170:	1ccf4e3b          	.4byte	0x1ccf4e3b
    80003174:	000d                	c.nop	3
    80003176:	1cf5                	add	s9,s9,-3
    80003178:	4c05                	li	s8,1
    8000317a:	1cfa                	sll	s9,s9,0x3e
    8000317c:	88a1                	and	s1,s1,8
    8000317e:	1cfa                	sll	s9,s9,0x3e
    80003180:	9565                	sra	a0,a0,0x39
    80003182:	1d14                	add	a3,sp,688
    80003184:	da5f 1d42 1082      	.byte	0x5f, 0xda, 0x42, 0x1d, 0x82, 0x10
    8000318a:	71bc1d5b          	.4byte	0x71bc1d5b
    8000318e:	97091d77          	.4byte	0x97091d77
    80003192:	1d82                	sll	s11,s11,0x20
    80003194:	daea                	sw	s10,116(sp)
    80003196:	1dac                	add	a1,sp,760
    80003198:	9829                	and	s0,s0,-22
    8000319a:	1db9                	add	s11,s11,-18 # cfee <buflen.1+0xcfae>
    8000319c:	d75f 1dcb 2524      	.byte	0x5f, 0xd7, 0xcb, 0x1d, 0x24, 0x25
    800031a2:	9af51dd3          	.4byte	0x9af51dd3
    800031a6:	1dd8                	add	a4,sp,756
    800031a8:	8a44                	.2byte	0x8a44
    800031aa:	daf91def          	jal	s11,7ff94f58 <buflen.1+0x7ff94f18>
    800031ae:	1df0                	add	a2,sp,764
    800031b0:	6e48                	ld	a0,152(a2)
    800031b2:	1df4                	add	a3,sp,764
    800031b4:	c9c9                	beqz	a1,80003246 <verify_data+0x7be>
    800031b6:	1e00                	add	s0,sp,816
    800031b8:	d51d                	beqz	a0,800030e6 <verify_data+0x65e>
    800031ba:	1e08                	add	a0,sp,816
    800031bc:	1e300f6b          	.4byte	0x1e300f6b
    800031c0:	25de                	fld	fa1,464(sp)
    800031c2:	1e45                	add	t3,t3,-15
    800031c4:	8062                	c.mv	zero,s8
    800031c6:	1e46                	sll	t3,t3,0x31
    800031c8:	1e48192b          	.4byte	0x1e48192b
    800031cc:	7f46                	ld	t5,112(sp)
    800031ce:	1e58                	add	a4,sp,820
    800031d0:	1641                	add	a2,a2,-16
    800031d2:	1e62                	sll	t3,t3,0x38
    800031d4:	47e8                	lw	a0,76(a5)
    800031d6:	1e6d                	add	t3,t3,-5
    800031d8:	932c                	.2byte	0x932c
    800031da:	1e6d                	add	t3,t3,-5
    800031dc:	0b6e                	sll	s6,s6,0x1b
    800031de:	1e8c                	add	a1,sp,880
    800031e0:	e911                	bnez	a0,800031f4 <verify_data+0x76c>
    800031e2:	540d1e93          	.4byte	0x540d1e93
    800031e6:	1e9c                	add	a5,sp,880
    800031e8:	1e9ca763          	vmsge.vx	v14,v9,s9
    800031ec:	49c4                	lw	s1,20(a1)
    800031ee:	1ea6                	sll	t4,t4,0x29
    800031f0:	f87d                	bnez	s0,800031e6 <verify_data+0x75e>
    800031f2:	1eb0                	add	a2,sp,888
    800031f4:	98ac                	.2byte	0x98ac
    800031f6:	1eb8                	add	a4,sp,888
    800031f8:	a950                	fsd	fa2,144(a0)
    800031fa:	1ebe                	sll	t4,t4,0x2f
    800031fc:	8110                	.2byte	0x8110
    800031fe:	1edc                	add	a5,sp,884
    80003200:	2d32                	fld	fs10,264(sp)
    80003202:	1ee1                	add	t4,t4,-8
    80003204:	4855                	li	a6,21
    80003206:	1ef2                	sll	t4,t4,0x3c
    80003208:	1ef490c3          	vmsge.vx	v1,v15,s1
    8000320c:	1ef9fd23          	vmsge.vx	v26,v15,s3
    80003210:	9906                	add	s2,s2,ra
    80003212:	5e7e1f03          	lh	t5,1511(t3)
    80003216:	1f06                	sll	t5,t5,0x21
    80003218:	3d39                	addw	s10,s10,-18
    8000321a:	1f09                	add	t5,t5,-30
    8000321c:	8905                	and	a0,a0,1
    8000321e:	1f1f 5071 1f23      	.byte	0x1f, 0x1f, 0x71, 0x50, 0x23, 0x1f
    80003224:	1f407de7          	.4byte	0x1f407de7
    80003228:	1c49                	add	s8,s8,-14
    8000322a:	1f54                	add	a3,sp,948
    8000322c:	0239                	add	tp,tp,14 # e <buf.2+0xe>
    8000322e:	1f79                	add	t5,t5,-2
    80003230:	1f8b77b7          	lui	a5,0x1f8b7
    80003234:	96fd                	sra	a3,a3,0x3f
    80003236:	1f98                	add	a4,sp,1008
    80003238:	b1ee                	fsd	fs11,224(sp)
    8000323a:	cd531fb7          	lui	t6,0xcd531
    8000323e:	1fbc                	add	a5,sp,1016
    80003240:	7b61                	lui	s6,0xffff8
    80003242:	1fc6                	sll	t6,t6,0x31
    80003244:	0dde                	sll	s11,s11,0x17
    80003246:	1fda                	sll	t6,t6,0x36
    80003248:	16f9                	add	a3,a3,-2 # 534b0ffe <buflen.1+0x534b0fbe>
    8000324a:	1ff0                	add	a2,sp,1020
    8000324c:	adc6                	fsd	fa7,216(sp)
    8000324e:	73bb1ff3          	csrrw	t6,mhpmevent27h,s6
    80003252:	201f 0c4c 2027      	.byte	0x1f, 0x20, 0x4c, 0x0c, 0x27, 0x20
    80003258:	202edda7          	.4byte	0x202edda7
    8000325c:	202fd7d7          	vfsgnj.vf	v15,v2,ft11,v0.t
    80003260:	2c8c                	fld	fa1,24(s1)
    80003262:	2031                	.2byte	0x2031
    80003264:	46f4                	lw	a3,76(a3)
    80003266:	203e                	fld	ft0,456(sp)
    80003268:	8ed1                	or	a3,a3,a2
    8000326a:	0db82057          	vredxor.vs	v0,v27,v16,v0.t
    8000326e:	206c                	fld	fa1,192(s0)
    80003270:	7fd8                	ld	a4,184(a5)
    80003272:	207a                	fld	ft0,408(sp)
    80003274:	0d30                	add	a2,sp,664
    80003276:	207d                	.2byte	0x207d
    80003278:	3aed                	addw	s5,s5,-5
    8000327a:	2085                	addw	ra,ra,1
    8000327c:	7fc9                	lui	t6,0xffff2
    8000327e:	2090                	fld	fa2,0(s1)
    80003280:	78d4                	ld	a3,176(s1)
    80003282:	f31d20b3          	.4byte	0xf31d20b3
    80003286:	20bc                	fld	fa5,64(s1)
    80003288:	7518                	ld	a4,40(a0)
    8000328a:	20d0                	fld	fa2,128(s1)
    8000328c:	cf61                	beqz	a4,80003364 <verify_data+0x8dc>
    8000328e:	e50320fb          	.4byte	0xe50320fb
    80003292:	2128                	fld	fa0,64(a0)
    80003294:	7078                	ld	a4,224(s0)
    80003296:	2159                	addw	sp,sp,22
    80003298:	0b52                	sll	s6,s6,0x14
    8000329a:	9d30216b          	.4byte	0x9d30216b
    8000329e:	218e                	fld	ft3,192(sp)
    800032a0:	81de                	mv	gp,s7
    800032a2:	03af21af          	amoadd.w.rl	gp,s10,(t5)
    800032a6:	a15d21bf f16e21d7 	.8byte	0xf16e21d7a15d21bf
    800032ae:	21e4                	fld	fs1,192(a1)
    800032b0:	21f8bbe7          	.4byte	0x21f8bbe7
    800032b4:	757d                	lui	a0,0xfffff
    800032b6:	2212                	fld	ft4,256(sp)
    800032b8:	221bb1f3          	csrrc	gp,0x221,s7
    800032bc:	27e4                	fld	fs1,200(a5)
    800032be:	223a                	fld	ft4,392(sp)
    800032c0:	e330                	sd	a2,64(a4)
    800032c2:	2262                	fld	ft4,24(sp)
    800032c4:	226a2ea7          	fsw	ft6,573(s4)
    800032c8:	9562                	add	a0,a0,s8
    800032ca:	226a                	fld	ft4,152(sp)
    800032cc:	227f96f7          	.4byte	0x227f96f7
    800032d0:	810a                	mv	sp,sp
    800032d2:	2285                	addw	t0,t0,1
    800032d4:	22992e4b          	fnmsub.d	ft8,fs2,fs1,ft4,rdn
    800032d8:	aa91                	j	8000342c <verify_data+0x9a4>
    800032da:	229c                	fld	fa5,0(a3)
    800032dc:	9608                	.2byte	0x9608
    800032de:	22c1                	addw	t0,t0,16
    800032e0:	fb81                	bnez	a5,800031f0 <verify_data+0x768>
    800032e2:	22e0                	fld	fs0,192(a3)
    800032e4:	ab60                	fsd	fs0,208(a4)
    800032e6:	22ea                	fld	ft5,152(sp)
    800032e8:	2fa9                	addw	t6,t6,10 # ffffffffffff200a <_tbss_end+0xffffffff7ffe9346>
    800032ea:	231c                	fld	fa5,0(a4)
    800032ec:	39df 2335 4e2b      	.byte	0xdf, 0x39, 0x35, 0x23, 0x2b, 0x4e
    800032f2:	2349                	addw	t1,t1,18
    800032f4:	c94a                	sw	s2,144(sp)
    800032f6:	234c                	fld	fa1,128(a4)
    800032f8:	23688f3b          	.4byte	0x23688f3b
    800032fc:	278e                	fld	fa5,192(sp)
    800032fe:	2374                	fld	fa3,192(a4)
    80003300:	ed70                	sd	a2,216(a0)
    80003302:	2381                	sext.w	t2,t2
    80003304:	04c5                	add	s1,s1,17
    80003306:	239c                	fld	fa5,0(a5)
    80003308:	034d                	add	t1,t1,19
    8000330a:	23a5                	addw	t2,t2,9 # 9009 <buflen.1+0x8fc9>
    8000330c:	6a30                	ld	a2,80(a2)
    8000330e:	a2f223e7          	.4byte	0xa2f223e7
    80003312:	7ca623ef          	jal	t2,80065adc <_tbss_end+0x5ce18>
    80003316:	e3c123f3          	csrrs	t2,0xe3c,sp
    8000331a:	23fe                	fld	ft7,472(sp)
    8000331c:	240481ab          	.4byte	0x240481ab
    80003320:	37ea                	fld	fa5,184(sp)
    80003322:	491c240f          	.4byte	0x491c240f
    80003326:	2435                	addw	s0,s0,13
    80003328:	b44a                	fsd	fs2,40(sp)
    8000332a:	2439                	addw	s0,s0,14
    8000332c:	cd3e                	sw	a5,152(sp)
    8000332e:	247e                	fld	fs0,472(sp)
    80003330:	490d                	li	s2,3
    80003332:	249c                	fld	fa5,8(s1)
    80003334:	3ecd                	addw	t4,t4,-13
    80003336:	24a2                	fld	fs1,8(sp)
    80003338:	5cb5                	li	s9,-19
    8000333a:	66c324b3          	.4byte	0x66c324b3
    8000333e:	24d2                	fld	fs1,272(sp)
    80003340:	24d5dd8b          	.4byte	0x24d5dd8b
    80003344:	81fd                	srl	a1,a1,0x1f
    80003346:	24d8                	fld	fa4,136(s1)
    80003348:	5376                	lw	t1,124(sp)
    8000334a:	24e0                	fld	fs0,200(s1)
    8000334c:	bbfa                	fsd	ft10,496(sp)
    8000334e:	3a3624eb          	.4byte	0x3a3624eb
    80003352:	24ec                	fld	fa1,200(s1)
    80003354:	05f9                	add	a1,a1,30
    80003356:	24f4                	fld	fa3,200(s1)
    80003358:	0b3d                	add	s6,s6,15 # ffffffffffff800f <_tbss_end+0xffffffff7ffef34b>
    8000335a:	24fc                	fld	fa5,200(s1)
    8000335c:	c3bd                	beqz	a5,800033c2 <verify_data+0x93a>
    8000335e:	2511                	addw	a0,a0,4 # fffffffffffff004 <_tbss_end+0xffffffff7fff6340>
    80003360:	b685                	j	80002ec0 <verify_data+0x438>
    80003362:	2514                	fld	fa3,8(a0)
    80003364:	90ea                	add	ra,ra,s10
    80003366:	2515                	addw	a0,a0,5
    80003368:	76c0                	ld	s0,168(a3)
    8000336a:	252c                	fld	fa1,72(a0)
    8000336c:	18b0                	add	a2,sp,120
    8000336e:	2530                	fld	fa2,72(a0)
    80003370:	dc48                	sw	a0,60(s0)
    80003372:	253a                	fld	fa0,392(sp)
    80003374:	625f 253c d083      	.byte	0x5f, 0x62, 0x3c, 0x25, 0x83, 0xd0
    8000337a:	e0d6253f 5203254f 	.8byte	0x5203254fe0d6253f
    80003382:	2575                	addw	a0,a0,29
    80003384:	0af0                	add	a2,sp,348
    80003386:	a39e2593          	slti	a1,t3,-1479
    8000338a:	259c                	fld	fa5,8(a1)
    8000338c:	648d                	lui	s1,0x3
    8000338e:	25a2                	fld	fa1,8(sp)
    80003390:	25aa979b          	.4byte	0x25aa979b
    80003394:	e378                	sd	a4,192(a4)
    80003396:	25b4                	fld	fa3,72(a1)
    80003398:	25bbf907          	vluxseg2ei64.v	v18,(s7),v27,v0.t
    8000339c:	7b4a                	ld	s6,176(sp)
    8000339e:	25be                	fld	fa1,456(sp)
    800033a0:	ff86                	sd	ra,504(sp)
    800033a2:	eb4f25ef          	jal	a1,7fff5a56 <buflen.1+0x7fff5a16>
    800033a6:	2601                	sext.w	a2,a2
    800033a8:	a9bd                	j	80003826 <verify_data+0xd9e>
    800033aa:	2609                	addw	a2,a2,2
    800033ac:	5fae                	lw	t6,232(sp)
    800033ae:	2632                	fld	fa2,264(sp)
    800033b0:	2540                	fld	fs0,136(a0)
    800033b2:	83a92667          	.4byte	0x83a92667
    800033b6:	afc1266f          	jal	a2,7ff156b2 <buflen.1+0x7ff15672>
    800033ba:	78e9268b          	.4byte	0x78e9268b
    800033be:	26ba                	fld	fa3,392(sp)
    800033c0:	0b60                	add	s0,sp,412
    800033c2:	26c6                	fld	fa3,80(sp)
    800033c4:	a9e2                	fsd	fs8,208(sp)
    800033c6:	26d5                	addw	a3,a3,21
    800033c8:	ed86                	sd	ra,216(sp)
    800033ca:	26d8                	fld	fa4,136(a3)
    800033cc:	ebc4                	sd	s1,144(a5)
    800033ce:	26dd                	addw	a3,a3,23
    800033d0:	e848                	sd	a0,144(s0)
    800033d2:	26e2                	fld	fa3,24(sp)
    800033d4:	26ecc43f 26f58add 	.8byte	0x26f58add26ecc43f
    800033dc:	2ad8                	fld	fa4,144(a3)
    800033de:	2709                	addw	a4,a4,2
    800033e0:	9280                	vmsge.vx	v5,v0,ra,v0.t
    800033e2:	270d                	addw	a4,a4,3
    800033e4:	4fba                	lw	t6,140(sp)
    800033e6:	2711                	addw	a4,a4,4
    800033e8:	53c2                	lw	t2,48(sp)
    800033ea:	2728                	fld	fa0,72(a4)
    800033ec:	272cdbc7          	.4byte	0x272cdbc7
    800033f0:	ec5c                	sd	a5,152(s0)
    800033f2:	276a                	fld	fa4,152(sp)
    800033f4:	bfb6                	fsd	fa3,504(sp)
    800033f6:	2799                	addw	a5,a5,6 # 1f8b7006 <buflen.1+0x1f8b6fc6>
    800033f8:	27ac473b          	.4byte	0x27ac473b
    800033fc:	e2fd                	bnez	a3,800034e2 <verify_data+0xa5a>
    800033fe:	dfd027bb          	.4byte	0xdfd027bb
    80003402:	27f8                	fld	fa4,200(a5)
    80003404:	280b98c7          	fmsub.s	fa7,fs7,ft0,ft5,rtz
    80003408:	d6ad                	beqz	a3,80003372 <verify_data+0x8ea>
    8000340a:	2812                	fld	fa6,256(sp)
    8000340c:	281bbd27          	fsd	ft1,666(s7)
    80003410:	fe11                	bnez	a2,8000332c <verify_data+0x8a4>
    80003412:	2828                	fld	fa0,80(s0)
    80003414:	49a5                	li	s3,9
    80003416:	2835                	addw	a6,a6,13
    80003418:	10f8                	add	a4,sp,108
    8000341a:	2844                	fld	fs1,144(s0)
    8000341c:	2845d05b          	.4byte	0x2845d05b
    80003420:	9189                	srl	a1,a1,0x22
    80003422:	285d                	addw	a6,a6,23
    80003424:	2870b66f          	jal	a2,8000eeaa <_tbss_end+0x61e6>
    80003428:	a34d                	j	800039ca <verify_data+0xf42>
    8000342a:	2880                	fld	fs0,16(s1)
    8000342c:	9bfd                	and	a5,a5,-1
    8000342e:	288a                	fld	fa7,128(sp)
    80003430:	c5f0                	sw	a2,76(a1)
    80003432:	28a6                	fld	fa7,72(sp)
    80003434:	c1b4                	sw	a3,64(a1)
    80003436:	f15328bb          	.4byte	0xf15328bb
    8000343a:	28bd                	addw	a7,a7,15
    8000343c:	5d55                	li	s10,-11
    8000343e:	28d4                	fld	fa3,144(s1)
    80003440:	b431                	j	80002e4c <verify_data+0x3c4>
    80003442:	25ea28ef          	jal	a7,800a56a0 <_tbss_end+0x9c9dc>
    80003446:	2901                	sext.w	s2,s2
    80003448:	290737e7          	.4byte	0x290737e7
    8000344c:	6c64                	ld	s1,216(s0)
    8000344e:	2909                	addw	s2,s2,2
    80003450:	292b6803          	lwu	a6,658(s6)
    80003454:	de5d                	beqz	a2,80003412 <verify_data+0x98a>
    80003456:	292c                	fld	fa1,80(a0)
    80003458:	292dc637          	lui	a2,0x292dc
    8000345c:	4190                	lw	a2,0(a1)
    8000345e:	2931                	addw	s2,s2,12
    80003460:	fc5d                	bnez	s0,8000341e <verify_data+0x996>
    80003462:	9857294b          	fnmsub.s	fs2,fa4,ft5,fs3,rdn
    80003466:	2959                	addw	s2,s2,22
    80003468:	28ae                	fld	fa7,200(sp)
    8000346a:	297c                	fld	fa5,208(a0)
    8000346c:	297efd5b          	.4byte	0x297efd5b
    80003470:	f432                	sd	a2,40(sp)
    80003472:	2982                	fld	fs3,0(sp)
    80003474:	d515                	beqz	a0,800033a0 <verify_data+0x918>
    80003476:	2995                	addw	s3,s3,5
    80003478:	daa0                	sw	s0,112(a3)
    8000347a:	986b2997          	auipc	s3,0x986b2
    8000347e:	2998                	fld	fa4,16(a1)
    80003480:	29a4b67b          	.4byte	0x29a4b67b
    80003484:	29c439a7          	fsd	ft8,659(s0)
    80003488:	29d70e33          	.4byte	0x29d70e33
    8000348c:	7a22                	ld	s4,40(sp)
    8000348e:	29dd                	addw	s3,s3,23 # 186b5491 <buflen.1+0x186b5451>
    80003490:	eae5                	bnez	a3,80003580 <verify_data+0xaf8>
    80003492:	29e8                	fld	fa0,208(a1)
    80003494:	35ba                	fld	fa1,424(sp)
    80003496:	2a0d                	addw	s4,s4,3
    80003498:	2a12718f          	.4byte	0x2a12718f
    8000349c:	2885                	addw	a7,a7,1
    8000349e:	2a1a                	fld	fs4,384(sp)
    800034a0:	4eda                	lw	t4,148(sp)
    800034a2:	2a21                	addw	s4,s4,8
    800034a4:	2a22a5e3          	vmsge.vx	v11,v2,t0
    800034a8:	6ac2                	ld	s5,16(sp)
    800034aa:	2a4c                	fld	fa1,144(a2)
    800034ac:	2a8f6b6f          	jal	s6,800f9754 <_tbss_end+0xf0a90>
    800034b0:	bc82                	fsd	ft0,120(sp)
    800034b2:	2a95                	addw	s5,s5,5
    800034b4:	6351                	lui	t1,0x14
    800034b6:	2aac                	fld	fa1,80(a3)
    800034b8:	74f2                	ld	s1,312(sp)
    800034ba:	2aca                	fld	fs5,144(sp)
    800034bc:	832c                	.2byte	0x832c
    800034be:	4d282aef          	jal	s5,80085990 <_tbss_end+0x7cccc>
    800034c2:	2afa                	fld	fs5,408(sp)
    800034c4:	9719                	sra	a4,a4,0x26
    800034c6:	2b01                	sext.w	s6,s6
    800034c8:	2b0b5427          	vssseg2e16.v	v8,(s6),a6
    800034cc:	d0ed                	beqz	s1,800034ae <verify_data+0xa26>
    800034ce:	2b0c                	fld	fa1,16(a4)
    800034d0:	261f 2b0e deec      	.byte	0x1f, 0x26, 0x0e, 0x2b, 0xec, 0xde
    800034d6:	2b16                	fld	fs6,320(sp)
    800034d8:	0b2a                	sll	s6,s6,0xa
    800034da:	2b1d                	addw	s6,s6,7
    800034dc:	4dbe                	lw	s11,204(sp)
    800034de:	2b26                	fld	fs6,72(sp)
    800034e0:	0c12                	sll	s8,s8,0x4
    800034e2:	2b48                	fld	fa0,144(a4)
    800034e4:	2488                	fld	fa0,8(s1)
    800034e6:	1c4b2b53          	.4byte	0x1c4b2b53
    800034ea:	2b5e                	fld	fs6,464(sp)
    800034ec:	e58d                	bnez	a1,80003516 <verify_data+0xa8e>
    800034ee:	2b7a                	fld	fs6,408(sp)
    800034f0:	6fa2                	ld	t6,8(sp)
    800034f2:	4d812b7b          	.4byte	0x4d812b7b
    800034f6:	2b84                	fld	fs1,16(a5)
    800034f8:	70c8                	ld	a0,160(s1)
    800034fa:	5d0d2b87          	flw	fs7,1488(s10)
    800034fe:	2b89                	addw	s7,s7,2
    80003500:	d1e1                	beqz	a1,800034c0 <verify_data+0xa38>
    80003502:	6ca02b8f          	.4byte	0x6ca02b8f
    80003506:	d24e2b9b          	.4byte	0xd24e2b9b
    8000350a:	2b9d                	addw	s7,s7,7
    8000350c:	5d49                	li	s10,-14
    8000350e:	35dc2ba7          	fsw	ft9,855(s8)
    80003512:	2ba8                	fld	fa0,80(a5)
    80003514:	6a49                	lui	s4,0x12
    80003516:	2be5                	addw	s7,s7,25
    80003518:	7d20                	ld	s0,120(a0)
    8000351a:	a3052bf3          	csrrs	s7,0xa30,a0
    8000351e:	2bf5                	addw	s7,s7,29
    80003520:	64c0                	ld	s0,136(s1)
    80003522:	58672c07          	flw	fs8,1414(a4)
    80003526:	2c15                	addw	s8,s8,5
    80003528:	aecc                	fsd	fa1,152(a3)
    8000352a:	f5572c23          	sw	s5,-168(a4)
    8000352e:	94b82c2b          	.4byte	0x94b82c2b
    80003532:	2c2d                	addw	s8,s8,11
    80003534:	2c3cdaab          	.4byte	0x2c3cdaab
    80003538:	0379                	add	t1,t1,30 # 1401e <buflen.1+0x13fde>
    8000353a:	2c52                	fld	fs8,272(sp)
    8000353c:	2c54a803          	lw	a6,709(s1) # 32c5 <buflen.1+0x3285>
    80003540:	983d                	and	s0,s0,-17
    80003542:	2c6a                	fld	fs8,152(sp)
    80003544:	aaad                	j	800036be <verify_data+0xc36>
    80003546:	5cab2c73          	csrrs	s8,0x5ca,s6
    8000354a:	9f222c8f          	.4byte	0x9f222c8f
    8000354e:	2c9d                	addw	s9,s9,7
    80003550:	2c45                	addw	s8,s8,17
    80003552:	b88a2cab          	.4byte	0xb88a2cab
    80003556:	2cbd                	addw	s9,s9,15
    80003558:	2cc21eab          	.4byte	0x2cc21eab
    8000355c:	ddc4                	sw	s1,60(a1)
    8000355e:	2cd0                	fld	fa2,152(s1)
    80003560:	8849                	and	s0,s0,18
    80003562:	2cd8                	fld	fa4,152(s1)
    80003564:	2ce66627          	vsoxseg2ei32.v	v12,(a2),v14,v0.t
    80003568:	6b72                	ld	s6,280(sp)
    8000356a:	2cf4                	fld	fa3,216(s1)
    8000356c:	e584                	sd	s1,8(a1)
    8000356e:	2cf4                	fld	fa3,216(s1)
    80003570:	ceea                	sw	s10,92(sp)
    80003572:	2cfe                	fld	fs9,472(sp)
    80003574:	d921                	beqz	a0,800034c4 <verify_data+0xa3c>
    80003576:	2d08                	fld	fa0,24(a0)
    80003578:	9006                	c.add	zero,ra
    8000357a:	2d0c                	fld	fa1,24(a0)
    8000357c:	2d2aea73          	csrrs	s4,0x2d2,21
    80003580:	8c8c                	.2byte	0x8c8c
    80003582:	2d2d                	addw	s10,s10,11
    80003584:	d426                	sw	s1,40(sp)
    80003586:	2d30                	fld	fa2,88(a0)
    80003588:	eda1                	bnez	a1,800035e0 <verify_data+0xb58>
    8000358a:	2d68                	fld	fa0,216(a0)
    8000358c:	2d73d15b          	.4byte	0x2d73d15b
    80003590:	7cb6                	ld	s9,360(sp)
    80003592:	fe492d97          	auipc	s11,0xfe492
    80003596:	ddde2d97          	auipc	s11,0xddde2
    8000359a:	2d9e                	fld	fs11,448(sp)
    8000359c:	ac55                	j	80003850 <verify_data+0xdc8>
    8000359e:	0f762da3          	sw	s7,251(a2) # 292dc0fb <buflen.1+0x292dc0bb>
    800035a2:	ec892dbb          	.4byte	0xec892dbb
    800035a6:	2dc4                	fld	fs1,152(a1)
    800035a8:	95c4                	.2byte	0x95c4
    800035aa:	2dc9                	addw	s11,s11,18 # 5dde55a8 <buflen.1+0x5dde5568>
    800035ac:	17e0                	add	s0,sp,1004
    800035ae:	2dd6                	fld	fs11,336(sp)
    800035b0:	2deb91bf 2df3dfcb 	.8byte	0x2df3dfcb2deb91bf
    800035b8:	2e04b247          	.4byte	0x2e04b247
    800035bc:	9db6                	add	s11,s11,a3
    800035be:	77ef2e07          	flw	ft8,1918(t5)
    800035c2:	0dbb2e0b          	.4byte	0xdbb2e0b
    800035c6:	2e16                	fld	ft8,320(sp)
    800035c8:	2e56b07f 2e6a0f7c 	.byte	0x7f, 0xb0, 0x56, 0x2e, 0x7c, 0x0f, 0x6a, 0x2e, 0x3b, 0x13, 0x6c, 0x2e, 0x8a, 0x07, 0x70, 0x2e
    800035d0:	2e6c133b 2e70078a 
    800035d8:	26e2                	fld	fa3,24(sp)
    800035da:	2eb2                	fld	ft9,264(sp)
    800035dc:	3bb4                	fld	fa3,112(a5)
    800035de:	2ed0                	fld	fa2,152(a3)
    800035e0:	4040                	lw	s0,4(s0)
    800035e2:	2ed9                	addw	t4,t4,22
    800035e4:	f2c1                	bnez	a3,80003564 <verify_data+0xadc>
    800035e6:	2edd                	addw	t4,t4,23
    800035e8:	0df8                	add	a4,sp,732
    800035ea:	2ee2                	fld	ft9,24(sp)
    800035ec:	2eea494b          	.4byte	0x2eea494b
    800035f0:	def5                	beqz	a3,800035ec <verify_data+0xb64>
    800035f2:	2ef0                	fld	fa2,216(a3)
    800035f4:	8746                	mv	a4,a7
    800035f6:	2ef5                	addw	t4,t4,29
    800035f8:	9bd8                	.2byte	0x9bd8
    800035fa:	2ef6                	fld	ft9,344(sp)
    800035fc:	5b1f 2f1a 9f26      	.byte	0x1f, 0x5b, 0x1a, 0x2f, 0x26, 0x9f
    80003602:	2f24                	fld	fs1,88(a4)
    80003604:	9259                	srl	a2,a2,0x36
    80003606:	2f28                	fld	fa0,88(a4)
    80003608:	91a6                	add	gp,gp,s1
    8000360a:	ef642f2b          	.4byte	0xef642f2b
    8000360e:	b4642f4b          	.4byte	0xb4642f4b
    80003612:	2f70                	fld	fa2,216(a4)
    80003614:	2c50                	fld	fa2,152(s0)
    80003616:	2f82                	fld	ft11,0(sp)
    80003618:	5026                	.2byte	0x5026
    8000361a:	d1cb2f97          	auipc	t6,0xd1cb2
    8000361e:	b6d42fa7          	fsw	fa3,-1153(s0)
    80003622:	2faa                	fld	ft11,136(sp)
    80003624:	2fb80fd7          	vxor.vv	v31,v27,v16
    80003628:	21dc                	fld	fa5,128(a1)
    8000362a:	2fb9                	addw	t6,t6,14 # 51cb5628 <buflen.1+0x51cb55e8>
    8000362c:	2fbefe13          	and	t3,t4,763
    80003630:	2fc79aeb          	.4byte	0x2fc79aeb
    80003634:	2fcade4f          	.4byte	0x2fcade4f
    80003638:	b366                	fsd	fs9,416(sp)
    8000363a:	2fd8                	fld	fa4,152(a5)
    8000363c:	2ff1affb          	.4byte	0x2ff1affb
    80003640:	30107333          	.4byte	0x30107333
    80003644:	301453e7          	.4byte	0x301453e7
    80003648:	3014dbb7          	lui	s7,0x3014d
    8000364c:	94ee                	add	s1,s1,s11
    8000364e:	3041                	vmsge.vx	v0,v0,zero,v0.t
    80003650:	86c8                	.2byte	0x86c8
    80003652:	304d                	.2byte	0x304d
    80003654:	81e5                	srl	a1,a1,0x19
    80003656:	93fd304f          	fnmadd.d	ft0,fs10,ft11,fs2,rup
    8000365a:	89643067          	.4byte	0x89643067
    8000365e:	306a                	fld	ft0,184(sp)
    80003660:	2809                	addw	a6,a6,2
    80003662:	3401306b          	.4byte	0x3401306b
    80003666:	307d                	.2byte	0x307d
    80003668:	46b2                	lw	a3,12(sp)
    8000366a:	3089                	addw	ra,ra,-30
    8000366c:	9914                	.2byte	0x9914
    8000366e:	3095                	addw	ra,ra,-27
    80003670:	cd5f 30b8 735e      	.byte	0x5f, 0xcd, 0xb8, 0x30, 0x5e, 0x73
    80003676:	30ee                	fld	ft1,248(sp)
    80003678:	d0d4                	sw	a3,36(s1)
    8000367a:	30f6                	fld	ft1,376(sp)
    8000367c:	6af4                	ld	a3,208(a3)
    8000367e:	3108                	fld	fa0,32(a0)
    80003680:	1d65                	add	s10,s10,-7
    80003682:	3116                	fld	ft2,352(sp)
    80003684:	31529973          	csrrw	s2,0x315,t0
    80003688:	3170694b          	fnmsub.s	fs2,ft0,fs7,ft6,unknown
    8000368c:	31766a3f 3181e05e 	.8byte	0x3181e05e31766a3f
    80003694:	318c2ea3          	sw	s8,797(s8)
    80003698:	318c39e7          	.4byte	0x318c39e7
    8000369c:	8c7a                	mv	s8,t5
    8000369e:	3198                	fld	fa4,32(a1)
    800036a0:	dfc5                	beqz	a5,80003658 <verify_data+0xbd0>
    800036a2:	31a6                	fld	ft3,104(sp)
    800036a4:	31bc1683          	lh	a3,795(s8)
    800036a8:	0fec                	add	a1,sp,988
    800036aa:	31c6                	fld	ft3,112(sp)
    800036ac:	d196                	sw	t0,224(sp)
    800036ae:	31cc                	fld	fa1,160(a1)
    800036b0:	0a74                	add	a3,sp,284
    800036b2:	31d9                	addw	gp,gp,-10 # ffffffff8000727e <_tbss_end+0xfffffffeffffe5ba>
    800036b4:	58ee                	lw	a7,248(sp)
    800036b6:	fa4731e3          	vmsge.vx	v3,v4,a4
    800036ba:	100a31e3          	vmsge.vx	v3,v0,s4,v0.t
    800036be:	31ec                	fld	fa1,224(a1)
    800036c0:	de75                	beqz	a2,800036bc <verify_data+0xc34>
    800036c2:	3209                	addw	tp,tp,-30 # ffffffffffffffe2 <_tbss_end+0xffffffff7fff731e>
    800036c4:	3213004b          	fnmsub.d	ft0,ft6,ft1,ft6,rne
    800036c8:	6e71                	lui	t3,0x1c
    800036ca:	324a                	fld	ft4,176(sp)
    800036cc:	324f49f7          	.4byte	0x324f49f7
    800036d0:	5676                	lw	a2,124(sp)
    800036d2:	3268                	fld	fa0,224(a2)
    800036d4:	e084                	sd	s1,0(s1)
    800036d6:	326e                	fld	ft4,248(sp)
    800036d8:	dd86                	sw	ra,248(sp)
    800036da:	3276                	fld	ft4,376(sp)
    800036dc:	19a6                	sll	s3,s3,0x29
    800036de:	3280                	fld	fs0,32(a3)
    800036e0:	9e1e                	add	t3,t3,t2
    800036e2:	328d                	addw	t0,t0,-29
    800036e4:	32919983          	lh	s3,809(gp) # 800075b1 <__global_pointer$+0x329>
    800036e8:	2dde                	fld	fs11,464(sp)
    800036ea:	32a2                	fld	ft5,40(sp)
    800036ec:	24ff 32be 29b6 32c4 	.byte	0xff, 0x24, 0xbe, 0x32, 0xb6, 0x29, 0xc4, 0x32, 0x65, 0xa5, 0xcd, 0x32, 0x74, 0x6a
    800036f4:	a565 32cd 6a74 
    800036fa:	32ce                	fld	ft5,240(sp)
    800036fc:	3d32                	fld	fs10,296(sp)
    800036fe:	32d5                	addw	t0,t0,-11
    80003700:	127e                	sll	tp,tp,0x3f
    80003702:	32e0                	fld	fs0,224(a3)
    80003704:	32ee431b          	.4byte	0x32ee431b
    80003708:	e815                	bnez	s0,8000373c <verify_data+0xcb4>
    8000370a:	ffd432f7          	.4byte	0xffd432f7
    8000370e:	330e                	fld	ft6,224(sp)
    80003710:	4b8a                	lw	s7,128(sp)
    80003712:	3312                	fld	ft6,288(sp)
    80003714:	33226d3b          	.4byte	0x33226d3b
    80003718:	bb69                	j	800034b2 <verify_data+0xa2a>
    8000371a:	3324                	fld	fs1,96(a4)
    8000371c:	57fc                	lw	a5,108(a5)
    8000371e:	3326                	fld	ft6,104(sp)
    80003720:	3085                	addw	ra,ra,-31
    80003722:	3339                	addw	t1,t1,-18
    80003724:	a3bc                	fsd	fa5,64(a5)
    80003726:	333c                	fld	fa5,96(a4)
    80003728:	3348100b          	.4byte	0x3348100b
    8000372c:	bf5f 3378 37b1      	.byte	0x5f, 0xbf, 0x78, 0x33, 0xb1, 0x37
    80003732:	337a                	fld	ft6,440(sp)
    80003734:	9944                	.2byte	0x9944
    80003736:	339f 69aa 33a5      	.byte	0x9f, 0x33, 0xaa, 0x69, 0xa5, 0x33
    8000373c:	26c9                	addw	a3,a3,18
    8000373e:	d57033ab          	.4byte	0xd57033ab
    80003742:	33ac                	fld	fa1,96(a5)
    80003744:	f61d                	bnez	a2,80003672 <verify_data+0xbea>
    80003746:	33b6                	fld	ft7,360(sp)
    80003748:	e796                	sd	t0,456(sp)
    8000374a:	33d8                	fld	fa4,160(a5)
    8000374c:	33f842cb          	fnmsub.d	ft5,fa6,ft11,ft6,rmm
    80003750:	34127047          	.4byte	0x34127047
    80003754:	3417d43b          	.4byte	0x3417d43b
    80003758:	86a9                	sra	a3,a3,0xa
    8000375a:	341a                	fld	fs0,416(sp)
    8000375c:	342ec987          	.4byte	0x342ec987
    80003760:	b01d                	j	80002f86 <verify_data+0x4fe>
    80003762:	3438                	fld	fa4,104(s0)
    80003764:	c77a                	sw	t5,140(sp)
    80003766:	345f 935e 3460      	.byte	0x5f, 0x34, 0x5e, 0x93, 0x60, 0x34
    8000376c:	b74e                	fsd	fs3,424(sp)
    8000376e:	3462                	fld	fs0,56(sp)
    80003770:	47ff 346a e798 346c 	.byte	0xff, 0x47, 0x6a, 0x34, 0x98, 0xe7, 0x6c, 0x34, 0xa8, 0xe0, 0x71, 0x34, 0x4e, 0xb3, 0x7a, 0x34, 0x97, 0x3b
    80003778:	e0a8 3471 b34e 347a 
    80003780:	3b97 
    80003782:	347e                	fld	fs0,504(sp)
    80003784:	3491fb3f 34968f93 	.8byte	0x34968f933491fb3f
    8000378c:	3499a707          	flw	fa4,841(s3)
    80003790:	5b28                	lw	a0,112(a4)
    80003792:	34cd                	addw	s1,s1,-13
    80003794:	3644                	fld	fs1,168(a2)
    80003796:	34de                	fld	fs1,496(sp)
    80003798:	6341                	lui	t1,0x10
    8000379a:	5cce34eb          	.4byte	0x5cce34eb
    8000379e:	6b953513          	sltiu	a0,a0,1721
    800037a2:	3526                	fld	fa0,104(sp)
    800037a4:	99c5                	and	a1,a1,-15
    800037a6:	2e883533          	.4byte	0x2e883533
    800037aa:	3539                	addw	a0,a0,-18
    800037ac:	b79f 353e 36c6      	.byte	0x9f, 0xb7, 0x3e, 0x35, 0xc6, 0x36
    800037b2:	b68b3543          	vmsge.vx	v10,v8,s6
    800037b6:	3548                	fld	fa0,168(a0)
    800037b8:	1a2c                	add	a1,sp,312
    800037ba:	3555                	addw	a0,a0,-11
    800037bc:	a8ed                	j	800038b6 <verify_data+0xe2e>
    800037be:	d7583557          	.4byte	0xd7583557
    800037c2:	3559                	addw	a0,a0,-10
    800037c4:	3150                	fld	fa2,160(a0)
    800037c6:	3561                	addw	a0,a0,-8
    800037c8:	05a2                	sll	a1,a1,0x8
    800037ca:	3594                	fld	fa3,40(a1)
    800037cc:	35ae                	fld	fa1,232(sp)
    800037ce:	35c0                	fld	fs0,168(a1)
    800037d0:	5411                	li	s0,-28
    800037d2:	35e6                	fld	fa1,120(sp)
    800037d4:	360e2f13          	slti	t5,t3,864
    800037d8:	3615d7bf 36182d7f 	.8byte	0x36182d7f3615d7bf
    800037e0:	69d9                	lui	s3,0x16
    800037e2:	3632                	fld	fa2,296(sp)
    800037e4:	93c9                	srl	a5,a5,0x32
    800037e6:	3634                	fld	fa3,104(a2)
    800037e8:	d420                	sw	s0,104(s0)
    800037ea:	d5de3647          	.4byte	0xd5de3647
    800037ee:	3661                	addw	a2,a2,-8
    800037f0:	5b94                	lw	a3,48(a5)
    800037f2:	3688                	fld	fa0,40(a3)
    800037f4:	42ad                	li	t0,11
    800037f6:	3698                	fld	fa4,40(a3)
    800037f8:	2b51                	addw	s6,s6,20
    800037fa:	369a                	fld	fa3,416(sp)
    800037fc:	10ae                	sll	ra,ra,0x2b
    800037fe:	36b0                	fld	fa2,104(a3)
    80003800:	36bd5793          	.4byte	0x36bd5793
    80003804:	36d21197          	auipc	gp,0x36d21
    80003808:	181a                	sll	a6,a6,0x26
    8000380a:	36ee                	fld	fa3,248(sp)
    8000380c:	712a                	ld	sp,168(sp)
    8000380e:	2af736f7          	.4byte	0x2af736f7
    80003812:	953f370b          	.4byte	0x953f370b
    80003816:	6219370f          	.4byte	0x6219370f
    8000381a:	99ac371b          	.4byte	0x99ac371b
    8000381e:	42b9372b          	.4byte	0x42b9372b
    80003822:	3731                	addw	a4,a4,-20
    80003824:	b46e                	fsd	fs11,40(sp)
    80003826:	3734                	fld	fa3,104(a4)
    80003828:	f7b8                	sd	a4,104(a5)
    8000382a:	98ff373f e5553741 	.8byte	0xe555374198ff373f
    80003832:	3748                	fld	fa0,168(a4)
    80003834:	3752e6c7          	.4byte	0x3752e6c7
    80003838:	375ced43          	vmsge.vx	v26,v21,s9
    8000383c:	c88e                	sw	gp,80(sp)
    8000383e:	3764                	fld	fs1,232(a4)
    80003840:	3774479b          	.4byte	0x3774479b
    80003844:	a8b1                	j	800038a0 <verify_data+0xe18>
    80003846:	a7273793          	sltiu	a5,a4,-1422
    8000384a:	37a5                	addw	a5,a5,-23
    8000384c:	37a6bc03          	ld	s8,890(a3)
    80003850:	74e5                	lui	s1,0xffff9
    80003852:	37ac                	fld	fa1,104(a5)
    80003854:	66c0                	ld	s0,136(a3)
    80003856:	37b6                	fld	fa5,360(sp)
    80003858:	7574                	ld	a3,232(a0)
    8000385a:	37c2                	fld	fa5,48(sp)
    8000385c:	37c3b8f7          	.4byte	0x37c3b8f7
    80003860:	7da5                	lui	s11,0xfffe9
    80003862:	37c5                	addw	a5,a5,-15
    80003864:	37c94eb3          	.4byte	0x37c94eb3
    80003868:	b958                	fsd	fa4,176(a0)
    8000386a:	37da                	fld	fa5,432(sp)
    8000386c:	626c                	ld	a1,192(a2)
    8000386e:	37e8                	fld	fa0,232(a5)
    80003870:	8c39                	xor	s0,s0,a4
    80003872:	37e8                	fld	fa0,232(a5)
    80003874:	9834                	.2byte	0x9834
    80003876:	b6ea37ff b3cd381d 	.byte	0xff, 0x37, 0xea, 0xb6, 0x1d, 0x38, 0xcd, 0xb3, 0x34, 0x38, 0x8e, 0x57, 0x42, 0x38, 0xf1, 0x20
    8000387e:	578e3834 20f13842 
    80003886:	384a                	fld	fa6,176(sp)
    80003888:	092d                	add	s2,s2,11
    8000388a:	3862                	fld	fa6,56(sp)
    8000388c:	38679167          	.4byte	0x38679167
    80003890:	4d02                	lw	s10,0(sp)
    80003892:	3869                	addw	a6,a6,-6
    80003894:	386a4a27          	.4byte	0x386a4a27
    80003898:	cfc9                	beqz	a5,80003932 <verify_data+0xeaa>
    8000389a:	c145388b          	.4byte	0xc145388b
    8000389e:	3890                	fld	fa2,48(s1)
    800038a0:	3893fc2f          	.4byte	0x3893fc2f
    800038a4:	ffda                	sd	s6,504(sp)
    800038a6:	389f 05d1 38b3      	.byte	0x9f, 0x38, 0xd1, 0x05, 0xb3, 0x38
    800038ac:	38b93c73          	csrrc	s8,0x38b,s2
    800038b0:	f23d                	bnez	a2,80003816 <verify_data+0xd8e>
    800038b2:	38ca                	fld	fa7,176(sp)
    800038b4:	7b46                	ld	s6,112(sp)
    800038b6:	023138d3          	fadd.d	fa7,ft2,ft3,rup
    800038ba:	a07c38db          	.4byte	0xa07c38db
    800038be:	db9c38e3          	vmsge.vx	v17,v25,s8
    800038c2:	38ea                	fld	fa7,184(sp)
    800038c4:	4292                	lw	t0,4(sp)
    800038c6:	3b0338eb          	.4byte	0x3b0338eb
    800038ca:	bd26390b          	.4byte	0xbd26390b
    800038ce:	3925                	addw	s2,s2,-23
    800038d0:	9561                	sra	a0,a0,0x38
    800038d2:	392e                	fld	fs2,232(sp)
    800038d4:	6cd4                	ld	a3,152(s1)
    800038d6:	c9d63947          	fmsub.s	fs2,fa2,ft9,fs9,rup
    800038da:	397a                	fld	fs2,440(sp)
    800038dc:	35c4                	fld	fs1,168(a1)
    800038de:	398c                	fld	fa1,48(a1)
    800038e0:	398d5073          	csrw	0x398,26
    800038e4:	399987cf          	fnmadd.s	fa5,fs3,fs9,ft7,rne
    800038e8:	737c                	ld	a5,224(a4)
    800038ea:	eec339bf 6d6839c2 	.8byte	0x6d6839c2eec339bf
    800038f2:	39c6                	fld	fs3,112(sp)
    800038f4:	39c73b7f 39c96743 	.byte	0x7f, 0x3b, 0xc7, 0x39, 0x43, 0x67, 0xc9, 0x39, 0xf6, 0xfd, 0xd3, 0x39, 0x8e, 0x70, 0xf0, 0x39
    800038fc:	39d3fdf6 39f0708e 
    80003904:	6835                	lui	a6,0xd
    80003906:	3a04                	fld	fs1,48(a2)
    80003908:	493e                	lw	s2,204(sp)
    8000390a:	3a06                	fld	fs4,96(sp)
    8000390c:	56e2                	lw	a3,56(sp)
    8000390e:	3a06                	fld	fs4,96(sp)
    80003910:	3a0a8c2b          	.4byte	0x3a0a8c2b
    80003914:	cef4                	sw	a3,92(a3)
    80003916:	3a2c                	fld	fa1,112(a2)
    80003918:	8a86                	mv	s5,ra
    8000391a:	3a2d                	addw	s4,s4,-21 # 11feb <buflen.1+0x11fab>
    8000391c:	c658                	sw	a4,12(a2)
    8000391e:	3a42                	fld	fs4,48(sp)
    80003920:	3a49aebb          	.4byte	0x3a49aebb
    80003924:	de5c                	sw	a5,60(a2)
    80003926:	3a4e                	fld	fs4,240(sp)
    80003928:	56ec                	lw	a1,108(a3)
    8000392a:	3a74                	fld	fa3,240(a2)
    8000392c:	c985                	beqz	a1,8000395c <verify_data+0xed4>
    8000392e:	3a76                	fld	fs4,376(sp)
    80003930:	3a980e8b          	.4byte	0x3a980e8b
    80003934:	3aba90eb          	.4byte	0x3aba90eb
    80003938:	3ac8d43b          	.4byte	0x3ac8d43b
    8000393c:	0afe                	sll	s5,s5,0x1f
    8000393e:	3ae0                	fld	fs0,240(a3)
    80003940:	4361                	li	t1,24
    80003942:	3aea                	fld	fs5,184(sp)
    80003944:	3b13e5b7          	lui	a1,0x3b13e
    80003948:	cef1                	beqz	a3,80003a24 <verify_data+0xf9c>
    8000394a:	3b1e                	fld	fs6,480(sp)
    8000394c:	fafd                	bnez	a3,80003942 <verify_data+0xeba>
    8000394e:	3b26                	fld	fs6,104(sp)
    80003950:	fdc5                	bnez	a1,80003908 <verify_data+0xe80>
    80003952:	fc5c3b37          	lui	s6,0xfc5c3
    80003956:	af763b3b          	.4byte	0xaf763b3b
    8000395a:	ed023b43          	vmsge.vx	v22,v16,tp,v0.t
    8000395e:	3b76                	fld	fs6,376(sp)
    80003960:	7cce                	ld	s9,240(sp)
    80003962:	3b8a                	fld	fs7,160(sp)
    80003964:	07e4                	add	s1,sp,972
    80003966:	d0de3b8f          	.4byte	0xd0de3b8f
    8000396a:	3b90                	fld	fa2,48(a5)
    8000396c:	3b99408f          	.4byte	0x3b99408f
    80003970:	3eb0                	fld	fa2,120(a3)
    80003972:	3c06                	fld	fs8,96(sp)
    80003974:	e4c1                	bnez	s1,800039fc <verify_data+0xf74>
    80003976:	3c39                	addw	s8,s8,-18
    80003978:	02ec                	add	a1,sp,332
    8000397a:	3c49                	addw	s8,s8,-14
    8000397c:	de19                	beqz	a2,8000389a <verify_data+0xe12>
    8000397e:	3c49                	addw	s8,s8,-14
    80003980:	bdbd                	j	800037fe <verify_data+0xd76>
    80003982:	3a763c4b          	fnmsub.d	fs8,fa2,ft7,ft7,rup
    80003986:	e86b3c5b          	.4byte	0xe86b3c5b
    8000398a:	3c6e                	fld	fs8,248(sp)
    8000398c:	1752                	sll	a4,a4,0x34
    8000398e:	3c96                	fld	fs9,352(sp)
    80003990:	3c985217          	auipc	tp,0x3c985
    80003994:	8b6a                	mv	s6,s10
    80003996:	3ccc                	fld	fa1,184(s1)
    80003998:	71b9                	lui	gp,0xfffee
    8000399a:	a1413cdb          	.4byte	0xa1413cdb
    8000399e:	0d013cf7          	.4byte	0xd013cf7
    800039a2:	3d1a                	fld	fs10,416(sp)
    800039a4:	bfe5                	j	8000399c <verify_data+0xf14>
    800039a6:	3d2c                	fld	fa1,120(a0)
    800039a8:	54be                	lw	s1,236(sp)
    800039aa:	3d2d                	addw	s10,s10,-21
    800039ac:	5ae1                	li	s5,-8
    800039ae:	3d42                	fld	fs10,48(sp)
    800039b0:	3d4262f7          	.4byte	0x3d4262f7
    800039b4:	1d74                	add	a3,sp,700
    800039b6:	3d4e                	fld	fs10,240(sp)
    800039b8:	8d0c                	.2byte	0x8d0c
    800039ba:	3d52                	fld	fs10,304(sp)
    800039bc:	56d6                	lw	a3,116(sp)
    800039be:	3d54                	fld	fa3,184(a0)
    800039c0:	fb3a                	sd	a4,432(sp)
    800039c2:	742a3d57          	vmsle.vi	v26,v2,-12,v0.t
    800039c6:	3d5a                	fld	fs10,432(sp)
    800039c8:	00fc                	add	a5,sp,76
    800039ca:	3d62                	fld	fs10,56(sp)
    800039cc:	592a                	lw	s2,168(sp)
    800039ce:	3d7d                	addw	s10,s10,-1
    800039d0:	7fc4                	ld	s1,184(a5)
    800039d2:	3d8e                	fld	fs11,224(sp)
    800039d4:	3d9105a3          	sb	s9,971(sp)
    800039d8:	38e6                	fld	fa7,120(sp)
    800039da:	3da0                	fld	fs0,120(a1)
    800039dc:	ffa0                	sd	s0,120(a5)
    800039de:	3db1                	addw	s11,s11,-20 # fffffffffffe8fec <_tbss_end+0xffffffff7ffe0328>
    800039e0:	3dbf7153          	.4byte	0x3dbf7153
    800039e4:	50ad                	li	ra,-21
    800039e6:	e9283dd7          	.4byte	0xe9283dd7
    800039ea:	3dde                	fld	fs11,496(sp)
    800039ec:	4c2e                	lw	s8,200(sp)
    800039ee:	b7773deb          	.4byte	0xb7773deb
    800039f2:	0a4d3e27          	fsd	ft4,188(s10)
    800039f6:	3e2a                	fld	ft8,168(sp)
    800039f8:	f67f                	.2byte	0xf67f
    800039fa:	3e38                	fld	fa4,120(a2)
    800039fc:	3e3b8743          	vmsge.vx	v14,v3,s7
    80003a00:	3e5303f7          	.4byte	0x3e5303f7
    80003a04:	79d1                	lui	s3,0xffff4
    80003a06:	17143e53          	.4byte	0x17143e53
    80003a0a:	3e6d                	addw	t3,t3,-5 # 1bffb <buflen.1+0x1bfbb>
    80003a0c:	99ec                	.2byte	0x99ec
    80003a0e:	3e85                	addw	t4,t4,-31
    80003a10:	b8b0                	fsd	fa2,112(s1)
    80003a12:	3e8d                	addw	t4,t4,-29
    80003a14:	6ce8                	ld	a0,216(s1)
    80003a16:	8b753e9b          	.4byte	0x8b753e9b
    80003a1a:	3e9d                	addw	t4,t4,-25
    80003a1c:	ccad                	beqz	s1,80003a96 <verify_data+0x100e>
    80003a1e:	c5723ea7          	fsd	fs7,-931(tp) # bc9885ed <_tbss_end+0x3c97f929>
    80003a22:	99263ed3          	.4byte	0x99263ed3
    80003a26:	3f00                	fld	fs0,56(a4)
    80003a28:	227f 3f1a 1b75 3f1e 	.byte	0x7f, 0x22, 0x1a, 0x3f, 0x75, 0x1b, 0x1e, 0x3f, 0xee, 0xc5, 0x4a, 0x3f, 0x4c, 0x20
    80003a30:	c5ee 3f4a 204c 
    80003a36:	3f66                	fld	ft10,120(sp)
    80003a38:	7168                	ld	a0,224(a0)
    80003a3a:	d17c3f67          	.4byte	0xd17c3f67
    80003a3e:	e53c3f67          	.4byte	0xe53c3f67
    80003a42:	3f68                	fld	fa0,248(a4)
    80003a44:	b11e                	fsd	ft7,160(sp)
    80003a46:	3f7c                	fld	fa5,248(a4)
    80003a48:	f425                	bnez	s0,800039b0 <verify_data+0xf28>
    80003a4a:	3f81                	addw	t6,t6,-32
    80003a4c:	156e                	sll	a0,a0,0x3b
    80003a4e:	3f8a                	fld	ft11,160(sp)
    80003a50:	3f95e34b          	.4byte	0x3f95e34b
    80003a54:	f67d                	bnez	a2,80003a42 <verify_data+0xfba>
    80003a56:	3fa4                	fld	fs1,120(a5)
    80003a58:	5aa8                	lw	a0,112(a3)
    80003a5a:	3fb1                	addw	t6,t6,-20
    80003a5c:	91b1                	srl	a1,a1,0x2c
    80003a5e:	3fb4                	fld	fa3,120(a5)
    80003a60:	83ba                	mv	t2,a4
    80003a62:	3fbe                	fld	ft11,488(sp)
    80003a64:	4afd                	li	s5,31
    80003a66:	fa463fff 12294001 	.byte	0xff, 0x3f, 0x46, 0xfa, 0x01, 0x40, 0x29, 0x12, 0x07, 0x40, 0xc8, 0xd5, 0x1e, 0x40, 0x40, 0x7e
    80003a6e:	d5c84007 7e40401e 
    80003a76:	4025                	c.li	zero,9
    80003a78:	4043fd5b          	.4byte	0x4043fd5b
    80003a7c:	405d5a9b          	sraw	s5,s10,0x5
    80003a80:	a050                	fsd	fa2,128(s0)
    80003a82:	4085                	li	ra,1
    80003a84:	345c                	fld	fa5,168(s0)
    80003a86:	7651408b          	.4byte	0x7651408b
    80003a8a:	c4ff408b          	.4byte	0xc4ff408b
    80003a8e:	40b0                	lw	a2,64(s1)
    80003a90:	4885                	li	a7,1
    80003a92:	40cd                	li	ra,19
    80003a94:	0d2d                	add	s10,s10,11
    80003a96:	40ce                	lw	ra,208(sp)
    80003a98:	24f2                	fld	fs1,280(sp)
    80003a9a:	40ce                	lw	ra,208(sp)
    80003a9c:	cc41                	beqz	s0,80003b34 <verify_data+0x10ac>
    80003a9e:	40d2                	lw	ra,20(sp)
    80003aa0:	a17a                	fsd	ft10,128(sp)
    80003aa2:	40d5                	li	ra,21
    80003aa4:	0dea                	sll	s11,s11,0x1a
    80003aa6:	a95e40ef          	jal	7ffe853a <buflen.1+0x7ffe84fa>
    80003aaa:	ad3840f3          	.4byte	0xad3840f3
    80003aae:	40f9                	li	ra,30
    80003ab0:	f865                	bnez	s0,80003aa0 <verify_data+0x1018>
    80003ab2:	40fd                	li	ra,31
    80003ab4:	40fed847          	fmsub.s	fa6,ft9,fa5,fs0,unknown
    80003ab8:	411c6f63          	bltu	s8,a7,80003ed6 <verify_data+0x144e>
    80003abc:	41240a87          	.4byte	0x41240a87
    80003ac0:	6f6a                	ld	t5,152(sp)
    80003ac2:	4139                	li	sp,14
    80003ac4:	3ab2                	fld	fs5,296(sp)
    80003ac6:	413d                	li	sp,15
    80003ac8:	88ae                	mv	a7,a1
    80003aca:	414a                	lw	sp,144(sp)
    80003acc:	58f0                	lw	a2,116(s1)
    80003ace:	418e                	lw	gp,192(sp)
    80003ad0:	4ba0                	lw	s0,80(a5)
    80003ad2:	4191                	li	gp,4
    80003ad4:	07d4                	add	a3,sp,964
    80003ad6:	4192                	lw	gp,4(sp)
    80003ad8:	41aaf2ef          	jal	t0,800b2ef2 <_tbss_end+0xaa22e>
    80003adc:	2be4                	fld	fs1,208(a5)
    80003ade:	41ae                	lw	gp,200(sp)
    80003ae0:	a764                	fsd	fs1,200(a4)
    80003ae2:	41b5                	li	gp,13
    80003ae4:	65ff 41b8 a514 41be 	.byte	0xff, 0x65, 0xb8, 0x41, 0x14, 0xa5, 0xbe, 0x41, 0xba, 0x94, 0xf6, 0x41, 0x97, 0x29, 0x2f, 0x42, 0x26, 0xc7, 0x3b, 0x42, 0xe2, 0xa0
    80003aec:	94ba 41f6 2997 422f 
    80003af4:	c726 423b a0e2 
    80003afa:	4248                	lw	a0,4(a2)
    80003afc:	f095                	bnez	s1,80003a20 <verify_data+0xf98>
    80003afe:	4252                	lw	tp,20(sp)
    80003b00:	9e80                	vmsge.vx	v29,v0,ra,v0.t
    80003b02:	4261                	li	tp,24
    80003b04:	8d86                	mv	s11,ra
    80003b06:	42d0                	lw	a2,4(a3)
    80003b08:	42d7b4a3          	sd	a3,1065(a5)
    80003b0c:	42dd5013          	sra	zero,s10,0x2d
    80003b10:	42dfc0af          	.4byte	0x42dfc0af
    80003b14:	1664                	add	s1,sp,812
    80003b16:	42ec                	lw	a1,68(a3)
    80003b18:	aca1                	j	80003d70 <verify_data+0x12e8>
    80003b1a:	42f4                	lw	a3,68(a3)
    80003b1c:	1936                	sll	s2,s2,0x2d
    80003b1e:	42f8                	lw	a4,68(a3)
    80003b20:	430fbce7          	.4byte	0x430fbce7
    80003b24:	b1f5                	j	80003810 <verify_data+0xd88>
    80003b26:	431a                	lw	t1,132(sp)
    80003b28:	aba4                	fsd	fs1,80(a5)
    80003b2a:	431d                	li	t1,7
    80003b2c:	4d99                	li	s11,6
    80003b2e:	8fd1432f          	.4byte	0x8fd1432f
    80003b32:	433a                	lw	t1,140(sp)
    80003b34:	9488                	.2byte	0x9488
    80003b36:	4349                	li	t1,18
    80003b38:	6781                	vmsge.vx	v15,v0,zero,v0.t
    80003b3a:	c7ab4367          	.4byte	0xc7ab4367
    80003b3e:	0f3a4373          	.4byte	0xf3a4373
    80003b42:	4382                	lw	t2,0(sp)
    80003b44:	7015                	c.lui	zero,0xfffe5
    80003b46:	19f2438f          	.4byte	0x19f2438f
    80003b4a:	4396                	lw	t2,68(sp)
    80003b4c:	4adc                	lw	a5,20(a3)
    80003b4e:	439a                	lw	t2,132(sp)
    80003b50:	d65f 43b2 0354      	.byte	0x5f, 0xd6, 0xb2, 0x43, 0x54, 0x03
    80003b56:	43ba                	lw	t2,140(sp)
    80003b58:	6d74                	ld	a3,216(a0)
    80003b5a:	0be443bb          	.4byte	0xbe443bb
    80003b5e:	43cd                	li	t2,19
    80003b60:	43e409b7          	lui	s3,0x43e40
    80003b64:	3234                	fld	fa3,96(a2)
    80003b66:	43e6                	lw	t2,88(sp)
    80003b68:	247f 43f3 22f9 43fe 	.byte	0x7f, 0x24, 0xf3, 0x43, 0xf9, 0x22, 0xfe, 0x43, 0x12, 0x5c, 0x23, 0x44, 0xca, 0x99
    80003b70:	5c12 4423 99ca 
    80003b76:	4428                	lw	a0,72(s0)
    80003b78:	d032                	sw	a2,32(sp)
    80003b7a:	442d                	li	s0,11
    80003b7c:	5118                	lw	a4,32(a0)
    80003b7e:	4430                	lw	a2,72(s0)
    80003b80:	463a                	lw	a2,140(sp)
    80003b82:	443a                	lw	s0,140(sp)
    80003b84:	44630ba3          	sb	t1,1111(t1) # 10457 <buflen.1+0x10417>
    80003b88:	ef61                	bnez	a4,80003c60 <verify_data+0x11d8>
    80003b8a:	4469                	li	s0,26
    80003b8c:	4477c207          	.4byte	0x4477c207
    80003b90:	1402                	sll	s0,s0,0x20
    80003b92:	447e                	lw	s0,220(sp)
    80003b94:	82a8                	.2byte	0x82a8
    80003b96:	3cf24497          	auipc	s1,0x3cf24
    80003b9a:	79ab44af          	.4byte	0x79ab44af
    80003b9e:	44b0                	lw	a2,72(s1)
    80003ba0:	7ed5                	lui	t4,0xffff5
    80003ba2:	44d5                	li	s1,21
    80003ba4:	e886                	sd	ra,80(sp)
    80003ba6:	44de                	lw	s1,212(sp)
    80003ba8:	44e034f3          	csrrc	s1,0x44e,zero
    80003bac:	be30                	fsd	fa2,120(a2)
    80003bae:	980f44f3          	.4byte	0x980f44f3
    80003bb2:	4500                	lw	s0,8(a0)
    80003bb4:	3ef5                	addw	t4,t4,-3 # ffffffffffff4ffd <_tbss_end+0xffffffff7ffec339>
    80003bb6:	451f 4e25 4520      	.byte	0x1f, 0x45, 0x25, 0x4e, 0x20, 0x45
    80003bbc:	a5a0                	fsd	fs0,72(a1)
    80003bbe:	4522                	lw	a0,8(sp)
    80003bc0:	bf66                	fsd	fs9,440(sp)
    80003bc2:	4524                	lw	s1,72(a0)
    80003bc4:	452708a7          	vsuxseg3ei8.v	v17,(a4),v18,v0.t
    80003bc8:	45288ea3          	sb	s2,1117(a7)
    80003bcc:	452947fb          	.4byte	0x452947fb
    80003bd0:	6738                	ld	a4,72(a4)
    80003bd2:	452c                	lw	a1,72(a0)
    80003bd4:	4f90                	lw	a2,24(a5)
    80003bd6:	453c                	lw	a5,72(a0)
    80003bd8:	14c2                	sll	s1,s1,0x30
    80003bda:	454d                	li	a0,19
    80003bdc:	4f41                	li	t5,16
    80003bde:	39da4577          	.4byte	0x39da4577
    80003be2:	2dac4583          	lbu	a1,730(s8)
    80003be6:	4592                	lw	a1,4(sp)
    80003be8:	45a55e33          	.4byte	0x45a55e33
    80003bec:	8575                	sra	a0,a0,0x1d
    80003bee:	45b2                	lw	a1,12(sp)
    80003bf0:	91ea                	add	gp,gp,s10
    80003bf2:	45c4                	lw	s1,12(a1)
    80003bf4:	601e                	.2byte	0x601e
    80003bf6:	45c8                	lw	a0,12(a1)
    80003bf8:	d378                	sw	a4,100(a4)
    80003bfa:	45cc                	lw	a1,12(a1)
    80003bfc:	45da2b4b          	.4byte	0x45da2b4b
    80003c00:	45dfbae3          	vmsge.vx	v21,v29,t6,v0.t
    80003c04:	60d8                	ld	a4,128(s1)
    80003c06:	22c245f7          	.4byte	0x22c245f7
    80003c0a:	45f8                	lw	a4,76(a1)
    80003c0c:	c688                	sw	a0,8(a3)
    80003c0e:	4602                	lw	a2,0(sp)
    80003c10:	2449                	addw	s0,s0,18
    80003c12:	4609                	li	a2,2
    80003c14:	952d                	sra	a0,a0,0x2b
    80003c16:	4616                	lw	a2,68(sp)
    80003c18:	2b82                	fld	fs7,0(sp)
    80003c1a:	4638                	lw	a4,72(a2)
    80003c1c:	d58c                	sw	a1,40(a1)
    80003c1e:	463a                	lw	a2,140(sp)
    80003c20:	20ae                	fld	ft1,200(sp)
    80003c22:	464e                	lw	a2,208(sp)
    80003c24:	5558                	lw	a4,44(a0)
    80003c26:	4656                	lw	a2,84(sp)
    80003c28:	465d649b          	.4byte	0x465d649b
    80003c2c:	8db4                	.2byte	0x8db4
    80003c2e:	3a7a4667          	.4byte	0x3a7a4667
    80003c32:	468a                	lw	a3,128(sp)
    80003c34:	fa54                	sd	a3,176(a2)
    80003c36:	469a                	lw	a3,132(sp)
    80003c38:	42ff 46ae 9d13 46d0 	.byte	0xff, 0x42, 0xae, 0x46, 0x13, 0x9d, 0xd0, 0x46, 0x13, 0xdd, 0xda, 0x46, 0x78, 0xdb, 0xe0, 0x46, 0xb8, 0xa1
    80003c40:	dd13 46da db78 46e0 
    80003c48:	a1b8 
    80003c4a:	8a9e46e3          	blt	t3,s1,800034f6 <verify_data+0xa6e>
    80003c4e:	6c8346fb          	.4byte	0x6c8346fb
    80003c52:	46fe                	lw	a3,220(sp)
    80003c54:	0e38                	add	a4,sp,792
    80003c56:	4705                	li	a4,1
    80003c58:	dae5                	beqz	a3,80003c48 <verify_data+0x11c0>
    80003c5a:	470e                	lw	a4,192(sp)
    80003c5c:	9f7d                	.2byte	0x9f7d
    80003c5e:	d0aa472b          	.4byte	0xd0aa472b
    80003c62:	4735                	li	a4,13
    80003c64:	47c5                	li	a5,17
    80003c66:	ead3476b          	.4byte	0xead3476b
    80003c6a:	1b49476b          	.4byte	0x1b49476b
    80003c6e:	4775                	li	a4,29
    80003c70:	229c                	fld	fa5,0(a3)
    80003c72:	477c                	lw	a5,76(a4)
    80003c74:	4797b60f          	.4byte	0x4797b60f
    80003c78:	479820a3          	sw	s9,1121(a6) # d461 <buflen.1+0xd421>
    80003c7c:	ddb4                	sw	a3,120(a1)
    80003c7e:	479f 3740 47a5      	.byte	0x9f, 0x47, 0x40, 0x37, 0xa5, 0x47
    80003c84:	8ad5                	and	a3,a3,21
    80003c86:	155447a7          	.4byte	0x155447a7
    80003c8a:	47ba                	lw	a5,140(sp)
    80003c8c:	0524                	add	s1,sp,648
    80003c8e:	47c2                	lw	a5,16(sp)
    80003c90:	b8f5                	j	8000358c <verify_data+0xb04>
    80003c92:	47d2                	lw	a5,20(sp)
    80003c94:	d05f 47da 8286      	.byte	0x5f, 0xd0, 0xda, 0x47, 0x86, 0x82
    80003c9a:	47e0                	lw	s0,76(a5)
    80003c9c:	b732                	fsd	fa2,424(sp)
    80003c9e:	47e6                	lw	a5,88(sp)
    80003ca0:	481bd9f3          	csrrw	s3,0x481,23
    80003ca4:	0125                	add	sp,sp,9
    80003ca6:	481f 3db3 4847      	.byte	0x1f, 0x48, 0xb3, 0x3d, 0x47, 0x48
    80003cac:	8551                	sra	a0,a0,0x14
    80003cae:	484c                	lw	a1,20(s0)
    80003cb0:	f4ee                	sd	s11,104(sp)
    80003cb2:	4861                	li	a6,24
    80003cb4:	adb0                	fsd	fa2,88(a1)
    80003cb6:	486a                	lw	a6,152(sp)
    80003cb8:	6559                	lui	a0,0x16
    80003cba:	486c                	lw	a1,84(s0)
    80003cbc:	0341                	add	t1,t1,16
    80003cbe:	486d                	li	a6,27
    80003cc0:	4881f2b7          	lui	t0,0x4881f
    80003cc4:	36f5                	addw	a3,a3,-3
    80003cc6:	4896                	lw	a7,68(sp)
    80003cc8:	2d61                	addw	s10,s10,24
    80003cca:	48a1                	li	a7,8
    80003ccc:	48bfb5ef          	jal	a1,800ff956 <_tbss_end+0xf6c92>
    80003cd0:	b06d                	j	8000357a <verify_data+0xaf2>
    80003cd2:	48c5                	li	a7,17
    80003cd4:	a2c4                	fsd	fs1,128(a3)
    80003cd6:	48c8                	lw	a0,20(s1)
    80003cd8:	48d2104f          	fnmadd.s	ft0,ft4,fa3,fs1,rtz
    80003cdc:	48deb2b3          	.4byte	0x48deb2b3
    80003ce0:	c11e                	sw	t2,128(sp)
    80003ce2:	48ec                	lw	a1,84(s1)
    80003ce4:	48ee3bd3          	.4byte	0x48ee3bd3
    80003ce8:	662c                	ld	a1,72(a2)
    80003cea:	48ee                	lw	a7,216(sp)
    80003cec:	493e456f          	jal	a0,800e897e <_tbss_end+0xdfcba>
    80003cf0:	2b3c                	fld	fa5,80(a4)
    80003cf2:	44f24957          	vmadc.vxm	v18,v15,tp,v0
    80003cf6:	4961                	li	s2,24
    80003cf8:	d92d                	beqz	a0,80003c6a <verify_data+0x11e2>
    80003cfa:	4961                	li	s2,24
    80003cfc:	49635f53          	.4byte	0x49635f53
    80003d00:	523d                	li	tp,-17
    80003d02:	4969                	li	s2,26
    80003d04:	ccf5                	beqz	s1,80003e00 <verify_data+0x1378>
    80003d06:	496d                	li	s2,27
    80003d08:	49777d6b          	.4byte	0x49777d6b
    80003d0c:	f754                	sd	a3,168(a4)
    80003d0e:	497d                	li	s2,31
    80003d10:	6fb9                	lui	t6,0xe
    80003d12:	497e                	lw	s2,220(sp)
    80003d14:	c139                	beqz	a0,80003d5a <verify_data+0x12d2>
    80003d16:	c342498f          	.4byte	0xc342498f
    80003d1a:	cba1499b          	.4byte	0xcba1499b
    80003d1e:	49b049e3          	bgtz	s11,800049b0 <verify_data+0x1f28>
    80003d22:	49ed                	li	s3,27
    80003d24:	4a41b0ab          	.4byte	0x4a41b0ab
    80003d28:	4a5ba023          	sw	t0,1184(s7) # 3014d4a0 <buflen.1+0x3014d460>
    80003d2c:	8c9f 4a73 0635      	.byte	0x9f, 0x8c, 0x73, 0x4a, 0x35, 0x06
    80003d32:	4a75                	li	s4,29
    80003d34:	fd96                	sd	t0,248(sp)
    80003d36:	4a86                	lw	s5,64(sp)
    80003d38:	ca59                	beqz	a2,80003dce <verify_data+0x1346>
    80003d3a:	4ad5                	li	s5,21
    80003d3c:	4699                	li	a3,6
    80003d3e:	4add                	li	s5,23
    80003d40:	5c10                	lw	a2,56(s0)
    80003d42:	4adf bad6 4ae2      	.byte	0xdf, 0x4a, 0xd6, 0xba, 0xe2, 0x4a
    80003d48:	0a4e                	sll	s4,s4,0x13
    80003d4a:	4af4                	lw	a3,84(a3)
    80003d4c:	4b27318b          	.4byte	0x4b27318b
    80003d50:	af6d                	j	8000450a <verify_data+0x1a82>
    80003d52:	4b3e                	lw	s6,204(sp)
    80003d54:	4b8786af          	.4byte	0x4b8786af
    80003d58:	3372                	fld	ft6,312(sp)
    80003d5a:	4bae                	lw	s7,200(sp)
    80003d5c:	91ec                	.2byte	0x91ec
    80003d5e:	d9bb4bc7          	fmsub.s	fs7,fs6,fs11,fs11,rmm
    80003d62:	058c4be3          	blt	s8,s8,800045b8 <verify_data+0x1b30>
    80003d66:	9b834bef          	jal	s7,7ff37f1e <buflen.1+0x7ff37ede>
    80003d6a:	4bf2                	lw	s7,28(sp)
    80003d6c:	5c1f 4bf6 040c      	.byte	0x1f, 0x5c, 0xf6, 0x4b, 0x0c, 0x04
    80003d72:	4c04                	lw	s1,24(s0)
    80003d74:	97d2                	add	a5,a5,s4
    80003d76:	4c06                	lw	s8,64(sp)
    80003d78:	58c2                	lw	a7,48(sp)
    80003d7a:	4c11                	li	s8,4
    80003d7c:	8cce                	mv	s9,s3
    80003d7e:	4c2d                	li	s8,11
    80003d80:	4c38983f 4c38dab4 	.8byte	0x4c38dab44c38983f
    80003d88:	4c3ceec7          	.4byte	0x4c3ceec7
    80003d8c:	f69e                	sd	t2,360(sp)
    80003d8e:	4c4a                	lw	s8,144(sp)
    80003d90:	465f 4c61 7db2      	.byte	0x5f, 0x46, 0x61, 0x4c, 0xb2, 0x7d
    80003d96:	e8004c9b          	.4byte	0xe8004c9b
    80003d9a:	4cb5                	li	s9,13
    80003d9c:	acda                	fsd	fs6,88(sp)
    80003d9e:	4cb8                	lw	a4,88(s1)
    80003da0:	4cc2bb0b          	.4byte	0x4cc2bb0b
    80003da4:	c236                	sw	a3,4(sp)
    80003da6:	47684ccf          	.4byte	0x47684ccf
    80003daa:	4cd9                	li	s9,22
    80003dac:	4ced7143          	vmsge.vx	v2,v14,s10,v0.t
    80003db0:	a049                	j	80003e32 <verify_data+0x13aa>
    80003db2:	4cf2                	lw	s9,28(sp)
    80003db4:	7b64                	ld	s1,240(a4)
    80003db6:	2ba04cf3          	.4byte	0x2ba04cf3
    80003dba:	4cf4                	lw	a3,92(s1)
    80003dbc:	cad2                	sw	s4,84(sp)
    80003dbe:	4cf9                	li	s9,30
    80003dc0:	1e4c                	add	a1,sp,820
    80003dc2:	aadb4d03          	lbu	s10,-1363(s6) # fffffffffc5c2aad <_tbss_end+0xffffffff7c5b9de9>
    80003dc6:	4d08                	lw	a0,24(a0)
    80003dc8:	4d130333          	.4byte	0x4d130333
    80003dcc:	345f 4d2e 799b      	.byte	0x5f, 0x34, 0x2e, 0x4d, 0x9b, 0x79
    80003dd2:	4d4c                	lw	a1,28(a0)
    80003dd4:	f848                	sd	a0,176(s0)
    80003dd6:	4d60                	lw	s0,92(a0)
    80003dd8:	5bb8                	lw	a4,112(a5)
    80003dda:	1a904d77          	.4byte	0x1a904d77
    80003dde:	4d9f fe51 4da5      	.byte	0x9f, 0x4d, 0x51, 0xfe, 0xa5, 0x4d
    80003de4:	6f29                	lui	t5,0xa
    80003de6:	4db5                	li	s11,13
    80003de8:	cec0                	sw	s0,28(a3)
    80003dea:	4dc9                	li	s11,18
    80003dec:	4e03cf67          	.4byte	0x4e03cf67
    80003df0:	b8a4                	fsd	fs1,112(s1)
    80003df2:	82044e17          	auipc	t3,0x82044
    80003df6:	4e34                	lw	a3,88(a2)
    80003df8:	b850                	fsd	fa2,176(s0)
    80003dfa:	4e3a                	lw	t3,140(sp)
    80003dfc:	4e448da7          	vsoxseg3ei8.v	v27,(s1),v4
    80003e00:	4e4c9107          	.4byte	0x4e4c9107
    80003e04:	1808                	add	a0,sp,48
    80003e06:	4e50                	lw	a2,28(a2)
    80003e08:	6961                	lui	s2,0x18
    80003e0a:	4e72                	lw	t3,28(sp)
    80003e0c:	0276                	sll	tp,tp,0x1d
    80003e0e:	4e81                	li	t4,0
    80003e10:	e729                	bnez	a4,80003e5a <verify_data+0x13d2>
    80003e12:	4e82                	lw	t4,0(sp)
    80003e14:	94d2                	add	s1,s1,s4
    80003e16:	d2144e8f          	.4byte	0xd2144e8f
    80003e1a:	4e9c                	lw	a5,24(a3)
    80003e1c:	4eaa874f          	.4byte	0x4eaa874f
    80003e20:	8f85                	sub	a5,a5,s1
    80003e22:	4eca                	lw	t4,144(sp)
    80003e24:	687e                	ld	a6,472(sp)
    80003e26:	4ed0                	lw	a2,28(a3)
    80003e28:	4ed6bee3          	vmsge.vx	v29,v13,a3
    80003e2c:	9124                	.2byte	0x9124
    80003e2e:	85ea4ee7          	.4byte	0x85ea4ee7
    80003e32:	4eec                	lw	a1,92(a3)
    80003e34:	aeb6                	fsd	fa3,344(sp)
    80003e36:	4ef5                	li	t4,29
    80003e38:	4efa053b          	.4byte	0x4efa053b
    80003e3c:	2d0a                	fld	fs10,128(sp)
    80003e3e:	6b084efb          	.4byte	0x6b084efb
    80003e42:	4f09                	li	t5,2
    80003e44:	d49f 4f2b 2e2c      	.byte	0x9f, 0xd4, 0x2b, 0x4f, 0x2c, 0x2e
    80003e4a:	4f35                	li	t5,13
    80003e4c:	4c14                	lw	a3,24(s0)
    80003e4e:	82e34f5b          	.4byte	0x82e34f5b
    80003e52:	4f5e                	lw	t5,212(sp)
    80003e54:	7e0c                	ld	a1,56(a2)
    80003e56:	4f6a                	lw	t5,152(sp)
    80003e58:	d6f6                	sw	t4,108(sp)
    80003e5a:	2e644f6b          	.4byte	0x2e644f6b
    80003e5e:	4f6e                	lw	t5,216(sp)
    80003e60:	4f730137          	lui	sp,0x4f730
    80003e64:	0661                	add	a2,a2,24
    80003e66:	4f80                	lw	s0,24(a5)
    80003e68:	4e44                	lw	s1,28(a2)
    80003e6a:	4f90                	lw	a2,24(a5)
    80003e6c:	177e                	sll	a4,a4,0x3f
    80003e6e:	4f96                	lw	t6,68(sp)
    80003e70:	08d9                	add	a7,a7,22
    80003e72:	6eff4f97          	auipc	t6,0x6eff4
    80003e76:	4f9c                	lw	a5,24(a5)
    80003e78:	9f10                	.2byte	0x9f10
    80003e7a:	4f9f 6481 4fa3      	.byte	0x9f, 0x4f, 0x81, 0x64, 0xa3, 0x4f
    80003e80:	94c6                	add	s1,s1,a7
    80003e82:	4fa9                	li	t6,10
    80003e84:	3271                	addw	tp,tp,-4 # fffffffffffffffc <_tbss_end+0xffffffff7fff7338>
    80003e86:	a3944fb7          	lui	t6,0xa3944
    80003e8a:	4fc1                	li	t6,16
    80003e8c:	fda0                	sd	s0,120(a1)
    80003e8e:	44314fd3          	.4byte	0x44314fd3
    80003e92:	4fed                	li	t6,27
    80003e94:	b9ad                	j	80003b0e <verify_data+0x1086>
    80003e96:	501d                	c.li	zero,-25
    80003e98:	495f 502b d8ac      	.byte	0x5f, 0x49, 0x2b, 0x50, 0xac, 0xd8
    80003e9e:	5030                	lw	a2,96(s0)
    80003ea0:	503866b3          	.4byte	0x503866b3
    80003ea4:	259f 503a ed35      	.byte	0x9f, 0x25, 0x3a, 0x50, 0x35, 0xed
    80003eaa:	504d                	c.li	zero,-13
    80003eac:	5c0d                	li	s8,-29
    80003eae:	505e                	.2byte	0x505e
    80003eb0:	8da5                	xor	a1,a1,s1
    80003eb2:	505e                	.2byte	0x505e
    80003eb4:	5615                	li	a2,-27
    80003eb6:	5081                	li	ra,-32
    80003eb8:	9ad6                	add	s5,s5,s5
    80003eba:	50a2                	lw	ra,40(sp)
    80003ebc:	5896                	lw	a7,100(sp)
    80003ebe:	636650a7          	.4byte	0x636650a7
    80003ec2:	50b4                	lw	a3,96(s1)
    80003ec4:	fc05                	bnez	s0,80003dfc <verify_data+0x1374>
    80003ec6:	50c4                	lw	s1,36(s1)
    80003ec8:	a0ae                	fsd	fa1,64(sp)
    80003eca:	50c9                	li	ra,-14
    80003ecc:	50dfdaef          	jal	s5,80101bd8 <_tbss_end+0xf8f14>
    80003ed0:	67d5                	lui	a5,0x15
    80003ed2:	511f 6762 5120      	.byte	0x1f, 0x51, 0x62, 0x67, 0x20, 0x51
    80003ed8:	b562                	fsd	fs8,168(sp)
    80003eda:	5162                	lw	sp,56(sp)
    80003edc:	eb98                	sd	a4,16(a5)
    80003ede:	5185                	li	gp,-31
    80003ee0:	518d9d7b          	.4byte	0x518d9d7b
    80003ee4:	9932                	add	s2,s2,a2
    80003ee6:	51b0                	lw	a2,96(a1)
    80003ee8:	a63a                	fsd	fa4,264(sp)
    80003eea:	51c9                	li	gp,-14
    80003eec:	3fa1                	addw	t6,t6,-24 # ffffffffa3943fe8 <_tbss_end+0xffffffff2393b324>
    80003eee:	51e5                	li	gp,-7
    80003ef0:	7c82                	ld	s9,32(sp)
    80003ef2:	049e51e7          	.4byte	0x49e51e7
    80003ef6:	51fc                	lw	a5,100(a1)
    80003ef8:	8b7a                	mv	s6,t5
    80003efa:	5222                	lw	tp,40(sp)
    80003efc:	5235d287          	.4byte	0x5235d287
    80003f00:	e641                	bnez	a2,80003f88 <verify_data+0x1500>
    80003f02:	5238                	lw	a4,96(a2)
    80003f04:	10ed                	add	ra,ra,-5
    80003f06:	5241                	li	tp,-16
    80003f08:	34f5                	addw	s1,s1,-3 # ffffffffbcf27b93 <_tbss_end+0xffffffff3cf1eecf>
    80003f0a:	5266                	lw	tp,120(sp)
    80003f0c:	52670823          	sb	t1,1328(a4)
    80003f10:	52680fd7          	.4byte	0x52680fd7
    80003f14:	4906                	lw	s2,64(sp)
    80003f16:	526d                	li	tp,-5
    80003f18:	9a3e                	add	s4,s4,a5
    80003f1a:	adf35273          	csrrw	tp,0xadf,6
    80003f1e:	5278                	lw	a4,100(a2)
    80003f20:	5282f6af          	.4byte	0x5282f6af
    80003f24:	b9a9                	j	80003b7e <verify_data+0x10f6>
    80003f26:	9ede5297          	auipc	t0,0x9ede5
    80003f2a:	52a0                	lw	s0,96(a3)
    80003f2c:	47ea                	lw	a5,152(sp)
    80003f2e:	52a2                	lw	t0,40(sp)
    80003f30:	8c68                	.2byte	0x8c68
    80003f32:	52ac                	lw	a1,96(a3)
    80003f34:	2390                	fld	fa2,0(a5)
    80003f36:	52b9                	li	t0,-18
    80003f38:	cb54                	sw	a3,20(a4)
    80003f3a:	52c6                	lw	t0,112(sp)
    80003f3c:	52d6793b          	.4byte	0x52d6793b
    80003f40:	52d9061b          	addw	a2,s2,1325 # 1852d <buflen.1+0x184ed>
    80003f44:	52da5463          	bge	s4,a3,8000446c <verify_data+0x19e4>
    80003f48:	e6d4                	sd	a3,136(a3)
    80003f4a:	52dd                	li	t0,-9
    80003f4c:	6649                	lui	a2,0x12
    80003f4e:	52de                	lw	t0,244(sp)
    80003f50:	02a1                	add	t0,t0,8 # 1ede8f2e <buflen.1+0x1ede8eee>
    80003f52:	52e1                	li	t0,-8
    80003f54:	bc78                	fsd	fa4,248(s0)
    80003f56:	70bb52e3          	bge	s6,a1,80004e5a <input_data+0x3d2>
    80003f5a:	52ea                	lw	t0,184(sp)
    80003f5c:	9892                	add	a7,a7,tp
    80003f5e:	52f5                	li	t0,-3
    80003f60:	b766                	fsd	fs9,424(sp)
    80003f62:	52fa                	lw	t0,188(sp)
    80003f64:	5324eef7          	.4byte	0x5324eef7
    80003f68:	5328610f          	.4byte	0x5328610f
    80003f6c:	6e6c                	ld	a1,216(a2)
    80003f6e:	532a                	lw	t1,168(sp)
    80003f70:	5f7c                	lw	a5,124(a4)
    80003f72:	50f6533f 167d536d 	.8byte	0x167d536d50f6533f
    80003f7a:	5370                	lw	a2,100(a4)
    80003f7c:	537361cf          	fnmadd.d	ft3,ft6,fs7,fa0,unknown
    80003f80:	53807c37          	lui	s8,0x53807
    80003f84:	538275d3          	.4byte	0x538275d3
    80003f88:	8780                	vmsge.vx	v15,v0,ra,v0.t
    80003f8a:	5390                	lw	a2,32(a5)
    80003f8c:	099e                	sll	s3,s3,0x7
    80003f8e:	539c                	lw	a5,32(a5)
    80003f90:	53a33aef          	jal	s5,800374ca <_tbss_end+0x2e806>
    80003f94:	da66                	sw	s9,52(sp)
    80003f96:	70b553ab          	.4byte	0x70b553ab
    80003f9a:	53ba                	lw	t2,172(sp)
    80003f9c:	53c8cb9b          	.4byte	0x53c8cb9b
    80003fa0:	53ca3e2f          	.4byte	0x53ca3e2f
    80003fa4:	8d40                	vmsge.vx	v26,v0,ra,v0.t
    80003fa6:	53de                	lw	t2,244(sp)
    80003fa8:	53f8a88b          	.4byte	0x53f8a88b
    80003fac:	a9d0                	fsd	fa2,144(a1)
    80003fae:	a88853fb          	.4byte	0xa88853fb
    80003fb2:	5431                	li	s0,-20
    80003fb4:	ce4c                	sw	a1,28(a2)
    80003fb6:	5445                	li	s0,-15
    80003fb8:	148d                	add	s1,s1,-29
    80003fba:	544a                	lw	s0,176(sp)
    80003fbc:	6075                	c.lui	zero,0x1d
    80003fbe:	544a                	lw	s0,176(sp)
    80003fc0:	2416                	fld	fs0,320(sp)
    80003fc2:	545d                	li	s0,-9
    80003fc4:	0c00                	add	s0,sp,528
    80003fc6:	547c                	lw	a5,108(s0)
    80003fc8:	e13c                	sd	a5,64(a0)
    80003fca:	547e                	lw	s0,252(sp)
    80003fcc:	d742                	sw	a6,172(sp)
    80003fce:	af9c54af          	.4byte	0xaf9c54af
    80003fd2:	54ec                	lw	a1,108(s1)
    80003fd4:	a2b4                	fsd	fa3,64(a3)
    80003fd6:	54ed                	li	s1,-5
    80003fd8:	6adf 5506 fc8e      	.byte	0xdf, 0x6a, 0x06, 0x55, 0x8e, 0xfc
    80003fde:	5515                	li	a0,-27
    80003fe0:	f601                	bnez	a2,80003ee8 <verify_data+0x1460>
    80003fe2:	5520                	lw	s0,104(a0)
    80003fe4:	9b08                	.2byte	0x9b08
    80003fe6:	5548                	lw	a0,44(a0)
    80003fe8:	5552d8af          	.4byte	0x5552d8af
    80003fec:	5557c007          	.4byte	0x5557c007
    80003ff0:	5579cfa7          	.4byte	0x5579cfa7
    80003ff4:	5582c697          	auipc	a3,0x5582c
    80003ff8:	7b2e                	ld	s6,232(sp)
    80003ffa:	5595                	li	a1,-27
    80003ffc:	1f9c                	add	a5,sp,1008
    80003ffe:	55a9                	li	a1,-22
    80004000:	e12a                	sd	a0,128(sp)
    80004002:	55d6                	lw	a1,116(sp)
    80004004:	4c62                	lw	s8,24(sp)
    80004006:	55f0                	lw	a2,108(a1)
    80004008:	56126e87          	.4byte	0x56126e87
    8000400c:	ddb0                	sw	a2,120(a1)
    8000400e:	5612                	lw	a2,36(sp)
    80004010:	657f 5624 35e2 5625 	.byte	0x7f, 0x65, 0x24, 0x56, 0xe2, 0x35, 0x25, 0x56, 0xc2, 0x54, 0x26, 0x56, 0x3f, 0xa0, 0x46, 0x56, 0x80, 0xd7, 0x4c, 0x56, 0x38, 0xdc
    80004018:	54c2 5626 a03f 5646 
    80004020:	d780 564c dc38 
    80004026:	567a                	lw	a2,188(sp)
    80004028:	5680bd3f 56834290 	.8byte	0x568342905680bd3f
    80004030:	17e6                	sll	a5,a5,0x39
    80004032:	56a1                	li	a3,-24
    80004034:	56be5ff3          	csrrw	t6,0x56b,28
    80004038:	16b2                	sll	a3,a3,0x2c
    8000403a:	56c5                	li	a3,-15
    8000403c:	263e                	fld	fa2,456(sp)
    8000403e:	56df 1c4d 56f8      	.byte	0xdf, 0x56, 0x4d, 0x1c, 0xf8, 0x56
    80004044:	b0b9                	j	80003892 <verify_data+0xe0a>
    80004046:	56f8                	lw	a4,108(a3)
    80004048:	3468                	fld	fa0,232(s0)
    8000404a:	56fe                	lw	a3,252(sp)
    8000404c:	0bc1                	add	s7,s7,16
    8000404e:	5700                	lw	s0,40(a4)
    80004050:	4838                	lw	a4,80(s0)
    80004052:	02115727          	.4byte	0x2115727
    80004056:	572c                	lw	a1,104(a4)
    80004058:	3a00                	fld	fs0,48(a2)
    8000405a:	5730                	lw	a2,104(a4)
    8000405c:	6a81                	vmsge.vx	v21,v0,zero,v0.t
    8000405e:	5732                	lw	a4,44(sp)
    80004060:	5737b9e3          	vmsge.vx	v19,v19,a5
    80004064:	08ff 576b c149 576b 	.byte	0xff, 0x08, 0x6b, 0x57, 0x49, 0xc1, 0x6b, 0x57, 0x83, 0x64
    8000406c:	6483 
    8000406e:	5776                	lw	a4,124(sp)
    80004070:	5511                	li	a0,-28
    80004072:	c65d5787          	vluxseg7ei16.v	v15,(s10),v5
    80004076:	57a2                	lw	a5,40(sp)
    80004078:	b06e                	fsd	fs11,32(sp)
    8000407a:	b82b57af          	.4byte	0xb82b57af
    8000407e:	57b4                	lw	a3,104(a5)
    80004080:	ceb2                	sw	a2,92(sp)
    80004082:	57b6                	lw	a5,108(sp)
    80004084:	973c                	.2byte	0x973c
    80004086:	57c5                	li	a5,-15
    80004088:	57cebc73          	csrrc	s8,0x57c,t4
    8000408c:	6a2e                	ld	s4,200(sp)
    8000408e:	73e657d7          	vmfne.vf	v15,v30,fa2
    80004092:	57f4                	lw	a3,108(a5)
    80004094:	2e9a                	fld	ft9,384(sp)
    80004096:	f556583b          	.4byte	0xf556583b
    8000409a:	b0c8583b          	.4byte	0xb0c8583b
    8000409e:	583d                	li	a6,-17
    800040a0:	86a0                	vmsge.vx	v13,v0,ra,v0.t
    800040a2:	5864                	lw	s1,116(s0)
    800040a4:	9850                	.2byte	0x9850
    800040a6:	588e                	lw	a7,224(sp)
    800040a8:	a0ea                	fsd	fs10,64(sp)
    800040aa:	4ae3589b          	.4byte	0x4ae3589b
    800040ae:	01ab58ab          	.4byte	0x1ab58ab
    800040b2:	236f58cb          	fnmsub.d	fa7,ft10,fs6,ft4,unknown
    800040b6:	58e6                	lw	a7,120(sp)
    800040b8:	3434                	fld	fa3,104(s0)
    800040ba:	917d58ef          	jal	a7,7ffd99d0 <buflen.1+0x7ffd9990>
    800040be:	58f5                	li	a7,-3
    800040c0:	592c584b          	fnmsub.s	fa6,fs8,fs2,fa1,unknown
    800040c4:	62d6                	ld	t0,336(sp)
    800040c6:	ca9b592f          	.4byte	0xca9b592f
    800040ca:	5944                	lw	s1,52(a0)
    800040cc:	8add                	and	a3,a3,23
    800040ce:	5948                	lw	a0,52(a0)
    800040d0:	1fe2                	sll	t6,t6,0x38
    800040d2:	5952                	lw	s2,52(sp)
    800040d4:	5969bfbf 597a35f0 	.8byte	0x597a35f05969bfbf
    800040dc:	c412                	sw	tp,8(sp)
    800040de:	598a                	lw	s3,160(sp)
    800040e0:	09c4                	add	s1,sp,212
    800040e2:	598e                	lw	s3,224(sp)
    800040e4:	359a                	fld	fa1,416(sp)
    800040e6:	930e598f          	.4byte	0x930e598f
    800040ea:	59a5                	li	s3,-23
    800040ec:	d140                	sw	s0,36(a0)
    800040ee:	59b4                	lw	a3,112(a1)
    800040f0:	59bbba97          	auipc	s5,0x59bbb
    800040f4:	ad26                	fsd	fs1,152(sp)
    800040f6:	59ce                	lw	s3,240(sp)
    800040f8:	9a45                	and	a2,a2,-15
    800040fa:	59d9                	li	s3,-10
    800040fc:	0492                	sll	s1,s1,0x4
    800040fe:	59ed                	li	s3,-5
    80004100:	ce14                	sw	a3,24(a2)
    80004102:	5a02                	lw	s4,32(sp)
    80004104:	5c31                	li	s8,-20
    80004106:	5a21                	li	s4,-24
    80004108:	ca46                	sw	a7,20(sp)
    8000410a:	5a21                	li	s4,-24
    8000410c:	7271                	lui	tp,0xffffc
    8000410e:	5a32                	lw	s4,44(sp)
    80004110:	0f8e                	sll	t6,t6,0x3
    80004112:	5a42                	lw	s4,48(sp)
    80004114:	5a46b2c3          	fmadd.d	ft5,fa3,ft4,fa1,rup
    80004118:	e44c                	sd	a1,136(s0)
    8000411a:	5a49                	li	s4,-14
    8000411c:	11fa                	sll	gp,gp,0x3e
    8000411e:	5a51                	li	s4,-12
    80004120:	2220                	fld	fs0,64(a2)
    80004122:	5a55                	li	s4,-11
    80004124:	50ec                	lw	a1,100(s1)
    80004126:	5d345a5b          	.4byte	0x5d345a5b
    8000412a:	5a8a                	lw	s5,160(sp)
    8000412c:	8bfd                	and	a5,a5,31
    8000412e:	e4a25aa3          	vmsge.vx	v21,v10,tp,v0.t
    80004132:	5aa6                	lw	s5,104(sp)
    80004134:	5aadf643          	fmadd.d	fa2,fs11,fa0,fa1
    80004138:	b38c                	fsd	fa1,32(a5)
    8000413a:	5abc                	lw	a5,112(a3)
    8000413c:	7ebd                	lui	t4,0xfffef
    8000413e:	5ad6                	lw	s5,116(sp)
    80004140:	e652                	sd	s4,264(sp)
    80004142:	5add                	li	s5,-9
    80004144:	8a1a                	mv	s4,t1
    80004146:	5aec                	lw	a1,116(a3)
    80004148:	8572                	mv	a0,t3
    8000414a:	5b04                	lw	s1,48(a4)
    8000414c:	5b13e84b          	fnmsub.d	fa6,ft7,fa7,fa1,unknown
    80004150:	5b668c23          	sb	s6,1464(a3) # d58305ac <_tbss_end+0x558278e8>
    80004154:	4e8e                	lw	t4,192(sp)
    80004156:	085b5b67          	.4byte	0x85b5b67
    8000415a:	5b74                	lw	a3,116(a4)
    8000415c:	c33a                	sw	a4,132(sp)
    8000415e:	5b90                	lw	a2,48(a5)
    80004160:	c554                	sw	a3,12(a0)
    80004162:	13985ba3          	vmsge.vx	v23,v25,a6
    80004166:	5bad                	li	s7,-21
    80004168:	fea1                	bnez	a3,800040c0 <verify_data+0x1638>
    8000416a:	5bb1                	li	s7,-20
    8000416c:	5bc3d43b          	.4byte	0x5bc3d43b
    80004170:	5bdbb757          	.4byte	0x5bdbb757
    80004174:	d285                	beqz	a3,80004094 <verify_data+0x160c>
    80004176:	20625bdb          	.4byte	0x20625bdb
    8000417a:	5be2                	lw	s7,56(sp)
    8000417c:	4fe1                	li	t6,24
    8000417e:	5c1f f7b7 5c26      	.byte	0x1f, 0x5c, 0xb7, 0xf7, 0x26, 0x5c
    80004184:	ae74                	fsd	fa3,216(a2)
    80004186:	754a5c27          	.4byte	0x754a5c27
    8000418a:	96b35c3f e1405c4d 	.8byte	0xe1405c4d96b35c3f
    80004192:	5c50                	lw	a2,60(s0)
    80004194:	4f7e                	lw	t5,220(sp)
    80004196:	8f185c63          	bge	a6,a7,8000328e <verify_data+0x806>
    8000419a:	5c65                	li	s8,-7
    8000419c:	5c6b23e3          	vmsge.vx	v7,v6,s6,v0.t
    800041a0:	21b4                	fld	fa3,64(a1)
    800041a2:	5c6e                	lw	s8,248(sp)
    800041a4:	5c7c7ae7          	.4byte	0x5c7c7ae7
    800041a8:	4274                	lw	a3,68(a2)
    800041aa:	5c99                	li	s9,-26
    800041ac:	c924                	sw	s1,80(a0)
    800041ae:	5ca1                	li	s9,-24
    800041b0:	6251                	lui	tp,0x14
    800041b2:	5cb4                	lw	a3,120(s1)
    800041b4:	7dfd                	lui	s11,0xfffff
    800041b6:	5cb9                	li	s9,-18
    800041b8:	ecf0                	sd	a2,216(s1)
    800041ba:	5ce0                	lw	s0,124(s1)
    800041bc:	cf1d                	beqz	a4,800041fa <verify_data+0x1772>
    800041be:	e2f05ce7          	.4byte	0xe2f05ce7
    800041c2:	5cfd                	li	s9,-1
    800041c4:	5d0e34db          	.4byte	0x5d0e34db
    800041c8:	cf00                	sw	s0,24(a4)
    800041ca:	5d0e                	lw	s10,224(sp)
    800041cc:	6bb9                	lui	s7,0xe
    800041ce:	5d11                	li	s10,-28
    800041d0:	5d161ea7          	.4byte	0x5d161ea7
    800041d4:	5d347033          	.4byte	0x5d347033
    800041d8:	5d39ae3b          	.4byte	0x5d39ae3b
    800041dc:	52b6                	lw	t0,108(sp)
    800041de:	5d51                	li	s10,-12
    800041e0:	5d52b08f          	.4byte	0x5d52b08f
    800041e4:	acbd                	j	80004462 <verify_data+0x19da>
    800041e6:	5d64                	lw	s1,124(a0)
    800041e8:	791e                	ld	s2,480(sp)
    800041ea:	5d78                	lw	a4,124(a0)
    800041ec:	d049                	beqz	s0,8000416e <verify_data+0x16e6>
    800041ee:	861e5d7b          	.4byte	0x861e5d7b
    800041f2:	5cf85d83          	lhu	s11,1487(a6)
    800041f6:	5d8c                	lw	a1,56(a1)
    800041f8:	2534                	fld	fa3,72(a0)
    800041fa:	5d9e                	lw	s11,228(sp)
    800041fc:	af35                	j	80004938 <verify_data+0x1eb0>
    800041fe:	5dac                	lw	a1,120(a1)
    80004200:	5db6107f 5de66704 	.byte	0x7f, 0x10, 0xb6, 0x5d, 0x04, 0x67, 0xe6, 0x5d, 0xb2, 0xa3, 0xff, 0x5d
    80004208:	5dffa3b2 
    8000420c:	b1aa                	fsd	fa0,224(sp)
    8000420e:	5e0d                	li	t3,-29
    80004210:	b1a2                	fsd	fs0,224(sp)
    80004212:	5e28                	lw	a0,120(a2)
    80004214:	1801                	add	a6,a6,-32
    80004216:	5e3d                	li	t3,-17
    80004218:	f449                	bnez	s0,800041a2 <verify_data+0x171a>
    8000421a:	5e3d                	li	t3,-17
    8000421c:	5f29                	li	t5,-22
    8000421e:	5e48                	lw	a0,60(a2)
    80004220:	2640                	fld	fs0,136(a2)
    80004222:	5e70                	lw	a2,124(a2)
    80004224:	f286                	sd	ra,352(sp)
    80004226:	5e79                	li	t3,-2
    80004228:	58ce                	lw	a7,240(sp)
    8000422a:	5eaa                	lw	t4,168(sp)
    8000422c:	5eb1deab          	.4byte	0x5eb1deab
    80004230:	2f60                	fld	fs0,216(a4)
    80004232:	5eb9                	li	t4,-18
    80004234:	859f 5ecc 3d98      	.byte	0x9f, 0x85, 0xcc, 0x5e, 0x98, 0x3d
    8000423a:	5ed1                	li	t4,-12
    8000423c:	babe                	fsd	fa5,368(sp)
    8000423e:	5ef8                	lw	a4,124(a3)
    80004240:	5f000727          	.4byte	0x5f000727
    80004244:	fee2                	sd	s8,376(sp)
    80004246:	ae285f0b          	.4byte	0xae285f0b
    8000424a:	5f21                	li	t5,-24
    8000424c:	5f2d8e87          	.4byte	0x5f2d8e87
    80004250:	0230                	add	a2,sp,264
    80004252:	5f38                	lw	a4,120(a4)
    80004254:	3635                	addw	a2,a2,-19 # 11fed <buflen.1+0x11fad>
    80004256:	5f46                	lw	t5,112(sp)
    80004258:	5f5770ab          	.4byte	0x5f5770ab
    8000425c:	2df2                	fld	fs11,280(sp)
    8000425e:	5f5c                	lw	a5,60(a4)
    80004260:	6aa2                	ld	s5,8(sp)
    80004262:	5f5e                	lw	t5,244(sp)
    80004264:	9731                	sra	a4,a4,0x2c
    80004266:	5f65                	li	t5,-7
    80004268:	5ea0                	lw	s0,120(a3)
    8000426a:	183e5f6f          	jal	t5,800e9bec <_tbss_end+0xe0f28>
    8000426e:	5f71                	li	t5,-4
    80004270:	bf85                	j	800041e0 <verify_data+0x1758>
    80004272:	5f76                	lw	t5,124(sp)
    80004274:	796a                	ld	s2,184(sp)
    80004276:	5f84                	lw	s1,56(a5)
    80004278:	3495                	addw	s1,s1,-27
    8000427a:	5f89                	li	t6,-30
    8000427c:	5f8b586b          	.4byte	0x5f8b586b
    80004280:	5ed6                	lw	t4,116(sp)
    80004282:	5f92                	lw	t6,36(sp)
    80004284:	25c2                	fld	fa1,16(sp)
    80004286:	5fa0                	lw	s0,120(a5)
    80004288:	8e1a                	mv	t3,t1
    8000428a:	5fa0                	lw	s0,120(a5)
    8000428c:	5faed877          	.4byte	0x5faed877
    80004290:	5faffcaf          	.4byte	0x5faffcaf
    80004294:	fdc5                	bnez	a1,8000424c <verify_data+0x17c4>
    80004296:	beb65fcb          	.4byte	0xbeb65fcb
    8000429a:	5fd0                	lw	a2,60(a5)
    8000429c:	7672                	ld	a2,312(sp)
    8000429e:	5fd2                	lw	t6,52(sp)
    800042a0:	378e                	fld	fa5,224(sp)
    800042a2:	f9555fd3          	.4byte	0xf9555fd3
    800042a6:	5ff5                	li	t6,-3
    800042a8:	5ffa6057          	.4byte	0x5ffa6057
    800042ac:	e246                	sd	a7,256(sp)
    800042ae:	5ffe                	lw	t6,252(sp)
    800042b0:	8c4e                	mv	s8,s3
    800042b2:	600d                	c.lui	zero,0x3
    800042b4:	6f54                	ld	a3,152(a4)
    800042b6:	600e                	.2byte	0x600e
    800042b8:	4a40                	lw	s0,20(a2)
    800042ba:	6010                	ld	a2,0(s0)
    800042bc:	3b49                	addw	s6,s6,-14
    800042be:	601e                	.2byte	0x601e
    800042c0:	601e79bb          	.4byte	0x601e79bb
    800042c4:	9910                	.2byte	0x9910
    800042c6:	f51e603f 804f6064 	.8byte	0x804f6064f51e603f
    800042ce:	6076                	.2byte	0x6076
    800042d0:	1c78                	add	a4,sp,572
    800042d2:	6089                	lui	ra,0x2
    800042d4:	c63a                	sw	a4,12(sp)
    800042d6:	6089                	lui	ra,0x2
    800042d8:	d200                	sw	s0,32(a2)
    800042da:	7ef86097          	auipc	ra,0x7ef86
    800042de:	540c609b          	.4byte	0x540c609b
    800042e2:	60b8                	ld	a4,64(s1)
    800042e4:	52a1                	li	t0,-24
    800042e6:	60b9                	lui	ra,0xe
    800042e8:	3d99                	addw	s11,s11,-26 # ffffffffffffefe6 <_tbss_end+0xffffffff7fff6322>
    800042ea:	60d6                	ld	ra,336(sp)
    800042ec:	7a9e                	ld	s5,480(sp)
    800042ee:	60ff 3a28 610f 407d 	.byte	0xff, 0x60, 0x28, 0x3a, 0x0f, 0x61, 0x7d, 0x40, 0x0f, 0x61, 0xea, 0x3b, 0x22, 0x61, 0xe0, 0x86, 0x26, 0x61, 0xc4, 0x4e, 0x2c, 0x61
    800042f6:	610f 3bea 6122 86e0 
    800042fe:	6126 4ec4 612c 
    80004304:	6133ac8b          	.4byte	0x6133ac8b
    80004308:	4569                	li	a0,26
    8000430a:	613d                	add	sp,sp,480
    8000430c:	5b08                	lw	a0,48(a4)
    8000430e:	6145                	add	sp,sp,48
    80004310:	6ca9                	lui	s9,0xa
    80004312:	615d                	add	sp,sp,432
    80004314:	a80d                	j	80004346 <verify_data+0x18be>
    80004316:	a6ab616b          	.4byte	0xa6ab616b
    8000431a:	6182                	ld	gp,0(sp)
    8000431c:	7cc8                	ld	a0,184(s1)
    8000431e:	6186                	ld	gp,64(sp)
    80004320:	8322                	mv	t1,s0
    80004322:	6190                	ld	a2,0(a1)
    80004324:	f3c1                	bnez	a5,800042a4 <verify_data+0x181c>
    80004326:	61ce                	ld	gp,208(sp)
    80004328:	19ad                	add	s3,s3,-21 # 43e3ffeb <buflen.1+0x43e3ffab>
    8000432a:	61e4                	ld	s1,192(a1)
    8000432c:	6d64                	ld	s1,216(a0)
    8000432e:	61ec                	ld	a1,192(a1)
    80004330:	52ca                	lw	t0,176(sp)
    80004332:	61fd                	lui	gp,0x1f
    80004334:	d948                	sw	a0,52(a0)
    80004336:	6202                	ld	tp,0(sp)
    80004338:	800e                	c.mv	zero,gp
    8000433a:	b61d621b          	.4byte	0xb61d621b
    8000433e:	6226                	ld	tp,72(sp)
    80004340:	4380                	lw	s0,0(a5)
    80004342:	fe036243          	vmsge.vx	v4,v0,t1
    80004346:	624e                	ld	tp,208(sp)
    80004348:	b9e0                	fsd	fs0,240(a1)
    8000434a:	bb78624f          	fnmadd.d	ft4,fa6,fs7,fs7,unknown
    8000434e:	6266                	ld	tp,88(sp)
    80004350:	2af9                	addw	s5,s5,30 # ffffffffd9bbf10e <_tbss_end+0xffffffff59bb644a>
    80004352:	6279                	lui	tp,0x1e
    80004354:	628bd913          	.4byte	0x628bd913
    80004358:	62a986eb          	.4byte	0x62a986eb
    8000435c:	9932                	add	s2,s2,a2
    8000435e:	62bc                	ld	a5,64(a3)
    80004360:	62c3d607          	.4byte	0x62c3d607
    80004364:	a545                	j	80004a04 <verify_data+0x1f7c>
    80004366:	8bab62d3          	.4byte	0x8bab62d3
    8000436a:	6d6f62e3          	bltu	t5,s6,8000522e <input_data+0x7a6>
    8000436e:	62e4                	ld	s1,192(a3)
    80004370:	f09c                	sd	a5,32(s1)
    80004372:	e6d262fb          	.4byte	0xe6d262fb
    80004376:	6320                	ld	s0,64(a4)
    80004378:	632cf297          	auipc	t0,0x632cf
    8000437c:	d69d                	beqz	a3,800042aa <verify_data+0x1822>
    8000437e:	463a634b          	.4byte	0x463a634b
    80004382:	634e                	ld	t1,208(sp)
    80004384:	f658                	sd	a4,168(a2)
    80004386:	635d                	lui	t1,0x17
    80004388:	c3dd                	beqz	a5,8000442e <verify_data+0x19a6>
    8000438a:	6366                	ld	t1,88(sp)
    8000438c:	a131                	j	80004798 <verify_data+0x1d10>
    8000438e:	c12363ab          	.4byte	0xc12363ab
    80004392:	63bc                	ld	a5,64(a5)
    80004394:	e759                	bnez	a4,80004422 <verify_data+0x199a>
    80004396:	0cb163c7          	.4byte	0xcb163c7
    8000439a:	032663db          	.4byte	0x32663db
    8000439e:	63de                	ld	t2,464(sp)
    800043a0:	da45                	beqz	a2,80004350 <verify_data+0x18c8>
    800043a2:	036f63fb          	.4byte	0x36f63fb
    800043a6:	748b6413          	or	s0,s6,1864
    800043aa:	6418                	ld	a4,8(s0)
    800043ac:	5eb2                	lw	t4,44(sp)
    800043ae:	641f 9a25 6426      	.byte	0x1f, 0x64, 0x25, 0x9a, 0x26, 0x64
    800043b4:	4216                	lw	tp,68(sp)
    800043b6:	3fdd6427          	.4byte	0x3fdd6427
    800043ba:	f9ef643f 83b4644b 	.8byte	0x83b4644bf9ef643f
    800043c2:	645e                	ld	s0,464(sp)
    800043c4:	1629                	add	a2,a2,-22
    800043c6:	6460                	ld	s0,200(s0)
    800043c8:	6941                	lui	s2,0x10
    800043ca:	6474                	ld	a3,200(s0)
    800043cc:	7cc8                	ld	a0,184(s1)
    800043ce:	647c                	ld	a5,200(s0)
    800043d0:	9cdc                	.2byte	0x9cdc
    800043d2:	6481                	vmsge.vx	v9,v0,zero,v0.t
    800043d4:	a0ff 6485 071f 6487 	.byte	0xff, 0xa0, 0x85, 0x64, 0x1f, 0x07, 0x87, 0x64, 0xea, 0xd2, 0x95, 0x64, 0xa0, 0xf0
    800043dc:	d2ea 6495 f0a0 
    800043e2:	c97d649b          	.4byte	0xc97d649b
    800043e6:	64a6                	ld	s1,72(sp)
    800043e8:	8b6a                	mv	s6,s10
    800043ea:	64ba                	ld	s1,392(sp)
    800043ec:	e9f0                	sd	a2,208(a1)
    800043ee:	64bd                	lui	s1,0xf
    800043f0:	0924                	add	s1,sp,152
    800043f2:	64d2                	ld	s1,272(sp)
    800043f4:	ef6e                	sd	s11,408(sp)
    800043f6:	64d4                	ld	a3,136(s1)
    800043f8:	938e                	add	t2,t2,gp
    800043fa:	650a                	ld	a0,128(sp)
    800043fc:	1121                	add	sp,sp,-24 # 4f72ffe8 <buflen.1+0x4f72ffa8>
    800043fe:	6511                	lui	a0,0x4
    80004400:	a2b8                	fsd	fa4,64(a3)
    80004402:	6530                	ld	a2,72(a0)
    80004404:	f2a1                	bnez	a3,80004344 <verify_data+0x18bc>
    80004406:	6578                	ld	a4,200(a0)
    80004408:	8ac2                	mv	s5,a6
    8000440a:	6599                	lui	a1,0x6
    8000440c:	65a60287          	vluxseg4ei8.v	v5,(a2),v26,v0.t
    80004410:	0f15                	add	t5,t5,5 # a005 <buflen.1+0x9fc5>
    80004412:	65ae                	ld	a1,200(sp)
    80004414:	8f02                	jr	t5
    80004416:	0e4c65b7          	lui	a1,0xe4c6
    8000441a:	65ce                	ld	a1,208(sp)
    8000441c:	a371                	j	800049a8 <verify_data+0x1f20>
    8000441e:	ef3e65cf          	.4byte	0xef3e65cf
    80004422:	924f65cf          	fnmadd.d	fa1,ft10,ft4,fs2,unknown
    80004426:	65dd                	lui	a1,0x17
    80004428:	eb55                	bnez	a4,800044dc <verify_data+0x1a54>
    8000442a:	d54865e7          	.4byte	0xd54865e7
    8000442e:	65e9                	lui	a1,0x1a
    80004430:	31f2                	fld	ft3,312(sp)
    80004432:	65f1                	lui	a1,0x1c
    80004434:	660479c3          	vmsge.vx	v19,v0,s0
    80004438:	c086                	sw	ra,64(sp)
    8000443a:	6606                	ld	a2,64(sp)
    8000443c:	66076677          	.4byte	0x66076677
    80004440:	77b2                	ld	a5,296(sp)
    80004442:	27536607          	vluxseg2ei32.v	v12,(t1),v21
    80004446:	436d660f          	.4byte	0x436d660f
    8000444a:	6610                	ld	a2,8(a2)
    8000444c:	661d2f27          	fsw	ft1,1662(s10)
    80004450:	8e36                	mv	t3,a3
    80004452:	6621                	lui	a2,0x8
    80004454:	12f4                	add	a3,sp,364
    80004456:	662e                	ld	a2,200(sp)
    80004458:	160e                	sll	a2,a2,0x23
    8000445a:	663d                	lui	a2,0xf
    8000445c:	9be5                	and	a5,a5,-7
    8000445e:	663e                	ld	a2,456(sp)
    80004460:	663ef68b          	.4byte	0x663ef68b
    80004464:	192a                	sll	s2,s2,0x2a
    80004466:	6655                	lui	a2,0x15
    80004468:	02a2                	sll	t0,t0,0x8
    8000446a:	6676                	ld	a2,344(sp)
    8000446c:	667e9cb3          	.4byte	0x667e9cb3
    80004470:	66a01657          	vmfle.vv	v12,v10,v0
    80004474:	152e                	sll	a0,a0,0x2b
    80004476:	66b5                	lui	a3,0xd
    80004478:	ac6e                	fsd	fs11,24(sp)
    8000447a:	66d9                	lui	a3,0x16
    8000447c:	bcfc                	fsd	fa5,248(s1)
    8000447e:	d44c66ef          	jal	a3,7ffca9c2 <buflen.1+0x7ffca982>
    80004482:	66f8                	ld	a4,200(a3)
    80004484:	ca7a                	sw	t5,20(sp)
    80004486:	6722                	ld	a4,8(sp)
    80004488:	b5d9                	j	8000434e <verify_data+0x18c6>
    8000448a:	6728                	ld	a0,72(a4)
    8000448c:	72c2                	ld	t0,48(sp)
    8000448e:	a6b0673b          	.4byte	0xa6b0673b
    80004492:	673c                	ld	a5,72(a4)
    80004494:	1266                	sll	tp,tp,0x39
    80004496:	6751                	lui	a4,0x14
    80004498:	79cd                	lui	s3,0xffff3
    8000449a:	675a                	ld	a4,400(sp)
    8000449c:	6796bc67          	.4byte	0x6796bc67
    800044a0:	2ace                	fld	fs5,208(sp)
    800044a2:	679d                	lui	a5,0x7
    800044a4:	67b7ceef          	jal	t4,8008131e <_tbss_end+0x7865a>
    800044a8:	2ddd                	addw	s11,s11,23
    800044aa:	67c2                	ld	a5,16(sp)
    800044ac:	3ffd                	addw	t6,t6,-1
    800044ae:	67c2                	ld	a5,16(sp)
    800044b0:	67d54dcb          	.4byte	0x67d54dcb
    800044b4:	6f8c                	ld	a1,24(a5)
    800044b6:	5d2467db          	.4byte	0x5d2467db
    800044ba:	6806                	ld	a6,64(sp)
    800044bc:	96cd                	sra	a3,a3,0x33
    800044be:	6808                	ld	a0,16(s0)
    800044c0:	680ae06b          	.4byte	0x680ae06b
    800044c4:	68160343          	fmadd.s	ft6,fa2,ft1,fa3,rne
    800044c8:	1e9a                	sll	t4,t4,0x26
    800044ca:	6819                	lui	a6,0x6
    800044cc:	a664                	fsd	fs1,200(a2)
    800044ce:	681f 3f29 682e      	.byte	0x1f, 0x68, 0x29, 0x3f, 0x2e, 0x68
    800044d4:	778c                	ld	a1,40(a5)
    800044d6:	684e                	ld	a6,208(sp)
    800044d8:	e6c8                	sd	a0,136(a3)
    800044da:	6851                	lui	a6,0x14
    800044dc:	a4ba                	fsd	fa4,72(sp)
    800044de:	6855                	lui	a6,0x15
    800044e0:	685d77c3          	fmadd.s	fa5,fs10,ft5,fa3
    800044e4:	686ebe97          	auipc	t4,0x686eb
    800044e8:	42d6                	lw	t0,84(sp)
    800044ea:	6872                	ld	a6,280(sp)
    800044ec:	86aa                	mv	a3,a0
    800044ee:	6876                	ld	a6,344(sp)
    800044f0:	9209                	srl	a2,a2,0x22
    800044f2:	687e                	ld	a6,472(sp)
    800044f4:	6892be83          	ld	t4,1673(t0) # e32d3a01 <_tbss_end+0x632cad3d>
    800044f8:	4cb0                	lw	a2,88(s1)
    800044fa:	689e                	ld	a7,448(sp)
    800044fc:	1f5a                	sll	t5,t5,0x36
    800044fe:	68ba                	ld	a7,392(sp)
    80004500:	6041                	c.lui	zero,0x10
    80004502:	68d4                	ld	a3,144(s1)
    80004504:	68f47697          	auipc	a3,0x68f47
    80004508:	24b9                	addw	s1,s1,14 # f00e <buflen.1+0xefce>
    8000450a:	3a4f68fb          	.4byte	0x3a4f68fb
    8000450e:	6921                	lui	s2,0x8
    80004510:	29f1                	addw	s3,s3,28 # ffffffffffff301c <_tbss_end+0xffffffff7ffea358>
    80004512:	2dd1692b          	.4byte	0x2dd1692b
    80004516:	6939                	lui	s2,0xe
    80004518:	6e7e                	ld	t3,472(sp)
    8000451a:	6940                	ld	s0,144(a0)
    8000451c:	1426                	sll	s0,s0,0x29
    8000451e:	6958                	ld	a4,144(a0)
    80004520:	ac82                	fsd	ft0,88(sp)
    80004522:	696d                	lui	s2,0x1b
    80004524:	a53a                	fsd	fa4,136(sp)
    80004526:	b03a6987          	.4byte	0xb03a6987
    8000452a:	6998                	ld	a4,16(a1)
    8000452c:	6b32                	ld	s6,264(sp)
    8000452e:	699d                	lui	s3,0x7
    80004530:	2da4                	fld	fs1,88(a1)
    80004532:	69aa                	ld	s3,136(sp)
    80004534:	69c06c73          	csrrs	s8,0x69c,0
    80004538:	0ac0                	add	s0,sp,340
    8000453a:	404869c7          	fmsub.s	fs3,fa6,ft4,fs0,unknown
    8000453e:	69c9                	lui	s3,0x12
    80004540:	679c                	ld	a5,8(a5)
    80004542:	69d1                	lui	s3,0x14
    80004544:	a229                	j	8000464e <verify_data+0x1bc6>
    80004546:	69d5                	lui	s3,0x15
    80004548:	a2f9                	j	80004716 <verify_data+0x1c8e>
    8000454a:	69d8                	ld	a4,144(a1)
    8000454c:	cf72                	sw	t3,156(sp)
    8000454e:	69e2                	ld	s3,24(sp)
    80004550:	bb2a                	fsd	fa0,432(sp)
    80004552:	6e2669e7          	.4byte	0x6e2669e7
    80004556:	6a02                	ld	s4,0(sp)
    80004558:	7850                	ld	a2,176(s0)
    8000455a:	809e6a2b          	.4byte	0x809e6a2b
    8000455e:	6a35                	lui	s4,0xd
    80004560:	fa95                	bnez	a3,80004494 <verify_data+0x1a0c>
    80004562:	6a49                	lui	s4,0x12
    80004564:	cfe1                	beqz	a5,8000463c <verify_data+0x1bb4>
    80004566:	6a54                	ld	a3,144(a2)
    80004568:	182e                	sll	a6,a6,0x2b
    8000456a:	6a60                	ld	s0,208(a2)
    8000456c:	9f9f 6a88 6f2a      	.byte	0x9f, 0x9f, 0x88, 0x6a, 0x2a, 0x6f
    80004572:	6a89                	lui	s5,0x2
    80004574:	6a98a6bb          	.4byte	0x6a98a6bb
    80004578:	bdbc                	fsd	fa5,120(a1)
    8000457a:	6ab9                	lui	s5,0xe
    8000457c:	4a64                	lw	s1,84(a2)
    8000457e:	ec2c6adb          	.4byte	0xec2c6adb
    80004582:	6ae1                	lui	s5,0x18
    80004584:	6a98                	ld	a4,16(a3)
    80004586:	6aea                	ld	s5,152(sp)
    80004588:	d36e                	sw	s11,164(sp)
    8000458a:	6b25                	lui	s6,0x9
    8000458c:	c5fc                	sw	a5,76(a1)
    8000458e:	6b3d                	lui	s6,0xf
    80004590:	a94d                	j	80004a42 <verify_data+0x1fba>
    80004592:	6b4c                	ld	a1,144(a4)
    80004594:	6b51cb4f          	fnmadd.d	fs6,ft3,fs5,fa3,rmm
    80004598:	6b6b5947          	fmsub.d	fs2,fs6,fs6,fa3,unknown
    8000459c:	56e2                	lw	a3,56(sp)
    8000459e:	6b6d                	lui	s6,0x1b
    800045a0:	6522                	ld	a0,8(sp)
    800045a2:	6b7a                	ld	s6,408(sp)
    800045a4:	5071                	c.li	zero,-4
    800045a6:	6ba6                	ld	s7,72(sp)
    800045a8:	f150                	sd	a2,160(a0)
    800045aa:	6bb5                	lui	s7,0xd
    800045ac:	6bb744cb          	fnmsub.d	fs1,fa4,fs11,fa3,rmm
    800045b0:	845e                	mv	s0,s7
    800045b2:	02a06bc7          	fmsub.d	fs7,ft0,fa0,ft0,unknown
    800045b6:	f0ee6bf3          	csrrs	s7,0xf0e,28
    800045ba:	6c34                	ld	a3,88(s0)
    800045bc:	6c47c04b          	.4byte	0x6c47c04b
    800045c0:	9a26                	add	s4,s4,s1
    800045c2:	4a886c4f          	fnmadd.d	fs8,fa6,fs0,fs1,unknown
    800045c6:	6c7f 9de8 6c91 cb9d 	.byte	0x7f, 0x6c, 0xe8, 0x9d, 0x91, 0x6c, 0x9d, 0xcb, 0x92, 0x6c, 0x54, 0xc8, 0x9d, 0x6c, 0x28, 0xda, 0xa2, 0x6c, 0x02, 0x95, 0xa9, 0x6c
    800045ce:	6c92 c854 6c9d da28 
    800045d6:	6ca2 9502 6ca9 
    800045dc:	8e32                	mv	t3,a2
    800045de:	6cdf 2228 6ce0      	.byte	0xdf, 0x6c, 0x28, 0x22, 0xe0, 0x6c
    800045e4:	6ce3fc13          	and	s8,t2,1742
    800045e8:	c129                	beqz	a0,8000462a <verify_data+0x1ba2>
    800045ea:	a8146cef          	jal	s9,7ff4b06a <buflen.1+0x7ff4b02a>
    800045ee:	6d49                	lui	s10,0x12
    800045f0:	929f 6d4a 14f7      	.byte	0x9f, 0x92, 0x4a, 0x6d, 0xf7, 0x14
    800045f6:	82826d53          	.4byte	0x82826d53
    800045fa:	6d54                	ld	a3,152(a0)
    800045fc:	6d54fafb          	.4byte	0x6d54fafb
    80004600:	7909                	lui	s2,0xfffe2
    80004602:	6d55                	lui	s10,0x15
    80004604:	8b9f 6d56 a105      	.byte	0x9f, 0x8b, 0x56, 0x6d, 0x05, 0xa1
    8000460a:	6d5d                	lui	s10,0x17
    8000460c:	fa38                	sd	a4,112(a2)
    8000460e:	6d62                	ld	s10,24(sp)
    80004610:	003e                	c.slli	zero,0xf
    80004612:	6d6d                	lui	s10,0x1b
    80004614:	ccb2                	sw	a2,88(sp)
    80004616:	6d6e                	ld	s10,216(sp)
    80004618:	f5ee                	sd	s11,232(sp)
    8000461a:	6d70                	ld	a2,216(a0)
    8000461c:	ac1f 6d82 fbd7      	.byte	0x1f, 0xac, 0x82, 0x6d, 0xd7, 0xfb
    80004622:	6d90                	ld	a2,24(a1)
    80004624:	6d9de20f          	.4byte	0x6d9de20f
    80004628:	6db9d8c7          	.4byte	0x6db9d8c7
    8000462c:	f7a0                	sd	s0,104(a5)
    8000462e:	6e10                	ld	a2,24(a2)
    80004630:	6e24d8eb          	.4byte	0x6e24d8eb
    80004634:	a2ea                	fsd	fs10,320(sp)
    80004636:	6e30                	ld	a2,88(a2)
    80004638:	6e3d0eeb          	.4byte	0x6e3d0eeb
    8000463c:	6e3f8a0b          	.4byte	0x6e3f8a0b
    80004640:	d051                	beqz	s0,800045c4 <verify_data+0x1b3c>
    80004642:	0dc06e3f 89186e66 	.8byte	0x89186e660dc06e3f
    8000464a:	6e96                	ld	t4,320(sp)
    8000464c:	8f2e                	mv	t5,a1
    8000464e:	6ec8                	ld	a0,152(a3)
    80004650:	1281                	add	t0,t0,-32
    80004652:	6ecd                	lui	t4,0x13
    80004654:	82f5                	srl	a3,a3,0x1d
    80004656:	6ed8                	ld	a4,152(a3)
    80004658:	fea4                	sd	s1,120(a3)
    8000465a:	28036ee3          	bltu	t1,zero,800050f6 <input_data+0x66e>
    8000465e:	6eea                	ld	t4,152(sp)
    80004660:	3c64                	fld	fs1,248(s0)
    80004662:	6f09                	lui	t5,0x2
    80004664:	ec4e                	sd	s3,24(sp)
    80004666:	6f28                	ld	a0,88(a4)
    80004668:	6f3a5657          	vmflt.vf	v12,v19,fs4
    8000466c:	bc8d                	j	800040de <verify_data+0x1656>
    8000466e:	6f59                	lui	t5,0x16
    80004670:	d541                	beqz	a0,800045f8 <verify_data+0x1b70>
    80004672:	b5926f5b          	.4byte	0xb5926f5b
    80004676:	6f6a                	ld	t5,152(sp)
    80004678:	6f793433          	.4byte	0x6f793433
    8000467c:	0ec2                	sll	t4,t4,0x10
    8000467e:	1d7a6f83          	lwu	t6,471(s4) # 121d7 <buflen.1+0x12197>
    80004682:	6f86                	ld	t6,64(sp)
    80004684:	a3d2                	fsd	fs4,448(sp)
    80004686:	73bb6f8f          	.4byte	0x73bb6f8f
    8000468a:	6fb1                	lui	t6,0xc
    8000468c:	6fb360db          	.4byte	0x6fb360db
    80004690:	6fc00817          	auipc	a6,0x6fc00
    80004694:	6241                	lui	tp,0x10
    80004696:	6fd5                	lui	t6,0x15
    80004698:	e188                	sd	a0,0(a1)
    8000469a:	a4ac6ff3          	csrrs	t6,0xa4a,24
    8000469e:	6ff6                	ld	t6,344(sp)
    800046a0:	7008f7cb          	fnmsub.s	fa5,fa7,ft0,fa4
    800046a4:	e7fa                	sd	t5,456(sp)
    800046a6:	7015                	c.lui	zero,0xfffe5
    800046a8:	701755cb          	fnmsub.s	fa1,fa4,ft1,fa4,unknown
    800046ac:	a7de                	fsd	fs7,456(sp)
    800046ae:	7021                	c.lui	zero,0xfffe8
    800046b0:	e0a1                	bnez	s1,800046f0 <verify_data+0x1c68>
    800046b2:	703e                	.2byte	0x703e
    800046b4:	8c1c                	.2byte	0x8c1c
    800046b6:	ed6c704b          	.4byte	0xed6c704b
    800046ba:	706e                	.2byte	0x706e
    800046bc:	70b4af37          	lui	t5,0x70b4a
    800046c0:	6f0e                	ld	t5,192(sp)
    800046c2:	70b5                	lui	ra,0xfffed
    800046c4:	fc69                	bnez	s0,8000469e <verify_data+0x1c16>
    800046c6:	2dc170bf 482e70c4 	.8byte	0x482e70c42dc170bf
    800046ce:	584070cb          	fnmsub.s	ft1,ft0,ft4,fa1
    800046d2:	70d6                	ld	ra,368(sp)
    800046d4:	3381                	addw	t2,t2,-32
    800046d6:	7111                	add	sp,sp,-256
    800046d8:	711c785b          	.4byte	0x711c785b
    800046dc:	c500                	sw	s0,8(a0)
    800046de:	711f 12ec 712a      	.byte	0x1f, 0x71, 0xec, 0x12, 0x2a, 0x71
    800046e4:	71422f0f          	.4byte	0x71422f0f
    800046e8:	71490dbf 7157291f 	.8byte	0x7157291f71490dbf
    800046f0:	df4c                	sw	a1,60(a4)
    800046f2:	7165                	add	sp,sp,-400
    800046f4:	4d82                	lw	s11,0(sp)
    800046f6:	74f47167          	.4byte	0x74f47167
    800046fa:	7180                	ld	s0,32(a1)
    800046fc:	94e1                	sra	s1,s1,0x38
    800046fe:	7184                	ld	s1,32(a1)
    80004700:	88e1                	and	s1,s1,24
    80004702:	7185                	lui	gp,0xfffe1
    80004704:	7f30                	ld	a2,120(a4)
    80004706:	7188                	ld	a0,32(a1)
    80004708:	420c                	lw	a1,0(a2)
    8000470a:	7190                	ld	a2,32(a1)
    8000470c:	86fc                	.2byte	0x86fc
    8000470e:	71a0                	ld	s0,96(a1)
    80004710:	9e52                	add	t3,t3,s4
    80004712:	71b6                	ld	gp,360(sp)
    80004714:	328d                	addw	t0,t0,-29
    80004716:	6c2a71bb          	.4byte	0x6c2a71bb
    8000471a:	364471d3          	.4byte	0x364471d3
    8000471e:	ceae71e7          	.4byte	0xceae71e7
    80004722:	887a71f7          	.4byte	0x887a71f7
    80004726:	720d                	lui	tp,0xfffe3
    80004728:	ee24                	sd	s1,88(a2)
    8000472a:	720e                	ld	tp,224(sp)
    8000472c:	32b5                	addw	t0,t0,-19
    8000472e:	7214                	ld	a3,32(a2)
    80004730:	7220fd73          	csrrc	s10,0x722,1
    80004734:	adc9                	j	80004e06 <input_data+0x37e>
    80004736:	7221                	lui	tp,0xfffe8
    80004738:	3950                	fld	fa2,176(a0)
    8000473a:	06f2722b          	.4byte	0x6f2722b
    8000473e:	723d                	lui	tp,0xfffef
    80004740:	c58d                	beqz	a1,8000476a <verify_data+0x1ce2>
    80004742:	a9257257          	.4byte	0xa9257257
    80004746:	1f647273          	csrrc	tp,0x1f6,8
    8000474a:	5fea72b7          	lui	t0,0x5fea7
    8000474e:	496172d7          	vsetvli	t0,sp,1174
    80004752:	72e1                	lui	t0,0xffff8
    80004754:	ac02                	fsd	ft0,24(sp)
    80004756:	58a272ef          	jal	t0,8002bce0 <_tbss_end+0x2301c>
    8000475a:	90f072f3          	csrrc	t0,0x90f,0
    8000475e:	e6287313          	and	t1,a6,-414
    80004762:	7316                	ld	t1,352(sp)
    80004764:	0655                	add	a2,a2,21 # 15015 <buflen.1+0x14fd5>
    80004766:	731d                	lui	t1,0xfffe7
    80004768:	4038                	lw	a4,64(s0)
    8000476a:	7320                	ld	s0,96(a4)
    8000476c:	a425                	j	80004994 <verify_data+0x1f0c>
    8000476e:	7329                	lui	t1,0xfffea
    80004770:	5cd4                	lw	a3,60(s1)
    80004772:	53ad733f e6707345 	.8byte	0xe670734553ad733f
    8000477a:	7359                	lui	t1,0xffff6
    8000477c:	736f35b7          	lui	a1,0x736f3
    80004780:	73877afb          	.4byte	0x73877afb
    80004784:	739d378b          	.4byte	0x739d378b
    80004788:	eeb2                	sd	a2,344(sp)
    8000478a:	73c1                	lui	t2,0xffff0
    8000478c:	ee10                	sd	a2,24(a2)
    8000478e:	73d1                	lui	t2,0xffff4
    80004790:	73d9c2c7          	fmsub.d	ft5,fs3,ft9,fa4,rmm
    80004794:	73e9750b          	.4byte	0x73e9750b
    80004798:	0760                	add	s0,sp,908
    8000479a:	73f0                	ld	a2,224(a5)
    8000479c:	aae2                	fsd	fs8,336(sp)
    8000479e:	73fd                	lui	t2,0xfffff
    800047a0:	fa75                	bnez	a2,80004794 <verify_data+0x1d0c>
    800047a2:	741d                	lui	s0,0xfffe7
    800047a4:	1086                	sll	ra,ra,0x21
    800047a6:	7439                	lui	s0,0xfffee
    800047a8:	8909                	and	a0,a0,2
    800047aa:	743c                	ld	a5,104(s0)
    800047ac:	744d6397          	auipc	t2,0x744d6
    800047b0:	dd6a                	sw	s10,184(sp)
    800047b2:	b729745b          	.4byte	0xb729745b
    800047b6:	745e                	ld	s0,496(sp)
    800047b8:	7465                	lui	s0,0xffff9
    800047ba:	7465                	lui	s0,0xffff9
    800047bc:	4bc0                	lw	s0,20(a5)
    800047be:	7398746f          	jal	s0,8008c6f6 <_tbss_end+0x83a32>
    800047c2:	7476                	ld	s0,376(sp)
    800047c4:	748d9613          	.4byte	0x748d9613
    800047c8:	8ffa                	mv	t6,t5
    800047ca:	74b0                	ld	a2,104(s1)
    800047cc:	d7c8                	sw	a0,44(a5)
    800047ce:	74b2                	ld	s1,296(sp)
    800047d0:	74bac3d7          	vmsle.vx	v7,v11,s5,v0.t
    800047d4:	5bd8                	lw	a4,52(a5)
    800047d6:	6dec74c7          	.4byte	0x6dec74c7
    800047da:	74c8                	ld	a0,168(s1)
    800047dc:	f214                	sd	a3,32(a2)
    800047de:	5c8374eb          	.4byte	0x5c8374eb
    800047e2:	74ec                	ld	a1,232(s1)
    800047e4:	43cd                	li	t2,19
    800047e6:	74fc                	ld	a5,232(s1)
    800047e8:	d010                	sw	a2,32(s0)
    800047ea:	7501                	lui	a0,0xfffe0
    800047ec:	ff5d                	bnez	a4,800047aa <verify_data+0x1d22>
    800047ee:	7524                	ld	s1,104(a0)
    800047f0:	91ec                	.2byte	0x91ec
    800047f2:	752c                	ld	a1,104(a0)
    800047f4:	cea2                	sw	s0,92(sp)
    800047f6:	7548                	ld	a0,168(a0)
    800047f8:	7556939b          	.4byte	0x7556939b
    800047fc:	ce81                	beqz	a3,80004814 <verify_data+0x1d8c>
    800047fe:	7556                	ld	a0,368(sp)
    80004800:	ae6e                	fsd	fs11,280(sp)
    80004802:	fa5f7567          	.4byte	0xfa5f7567
    80004806:	76de7577          	.4byte	0x76de7577
    8000480a:	7582                	ld	a1,32(sp)
    8000480c:	10d0                	add	a2,sp,100
    8000480e:	7585                	lui	a1,0xfffe1
    80004810:	d4b4                	sw	a3,104(s1)
    80004812:	803b75e3          	bgeu	s6,gp,8000401c <verify_data+0x1594>
    80004816:	7612                	ld	a2,288(sp)
    80004818:	01e6                	sll	gp,gp,0x19
    8000481a:	f891761b          	.4byte	0xf891761b
    8000481e:	a0507637          	lui	a2,0xa0507
    80004822:	c41b7643          	vmsge.vx	v12,v1,s6,v0.t
    80004826:	5c327643          	vmsge.vx	v12,v3,tp,v0.t
    8000482a:	765e                	ld	a2,496(sp)
    8000482c:	039c                	add	a5,sp,448
    8000482e:	766e                	ld	a2,248(sp)
    80004830:	66c4                	ld	s1,136(a3)
    80004832:	7691                	lui	a3,0xfffe4
    80004834:	76c9de3b          	.4byte	0x76c9de3b
    80004838:	76e02b87          	flw	fs7,1902(zero) # 76e <buflen.1+0x72e>
    8000483c:	770d9d97          	auipc	s11,0x770d9
    80004840:	b4d1                	j	80004304 <verify_data+0x187c>
    80004842:	7745                	lui	a4,0xffff1
    80004844:	8a60                	vmsge.vx	v20,v0,ra,v0.t
    80004846:	7761                	lui	a4,0xffff8
    80004848:	c005                	beqz	s0,80004868 <verify_data+0x1de0>
    8000484a:	777c                	ld	a5,232(a4)
    8000484c:	5dbc                	lw	a5,120(a1)
    8000484e:	777e                	ld	a4,504(sp)
    80004850:	3159                	addw	sp,sp,-10
    80004852:	7782                	ld	a5,32(sp)
    80004854:	d711                	beqz	a4,80004760 <verify_data+0x1cd8>
    80004856:	56c3778b          	.4byte	0x56c3778b
    8000485a:	778e                	ld	a5,224(sp)
    8000485c:	0736                	sll	a4,a4,0xd
    8000485e:	7796                	ld	a5,352(sp)
    80004860:	779e33eb          	.4byte	0x779e33eb
    80004864:	a4f9                	j	80004b32 <input_data+0xaa>
    80004866:	77c2                	ld	a5,48(sp)
    80004868:	8b1a                	mv	s6,t1
    8000486a:	77d6                	ld	a5,368(sp)
    8000486c:	0db6                	sll	s11,s11,0xd
    8000486e:	77ea                	ld	a5,184(sp)
    80004870:	96b1                	sra	a3,a3,0x2c
    80004872:	780c                	ld	a1,48(s0)
    80004874:	2c8c                	fld	fa1,24(s1)
    80004876:	780d                	lui	a6,0xfffe3
    80004878:	78276307          	.4byte	0x78276307
    8000487c:	3012                	fld	ft0,288(sp)
    8000487e:	782c                	ld	a1,112(s0)
    80004880:	d041                	beqz	s0,80004800 <verify_data+0x1d78>
    80004882:	7830                	ld	a2,112(s0)
    80004884:	783be667          	.4byte	0x783be667
    80004888:	5ebc                	lw	a5,120(a3)
    8000488a:	784d                	lui	a6,0xffff3
    8000488c:	b865                	j	80004144 <verify_data+0x16bc>
    8000488e:	7889                	lui	a7,0xfffe2
    80004890:	1f55                	add	t5,t5,-11 # 70b49ff5 <buflen.1+0x70b49fb5>
    80004892:	7894                	ld	a3,48(s1)
    80004894:	23fa                	fld	ft7,408(sp)
    80004896:	789c                	ld	a5,48(s1)
    80004898:	d08a                	sw	sp,96(sp)
    8000489a:	78b0                	ld	a2,112(s1)
    8000489c:	5dae                	lw	s11,232(sp)
    8000489e:	78d8                	ld	a4,176(s1)
    800048a0:	fd24                	sd	s1,120(a0)
    800048a2:	78dd                	lui	a7,0xffff7
    800048a4:	35aa                	fld	fa1,168(sp)
    800048a6:	78de                	ld	a7,496(sp)
    800048a8:	7171                	add	sp,sp,-176
    800048aa:	78df 9a07 78e2      	.byte	0xdf, 0x78, 0x07, 0x9a, 0xe2, 0x78
    800048b0:	78f220af          	.4byte	0x78f220af
    800048b4:	f786                	sd	ra,488(sp)
    800048b6:	78fd                	lui	a7,0xfffff
    800048b8:	2c44                	fld	fs1,152(s0)
    800048ba:	792d                	lui	s2,0xfffeb
    800048bc:	c459                	beqz	s0,8000494a <verify_data+0x1ec2>
    800048be:	7939                	lui	s2,0xfffee
    800048c0:	1798                	add	a4,sp,992
    800048c2:	7948                	ld	a0,176(a0)
    800048c4:	d530                	sw	a2,104(a0)
    800048c6:	574d795b          	.4byte	0x574d795b
    800048ca:	7966                	ld	s2,120(sp)
    800048cc:	ee36                	sd	a3,280(sp)
    800048ce:	796c                	ld	a1,240(a0)
    800048d0:	89e9                	and	a1,a1,26
    800048d2:	de277987          	.4byte	0xde277987
    800048d6:	7988                	ld	a0,48(a1)
    800048d8:	79b5933b          	.4byte	0x79b5933b
    800048dc:	79c39977          	.4byte	0x79c39977
    800048e0:	35d0                	fld	fa2,168(a1)
    800048e2:	79d5                	lui	s3,0xffff5
    800048e4:	79ea714f          	fnmadd.s	ft2,fs4,ft10,fa5
    800048e8:	c122                	sw	s0,128(sp)
    800048ea:	79f0                	ld	a2,240(a1)
    800048ec:	135a                	sll	t1,t1,0x36
    800048ee:	79ff                	.2byte	0x79ff
    800048f0:	7a02d7ff 7a0e7c57 	.byte	0xff, 0xd7, 0x02, 0x7a, 0x57, 0x7c, 0x0e, 0x7a, 0x99, 0x23, 0x15, 0x7a, 0x0d, 0x8d, 0x1a, 0x7a, 0x61, 0xec, 0x2b, 0x7a
    800048f8:	7a152399 7a1a8d0d 
    80004900:	7a2bec61 
    80004904:	f0f9                	bnez	s1,800048ca <verify_data+0x1e42>
    80004906:	0e127a53          	.4byte	0xe127a53
    8000490a:	7a54                	ld	a3,176(a2)
    8000490c:	7a54488b          	.4byte	0x7a54488b
    80004910:	039a                	sll	t2,t2,0x6
    80004912:	7a6c                	ld	a1,240(a2)
    80004914:	cbd4                	sw	a3,20(a5)
    80004916:	7a70                	ld	a2,240(a2)
    80004918:	c442                	sw	a6,8(sp)
    8000491a:	7a88                	ld	a0,48(a3)
    8000491c:	e546                	sd	a7,136(sp)
    8000491e:	939c7ad7          	.4byte	0x939c7ad7
    80004922:	7ada                	ld	s5,432(sp)
    80004924:	7afd1cd3          	.4byte	0x7afd1cd3
    80004928:	5c90                	lw	a2,56(s1)
    8000492a:	7b08                	ld	a0,48(a4)
    8000492c:	d916                	sw	t0,176(sp)
    8000492e:	7b0a                	ld	s6,160(sp)
    80004930:	7b2b5f8b          	.4byte	0x7b2b5f8b
    80004934:	de31                	beqz	a2,80004890 <verify_data+0x1e08>
    80004936:	7b31                	lui	s6,0xfffec
    80004938:	7b35733f 7b3b8ae9 	.8byte	0x7b3b8ae97b35733f
    80004940:	69d2                	ld	s3,272(sp)
    80004942:	7b48                	ld	a0,176(a4)
    80004944:	84c1                	sra	s1,s1,0x10
    80004946:	7b4e                	ld	s6,240(sp)
    80004948:	26e9                	addw	a3,a3,26 # fffffffffffe401a <_tbss_end+0xffffffff7ffdb356>
    8000494a:	7b55                	lui	s6,0xffff5
    8000494c:	d215                	beqz	a2,80004870 <verify_data+0x1de8>
    8000494e:	7b68                	ld	a0,240(a4)
    80004950:	7b86eff3          	csrrs	t6,0x7b8,13
    80004954:	d676                	sw	t4,44(sp)
    80004956:	7b96                	ld	s7,352(sp)
    80004958:	8d3a                	mv	s10,a4
    8000495a:	678e7bab          	.4byte	0x678e7bab
    8000495e:	7bac                	ld	a1,112(a5)
    80004960:	7bc697fb          	.4byte	0x7bc697fb
    80004964:	b108                	fsd	fa0,32(a0)
    80004966:	7bd6                	ld	s7,368(sp)
    80004968:	7be3d2d7          	.4byte	0x7be3d2d7
    8000496c:	8a2c                	.2byte	0x8a2c
    8000496e:	7bf2                	ld	s7,312(sp)
    80004970:	80f5                	srl	s1,s1,0x1d
    80004972:	7c05                	lui	s8,0xfffe1
    80004974:	da01                	beqz	a2,80004884 <verify_data+0x1dfc>
    80004976:	7c11                	lui	s8,0xfffe4
    80004978:	67a4                	ld	s1,72(a5)
    8000497a:	7c24                	ld	s1,120(s0)
    8000497c:	7c45df3b          	.4byte	0x7c45df3b
    80004980:	8234                	.2byte	0x8234
    80004982:	2dab7c4b          	.4byte	0x2dab7c4b
    80004986:	27d67c6f          	jal	s8,8006c402 <_tbss_end+0x6373e>
    8000498a:	7c7d                	lui	s8,0xfffff
    8000498c:	5be8                	lw	a0,116(a5)
    8000498e:	7c80                	ld	s0,56(s1)
    80004990:	ee66                	sd	s9,280(sp)
    80004992:	7c82                	ld	s9,32(sp)
    80004994:	7c9296e3          	bne	t0,s1,80005960 <input_data+0xed8>
    80004998:	7c93425b          	.4byte	0x7c93425b
    8000499c:	29ad                	addw	s3,s3,11 # ffffffffffff500b <_tbss_end+0xffffffff7ffec347>
    8000499e:	91207c9b          	.4byte	0x91207c9b
    800049a2:	4ee17c9b          	.4byte	0x4ee17c9b
    800049a6:	7c9d                	lui	s9,0xfffe7
    800049a8:	ae2c                	fsd	fa1,88(a2)
    800049aa:	da267cab          	.4byte	0xda267cab
    800049ae:	35837cc7          	.4byte	0x35837cc7
    800049b2:	7cd1                	lui	s9,0xffff4
    800049b4:	5531                	li	a0,-20
    800049b6:	7cd2                	ld	s9,304(sp)
    800049b8:	ed64                	sd	s1,216(a0)
    800049ba:	7cd8                	ld	a4,184(s1)
    800049bc:	172d                	add	a4,a4,-21 # ffffffffffff7feb <_tbss_end+0xffffffff7ffef327>
    800049be:	7cdd                	lui	s9,0xffff7
    800049c0:	8ed0                	.2byte	0x8ed0
    800049c2:	7cfe                	ld	s9,504(sp)
    800049c4:	7d199933          	.4byte	0x7d199933
    800049c8:	0d94                	add	a3,sp,720
    800049ca:	d9767d33          	.4byte	0xd9767d33
    800049ce:	7d5c                	ld	a5,184(a0)
    800049d0:	a826                	fsd	fs1,16(sp)
    800049d2:	7d7c                	ld	a5,248(a0)
    800049d4:	7dc1                	lui	s11,0xffff0
    800049d6:	7d81                	lui	s11,0xfffe0
    800049d8:	b7c8                	fsd	fa0,168(a5)
    800049da:	7d82                	ld	s11,32(sp)
    800049dc:	2f96                	fld	ft11,320(sp)
    800049de:	7d84                	ld	s1,56(a1)
    800049e0:	3b66                	fld	fs6,120(sp)
    800049e2:	7dac                	ld	a1,120(a1)
    800049e4:	97d6                	add	a5,a5,s5
    800049e6:	7db5                	lui	s11,0xfffed
    800049e8:	7dbce1f7          	.4byte	0x7dbce1f7
    800049ec:	c751                	beqz	a4,80004a78 <verify_data+0x1ff0>
    800049ee:	7dc1                	lui	s11,0xffff0
    800049f0:	7558                	ld	a4,168(a0)
    800049f2:	7df8                	ld	a4,248(a1)
    800049f4:	7e0a0b8f          	.4byte	0x7e0a0b8f
    800049f8:	7e1723f7          	.4byte	0x7e1723f7
    800049fc:	287c                	fld	fa5,208(s0)
    800049fe:	48c77e27          	vssseg3e64.v	v28,(a4),a2,v0.t
    80004a02:	7e3c                	ld	a5,120(a2)
    80004a04:	3888                	fld	fa0,48(s1)
    80004a06:	7e41                	lui	t3,0xffff0
    80004a08:	b8ee                	fsd	fs11,112(sp)
    80004a0a:	7e44                	ld	s1,184(a2)
    80004a0c:	69c4                	ld	s1,144(a1)
    80004a0e:	7e4a                	ld	t3,176(sp)
    80004a10:	a6bd                	j	80004d7e <input_data+0x2f6>
    80004a12:	7e4a                	ld	t3,176(sp)
    80004a14:	de88                	sw	a0,56(a3)
    80004a16:	282b7e53          	.4byte	0x282b7e53
    80004a1a:	7e7f                	.2byte	0x7e7f
    80004a1c:	2a5f 7e88 3314      	.byte	0x5f, 0x2a, 0x88, 0x7e, 0x14, 0x33
    80004a22:	7e90                	ld	a2,56(a3)
    80004a24:	1b69                	add	s6,s6,-6 # ffffffffffff4ffa <_tbss_end+0xffffffff7ffec336>
    80004a26:	7ea5                	lui	t4,0xfffe9
    80004a28:	8eb9                	xor	a3,a3,a4
    80004a2a:	a1f87eb7          	lui	t4,0xa1f87
    80004a2e:	7eb8                	ld	a4,120(a3)
    80004a30:	8b3e                	mv	s6,a5
    80004a32:	7ec6                	ld	t4,112(sp)
    80004a34:	7ec6e397          	auipc	t2,0x7ec6e
    80004a38:	e55e                	sd	s7,136(sp)
    80004a3a:	50687ed7          	vsetvli	t4,a6,1286
    80004a3e:	cc317ee3          	bgeu	sp,gp,8000471a <verify_data+0x1c92>
    80004a42:	7eed                	lui	t4,0xffffb
    80004a44:	2954                	fld	fa3,144(a0)
    80004a46:	7ef4                	ld	a3,248(a3)
    80004a48:	7ef912b7          	lui	t0,0x7ef91
    80004a4c:	a5cd                	j	8000512e <input_data+0x6a6>
    80004a4e:	7f02                	ld	t5,32(sp)
    80004a50:	1831                	add	a6,a6,-20 # ffffffffffff2fec <_tbss_end+0xffffffff7ffea328>
    80004a52:	7f10                	ld	a2,56(a4)
    80004a54:	a605                	j	80004d74 <input_data+0x2ec>
    80004a56:	7f10                	ld	a2,56(a4)
    80004a58:	0434                	add	a3,sp,520
    80004a5a:	7f24                	ld	s1,120(a4)
    80004a5c:	c95e                	sw	s7,144(sp)
    80004a5e:	731f7f4b          	fnmsub.d	ft10,ft10,fa7,fa4
    80004a62:	7f8d                	lui	t6,0xfffe3
    80004a64:	3385                	addw	t2,t2,-31 # fffffffffec72a15 <_tbss_end+0xffffffff7ec69d51>
    80004a66:	58997f8f          	.4byte	0x58997f8f
    80004a6a:	7f99                	lui	t6,0xfffe6
    80004a6c:	1715                	add	a4,a4,-27
    80004a6e:	7fa6                	ld	t6,104(sp)
    80004a70:	c8f2                	sw	t3,80(sp)
    80004a72:	7fb1                	lui	t6,0xfffec
    80004a74:	8976                	mv	s2,t4
    80004a76:	7fc0                	ld	s0,184(a5)
    80004a78:	d2d0                	sw	a2,36(a3)
    80004a7a:	7fc0                	ld	s0,184(a5)
    80004a7c:	7fca5d7f 7fdb3900 	.byte	0x7f, 0x5d, 0xca, 0x7f, 0x00, 0x39, 0xdb, 0x7f, 0x46, 0x4e, 0xe8, 0x7f, 0xa4, 0x24, 0x54, 0x05, 0xf4, 0xce, 0x2c, 0x3a
    80004a84:	7fe84e46  
    80004a8c:	 

0000000080004a88 <input_data>:
    80004a88:	24a4                	fld	fs1,72(s1)
    80004a8a:	0554                	add	a3,sp,644
    80004a8c:	cef4                	sw	a3,92(a3)
    80004a8e:	3a2c                	fld	fa1,112(a2)
    80004a90:	4a64                	lw	s1,84(a2)
    80004a92:	97196adb          	.4byte	0x97196adb
    80004a96:	2b01                	sext.w	s6,s6
    80004a98:	f4ee                	sd	s11,104(sp)
    80004a9a:	4861                	li	a6,24
    80004a9c:	0039e5ef          	jal	a1,800a329e <_tbss_end+0x9a5da>
    80004aa0:	eeec                	sd	a1,216(a3)
    80004aa2:	1802                	sll	a6,a6,0x20
    80004aa4:	8b3e                	mv	s6,a5
    80004aa6:	7ec6                	ld	t4,112(sp)
    80004aa8:	4a40                	lw	s0,20(a2)
    80004aaa:	6010                	ld	a2,0(s0)
    80004aac:	0df8                	add	a4,sp,732
    80004aae:	2ee2                	fld	ft9,24(sp)
    80004ab0:	6b72                	ld	s6,280(sp)
    80004ab2:	2cf4                	fld	fa3,216(s1)
    80004ab4:	49635f53          	.4byte	0x49635f53
    80004ab8:	8979                	and	a0,a0,30
    80004aba:	9b6810f7          	.4byte	0x9b6810f7
    80004abe:	0836                	sll	a6,a6,0xd
    80004ac0:	79b5933b          	.4byte	0x79b5933b
    80004ac4:	db86                	sw	ra,244(sp)
    80004ac6:	ca5913a7          	.4byte	0xca5913a7
    80004aca:	4ad5                	li	s5,21
    80004acc:	28d5                	addw	a7,a7,21 # fffffffffffff015 <_tbss_end+0xffffffff7fff6351>
    80004ace:	1bb9                	add	s7,s7,-18 # cfee <buflen.1+0xcfae>
    80004ad0:	72c2                	ld	t0,48(sp)
    80004ad2:	04bd673b          	.4byte	0x4bd673b
    80004ad6:	9f1011fb          	.4byte	0x9f1011fb
    80004ada:	4f9f 88d5 1afe      	.byte	0x9f, 0x4f, 0xd5, 0x88, 0xfe, 0x1a
    80004ae0:	8b4c                	.2byte	0x8b4c
    80004ae2:	d92d00d7          	.4byte	0xd92d00d7
    80004ae6:	4961                	li	s2,24
    80004ae8:	8a60                	vmsge.vx	v20,v0,ra,v0.t
    80004aea:	7761                	lui	a4,0xffff8
    80004aec:	d1e1                	beqz	a1,80004aac <input_data+0x24>
    80004aee:	ee242b8f          	.4byte	0xee242b8f
    80004af2:	720e                	ld	tp,224(sp)
    80004af4:	040c                	add	a1,sp,512
    80004af6:	4c04                	lw	s1,24(s0)
    80004af8:	6e71                	lui	t3,0x1c
    80004afa:	324a                	fld	ft4,176(sp)
    80004afc:	0655                	add	a2,a2,21 # ffffffffa0507015 <_tbss_end+0xffffffff204fe351>
    80004afe:	731d                	lui	t1,0xfffe7
    80004b00:	917d                	srl	a0,a0,0x3f
    80004b02:	58f5                	li	a7,-3
    80004b04:	da5f 1d42 de31      	.byte	0x5f, 0xda, 0x42, 0x1d, 0x31, 0xde
    80004b0a:	7b31                	lui	s6,0xfffec
    80004b0c:	fa95                	bnez	a3,80004a40 <verify_data+0x1fb8>
    80004b0e:	018a                	sll	gp,gp,0x2
    80004b10:	d8e0                	sw	s0,116(s1)
    80004b12:	12ec0e33          	.4byte	0x12ec0e33
    80004b16:	712a                	ld	sp,168(sp)
    80004b18:	db66                	sw	s9,180(sp)
    80004b1a:	0ef1                	add	t4,t4,28 # ffffffffffffb01c <_tbss_end+0xffffffff7fff2358>
    80004b1c:	3b49                	addw	s6,s6,-14 # fffffffffffebff2 <_tbss_end+0xffffffff7ffe332e>
    80004b1e:	601e                	.2byte	0x601e
    80004b20:	2601eb4f          	.4byte	0x2601eb4f
    80004b24:	cb54                	sw	a3,20(a4)
    80004b26:	52c6                	lw	t0,112(sp)
    80004b28:	2b51                	addw	s6,s6,20
    80004b2a:	369a                	fld	fa3,416(sp)
    80004b2c:	d5c8                	sw	a0,44(a1)
    80004b2e:	401e                	.2byte	0x401e
    80004b30:	10f8                	add	a4,sp,108
    80004b32:	2844                	fld	fs1,144(s0)
    80004b34:	8c39                	xor	s0,s0,a4
    80004b36:	37e8                	fld	fa0,232(a5)
    80004b38:	0c00                	add	s0,sp,528
    80004b3a:	547c                	lw	a5,108(s0)
    80004b3c:	0492                	sll	s1,s1,0x4
    80004b3e:	59ed                	li	s3,-5
    80004b40:	632cf297          	auipc	t0,0x632cf
    80004b44:	1e9a                	sll	t4,t4,0x26
    80004b46:	6819                	lui	a6,0x6
    80004b48:	b431                	j	80004554 <verify_data+0x1acc>
    80004b4a:	e1f728ef          	jal	a7,7ff77968 <buflen.1+0x7ff77928>
    80004b4e:	7dbc                	ld	a5,120(a1)
    80004b50:	3468                	fld	fa0,232(s0)
    80004b52:	56fe                	lw	a3,252(sp)
    80004b54:	2441                	addw	s0,s0,16 # ffffffffffff9010 <_tbss_end+0xffffffff7fff034c>
    80004b56:	a7de1353          	.4byte	0xa7de1353
    80004b5a:	7021                	c.lui	zero,0xfffe8
    80004b5c:	62d6                	ld	t0,336(sp)
    80004b5e:	86c8592f          	.4byte	0x86c8592f
    80004b62:	304d                	.2byte	0x304d
    80004b64:	8551                	sra	a0,a0,0x14
    80004b66:	484c                	lw	a1,20(s0)
    80004b68:	8b6a                	mv	s6,s10
    80004b6a:	3ccc                	fld	fa1,184(s1)
    80004b6c:	fb81                	bnez	a5,80004a7c <verify_data+0x1ff4>
    80004b6e:	22e0                	fld	fs0,192(a3)
    80004b70:	783be667          	.4byte	0x783be667
    80004b74:	2128e503          	lwu	a0,530(a7)
    80004b78:	bf66                	fsd	fs9,440(sp)
    80004b7a:	4524                	lw	s1,72(a0)
    80004b7c:	52ea70bb          	.4byte	0x52ea70bb
    80004b80:	662c                	ld	a1,72(a2)
    80004b82:	48ee                	lw	a7,216(sp)
    80004b84:	6f6a                	ld	t5,152(sp)
    80004b86:	4139                	li	sp,14
    80004b88:	af00                	fsd	fs0,24(a4)
    80004b8a:	1a05                	add	s4,s4,-31
    80004b8c:	0b5676e3          	bgeu	a2,s5,80005438 <input_data+0x9b0>
    80004b90:	7ca6                	ld	s9,104(sp)
    80004b92:	727123f3          	csrrs	t2,mhpmevent7h,sp
    80004b96:	5a32                	lw	s4,44(sp)
    80004b98:	5b08                	lw	a0,48(a4)
    80004b9a:	6145                	add	sp,sp,48
    80004b9c:	e12a                	sd	a0,128(sp)
    80004b9e:	55d6                	lw	a1,116(sp)
    80004ba0:	6f29                	lui	t5,0xa
    80004ba2:	4db5                	li	s11,13
    80004ba4:	301453e7          	.4byte	0x301453e7
    80004ba8:	4ba0                	lw	s0,80(a5)
    80004baa:	4191                	li	gp,4
    80004bac:	42ff 46ae 148d 544a 	.byte	0xff, 0x42, 0xae, 0x46, 0x8d, 0x14, 0x4a, 0x54, 0xb1, 0x96, 0x0c, 0x78, 0x80, 0xb2, 0x00, 0x19, 0x8c, 0x05
    80004bb4:	96b1 780c b280 1900 
    80004bbc:	058c 
    80004bbe:	c97f4bef          	jal	s7,7fff9854 <buflen.1+0x7fff9814>
    80004bc2:	0a79                	add	s4,s4,30
    80004bc4:	c11e                	sw	t2,128(sp)
    80004bc6:	48ec                	lw	a1,84(s1)
    80004bc8:	27e4                	fld	fs1,200(a5)
    80004bca:	223a                	fld	ft4,392(sp)
    80004bcc:	135a                	sll	t1,t1,0x36
    80004bce:	79ff                	.2byte	0x79ff
    80004bd0:	1082                	sll	ra,ra,0x20
    80004bd2:	16571d5b          	.4byte	0x16571d5b
    80004bd6:	66a0                	ld	s0,72(a3)
    80004bd8:	0c12                	sll	s8,s8,0x4
    80004bda:	2b48                	fld	fa0,144(a4)
    80004bdc:	5c10                	lw	a2,56(s0)
    80004bde:	4adf f786 78fd      	.byte	0xdf, 0x4a, 0x86, 0xf7, 0xfd, 0x78
    80004be4:	34f5                	addw	s1,s1,-3
    80004be6:	5266                	lw	tp,120(sp)
    80004be8:	739d378b          	.4byte	0x739d378b
    80004bec:	9259                	srl	a2,a2,0x36
    80004bee:	2f28                	fld	fa0,88(a4)
    80004bf0:	1ef9fd23          	vmsge.vx	v26,v15,s3
    80004bf4:	ccad                	beqz	s1,80004c6e <input_data+0x1e6>
    80004bf6:	43cd3ea7          	fsd	ft8,1085(s10) # 1b43d <buflen.1+0x1b3fd>
    80004bfa:	74fc                	ld	a5,232(s1)
    80004bfc:	2a22a5e3          	vmsge.vx	v11,v2,t0
    80004c00:	cf72                	sw	t3,156(sp)
    80004c02:	69e2                	ld	s3,24(sp)
    80004c04:	281bbd27          	fsd	ft1,666(s7)
    80004c08:	778e56c3          	vmsge.vx	v13,v24,t3
    80004c0c:	4bf29b83          	lh	s7,1215(t0) # e32d3fff <_tbss_end+0x632cb33b>
    80004c10:	de88                	sw	a0,56(a3)
    80004c12:	0fec7e53          	.4byte	0xfec7e53
    80004c16:	31c6                	fld	ft3,112(sp)
    80004c18:	191afacb          	fnmsub.s	fs5,fs5,fa7,ft3
    80004c1c:	8575                	sra	a0,a0,0x1d
    80004c1e:	45b2                	lw	a1,12(sp)
    80004c20:	5c90                	lw	a2,56(s1)
    80004c22:	7b08                	ld	a0,48(a4)
    80004c24:	5f7c                	lw	a5,124(a4)
    80004c26:	2d61533f 7dc148a1 	.8byte	0x7dc148a12d61533f
    80004c2e:	7d81                	lui	s11,0xfffe0
    80004c30:	e584                	sd	s1,8(a1)
    80004c32:	2cf4                	fld	fa3,216(s1)
    80004c34:	7fca5d7f 532a6e6c 	.byte	0x7f, 0x5d, 0xca, 0x7f, 0x6c, 0x6e, 0x2a, 0x53, 0xba, 0xa4, 0x55, 0x68, 0x88, 0xa8, 0x31, 0x54, 0x15, 0x4a, 0x26, 0x0a
    80004c3c:	6855a4ba 5431a888 
    80004c44:	0a264a15 
    80004c48:	3a26                	fld	fs4,104(sp)
    80004c4a:	45a11733          	.4byte	0x45a11733
    80004c4e:	1ab8                	add	a4,sp,376
    80004c50:	0e578ce3          	beq	a5,t0,80005548 <input_data+0xac0>
    80004c54:	4e46                	lw	t3,80(sp)
    80004c56:	7fe8                	ld	a0,248(a5)
    80004c58:	f7a0                	sd	s0,104(a5)
    80004c5a:	6e10                	ld	a2,24(a2)
    80004c5c:	6366                	ld	t1,88(sp)
    80004c5e:	50b4                	lw	a3,96(s1)
    80004c60:	08606c9b          	.4byte	0x8606c9b
    80004c64:	cb9d                	beqz	a5,80004c9a <input_data+0x212>
    80004c66:	6c92                	ld	s9,256(sp)
    80004c68:	05f9                	add	a1,a1,30 # fffffffffffe101e <_tbss_end+0xffffffff7ffd835a>
    80004c6a:	24f4                	fld	fa3,200(s1)
    80004c6c:	0f8e                	sll	t6,t6,0x3
    80004c6e:	5a42                	lw	s4,48(sp)
    80004c70:	2cc21eab          	.4byte	0x2cc21eab
    80004c74:	d2d0                	sw	a2,36(a3)
    80004c76:	7fc0                	ld	s0,184(a5)
    80004c78:	321c                	fld	fa5,32(a2)
    80004c7a:	1225                	add	tp,tp,-23 # fffffffffffeefe9 <_tbss_end+0xffffffff7ffe6325>
    80004c7c:	0d30                	add	a2,sp,664
    80004c7e:	207d                	.2byte	0x207d
    80004c80:	aae2                	fsd	fs8,336(sp)
    80004c82:	73fd                	lui	t2,0xfffff
    80004c84:	1398                	add	a4,sp,480
    80004c86:	5bad                	li	s7,-21
    80004c88:	7f30                	ld	a2,120(a4)
    80004c8a:	7188                	ld	a0,32(a1)
    80004c8c:	6219                	lui	tp,0x6
    80004c8e:	a15d371b          	.4byte	0xa15d371b
    80004c92:	b79f21d7          	vmacc.vv	v3,v30,v25
    80004c96:	353e                	fld	fa0,488(sp)
    80004c98:	cba1                	beqz	a5,80004ce8 <input_data+0x260>
    80004c9a:	980f49e3          	bltz	t5,8000462c <verify_data+0x1ba4>
    80004c9e:	4500                	lw	s0,8(a0)
    80004ca0:	2f96                	fld	ft11,320(sp)
    80004ca2:	7d84                	ld	s1,56(a1)
    80004ca4:	59bbba97          	auipc	s5,0x59bbb
    80004ca8:	7cc8                	ld	a0,184(s1)
    80004caa:	6186                	ld	gp,64(sp)
    80004cac:	00949033          	sll	zero,s1,s1
    80004cb0:	2d32                	fld	fs10,264(sp)
    80004cb2:	1ee1                	add	t4,t4,-8
    80004cb4:	7168                	ld	a0,224(a0)
    80004cb6:	fb3a3f67          	.4byte	0xfb3a3f67
    80004cba:	ea803d57          	.4byte	0xea803d57
    80004cbe:	0cd0                	add	a2,sp,596
    80004cc0:	fa46                	sd	a7,304(sp)
    80004cc2:	4001                	c.li	zero,0
    80004cc4:	1281                	add	t0,t0,-32
    80004cc6:	6ecd                	lui	t4,0x13
    80004cc8:	69aa                	ld	s3,136(sp)
    80004cca:	33a5                	addw	t2,t2,-23 # ffffffffffffefe9 <_tbss_end+0xffffffff7fff6325>
    80004ccc:	58e6236f          	jal	t1,8006725a <_tbss_end+0x5e596>
    80004cd0:	a960                	fsd	fs0,208(a0)
    80004cd2:	1c74                	add	a3,sp,572
    80004cd4:	3150                	fld	fa2,160(a0)
    80004cd6:	3561                	addw	a0,a0,-8 # fffffffffffdfff8 <_tbss_end+0xffffffff7ffd7334>
    80004cd8:	a07c                	fsd	fa5,192(s0)
    80004cda:	a9bd38e3          	vmsge.vx	v17,v27,s10,v0.t
    80004cde:	2609                	addw	a2,a2,2
    80004ce0:	8f18                	.2byte	0x8f18
    80004ce2:	5c65                	li	s8,-7
    80004ce4:	3ecd                	addw	t4,t4,-13 # 12ff3 <buflen.1+0x12fb3>
    80004ce6:	24a2                	fld	fs1,8(sp)
    80004ce8:	17e6                	sll	a5,a5,0x39
    80004cea:	56a1                	li	a3,-24
    80004cec:	4e44                	lw	s1,28(a2)
    80004cee:	4f90                	lw	a2,24(a5)
    80004cf0:	28bdf153          	.4byte	0x28bdf153
    80004cf4:	4130                	lw	a2,64(a0)
    80004cf6:	0ac50a0f          	.4byte	0xac50a0f
    80004cfa:	1cb4                	add	a3,sp,632
    80004cfc:	9006                	c.add	zero,ra
    80004cfe:	2d0c                	fld	fa1,24(a0)
    80004d00:	3012                	fld	ft0,288(sp)
    80004d02:	782c                	ld	a1,112(s0)
    80004d04:	14c2                	sll	s1,s1,0x30
    80004d06:	454d                	li	a0,19
    80004d08:	bbfa                	fsd	ft10,496(sp)
    80004d0a:	664924eb          	.4byte	0x664924eb
    80004d0e:	52de                	lw	t0,244(sp)
    80004d10:	61f6                	ld	gp,344(sp)
    80004d12:	a7d10f4f          	.4byte	0xa7d10f4f
    80004d16:	15c5                	add	a1,a1,-15
    80004d18:	687e                	ld	a6,472(sp)
    80004d1a:	4ed0                	lw	a2,28(a3)
    80004d1c:	4adc                	lw	a5,20(a3)
    80004d1e:	439a                	lw	t2,132(sp)
    80004d20:	fe51                	bnez	a2,80004cbc <input_data+0x234>
    80004d22:	4da5                	li	s11,9
    80004d24:	c3bd                	beqz	a5,80004d8a <input_data+0x302>
    80004d26:	2511                	addw	a0,a0,4
    80004d28:	100a                	c.slli	zero,0x22
    80004d2a:	31ec                	fld	fa1,224(a1)
    80004d2c:	66076677          	.4byte	0x66076677
    80004d30:	ceea                	sw	s10,92(sp)
    80004d32:	2cfe                	fld	fs9,472(sp)
    80004d34:	152e                	sll	a0,a0,0x2b
    80004d36:	66b5                	lui	a3,0xd
    80004d38:	de5c                	sw	a5,60(a2)
    80004d3a:	3a4e                	fld	fs4,240(sp)
    80004d3c:	e140                	sd	s0,128(a0)
    80004d3e:	5c50                	lw	a2,60(s0)
    80004d40:	034d                	add	t1,t1,19 # fffffffffffe7013 <_tbss_end+0xffffffff7ffde34f>
    80004d42:	23a5                	addw	t2,t2,9
    80004d44:	4569                	li	a0,26
    80004d46:	613d                	add	sp,sp,480
    80004d48:	9f26                	add	t5,t5,s1
    80004d4a:	2f24                	fld	fs1,88(a4)
    80004d4c:	796a                	ld	s2,184(sp)
    80004d4e:	5f84                	lw	s1,56(a5)
    80004d50:	2df3dfcb          	.4byte	0x2df3dfcb
    80004d54:	16b9                	add	a3,a3,-18 # cfee <buflen.1+0xcfae>
    80004d56:	0bd0                	add	a2,sp,468
    80004d58:	4699                	li	a3,6
    80004d5a:	4add                	li	s5,23
    80004d5c:	a1f8                	fsd	fa4,192(a1)
    80004d5e:	7eb8                	ld	a4,120(a3)
    80004d60:	2215                	addw	tp,tp,5 # 6005 <buflen.1+0x5fc5>
    80004d62:	080c                	add	a1,sp,16
    80004d64:	9608                	.2byte	0x9608
    80004d66:	22c1                	addw	t0,t0,16
    80004d68:	3888                	fld	fa0,48(s1)
    80004d6a:	7e41                	lui	t3,0xffff0
    80004d6c:	8b9f 6d56 d570      	.byte	0x9f, 0x8b, 0x56, 0x6d, 0x70, 0xd5
    80004d72:	33ac                	fld	fa1,96(a5)
    80004d74:	938e                	add	t2,t2,gp
    80004d76:	650a                	ld	a0,128(sp)
    80004d78:	983d                	and	s0,s0,-17
    80004d7a:	2c6a                	fld	fs8,152(sp)
    80004d7c:	99ca                	add	s3,s3,s2
    80004d7e:	4428                	lw	a0,72(s0)
    80004d80:	f095                	bnez	s1,80004ca4 <input_data+0x21c>
    80004d82:	4252                	lw	tp,20(sp)
    80004d84:	b4a9                	j	800047ce <verify_data+0x1d46>
    80004d86:	1c88                	add	a0,sp,624
    80004d88:	8ad5                	and	a3,a3,21
    80004d8a:	e5b747a7          	.4byte	0xe5b747a7
    80004d8e:	b7293b13          	sltiu	s6,s2,-1166
    80004d92:	745e                	ld	s0,496(sp)
    80004d94:	1ef490c3          	vmsge.vx	v1,v15,s1
    80004d98:	f658                	sd	a4,168(a2)
    80004d9a:	635d                	lui	t1,0x17
    80004d9c:	2deb91bf 20b378d4 	.8byte	0x20b378d42deb91bf
    80004da4:	2a8f6b6f          	jal	s6,800fb04c <_tbss_end+0xf2388>
    80004da8:	e759                	bnez	a4,80004e36 <input_data+0x3ae>
    80004daa:	ceb263c7          	.4byte	0xceb263c7
    80004dae:	57b6                	lw	a5,108(sp)
    80004db0:	e800                	sd	s0,16(s0)
    80004db2:	4cb5                	li	s9,13
    80004db4:	3d98                	fld	fa4,56(a1)
    80004db6:	5ed1                	li	t4,-12
    80004db8:	6746                	ld	a4,80(sp)
    80004dba:	1268                	add	a0,sp,300
    80004dbc:	9561                	sra	a0,a0,0x38
    80004dbe:	392e                	fld	fs2,232(sp)
    80004dc0:	e231                	bnez	a2,80004e04 <input_data+0x37c>
    80004dc2:	0456                	sll	s0,s0,0x15
    80004dc4:	dfd0                	sw	a2,60(a5)
    80004dc6:	27f8                	fld	fa4,200(a5)
    80004dc8:	2d4e                	fld	fs10,208(sp)
    80004dca:	3635100b          	.4byte	0x3635100b
    80004dce:	5f46                	lw	t5,112(sp)
    80004dd0:	23fa                	fld	ft7,408(sp)
    80004dd2:	789c                	ld	a5,48(s1)
    80004dd4:	47c5                	li	a5,17
    80004dd6:	33eb476b          	.4byte	0x33eb476b
    80004dda:	779e                	ld	a5,480(sp)
    80004ddc:	00fc                	add	a5,sp,76
    80004dde:	3d62                	fld	fs10,56(sp)
    80004de0:	02a2                	sll	t0,t0,0x8
    80004de2:	6676                	ld	a2,344(sp)
    80004de4:	476bead3          	.4byte	0x476bead3
    80004de8:	46dadd13          	.4byte	0x46dadd13
    80004dec:	66c4                	ld	s1,136(a3)
    80004dee:	7691                	lui	a3,0xfffe4
    80004df0:	e555                	bnez	a0,80004e9c <input_data+0x414>
    80004df2:	3748                	fld	fa0,168(a4)
    80004df4:	77b2                	ld	a5,296(sp)
    80004df6:	eef76607          	vloxseg8ei32.v	v12,(a4),v15
    80004dfa:	5324                	lw	s1,96(a4)
    80004dfc:	17e0                	add	s0,sp,1004
    80004dfe:	2dd6                	fld	fs11,336(sp)
    80004e00:	7a02d7ff 722b3950 	.byte	0xff, 0xd7, 0x02, 0x7a, 0x50, 0x39, 0x2b, 0x72, 0x76, 0x53, 0xe0, 0x24, 0x07, 0xc0, 0x57, 0x55, 0xca, 0x31, 0x81, 0x02
    80004e08:	24e05376 5557c007 
    80004e10:	028131ca 
    80004e14:	94ba                	add	s1,s1,a4
    80004e16:	41f6                	lw	gp,92(sp)
    80004e18:	2422                	fld	fs0,8(sp)
    80004e1a:	229c0663          	beq	s8,s1,80005046 <input_data+0x5be>
    80004e1e:	477c                	lw	a5,76(a4)
    80004e20:	0b0fe933          	.4byte	0xb0fe933
    80004e24:	6f793433          	.4byte	0x6f793433
    80004e28:	2cec                	fld	fa1,216(s1)
    80004e2a:	0c38                	add	a4,sp,536
    80004e2c:	7909                	lui	s2,0xfffe2
    80004e2e:	6d55                	lui	s10,0x15
    80004e30:	cfc9                	beqz	a5,80004eca <input_data+0x442>
    80004e32:	9167388b          	.4byte	0x9167388b
    80004e36:	af6d3867          	.4byte	0xaf6d3867
    80004e3a:	4b3e                	lw	s6,204(sp)
    80004e3c:	1545                	add	a0,a0,-15
    80004e3e:	07d5                	add	a5,a5,21 # 7015 <buflen.1+0x6fd5>
    80004e40:	8f85                	sub	a5,a5,s1
    80004e42:	4eca                	lw	t4,144(sp)
    80004e44:	b0b9                	j	80004692 <verify_data+0x1c0a>
    80004e46:	56f8                	lw	a4,108(a3)
    80004e48:	d0d4                	sw	a3,36(s1)
    80004e4a:	30f6                	fld	ft1,376(sp)
    80004e4c:	6a74                	ld	a3,208(a2)
    80004e4e:	32ce                	fld	ft5,240(sp)
    80004e50:	e3c1                	bnez	a5,80004ed0 <input_data+0x448>
    80004e52:	23fe                	fld	ft7,472(sp)
    80004e54:	ffb9                	bnez	a5,80004db2 <input_data+0x32a>
    80004e56:	013a                	sll	sp,sp,0xe
    80004e58:	6796bc67          	.4byte	0x6796bc67
    80004e5c:	bdad                	j	80004cd6 <input_data+0x24e>
    80004e5e:	0236                	sll	tp,tp,0xd
    80004e60:	27d6                	fld	fa5,336(sp)
    80004e62:	7c7d                	lui	s8,0xfffff
    80004e64:	68b2                	ld	a7,264(sp)
    80004e66:	24b915db          	.4byte	0x24b915db
    80004e6a:	e0d668fb          	.4byte	0xe0d668fb
    80004e6e:	f557254f          	.4byte	0xf557254f
    80004e72:	cd5f2c2b          	.4byte	0xcd5f2c2b
    80004e76:	30b8                	fld	fa4,96(s1)
    80004e78:	6d68                	ld	a0,216(a0)
    80004e7a:	39c6                	fld	fs3,112(sp)
    80004e7c:	44b079ab          	.4byte	0x44b079ab
    80004e80:	2be4                	fld	fs1,208(a5)
    80004e82:	41ae                	lw	gp,200(sp)
    80004e84:	3abd                	addw	s5,s5,-17 # ffffffffd9bbfc93 <_tbss_end+0xffffffff59bb6fcf>
    80004e86:	678e17cf          	.4byte	0x678e17cf
    80004e8a:	7bac                	ld	a1,112(a5)
    80004e8c:	76de                	ld	a3,496(sp)
    80004e8e:	7582                	ld	a1,32(sp)
    80004e90:	2c8f5cab          	.4byte	0x2c8f5cab
    80004e94:	452947fb          	.4byte	0x452947fb
    80004e98:	2ace                	fld	fs5,208(sp)
    80004e9a:	679d                	lui	a5,0x7
    80004e9c:	7558                	ld	a4,168(a0)
    80004e9e:	7df8                	ld	a4,248(a1)
    80004ea0:	3381                	addw	t2,t2,-32
    80004ea2:	7111                	add	sp,sp,-256
    80004ea4:	328d                	addw	t0,t0,-29
    80004ea6:	34f371bb          	.4byte	0x34f371bb
    80004eaa:	44e0                	lw	s0,76(s1)
    80004eac:	f79f 0704 1798      	.byte	0x9f, 0xf7, 0x04, 0x07, 0x98, 0x17
    80004eb2:	7948                	ld	a0,176(a0)
    80004eb4:	6961                	lui	s2,0x18
    80004eb6:	4e72                	lw	t3,28(sp)
    80004eb8:	9a45                	and	a2,a2,-15
    80004eba:	59d9                	li	s3,-10
    80004ebc:	79ea714f          	fnmadd.s	ft2,fs4,ft10,fa5
    80004ec0:	ddde                	sw	s7,248(sp)
    80004ec2:	2d9e                	fld	fs11,448(sp)
    80004ec4:	592a                	lw	s2,168(sp)
    80004ec6:	3d7d                	addw	s10,s10,-1 # 14fff <buflen.1+0x14fbf>
    80004ec8:	b06d                	j	80004772 <verify_data+0x1cea>
    80004eca:	48c5                	li	a7,17
    80004ecc:	136948cb          	fnmsub.d	fa7,fs2,fs6,ft2,rmm
    80004ed0:	06f2                	sll	a3,a3,0x1c
    80004ed2:	723d                	lui	tp,0xfffef
    80004ed4:	6bd8                	ld	a4,144(a5)
    80004ed6:	00fa                	sll	ra,ra,0x1e
    80004ed8:	3e02                	fld	ft8,32(sp)
    80004eda:	02d4                	add	a3,sp,324
    80004edc:	10ed                	add	ra,ra,-5 # fffffffffffecffb <_tbss_end+0xffffffff7ffe4337>
    80004ede:	5241                	li	tp,-16
    80004ee0:	a2c4                	fsd	fs1,128(a3)
    80004ee2:	48c8                	lw	a0,20(s1)
    80004ee4:	4d28                	lw	a0,88(a0)
    80004ee6:	2afa                	fld	fs5,408(sp)
    80004ee8:	5552d8af          	.4byte	0x5552d8af
    80004eec:	5cf8                	lw	a4,124(s1)
    80004eee:	5d8c                	lw	a1,56(a1)
    80004ef0:	93c9                	srl	a5,a5,0x32
    80004ef2:	3634                	fld	fa3,104(a2)
    80004ef4:	0c30a657          	vredxor.vs	v12,v3,v1,v0.t
    80004ef8:	37a6bc03          	ld	s8,890(a3) # fffffffffffe437a <_tbss_end+0xffffffff7ffdb6b6>
    80004efc:	5d52b08f          	.4byte	0x5d52b08f
    80004f00:	145d8bd7          	vmin.vv	v23,v5,v27,v0.t
    80004f04:	a2f2                	fsd	ft8,320(sp)
    80004f06:	02d623ef          	jal	t2,80067732 <_tbss_end+0x5ea6e>
    80004f0a:	0051                	c.nop	20
    80004f0c:	2dde                	fld	fs11,464(sp)
    80004f0e:	32a2                	fld	ft5,40(sp)
    80004f10:	0ac3bca3          	sd	a2,185(t2)
    80004f14:	b0c8                	fsd	fa0,160(s1)
    80004f16:	583d                	li	a6,-17
    80004f18:	1fbccd53          	.4byte	0x1fbccd53
    80004f1c:	74bac3d7          	vmsle.vx	v7,v11,s5,v0.t
    80004f20:	d5d4                	sw	a3,44(a1)
    80004f22:	0654                	add	a3,sp,772
    80004f24:	0d01                	add	s10,s10,0
    80004f26:	3d1a                	fld	fs10,416(sp)
    80004f28:	7da5                	lui	s11,0xfffe9
    80004f2a:	37c5                	addw	a5,a5,-15 # 6ff1 <buflen.1+0x6fb1>
    80004f2c:	686ebe97          	auipc	t4,0x686eb
    80004f30:	8ac2                	mv	s5,a6
    80004f32:	6599                	lui	a1,0x6
    80004f34:	d049                	beqz	s0,80004eb6 <input_data+0x42e>
    80004f36:	d5415d7b          	.4byte	0xd5415d7b
    80004f3a:	bbe76f5b          	.4byte	0xbbe76f5b
    80004f3e:	21f8                	fld	fa4,192(a1)
    80004f40:	79d1                	lui	s3,0xffff4
    80004f42:	4c253e53          	.4byte	0x4c253e53
    80004f46:	1060                	add	s0,sp,44
    80004f48:	5cce                	lw	s9,240(sp)
    80004f4a:	25de3513          	sltiu	a0,t3,605
    80004f4e:	1e45                	add	t3,t3,-15 # fffffffffffefff1 <_tbss_end+0xffffffff7ffe732d>
    80004f50:	ef64                	sd	s1,216(a4)
    80004f52:	ab662f4b          	fnmsub.d	ft10,fa2,fs6,fs5,rdn
    80004f56:	1b78                	add	a4,sp,444
    80004f58:	20ae                	fld	ft1,200(sp)
    80004f5a:	464e                	lw	a2,208(sp)
    80004f5c:	172d75a3          	vmsge.vx	v11,v18,s10
    80004f60:	9e80                	vmsge.vx	v29,v0,ra,v0.t
    80004f62:	4261                	li	tp,24
    80004f64:	00d3e7bb          	.4byte	0xd3e7bb
    80004f68:	6c2a                	ld	s8,136(sp)
    80004f6a:	a05071d3          	.4byte	0xa05071d3
    80004f6e:	4085                	li	ra,1
    80004f70:	08ff 576b 465f 4c61 	.byte	0xff, 0x08, 0x6b, 0x57, 0x5f, 0x46, 0x61, 0x4c, 0x3e, 0xcd
    80004f78:	cd3e 
    80004f7a:	247e                	fld	fs0,472(sp)
    80004f7c:	2ff2                	fld	ft11,280(sp)
    80004f7e:	1640                	add	s0,sp,804
    80004f80:	f16e                	sd	s11,160(sp)
    80004f82:	21e4                	fld	fs1,192(a1)
    80004f84:	5278adf3          	csrrs	s11,0x527,a7
    80004f88:	4afd                	li	s5,31
    80004f8a:	aaad3fff d0832c73 	.byte	0xff, 0x3f, 0xad, 0xaa, 0x73, 0x2c, 0x83, 0xd0, 0x3f, 0x25, 0x68, 0x47, 0xd9, 0x4c, 0xa2, 0x58
    80004f92:	4768253f 58a24cd9 
    80004f9a:	09fd72f3          	csrrc	t0,0x9f,26
    80004f9e:	08d4                	add	a3,sp,84
    80004fa0:	e83e                	sd	a5,16(sp)
    80004fa2:	1b94                	add	a3,sp,496
    80004fa4:	6ce3fc13          	and	s8,t2,1742
    80004fa8:	af35                	j	800056e4 <input_data+0xc5c>
    80004faa:	5dac                	lw	a1,120(a1)
    80004fac:	2416                	fld	fs0,320(sp)
    80004fae:	545d                	li	s0,-9
    80004fb0:	2e9a                	fld	ft9,384(sp)
    80004fb2:	82e3583b          	.4byte	0x82e3583b
    80004fb6:	4f5e                	lw	t5,212(sp)
    80004fb8:	202fd7d7          	vfsgnj.vf	v15,v2,ft11,v0.t
    80004fbc:	096e                	sll	s2,s2,0x1b
    80004fbe:	e9f00f97          	auipc	t6,0xe9f00
    80004fc2:	64bd                	lui	s1,0xf
    80004fc4:	10e4ceaf          	.4byte	0x10e4ceaf
    80004fc8:	d0aa                	sw	a0,96(sp)
    80004fca:	4735                	li	a4,13
    80004fcc:	7850                	ld	a2,176(s0)
    80004fce:	78e96a2b          	.4byte	0x78e96a2b
    80004fd2:	26ba                	fld	fa3,392(sp)
    80004fd4:	5579cfa7          	.4byte	0x5579cfa7
    80004fd8:	d65f 43b2 a8b1      	.byte	0x5f, 0xd6, 0xb2, 0x43, 0xb1, 0xa8
    80004fde:	601e3793          	sltiu	a5,t3,1537
    80004fe2:	45c8                	lw	a0,12(a1)
    80004fe4:	99ec                	.2byte	0x99ec
    80004fe6:	3e85                	addw	t4,t4,-31 # ffffffffe86eff0d <_tbss_end+0xffffffff686e7249>
    80004fe8:	fc5d                	bnez	s0,80004fa6 <input_data+0x51e>
    80004fea:	d200294b          	fnmsub.d	fs2,ft0,ft0,fs10,rdn
    80004fee:	574d6097          	auipc	ra,0x574d6
    80004ff2:	7966                	ld	s2,120(sp)
    80004ff4:	233d                	addw	t1,t1,15 # 1700f <buflen.1+0x16fcf>
    80004ff6:	101e                	c.slli	zero,0x27
    80004ff8:	24d5dd8b          	.4byte	0x24d5dd8b
    80004ffc:	ed35                	bnez	a0,80005078 <input_data+0x5f0>
    80004ffe:	504d                	c.li	zero,-13
    80005000:	b03a                	fsd	fa4,32(sp)
    80005002:	6998                	ld	a4,16(a1)
    80005004:	01d8e9c7          	fmsub.s	fs3,fa7,ft9,ft0,unknown
    80005008:	4fba                	lw	t6,140(sp)
    8000500a:	2711                	addw	a4,a4,4 # ffffffffffff8004 <_tbss_end+0xffffffff7ffef340>
    8000500c:	54ee                	lw	s1,248(sp)
    8000500e:	1121015b          	.4byte	0x1121015b
    80005012:	6511                	lui	a0,0x4
    80005014:	f61d                	bnez	a2,80004f42 <input_data+0x4ba>
    80005016:	33b6                	fld	ft7,360(sp)
    80005018:	a3b2                	fsd	fa2,448(sp)
    8000501a:	05ac5dff 1cd30d95 	.byte	0xff, 0x5d, 0xac, 0x05, 0x95, 0x0d, 0xd3, 0x1c, 0xfd, 0x7a, 0x46, 0xca, 0x21, 0x5a, 0xd8, 0x9b, 0xf6, 0x2e, 0x41, 0x60
    80005022:	ca467afd 9bd85a21 
    8000502a:	60412ef6 
    8000502e:	68d4                	ld	a3,144(s1)
    80005030:	4274                	lw	a3,68(a2)
    80005032:	5c99                	li	s9,-26
    80005034:	7b86eff3          	csrrs	t6,0x7b8,13
    80005038:	e378                	sd	a4,192(a4)
    8000503a:	25b4                	fld	fa3,72(a1)
    8000503c:	34127047          	.4byte	0x34127047
    80005040:	8ed0                	.2byte	0x8ed0
    80005042:	7cfe                	ld	s9,504(sp)
    80005044:	7008f7cb          	fnmsub.s	fa5,fa7,ft0,fa4
    80005048:	70b5                	lui	ra,0xfffed
    8000504a:	53ba                	lw	t2,172(sp)
    8000504c:	6db9d8c7          	.4byte	0x6db9d8c7
    80005050:	f955                	bnez	a0,80005004 <input_data+0x57c>
    80005052:	5ff5                	li	t6,-3
    80005054:	dbe0                	sw	s0,116(a5)
    80005056:	db0a0b17          	auipc	s6,0xdb0a0
    8000505a:	0bb4                	add	a3,sp,472
    8000505c:	a8fc                	fsd	fa5,208(s1)
    8000505e:	46b207bf d7423089 	.8byte	0xd742308946b207bf
    80005066:	507c54af          	.4byte	0x507c54af
    8000506a:	0d86                	sll	s11,s11,0x1
    8000506c:	7b2e                	ld	s6,232(sp)
    8000506e:	5595                	li	a1,-27
    80005070:	3b0a                	fld	fs6,160(sp)
    80005072:	0d31                	add	s10,s10,12
    80005074:	e4b2                	sd	a2,72(sp)
    80005076:	139c                	add	a5,sp,480
    80005078:	735e                	ld	t1,496(sp)
    8000507a:	30ee                	fld	ft1,248(sp)
    8000507c:	0f8b5fbf 538275d3 	.8byte	0x538275d30f8b5fbf
    80005084:	366e                	fld	fa2,248(sp)
    80005086:	0c92                	sll	s9,s9,0x4
    80005088:	0ac0                	add	s0,sp,340
    8000508a:	364469c7          	.4byte	0x364469c7
    8000508e:	34de                	fld	fs1,496(sp)
    80005090:	f150                	sd	a2,160(a0)
    80005092:	6bb5                	lui	s7,0xd
    80005094:	1e48192b          	.4byte	0x1e48192b
    80005098:	0f76                	sll	t5,t5,0x1d
    8000509a:	36cb2dbb          	.4byte	0x36cb2dbb
    8000509e:	bfaa0197          	auipc	gp,0xbfaa0
    800050a2:	d42012ff 3fc03647 	.byte	0xff, 0x12, 0x20, 0xd4, 0x47, 0x36, 0xc0, 0x3f, 0xfd, 0x06, 0x3a, 0x8d
    800050aa:	8d3a06fd 
    800050ae:	3fa67bab          	.4byte	0x3fa67bab
    800050b2:	11f6                	sll	gp,gp,0x3d
    800050b4:	1bb4383f 7a6c039a 	.8byte	0x7a6c039a1bb4383f
    800050bc:	08d9                	add	a7,a7,22
    800050be:	a3054f97          	auipc	t6,0xa3054
    800050c2:	2bf5                	addw	s7,s7,29 # d01d <buflen.1+0xcfdd>
    800050c4:	2e56b07f 44630ba3 	.byte	0x7f, 0xb0, 0x56, 0x2e, 0xa3, 0x0b, 0x63, 0x44, 0xe6, 0x01, 0x1b, 0x76, 0x7d, 0x40, 0x0f, 0x61
    800050cc:	761b01e6 610f407d 
    800050d4:	c554                	sw	a3,12(a0)
    800050d6:	b4a35ba3          	vmsge.vx	v23,v10,t1,v0.t
    800050da:	b76642d7          	vnsra.wx	v5,v22,a2
    800050de:	52fa                	lw	t0,188(sp)
    800050e0:	6b51cb4f          	fnmadd.d	fs6,ft3,fs5,fa3,rmm
    800050e4:	2540                	fld	fs0,136(a0)
    800050e6:	d9bb2667          	.4byte	0xd9bb2667
    800050ea:	86fc4be3          	blt	s8,a5,80004960 <verify_data+0x1ed8>
    800050ee:	71a0                	ld	s0,96(a1)
    800050f0:	2a85                	addw	s5,s5,1
    800050f2:	648301af          	.4byte	0x648301af
    800050f6:	5776                	lw	a4,124(sp)
    800050f8:	5f2d                	li	t5,-21
    800050fa:	80f21633          	.4byte	0x80f21633
    800050fe:	49ca04ab          	.4byte	0x49ca04ab
    80005102:	0816                	sll	a6,a6,0x5
    80005104:	c5ee                	sw	s11,200(sp)
    80005106:	3f4a                	fld	ft10,176(sp)
    80005108:	5fc4                	lw	s1,60(a5)
    8000510a:	fa540f83          	lb	t6,-91(s0)
    8000510e:	469a                	lw	a3,132(sp)
    80005110:	dde6                	sw	s9,248(sp)
    80005112:	1122                	sll	sp,sp,0x28
    80005114:	7ed5                	lui	t4,0xffff5
    80005116:	44d5                	li	s1,21
    80005118:	86e0                	vmsge.vx	v13,v0,ra,v0.t
    8000511a:	6126                	ld	sp,72(sp)
    8000511c:	7c45df3b          	.4byte	0x7c45df3b
    80005120:	b6d4                	fsd	fa3,168(a3)
    80005122:	2faa                	fld	ft11,136(sp)
    80005124:	52670823          	sb	t1,1328(a4)
    80005128:	c122                	sw	s0,128(sp)
    8000512a:	79f0                	ld	a2,240(a1)
    8000512c:	37a5a727          	fsw	fs10,878(a1) # 636e <buflen.1+0x632e>
    80005130:	d981                	beqz	a1,80005040 <input_data+0x5b8>
    80005132:	2e88050f          	.4byte	0x2e88050f
    80005136:	3539                	addw	a0,a0,-18 # 3fee <buflen.1+0x3fae>
    80005138:	0db2                	sll	s11,s11,0xc
    8000513a:	10a5                	add	ra,ra,-23 # fffffffffffecfe9 <_tbss_end+0xffffffff7ffe4325>
    8000513c:	ed86                	sd	ra,216(sp)
    8000513e:	26d8                	fld	fa4,136(a3)
    80005140:	3b24                	fld	fs1,112(a4)
    80005142:	0e38                	add	a4,sp,792
    80005144:	b3cd                	j	80004f26 <input_data+0x49e>
    80005146:	3834                	fld	fa3,112(s0)
    80005148:	da28                	sw	a0,112(a2)
    8000514a:	6ca2                	ld	s9,8(sp)
    8000514c:	d051                	beqz	s0,800050d0 <input_data+0x648>
    8000514e:	98346e3f 734737ff 	.8byte	0x734737ff98346e3f
    80005156:	1a06                	sll	s4,s4,0x21
    80005158:	f31d                	bnez	a4,8000507e <input_data+0x5f6>
    8000515a:	20bc                	fld	fa5,64(s1)
    8000515c:	56d6                	lw	a3,116(sp)
    8000515e:	3d54                	fld	fa3,184(a0)
    80005160:	810a                	mv	sp,sp
    80005162:	2285                	addw	t0,t0,1
    80005164:	1b69                	add	s6,s6,-6 # 5b0a5050 <buflen.1+0x5b0a5010>
    80005166:	7ea5                	lui	t4,0xfffe9
    80005168:	b34e                	fsd	fs3,416(sp)
    8000516a:	347a                	fld	fs0,440(sp)
    8000516c:	4290                	lw	a2,0(a3)
    8000516e:	56155683          	lhu	a3,1377(a0)
    80005172:	5081                	li	ra,-32
    80005174:	ae74                	fsd	fa3,216(a2)
    80005176:	bb695c27          	.4byte	0xbb695c27
    8000517a:	3324                	fld	fs1,96(a4)
    8000517c:	cc31                	beqz	s0,800051d8 <input_data+0x750>
    8000517e:	7eed                	lui	t4,0xffffb
    80005180:	8db4                	.2byte	0x8db4
    80005182:	1c4b4667          	.4byte	0x1c4b4667
    80005186:	2b5e                	fld	fs6,464(sp)
    80005188:	1c78                	add	a4,sp,572
    8000518a:	6089                	lui	ra,0x2
    8000518c:	39c2eec3          	fmadd.s	ft9,ft5,ft8,ft7,unknown
    80005190:	48473db3          	.4byte	0x48473db3
    80005194:	6762                	ld	a4,24(sp)
    80005196:	5120                	lw	s0,96(a0)
    80005198:	15f77ee7          	.4byte	0x15f77ee7
    8000519c:	13e702e3          	beq	a4,t5,80005ac0 <input_data+0x1038>
    800051a0:	8266                	mv	tp,s9
    800051a2:	027c                	add	a5,sp,268
    800051a4:	e6d4                	sd	a3,136(a3)
    800051a6:	52dd                	li	t0,-9
    800051a8:	5d347033          	.4byte	0x5d347033
    800051ac:	3a0a8c2b          	.4byte	0x3a0a8c2b
    800051b0:	4043fd5b          	.4byte	0x4043fd5b
    800051b4:	36bd5793          	.4byte	0x36bd5793
    800051b8:	a131                	j	800055c4 <input_data+0xb3c>
    800051ba:	3ab263ab          	.4byte	0x3ab263ab
    800051be:	413d                	li	sp,15
    800051c0:	058545bf 7eb78eb9 	.8byte	0x7eb78eb9058545bf
    800051c8:	7ef8                	ld	a4,248(a3)
    800051ca:	42ad609b          	.4byte	0x42ad609b
    800051ce:	3698                	fld	fa4,40(a3)
    800051d0:	0a6dc44f          	fnmadd.d	fs0,fs11,ft6,ft1,rmm
    800051d4:	befe                	fsd	ft11,376(sp)
    800051d6:	01a1                	add	gp,gp,8 # 3faa50a6 <buflen.1+0x3faa5066>
    800051d8:	306d                	.2byte	0x306d
    800051da:	19f1                	add	s3,s3,-4 # ffffffffffff3ffc <_tbss_end+0xffffffff7ffeb338>
    800051dc:	4c2e                	lw	s8,200(sp)
    800051de:	14f73deb          	.4byte	0x14f73deb
    800051e2:	63436d53          	.4byte	0x63436d53
    800051e6:	1239                	add	tp,tp,-18 # fffffffffffeefee <_tbss_end+0xffffffff7ffe632a>
    800051e8:	a26a                	fsd	fs10,256(sp)
    800051ea:	13b2                	sll	t2,t2,0x2c
    800051ec:	5d0d                	li	s10,-29
    800051ee:	2b89                	addw	s7,s7,2
    800051f0:	a80d                	j	80005222 <input_data+0x79a>
    800051f2:	004b616b          	.4byte	0x4b616b
    800051f6:	ec893213          	sltiu	tp,s2,-312
    800051fa:	2dc4                	fld	fs1,152(a1)
    800051fc:	3ee4                	fld	fs1,248(a3)
    800051fe:	fd240687          	.4byte	0xfd240687
    80005202:	78dd                	lui	a7,0xffff7
    80005204:	0f89                	add	t6,t6,2 # 230590c0 <buflen.1+0x23059080>
    80005206:	15ee                	sll	a1,a1,0x3b
    80005208:	f891                	bnez	s1,8000511c <input_data+0x694>
    8000520a:	03337637          	lui	a2,0x3337
    8000520e:	718f4d13          	xor	s10,t5,1816
    80005212:	2a12                	fld	fs4,256(sp)
    80005214:	8514                	.2byte	0x8514
    80005216:	f67d0d83          	lb	s11,-153(s10)
    8000521a:	3fa4                	fld	fs1,120(a5)
    8000521c:	67a4                	ld	s1,72(a5)
    8000521e:	7c24                	ld	s1,120(s0)
    80005220:	38b93c73          	csrrc	s8,0x38b,s2
    80005224:	0f8982b7          	lui	t0,0xf898
    80005228:	c726                	sw	s1,140(sp)
    8000522a:	fc69423b          	.4byte	0xfc69423b
    8000522e:	d28770bf ea255235 	.8byte	0xea255235d28770bf
    80005236:	0a7d                	add	s4,s4,31
    80005238:	278e                	fld	fa5,192(sp)
    8000523a:	2374                	fld	fa3,192(a4)
    8000523c:	0ec2                	sll	t4,t4,0x10
    8000523e:	8b6a6f83          	lwu	t6,-1866(s4)
    80005242:	64ba                	ld	s1,392(sp)
    80005244:	a049                	j	800052c6 <input_data+0x83e>
    80005246:	4cf2                	lw	s9,28(sp)
    80005248:	06c9                	add	a3,a3,18
    8000524a:	0e9a                	sll	t4,t4,0x6
    8000524c:	4d4c799b          	.4byte	0x4d4c799b
    80005250:	02a0                	add	s0,sp,328
    80005252:	73bb6bf3          	csrrs	s7,mhpmevent27h,22
    80005256:	6fb1                	lui	t6,0xc
    80005258:	1086                	sll	ra,ra,0x21
    8000525a:	7439                	lui	s0,0xfffee
    8000525c:	9e52                	add	t3,t3,s4
    8000525e:	71b6                	ld	gp,360(sp)
    80005260:	23494e2b          	.4byte	0x23494e2b
    80005264:	b850                	fsd	fa2,176(s0)
    80005266:	4e3a                	lw	t3,140(sp)
    80005268:	1641                	add	a2,a2,-16 # 3336ff0 <buflen.1+0x3336fb0>
    8000526a:	1e62                	sll	t3,t3,0x38
    8000526c:	e796                	sd	t0,456(sp)
    8000526e:	33d8                	fld	fa4,160(a5)
    80005270:	c4c2                	sw	a6,72(sp)
    80005272:	0439                	add	s0,s0,14 # fffffffffffee00e <_tbss_end+0xffffffff7ffe534a>
    80005274:	c9c9                	beqz	a1,80005306 <input_data+0x87e>
    80005276:	1e00                	add	s0,sp,816
    80005278:	a0ff 6485 586b 5f8b 	.byte	0xff, 0xa0, 0x85, 0x64, 0x6b, 0x58, 0x8b, 0x5f, 0xb0, 0xad, 0x6a, 0x48, 0xab, 0xc7
    80005280:	adb0 486a c7ab 
    80005286:	95c44373          	.4byte	0x95c44373
    8000528a:	2dc9                	addw	s11,s11,18 # fffffffffffe9012 <_tbss_end+0xffffffff7ffe034e>
    8000528c:	c94a                	sw	s2,144(sp)
    8000528e:	234c                	fld	fa1,128(a4)
    80005290:	d44c                	sw	a1,44(s0)
    80005292:	66f8                	ld	a4,200(a3)
    80005294:	3893fc2f          	.4byte	0x3893fc2f
    80005298:	68f47697          	auipc	a3,0x68f47
    8000529c:	9565                	sra	a0,a0,0x39
    8000529e:	1d14                	add	a3,sp,688
    800052a0:	9910                	.2byte	0x9910
    800052a2:	804f603f 6a306076 	.8byte	0x6a306076804f603f
    800052aa:	9a0723e7          	.4byte	0x9a0723e7
    800052ae:	78e2                	ld	a7,56(sp)
    800052b0:	ba5a                	fsd	fs6,304(sp)
    800052b2:	0af2                	sll	s5,s5,0x1c
    800052b4:	cf00                	sw	s0,24(a4)
    800052b6:	5d0e                	lw	s10,224(sp)
    800052b8:	3ac8d43b          	.4byte	0x3ac8d43b
    800052bc:	8a1a                	mv	s4,t1
    800052be:	5aec                	lw	a1,116(a3)
    800052c0:	3a49aebb          	.4byte	0x3a49aebb
    800052c4:	1980                	add	s0,sp,240
    800052c6:	19c9                	add	s3,s3,-14
    800052c8:	5b13e84b          	fnmsub.d	fa6,ft7,fa7,fa1,unknown
    800052cc:	06f5b7c3          	vmsge.vx	v15,v15,a1
    800052d0:	0afe                	sll	s5,s5,0x1f
    800052d2:	3ae0                	fld	fs0,240(a3)
    800052d4:	4ec4                	lw	s1,28(a3)
    800052d6:	612c                	ld	a1,64(a0)
    800052d8:	415f 055e 9628      	.byte	0x5f, 0x41, 0x5e, 0x05, 0x28, 0x96
    800052de:	06ce                	sll	a3,a3,0x13
    800052e0:	0db8                	add	a4,sp,728
    800052e2:	206c                	fld	fa1,192(s0)
    800052e4:	e815                	bnez	s0,80005318 <input_data+0x890>
    800052e6:	280932f7          	.4byte	0x280932f7
    800052ea:	5552306b          	.4byte	0x5552306b
    800052ee:	0a87054b          	fnmsub.d	fa0,fa4,fs0,ft1,rne
    800052f2:	4124                	lw	s1,64(a0)
    800052f4:	acb4                	fsd	fa3,88(s1)
    800052f6:	1220                	add	s0,sp,296
    800052f8:	d140                	sw	s0,36(a0)
    800052fa:	59b4                	lw	a3,112(a1)
    800052fc:	1a2c                	add	a1,sp,312
    800052fe:	3555                	addw	a0,a0,-11
    80005300:	6e3d0eeb          	.4byte	0x6e3d0eeb
    80005304:	beb6                	fsd	fa3,376(sp)
    80005306:	5fd0                	lw	a2,60(a5)
    80005308:	7fc4                	ld	s1,184(a5)
    8000530a:	3d8e                	fld	fs11,224(sp)
    8000530c:	1c2f74ab          	.4byte	0x1c2f74ab
    80005310:	babe                	fsd	fa5,368(sp)
    80005312:	5ef8                	lw	a4,124(a3)
    80005314:	3d4262f7          	.4byte	0x3d4262f7
    80005318:	1229                	add	tp,tp,-22 # ffffffffffffffea <_tbss_end+0xffffffff7fff7326>
    8000531a:	d6074007          	.4byte	0xd6074007
    8000531e:	e65262c3          	vmsge.vx	v5,v5,tp
    80005322:	5add                	li	s5,-9
    80005324:	1621                	add	a2,a2,-24
    80005326:	1712                	sll	a4,a4,0x24
    80005328:	06622783          	lw	a5,102(tp) # 66 <buflen.1+0x26>
    8000532c:	e928                	sd	a0,80(a0)
    8000532e:	3dde                	fld	fs11,496(sp)
    80005330:	5026                	.2byte	0x5026
    80005332:	a0ea2f97          	auipc	t6,0xa0ea2
    80005336:	a4ac589b          	.4byte	0xa4ac589b
    8000533a:	6ff6                	ld	t6,344(sp)
    8000533c:	cf1d                	beqz	a4,8000537a <input_data+0x8f2>
    8000533e:	2c445ce7          	.4byte	0x2c445ce7
    80005342:	792d                	lui	s2,0xfffeb
    80005344:	fd61                	bnez	a0,8000531c <input_data+0x894>
    80005346:	163e                	sll	a2,a2,0x2f
    80005348:	0434                	add	a3,sp,520
    8000534a:	7f24                	ld	s1,120(a4)
    8000534c:	61c6                	ld	gp,80(sp)
    8000534e:	0f3a17d7          	vfredosum.vs	v15,v19,v20
    80005352:	4382                	lw	t2,0(sp)
    80005354:	ff5d                	bnez	a4,80005312 <input_data+0x88a>
    80005356:	7524                	ld	s1,104(a0)
    80005358:	5c7c7ae7          	.4byte	0x5c7c7ae7
    8000535c:	be92                	fsd	ft4,376(sp)
    8000535e:	0035                	c.nop	13
    80005360:	37c94eb3          	.4byte	0x37c94eb3
    80005364:	d215                	beqz	a2,80005288 <input_data+0x800>
    80005366:	7b68                	ld	a0,240(a4)
    80005368:	9af5                	and	a3,a3,-3
    8000536a:	1dd8                	add	a4,sp,756
    8000536c:	7b61                	lui	s6,0xffff8
    8000536e:	1fc6                	sll	t6,t6,0x31
    80005370:	91b1                	srl	a1,a1,0x2c
    80005372:	3fb4                	fld	fa3,120(a5)
    80005374:	7cce                	ld	s9,240(sp)
    80005376:	3b8a                	fld	fs7,160(sp)
    80005378:	5969bfbf 2e70078a 	.8byte	0x2e70078a5969bfbf
    80005380:	ea69                	bnez	a2,80005452 <input_data+0x9ca>
    80005382:	c0af03f7          	.4byte	0xc0af03f7
    80005386:	42df 2c45 2cab      	.byte	0xdf, 0x42, 0x45, 0x2c, 0xab, 0x2c
    8000538c:	daf9                	beqz	a3,80005362 <input_data+0x8da>
    8000538e:	1df0                	add	a2,sp,764
    80005390:	201f73bb          	.4byte	0x201f73bb
    80005394:	c1b1                	beqz	a1,800053d8 <input_data+0x950>
    80005396:	66270f7b          	.4byte	0x66270f7b
    8000539a:	2ce6                	fld	fs9,88(sp)
    8000539c:	3571                	addw	a0,a0,-4
    8000539e:	053d                	add	a0,a0,15
    800053a0:	0c4c                	add	a1,sp,532
    800053a2:	0cb12027          	fsw	fa1,192(sp)
    800053a6:	f75463db          	.4byte	0xf75463db
    800053aa:	497d                	li	s2,31
    800053ac:	4ff0                	lw	a2,92(a5)
    800053ae:	190a                	sll	s2,s2,0x22
    800053b0:	6941                	lui	s2,0x10
    800053b2:	6474                	ld	a3,200(s0)
    800053b4:	14a8aca7          	fsw	fa0,345(a7) # ffffffffffff7159 <_tbss_end+0xffffffff7ffee495>
    800053b8:	5ffa6057          	.4byte	0x5ffa6057
    800053bc:	0230                	add	a2,sp,264
    800053be:	5f38                	lw	a4,120(a4)
    800053c0:	405d5a9b          	sraw	s5,s10,0x5
    800053c4:	20f1                	addw	ra,ra,28 # 201c <buflen.1+0x1fdc>
    800053c6:	384a                	fld	fa6,176(sp)
    800053c8:	a53a                	fsd	fa4,136(sp)
    800053ca:	fe496987          	.4byte	0xfe496987
    800053ce:	bb2a2d97          	auipc	s11,0xbb2a2
    800053d2:	26c969e7          	.4byte	0x26c969e7
    800053d6:	7f1633ab          	.4byte	0x7f1633ab
    800053da:	15ce                	sll	a1,a1,0x33
    800053dc:	e474                	sd	a3,200(s0)
    800053de:	1221                	add	tp,tp,-24 # ffffffffffffffe8 <_tbss_end+0xffffffff7fff7324>
    800053e0:	2630                	fld	fa2,72(a2)
    800053e2:	148e                	sll	s1,s1,0x23
    800053e4:	67d5                	lui	a5,0x15
    800053e6:	511f dc38 567a      	.byte	0x1f, 0x51, 0x38, 0xdc, 0x7a, 0x56
    800053ec:	90ea                	add	ra,ra,s10
    800053ee:	2515                	addw	a0,a0,5
    800053f0:	042c2c93          	slti	s9,s8,66
    800053f4:	3fdd                	addw	t6,t6,-9 # 20ea7329 <buflen.1+0x20ea72e9>
    800053f6:	f8f2643f 25ea19f1 	.8byte	0x25ea19f1f8f2643f
    800053fe:	2901                	sext.w	s2,s2
    80005400:	63be                	ld	t2,456(sp)
    80005402:	1266                	sll	tp,tp,0x39
    80005404:	eb98                	sd	a4,16(a5)
    80005406:	5185                	li	gp,-31
    80005408:	6d54fafb          	.4byte	0x6d54fafb
    8000540c:	73da                	ld	t2,432(sp)
    8000540e:	0f36                	sll	t5,t5,0xd
    80005410:	4814                	lw	a3,16(s0)
    80005412:	0b8e                	sll	s7,s7,0x3
    80005414:	929f 6d4a 9983      	.byte	0x9f, 0x92, 0x4a, 0x6d, 0x83, 0x99
    8000541a:	3291                	addw	t0,t0,-28 # f897fe4 <buflen.1+0xf897fa4>
    8000541c:	8185                	srl	a1,a1,0x1
    8000541e:	8d110913          	add	s2,sp,-1839
    80005422:	be830dc7          	.4byte	0xbe830dc7
    80005426:	6892                	ld	a7,256(sp)
    80005428:	6d90fbd7          	vsetvli	s7,ra,1753
    8000542c:	31bc1683          	lh	a3,795(s8) # fffffffffffff31b <_tbss_end+0xffffffff7fff6657>
    80005430:	1500                	add	s0,sp,672
    80005432:	0db4                	add	a3,sp,728
    80005434:	f0f9                	bnez	s1,800053fa <input_data+0x972>
    80005436:	98ae7a53          	.4byte	0x98ae7a53
    8000543a:	142d                	add	s0,s0,-21
    8000543c:	49b6                	lw	s3,76(sp)
    8000543e:	049e                	sll	s1,s1,0x7
    80005440:	00c56a53          	fadd.s	fs4,fa0,fa2,unknown
    80005444:	2b34                	fld	fa3,80(a4)
    80005446:	800e0223          	sb	zero,-2044(t3)
    8000544a:	35f0621b          	.4byte	0x35f0621b
    8000544e:	597a                	lw	s2,188(sp)
    80005450:	34a2                	fld	fs1,40(sp)
    80005452:	1a26                	sll	s4,s4,0x29
    80005454:	592c584b          	fnmsub.s	fa6,fs8,fs2,fa1,unknown
    80005458:	19de                	sll	s3,s3,0x37
    8000545a:	16b218fb          	.4byte	0x16b218fb
    8000545e:	56c5                	li	a3,-15
    80005460:	c342                	sw	a6,132(sp)
    80005462:	acda499b          	.4byte	0xacda499b
    80005466:	4cb8                	lw	a4,88(s1)
    80005468:	0309                	add	t1,t1,2
    8000546a:	1c05                	add	s8,s8,-31
    8000546c:	71422f0f          	.4byte	0x71422f0f
    80005470:	6781                	vmsge.vx	v15,v0,zero,v0.t
    80005472:	2da44367          	.4byte	0x2da44367
    80005476:	69aa                	ld	s3,136(sp)
    80005478:	16be534b          	.4byte	0x16be534b
    8000547c:	5faffcaf          	.4byte	0x5faffcaf
    80005480:	f87d                	bnez	s0,80005476 <input_data+0x9ee>
    80005482:	1eb0                	add	a2,sp,888
    80005484:	af76                	fsd	ft9,408(sp)
    80005486:	359a3b43          	vmsge.vx	v22,v25,s4,v0.t
    8000548a:	58f0598f          	.4byte	0x58f0598f
    8000548e:	418e                	lw	gp,192(sp)
    80005490:	7a9e                	ld	s5,480(sp)
    80005492:	60ff c207 4477 5d34 	.byte	0xff, 0x60, 0x07, 0xc2, 0x77, 0x44, 0x34, 0x5d, 0x8a, 0x5a, 0x27, 0x4a, 0x6a, 0x38, 0xb7, 0x84, 0x5a, 0x06, 0x1a, 0x18, 0xee, 0x36
    8000549a:	5a8a 4a27 386a 84b7 
    800054a2:	065a 181a 36ee 
    800054a8:	8142                	mv	sp,a6
    800054aa:	0ad2                	sll	s5,s5,0x14
    800054ac:	6704                	ld	s1,8(a4)
    800054ae:	5de6                	lw	s11,120(sp)
    800054b0:	667e9cb3          	.4byte	0x667e9cb3
    800054b4:	5d161ea7          	.4byte	0x5d161ea7
    800054b8:	a925                	j	800058f0 <input_data+0xe68>
    800054ba:	ce147273          	csrrc	tp,0xce1,8
    800054be:	5a02                	lw	s4,32(sp)
    800054c0:	65ff 41b8 952d 4616 	.byte	0xff, 0x65, 0xb8, 0x41, 0x2d, 0x95, 0x16, 0x46, 0x66, 0xb3, 0xd8, 0x2f, 0x60, 0xd3, 0x15, 0x0b, 0x75, 0x1b, 0x1e, 0x3f, 0x2a, 0x19
    800054c8:	b366 2fd8 d360 0b15 
    800054d0:	1b75 3f1e 192a 
    800054d6:	6655                	lui	a2,0x15
    800054d8:	2134                	fld	fa3,64(a0)
    800054da:	01e2                	sll	gp,gp,0x18
    800054dc:	a632                	fsd	fa2,264(sp)
    800054de:	1b96                	sll	s7,s7,0x25
    800054e0:	6eff 4f9c b6a6 02cd 	.byte	0xff, 0x6e, 0x9c, 0x4f, 0xa6, 0xb6, 0xcd, 0x02, 0x99, 0xd0, 0xa9, 0x0a, 0xf6, 0x50, 0x6d, 0x53, 0xd1, 0x88, 0x43, 0x0d, 0xe9, 0xaf
    800054e8:	d099 0aa9 50f6 536d 
    800054f0:	88d1 0d43 afe9 
    800054f6:	07a1                	add	a5,a5,8 # 15008 <buflen.1+0x14fc8>
    800054f8:	ef3e                	sd	a5,408(sp)
    800054fa:	953f65cf          	.4byte	0x953f65cf
    800054fe:	803b370f          	.4byte	0x803b370f
    80005502:	7612                	ld	a2,288(sp)
    80005504:	ce4c                	sw	a1,28(a2)
    80005506:	5445                	li	s0,-15
    80005508:	52680fd7          	.4byte	0x52680fd7
    8000550c:	45e2                	lw	a1,24(sp)
    8000550e:	0c68                	add	a0,sp,540
    80005510:	482e                	lw	a6,200(sp)
    80005512:	ae2c70cb          	.4byte	0xae2c70cb
    80005516:	ec2c7cab          	.4byte	0xec2c7cab
    8000551a:	6ae1                	lui	s5,0x18
    8000551c:	e13c                	sd	a5,64(a0)
    8000551e:	547e                	lw	s0,252(sp)
    80005520:	a950                	fsd	fa2,144(a0)
    80005522:	1ebe                	sll	t4,t4,0x2f
    80005524:	7bc697fb          	.4byte	0x7bc697fb
    80005528:	fdc5                	bnez	a1,800054e0 <input_data+0xa58>
    8000552a:	4d993b37          	lui	s6,0x4d993
    8000552e:	83b2432f          	.4byte	0x83b2432f
    80005532:	0e9f 9873 0803      	.byte	0x9f, 0x0e, 0x73, 0x98, 0x03, 0x08
    80005538:	b732                	fsd	fa2,424(sp)
    8000553a:	47e6                	lw	a5,88(sp)
    8000553c:	b9ad                	j	800051b6 <input_data+0x72e>
    8000553e:	501d                	c.li	zero,-25
    80005540:	3234                	fld	fa3,96(a2)
    80005542:	43e6                	lw	t2,88(sp)
    80005544:	a9e2                	fsd	fs8,208(sp)
    80005546:	26d5                	addw	a3,a3,21 # ffffffffe8f4c2ad <_tbss_end+0xffffffff68f435e9>
    80005548:	c7f5                	beqz	a5,80005634 <input_data+0xbac>
    8000554a:	0151                	add	sp,sp,20
    8000554c:	c33a                	sw	a4,132(sp)
    8000554e:	5b90                	lw	a2,48(a5)
    80005550:	8976                	mv	s2,t4
    80005552:	7fc0                	ld	s0,184(a5)
    80005554:	e0a8                	sd	a0,64(s1)
    80005556:	3471                	addw	s0,s0,-4
    80005558:	73e9750b          	.4byte	0x73e9750b
    8000555c:	25d6                	fld	fa1,336(sp)
    8000555e:	071c                	add	a5,sp,896
    80005560:	8c7a                	mv	s8,t5
    80005562:	3198                	fld	fa4,32(a1)
    80005564:	acbd                	j	800057e2 <input_data+0xd5a>
    80005566:	5d64                	lw	s1,124(a0)
    80005568:	b01d                	j	80004d8e <input_data+0x306>
    8000556a:	3438                	fld	fa4,104(s0)
    8000556c:	53c2                	lw	t2,48(sp)
    8000556e:	2728                	fld	fa0,72(a4)
    80005570:	90d4                	.2byte	0x90d4
    80005572:	626c0d83          	lb	s11,1574(s8)
    80005576:	37e8                	fld	fa0,232(a5)
    80005578:	3740                	fld	fs0,168(a4)
    8000557a:	47a5                	li	a5,9
    8000557c:	73877afb          	.4byte	0x73877afb
    80005580:	2c8c                	fld	fa1,24(s1)
    80005582:	780d                	lui	a6,0xfffe3
    80005584:	5c1f 4bf6 a764      	.byte	0x1f, 0x5c, 0xf6, 0x4b, 0x64, 0xa7
    8000558a:	41b5                	li	gp,13
    8000558c:	9850                	.2byte	0x9850
    8000558e:	588e                	lw	a7,224(sp)
    80005590:	e798                	sd	a4,8(a5)
    80005592:	346c                	fld	fa1,232(s0)
    80005594:	660f2753          	.4byte	0x660f2753
    80005598:	0b60                	add	s0,sp,412
    8000559a:	26c6                	fld	fa3,80(sp)
    8000559c:	5aa8                	lw	a0,112(a3)
    8000559e:	3fb1                	addw	t6,t6,-20
    800055a0:	4af1                	li	s5,28
    800055a2:	4eab19eb          	.4byte	0x4eab19eb
    800055a6:	119716cb          	fnmsub.s	fa3,fa4,fs9,ft2,rtz
    800055aa:	36d2                	fld	fa3,304(sp)
    800055ac:	b865                	j	80004e64 <input_data+0x3dc>
    800055ae:	7889                	lui	a7,0xfffe2
    800055b0:	4eaa874f          	.4byte	0x4eaa874f
    800055b4:	731f 7f8d b247      	.byte	0x1f, 0x73, 0x8d, 0x7f, 0x47, 0xb2
    800055ba:	2e04                	fld	fs1,24(a2)
    800055bc:	38e6                	fld	fa7,120(sp)
    800055be:	3da0                	fld	fs0,120(a1)
    800055c0:	8d86                	mv	s11,ra
    800055c2:	42d0                	lw	a2,4(a3)
    800055c4:	8655                	sra	a2,a2,0x15
    800055c6:	b06e1447          	fmsub.s	fs0,ft8,ft6,fs6,rtz
    800055ca:	142657af          	.4byte	0x142657af
    800055ce:	6958                	ld	a4,144(a0)
    800055d0:	127d                	add	tp,tp,-1 # ffffffffffffffff <_tbss_end+0xffffffff7fff733b>
    800055d2:	02d4                	add	a3,sp,324
    800055d4:	1808                	add	a0,sp,48
    800055d6:	4e50                	lw	a2,28(a2)
    800055d8:	ff59                	bnez	a4,80005576 <input_data+0xaee>
    800055da:	17c9                	add	a5,a5,-14
    800055dc:	6a81                	vmsge.vx	v21,v0,zero,v0.t
    800055de:	5732                	lw	a4,44(sp)
    800055e0:	280b98c7          	fmsub.s	fa7,fs7,ft0,ft5,rtz
    800055e4:	c8a5                	beqz	s1,80005654 <input_data+0xbcc>
    800055e6:	01e1                	add	gp,gp,24 # 800072a0 <__global_pointer$+0x18>
    800055e8:	b6ca                	fsd	fs2,360(sp)
    800055ea:	0dba                	sll	s11,s11,0xe
    800055ec:	f698                	sd	a4,40(a3)
    800055ee:	0e4d                	add	t3,t3,19
    800055f0:	39df 2335 12f4      	.byte	0xdf, 0x39, 0x35, 0x23, 0xf4, 0x12
    800055f6:	662e                	ld	a2,200(sp)
    800055f8:	dfc5                	beqz	a5,800055b0 <input_data+0xb28>
    800055fa:	31a6                	fld	ft3,104(sp)
    800055fc:	bb4a                	fsd	fs2,432(sp)
    800055fe:	17bc                	add	a5,sp,1000
    80005600:	8905                	and	a0,a0,1
    80005602:	1f1f bef4 000d      	.byte	0x1f, 0x1f, 0xf4, 0xbe, 0x0d, 0x00
    80005608:	3e5303f7          	.4byte	0x3e5303f7
    8000560c:	4fe1                	li	t6,24
    8000560e:	5c1f 89af 0d87      	.byte	0x1f, 0x5c, 0xaf, 0x89, 0x87, 0x0d
    80005614:	6fc0                	ld	s0,152(a5)
    80005616:	0c6c                	add	a1,sp,540
    80005618:	09c4                	add	s1,sp,212
    8000561a:	598e                	lw	s3,224(sp)
    8000561c:	8c4e                	mv	s8,s3
    8000561e:	600d                	c.lui	zero,0x3
    80005620:	53ad                	li	t2,-21
    80005622:	7345                	lui	t1,0xffff1
    80005624:	5eb1deab          	.4byte	0x5eb1deab
    80005628:	62a986eb          	.4byte	0x62a986eb
    8000562c:	778c                	ld	a1,40(a5)
    8000562e:	684e                	ld	a6,208(sp)
    80005630:	9ede                	add	t4,t4,s7
    80005632:	52a0                	lw	s0,96(a3)
    80005634:	7574                	ld	a3,232(a0)
    80005636:	37c2                	fld	fa5,48(sp)
    80005638:	53d9                	li	t2,-10
    8000563a:	0a5c                	add	a5,sp,276
    8000563c:	7a22                	ld	s4,40(sp)
    8000563e:	29dd                	addw	s3,s3,23
    80005640:	108a                	sll	ra,ra,0x22
    80005642:	14c0                	add	s0,sp,612
    80005644:	04da198b          	.4byte	0x4da198b
    80005648:	342ec987          	.4byte	0x342ec987
    8000564c:	f6c6                	sd	a7,360(sp)
    8000564e:	0458                	add	a4,sp,516
    80005650:	c459                	beqz	s0,800056de <input_data+0xc56>
    80005652:	7939                	lui	s2,0xfffee
    80005654:	1a90                	add	a2,sp,368
    80005656:	4d9f b410 03dc      	.byte	0x9f, 0x4d, 0x10, 0xb4, 0xdc, 0x03
    8000565c:	8b1a                	mv	s6,t1
    8000565e:	77d6                	ld	a5,368(sp)
    80005660:	2af9                	addw	s5,s5,30 # 1801e <buflen.1+0x17fde>
    80005662:	6279                	lui	tp,0x1e
    80005664:	55e0                	lw	s0,108(a1)
    80005666:	0378                	add	a4,sp,396
    80005668:	a3d2                	fsd	fs4,448(sp)
    8000566a:	5a9a6f8f          	.4byte	0x5a9a6f8f
    8000566e:	f8480b5b          	.4byte	0xf8480b5b
    80005672:	0e95                	add	t4,t4,5 # ffffffffffffb005 <_tbss_end+0xffffffff7fff2341>
    80005674:	c145                	beqz	a0,80005714 <input_data+0xc8c>
    80005676:	3890                	fld	fa2,48(s1)
    80005678:	e741                	bnez	a4,80005700 <input_data+0xc78>
    8000567a:	1314                	add	a3,sp,416
    8000567c:	e58d                	bnez	a1,800056a6 <input_data+0xc1e>
    8000567e:	2b7a                	fld	fs6,408(sp)
    80005680:	7b38                	ld	a4,112(a4)
    80005682:	07f9                	add	a5,a5,30
    80005684:	aecc                	fsd	fa1,152(a3)
    80005686:	17442c23          	sw	s4,376(s0)
    8000568a:	12dd                	add	t0,t0,-9
    8000568c:	0e38                	add	a4,sp,792
    8000568e:	4705                	li	a4,1
    80005690:	6b6b5947          	fmsub.d	fs2,fs6,fs6,fa3,unknown
    80005694:	3bb4                	fld	fa3,112(a5)
    80005696:	2ed0                	fld	fa2,152(a3)
    80005698:	6c47c04b          	.4byte	0x6c47c04b
    8000569c:	0e12                	sll	t3,t3,0x4
    8000569e:	7a54                	ld	a3,176(a2)
    800056a0:	3774479b          	.4byte	0x3774479b
    800056a4:	7c82                	ld	s9,32(sp)
    800056a6:	51f651e7          	.4byte	0x51f651e7
    800056aa:	121c                	add	a5,sp,288
    800056ac:	3d32                	fld	fs10,296(sp)
    800056ae:	32d5                	addw	t0,t0,-11
    800056b0:	fbb4                	sd	a3,112(a5)
    800056b2:	1b14                	add	a3,sp,432
    800056b4:	1831                	add	a6,a6,-20 # fffffffffffe2fec <_tbss_end+0xffffffff7ffda328>
    800056b6:	7f10                	ld	a2,56(a4)
    800056b8:	1f5a                	sll	t5,t5,0x36
    800056ba:	68ba                	ld	a7,392(sp)
    800056bc:	adc6                	fsd	fa7,216(sp)
    800056be:	2dd11ff3          	csrrw	t6,0x2dd,sp
    800056c2:	6939                	lui	s2,0xe
    800056c4:	2488                	fld	fa0,8(s1)
    800056c6:	d9f32b53          	.4byte	0xd9f32b53
    800056ca:	bdbc481b          	.4byte	0xbdbc481b
    800056ce:	6ab9                	lui	s5,0xe
    800056d0:	26e2                	fld	fa3,24(sp)
    800056d2:	2eb2                	fld	ft9,264(sp)
    800056d4:	7cd13583          	ld	a1,1997(sp)
    800056d8:	9124                	.2byte	0x9124
    800056da:	e0844ee7          	.4byte	0xe0844ee7
    800056de:	326e                	fld	ft4,248(sp)
    800056e0:	f425                	bnez	s0,80005648 <input_data+0xbc0>
    800056e2:	3f81                	addw	t6,t6,-32
    800056e4:	221bb1f3          	csrrc	gp,0x221,s7
    800056e8:	680ae06b          	.4byte	0x680ae06b
    800056ec:	02ec                	add	a1,sp,332
    800056ee:	3c49                	addw	s8,s8,-14
    800056f0:	fa5f 7577 9f22      	.byte	0x5f, 0xfa, 0x77, 0x75, 0x22, 0x9f
    800056f6:	2c9d                	addw	s9,s9,7 # ffffffffffff7007 <_tbss_end+0xffffffff7ffee343>
    800056f8:	14739627          	.4byte	0x14739627
    800056fc:	0b2a                	sll	s6,s6,0xa
    800056fe:	2b1d                	addw	s6,s6,7 # 4d993007 <buflen.1+0x4d992fc7>
    80005700:	42b9                	li	t0,14
    80005702:	3731                	addw	a4,a4,-20
    80005704:	35ae                	fld	fa1,232(sp)
    80005706:	35c0                	fld	fs0,168(a1)
    80005708:	bcfc                	fsd	fa5,248(s1)
    8000570a:	16f966ef          	jal	a3,8009c078 <_tbss_end+0x933b4>
    8000570e:	1ff0                	add	a2,sp,1020
    80005710:	7b35                	lui	s6,0xfffed
    80005712:	171a                	sll	a4,a4,0x26
    80005714:	1baab177          	.4byte	0x1baab177
    80005718:	91ea                	add	gp,gp,s10
    8000571a:	45c4                	lw	s1,12(a1)
    8000571c:	39da                	fld	fs3,432(sp)
    8000571e:	44cb4583          	lbu	a1,1100(s6) # fffffffffffed44c <_tbss_end+0xffffffff7ffe4788>
    80005722:	eeb26bb7          	lui	s7,0xeeb26
    80005726:	73c1                	lui	t2,0xffff0
    80005728:	3aba90eb          	.4byte	0x3aba90eb
    8000572c:	518d9d7b          	.4byte	0x518d9d7b
    80005730:	0924                	add	s1,sp,152
    80005732:	64d2                	ld	s1,272(sp)
    80005734:	861e                	mv	a2,t2
    80005736:	62415d83          	lhu	s11,1572(sp)
    8000573a:	6fd5                	lui	t6,0x15
    8000573c:	0635                	add	a2,a2,13 # 1500d <buflen.1+0x14fcd>
    8000573e:	4a75                	li	s4,29
    80005740:	31f2                	fld	ft3,312(sp)
    80005742:	65f1                	lui	a1,0x1c
    80005744:	69213a4f          	fnmadd.s	fs4,ft2,fs2,fa3,rup
    80005748:	1266                	sll	tp,tp,0x39
    8000574a:	6751                	lui	a4,0x14
    8000574c:	ddb0                	sw	a2,120(a1)
    8000574e:	5612                	lw	a2,36(sp)
    80005750:	3bea                	fld	fs7,184(sp)
    80005752:	6122                	ld	sp,8(sp)
    80005754:	a826                	fsd	fs1,16(sp)
    80005756:	7d7c                	ld	a5,248(a0)
    80005758:	0d6a9e8b          	.4byte	0xd6a9e8b
    8000575c:	05a2                	sll	a1,a1,0x8
    8000575e:	3594                	fld	fa3,40(a1)
    80005760:	bf5f 3378 4c62      	.byte	0x5f, 0xbf, 0x78, 0x33, 0x62, 0x4c
    80005766:	55f0                	lw	a2,108(a1)
    80005768:	7fc9                	lui	t6,0xffff2
    8000576a:	2090                	fld	fa2,0(s1)
    8000576c:	d4b4                	sw	a3,104(s1)
    8000576e:	287c75e3          	bgeu	s8,t2,800061f8 <input_data+0x1770>
    80005772:	104f7e27          	.4byte	0x104f7e27
    80005776:	48d2                	lw	a7,20(sp)
    80005778:	7eec                	ld	a1,248(a3)
    8000577a:	1178                	add	a4,sp,172
    8000577c:	bf85                	j	800056ec <input_data+0xc64>
    8000577e:	5f76                	lw	t5,124(sp)
    80005780:	791e                	ld	s2,480(sp)
    80005782:	5d78                	lw	a4,124(a0)
    80005784:	af9c                	fsd	fa5,24(a5)
    80005786:	54ec                	lw	a1,108(s1)
    80005788:	bad6                	fsd	fs5,368(sp)
    8000578a:	4ae2                	lw	s5,24(sp)
    8000578c:	4fc8                	lw	a0,28(a5)
    8000578e:	0e4c11cf          	.4byte	0xe4c11cf
    80005792:	65ce                	ld	a1,208(sp)
    80005794:	3170694b          	fnmsub.s	fs2,ft0,fs7,ft6,unknown
    80005798:	6b95                	lui	s7,0x5
    8000579a:	3526                	fld	fa0,104(sp)
    8000579c:	76e02b87          	flw	fs7,1902(zero) # 76e <buflen.1+0x72e>
    800057a0:	0354                	add	a3,sp,388
    800057a2:	43ba                	lw	t2,140(sp)
    800057a4:	8dc1                	or	a1,a1,s0
    800057a6:	1630                	add	a2,sp,808
    800057a8:	8bfd                	and	a5,a5,31
    800057aa:	0e8b5aa3          	vmsge.vx	v21,v8,s6
    800057ae:	3a98                	fld	fa4,48(a3)
    800057b0:	46fe6c83          	lwu	s9,1135(t3)
    800057b4:	9bfd                	and	a5,a5,-1
    800057b6:	288a                	fld	fa7,128(sp)
    800057b8:	3401                	addw	s0,s0,-32
    800057ba:	307d                	.2byte	0x307d
    800057bc:	b7d5                	j	800057a0 <input_data+0xd18>
    800057be:	1790                	add	a2,sp,992
    800057c0:	4380                	lw	s0,0(a5)
    800057c2:	bfe56243          	vmsge.vx	v4,v30,a0
    800057c6:	3d2c                	fld	fa1,120(a0)
    800057c8:	0d94                	add	a3,sp,720
    800057ca:	ed447d33          	.4byte	0xed447d33
    800057ce:	7f461927          	.4byte	0x7f461927
    800057d2:	1e58                	add	a4,sp,820
    800057d4:	a3bc                	fsd	fa5,64(a5)
    800057d6:	333c                	fld	fa5,96(a4)
    800057d8:	ee36                	sd	a3,280(sp)
    800057da:	796c                	ld	a1,240(a0)
    800057dc:	d758                	sw	a4,44(a4)
    800057de:	3559                	addw	a0,a0,-10
    800057e0:	71bc                	ld	a5,96(a1)
    800057e2:	a6b01d77          	.4byte	0xa6b01d77
    800057e6:	673c                	ld	a5,72(a4)
    800057e8:	3f1e                	fld	ft10,480(sp)
    800057ea:	1532                	sll	a0,a0,0x2c
    800057ec:	1715                	add	a4,a4,-27 # 13fe5 <buflen.1+0x13fa5>
    800057ee:	7fa6                	ld	t6,104(sp)
    800057f0:	24f2                	fld	fs1,280(sp)
    800057f2:	40ce                	lw	ra,208(sp)
    800057f4:	aa91                	j	80005948 <input_data+0xec0>
    800057f6:	229c                	fld	fa5,0(a3)
    800057f8:	0d777e03          	vmsge.vx	v28,v23,a4,v0.t
    800057fc:	1801                	add	a6,a6,-32
    800057fe:	5e3d                	li	t3,-17
    80005800:	11fa                	sll	gp,gp,0x3e
    80005802:	5a51                	li	s4,-12
    80005804:	5944ca9b          	.4byte	0x5944ca9b
    80005808:	c086                	sw	ra,64(sp)
    8000580a:	6606                	ld	a2,64(sp)
    8000580c:	4048                	lw	a0,4(s0)
    8000580e:	69c9                	lui	s3,0x12
    80005810:	2b61                	addw	s6,s6,24
    80005812:	6d7411fb          	.4byte	0x6d7411fb
    80005816:	c43f43bb          	.4byte	0xc43f43bb
    8000581a:	26ec                	fld	fa1,200(a3)
    8000581c:	c100                	sw	s0,0(a0)
    8000581e:	067f d548 65e9 4431 	.byte	0x7f, 0x06, 0x48, 0xd5, 0xe9, 0x65, 0x31, 0x44, 0xed, 0x4f
    80005826:	4fed 
    80005828:	b562                	fsd	fs8,168(sp)
    8000582a:	5162                	lw	sp,56(sp)
    8000582c:	e886                	sd	ra,80(sp)
    8000582e:	44de                	lw	s1,212(sp)
    80005830:	0524                	add	s1,sp,648
    80005832:	47c2                	lw	a5,16(sp)
    80005834:	e892                	sd	tp,80(sp)
    80005836:	0b34                	add	a3,sp,408
    80005838:	760e                	ld	a2,224(sp)
    8000583a:	0f45                	add	t5,t5,17 # a011 <buflen.1+0x9fd1>
    8000583c:	25bbf907          	vluxseg2ei64.v	v18,(s7),v27,v0.t
    80005840:	0125630f          	.4byte	0x125630f
    80005844:	ec4e                	sd	s3,24(sp)
    80005846:	6f28                	ld	a0,88(a4)
    80005848:	d032                	sw	a2,32(sp)
    8000584a:	442d                	li	s0,11
    8000584c:	0e20a51b          	.4byte	0xe20a51b
    80005850:	e6c8                	sd	a0,136(a3)
    80005852:	6851                	lui	a6,0x14
    80005854:	4b8a                	lw	s7,128(sp)
    80005856:	3312                	fld	ft6,288(sp)
    80005858:	9c1c                	.2byte	0x9c1c
    8000585a:	04c9                	add	s1,s1,18 # f012 <buflen.1+0xefd2>
    8000585c:	6418748b          	.4byte	0x6418748b
    80005860:	0a4e                	sll	s4,s4,0x13
    80005862:	4af4                	lw	a3,84(a3)
    80005864:	52da5463          	bge	s4,a3,80005d8c <input_data+0x1304>
    80005868:	859f 5ecc 7333      	.byte	0x9f, 0x85, 0xcc, 0x5e, 0x33, 0x73
    8000586e:	3010                	fld	fa2,32(s0)
    80005870:	4c14                	lw	a3,24(s0)
    80005872:	35aa4f5b          	.4byte	0x35aa4f5b
    80005876:	78de                	ld	a7,496(sp)
    80005878:	b9e0                	fsd	fs0,240(a1)
    8000587a:	ac02624f          	.4byte	0xac02624f
    8000587e:	5ae172ef          	jal	t0,8001ce2c <_tbss_end+0x14168>
    80005882:	3d42                	fld	fs10,48(sp)
    80005884:	4b8786af          	.4byte	0x4b8786af
    80005888:	076267bf 05b51220 	.8byte	0x5b51220076267bf
    80005890:	e546                	sd	a7,136(sp)
    80005892:	3a367ad7          	vsetvli	s5,a2,931
    80005896:	24ec                	fld	fa1,200(s1)
    80005898:	9cdc                	.2byte	0x9cdc
    8000589a:	6481                	vmsge.vx	v9,v0,zero,v0.t
    8000589c:	9a26                	add	s4,s4,s1
    8000589e:	a6bd6c4f          	.4byte	0xa6bd6c4f
    800058a2:	7e4a                	ld	t3,176(sp)
    800058a4:	5f2d8e87          	.4byte	0x5f2d8e87
    800058a8:	a94d                	j	80005d5a <input_data+0x12d2>
    800058aa:	6b4c                	ld	a1,144(a4)
    800058ac:	6591                	lui	a1,0x4
    800058ae:	ec5c0caf          	.4byte	0xec5c0caf
    800058b2:	276a                	fld	fa4,152(sp)
    800058b4:	aca1                	j	80005b0c <input_data+0x1084>
    800058b6:	42f4                	lw	a3,68(a3)
    800058b8:	08b3d3db          	.4byte	0x8b3d3db
    800058bc:	0231                	add	tp,tp,12 # 1e00c <buflen.1+0x1dfcc>
    800058be:	6b3238db          	.4byte	0x6b3238db
    800058c2:	699d                	lui	s3,0x7
    800058c4:	c88e                	sw	gp,80(sp)
    800058c6:	3764                	fld	fs1,232(a4)
    800058c8:	c8f2                	sw	t3,80(sp)
    800058ca:	7fb1                	lui	t6,0xfffec
    800058cc:	1541dfdb          	.4byte	0x1541dfdb
    800058d0:	e246                	sd	a7,256(sp)
    800058d2:	5ffe                	lw	t6,252(sp)
    800058d4:	b4d1                	j	80005398 <input_data+0x910>
    800058d6:	7745                	lui	a4,0xffff1
    800058d8:	15fcce2f          	.4byte	0x15fcce2f
    800058dc:	3e1f 03b5 a229      	.byte	0x1f, 0x3e, 0xb5, 0x03, 0x29, 0xa2
    800058e2:	69d5                	lui	s3,0x15
    800058e4:	fafd                	bnez	a3,800058da <input_data+0xe52>
    800058e6:	3b26                	fld	fs6,104(sp)
    800058e8:	6481                	vmsge.vx	v9,v0,zero,v0.t
    800058ea:	f4324fa3          	vmsge.vx	v31,v3,tp,v0.t
    800058ee:	2982                	fld	fs3,0(sp)
    800058f0:	b436                	fsd	fa3,40(sp)
    800058f2:	13e5                	add	t2,t2,-7 # fffffffffffefff9 <_tbss_end+0xffffffff7ffe7335>
    800058f4:	ab60                	fsd	fs0,208(a4)
    800058f6:	22ea                	fld	ft5,152(sp)
    800058f8:	a2f9                	j	80005ac6 <input_data+0x103e>
    800058fa:	69d8                	ld	a4,144(a1)
    800058fc:	94ee                	add	s1,s1,s11
    800058fe:	3041                	vmsge.vx	v0,v0,zero,v0.t
    80005900:	058dfb67          	.4byte	0x58dfb67
    80005904:	35dc                	fld	fa5,168(a1)
    80005906:	2ba8                	fld	fa0,80(a5)
    80005908:	3434                	fld	fa3,104(s0)
    8000590a:	90f058ef          	jal	a7,7ff0b218 <buflen.1+0x7ff0b1d8>
    8000590e:	48d27313          	and	t1,tp,1165
    80005912:	0a60                	add	s0,sp,284
    80005914:	bdd6                	fsd	fs5,248(sp)
    80005916:	144a                	sll	s0,s0,0x32
    80005918:	8062                	c.mv	zero,s8
    8000591a:	1e46                	sll	t3,t3,0x31
    8000591c:	18e0                	add	s0,sp,124
    8000591e:	159f fdc5 5fcb      	.byte	0x9f, 0x15, 0xc5, 0xfd, 0xcb, 0x5f
    80005924:	7b46                	ld	s6,112(sp)
    80005926:	2df238d3          	.4byte	0x2df238d3
    8000592a:	5f5c                	lw	a5,60(a4)
    8000592c:	a1ce                	fsd	fs3,192(sp)
    8000592e:	18d2                	sll	a7,a7,0x34
    80005930:	757d                	lui	a0,0xfffff
    80005932:	2212                	fld	ft4,256(sp)
    80005934:	50dfdaef          	jal	s5,80103640 <_tbss_end+0xfa97c>
    80005938:	c2dc                	sw	a5,4(a3)
    8000593a:	0fec                	add	a1,sp,988
    8000593c:	0db6                	sll	s11,s11,0xd
    8000593e:	77ea                	ld	a5,184(sp)
    80005940:	5db6107f 231c2fa9 	.byte	0x7f, 0x10, 0xb6, 0x5d, 0xa9, 0x2f, 0x1c, 0x23, 0x8a, 0xd0, 0xb0, 0x78
    80005948:	78b0d08a 
    8000594c:	9a25                	and	a2,a2,-23
    8000594e:	6426                	ld	s0,72(sp)
    80005950:	5b94                	lw	a3,48(a5)
    80005952:	3688                	fld	fa0,40(a3)
    80005954:	e6da                	sd	s6,328(sp)
    80005956:	17c6                	sll	a5,a5,0x31
    80005958:	b464                	fsd	fs1,232(s0)
    8000595a:	2f70                	fld	fa2,216(a4)
    8000595c:	d6f6                	sw	t4,108(sp)
    8000595e:	6c644f6b          	.4byte	0x6c644f6b
    80005962:	2909                	addw	s2,s2,2 # e002 <buflen.1+0xdfc2>
    80005964:	25755203          	lhu	tp,599(a0) # fffffffffffff257 <_tbss_end+0xffffffff7fff6593>
    80005968:	227f96f7          	.4byte	0x227f96f7
    8000596c:	0736                	sll	a4,a4,0xd
    8000596e:	7796                	ld	a5,352(sp)
    80005970:	2dac                	fld	fa1,88(a1)
    80005972:	4592                	lw	a1,4(sp)
    80005974:	140a3777          	.4byte	0x140a3777
    80005978:	f3c1                	bnez	a5,800058f8 <input_data+0xe70>
    8000597a:	61ce                	ld	gp,208(sp)
    8000597c:	6e26                	ld	t3,72(sp)
    8000597e:	6a02                	ld	s4,0(sp)
    80005980:	f51e                	sd	t2,168(sp)
    80005982:	6064                	ld	s1,192(s0)
    80005984:	7c26                	ld	s8,104(sp)
    80005986:	0b5f 939b 7556      	.byte	0x5f, 0x0b, 0x9b, 0x93, 0x56, 0x75
    8000598c:	2a5f 7e88 5cd7      	.byte	0x5f, 0x2a, 0x88, 0x7e, 0xd7, 0x5c
    80005992:	589601db          	.4byte	0x589601db
    80005996:	83c450a7          	.4byte	0x83c450a7
    8000599a:	0021                	c.nop	8
    8000599c:	5328610f          	.4byte	0x5328610f
    800059a0:	fa75                	bnez	a2,80005994 <input_data+0xf0c>
    800059a2:	741d                	lui	s0,0xfffe7
    800059a4:	aaf4                	fsd	fa3,208(a3)
    800059a6:	041e                	sll	s0,s0,0x7
    800059a8:	3385                	addw	t2,t2,-31
    800059aa:	9b627f8f          	.4byte	0x9b627f8f
    800059ae:	0026                	c.slli	zero,0x9
    800059b0:	2ddd                	addw	s11,s11,23 # 3b2a73e5 <buflen.1+0x3b2a73a5>
    800059b2:	67c2                	ld	a5,16(sp)
    800059b4:	183e                	sll	a6,a6,0x2f
    800059b6:	5f71                	li	t5,-4
    800059b8:	8286                	mv	t0,ra
    800059ba:	47e0                	lw	s0,76(a5)
    800059bc:	57fc                	lw	a5,108(a5)
    800059be:	3326                	fld	ft6,104(sp)
    800059c0:	e188                	sd	a0,0(a1)
    800059c2:	cea26ff3          	csrrs	t6,0xcea,4
    800059c6:	7548                	ld	a0,168(a0)
    800059c8:	29ad                	addw	s3,s3,11 # 1500b <buflen.1+0x14fcb>
    800059ca:	f2a17c9b          	.4byte	0xf2a17c9b
    800059ce:	6578                	ld	a4,200(a0)
    800059d0:	b685                	j	80005530 <input_data+0xaa8>
    800059d2:	2514                	fld	fa3,8(a0)
    800059d4:	dae5                	beqz	a3,800059c4 <input_data+0xf3c>
    800059d6:	470e                	lw	a4,192(sp)
    800059d8:	88ae                	mv	a7,a1
    800059da:	414a                	lw	sp,144(sp)
    800059dc:	7e1723f7          	.4byte	0x7e1723f7
    800059e0:	4797b60f          	.4byte	0x4797b60f
    800059e4:	22f9                	addw	t0,t0,30
    800059e6:	43fe                	lw	t2,220(sp)
    800059e8:	8234                	.2byte	0x8234
    800059ea:	7b647c4b          	fnmsub.d	fs8,fs0,fs6,fa5
    800059ee:	42cb4cf3          	.4byte	0x42cb4cf3
    800059f2:	33f8                	fld	fa4,224(a5)
    800059f4:	37b1                	addw	a5,a5,-20
    800059f6:	337a                	fld	ft6,440(sp)
    800059f8:	4a41b0ab          	.4byte	0x4a41b0ab
    800059fc:	5511                	li	a0,-28
    800059fe:	a39e5787          	.4byte	0xa39e5787
    80005a02:	259c                	fld	fa5,8(a1)
    80005a04:	4f90                	lw	a2,24(a5)
    80005a06:	453c                	lw	a5,72(a0)
    80005a08:	202edda7          	.4byte	0x202edda7
    80005a0c:	ee10                	sd	a2,24(a2)
    80005a0e:	73d1                	lui	t2,0xffff4
    80005a10:	2228                	fld	fa0,64(a2)
    80005a12:	6ce0                	ld	s0,216(s1)
    80005a14:	dcbd                	beqz	s1,80005992 <input_data+0xf0a>
    80005a16:	45f50f7b          	.4byte	0x45f50f7b
    80005a1a:	108a                	sll	ra,ra,0x22
    80005a1c:	5899                	li	a7,-26
    80005a1e:	7f99                	lui	t6,0xfffe6
    80005a20:	56e2                	lw	a3,56(sp)
    80005a22:	3a06                	fld	fs4,96(sp)
    80005a24:	42dd5013          	sra	zero,s10,0x2d
    80005a28:	5bc3d43b          	.4byte	0x5bc3d43b
    80005a2c:	3271                	addw	tp,tp,-4 # fffffffffffffffc <_tbss_end+0xffffffff7fff7338>
    80005a2e:	dcd04fb7          	lui	t6,0xdcd04
    80005a32:	0b18                	add	a4,sp,400
    80005a34:	bb55                	j	800057e8 <input_data+0xd60>
    80005a36:	1cc8                	add	a0,sp,628
    80005a38:	1c4d                	add	s8,s8,-13
    80005a3a:	56f8                	lw	a4,108(a3)
    80005a3c:	1f64                	add	s1,sp,956
    80005a3e:	46e372b7          	lui	t0,0x46e37
    80005a42:	174a                	sll	a4,a4,0x32
    80005a44:	247f 43f3 8110 1edc 	.byte	0x7f, 0x24, 0xf3, 0x43, 0x10, 0x81, 0xdc, 0x1e, 0xf1, 0x29, 0x2b, 0x69, 0xed, 0xd0
    80005a4c:	29f1 692b d0ed 
    80005a52:	2b0c                	fld	fa1,16(a4)
    80005a54:	53807c37          	lui	s8,0x53807
    80005a58:	8f02                	jr	t5
    80005a5a:	4c0565b7          	lui	a1,0x4c056
    80005a5e:	1cfa                	sll	s9,s9,0x3e
    80005a60:	e641                	bnez	a2,80005ae8 <input_data+0x1060>
    80005a62:	5238                	lw	a4,96(a2)
    80005a64:	0c514963          	blt	sp,t0,80005b36 <input_data+0x10ae>
    80005a68:	0030356f          	jal	a0,8000926a <_tbss_end+0x5a6>
    80005a6c:	81de                	mv	gp,s7
    80005a6e:	37e721af          	.4byte	0x37e721af
    80005a72:	3bd32907          	flw	fs2,957(t1) # ffffffffffff13bd <_tbss_end+0xffffffff7ffe86f9>
    80005a76:	48ee                	lw	a7,216(sp)
    80005a78:	7e7f282b          	.4byte	0x7e7f282b
    80005a7c:	e911                	bnez	a0,80005a90 <input_data+0x1008>
    80005a7e:	bc781e93          	.4byte	0xbc781e93
    80005a82:	f81f52e3          	bge	t5,ra,80005a06 <input_data+0xf7e>
    80005a86:	1034                	add	a3,sp,40
    80005a88:	540c                	lw	a1,40(s0)
    80005a8a:	60b8                	ld	a4,64(s1)
    80005a8c:	4e448da7          	vsoxseg3ei8.v	v27,(s1),v4
    80005a90:	939c                	.2byte	0x939c
    80005a92:	7ada                	ld	s5,432(sp)
    80005a94:	8e8d                	sub	a3,a3,a1
    80005a96:	188c                	add	a1,sp,112
    80005a98:	efe9                	bnez	a5,80005b72 <input_data+0x10ea>
    80005a9a:	1a16                	sll	s4,s4,0x25
    80005a9c:	1e9ca763          	vmsge.vx	v14,v9,s9
    80005aa0:	671f 1235 2f27      	.byte	0x1f, 0x67, 0x35, 0x12, 0x27, 0x2f
    80005aa6:	661d                	lui	a2,0x7
    80005aa8:	17155447          	.4byte	0x17155447
    80005aac:	291f 7157 83a9      	.byte	0x1f, 0x29, 0x57, 0x71, 0xa9, 0x83
    80005ab2:	ccf5266f          	jal	a2,7ff58780 <buflen.1+0x7ff58740>
    80005ab6:	496d                	li	s2,27
    80005ab8:	63a5                	lui	t2,0x9
    80005aba:	1542                	sll	a0,a0,0x30
    80005abc:	a455                	j	80005d60 <input_data+0x12d8>
    80005abe:	0dd6                	sll	s11,s11,0x15
    80005ac0:	8322                	mv	t1,s0
    80005ac2:	6190                	ld	a2,0(a1)
    80005ac4:	8242                	mv	tp,a6
    80005ac6:	ed641203          	lh	tp,-298(s0) # fffffffffffe6ed6 <_tbss_end+0xffffffff7ffde212>
    80005aca:	7cd8                	ld	a4,184(s1)
    80005acc:	a2b8                	fsd	fa4,64(a3)
    80005ace:	6530                	ld	a2,72(a0)
    80005ad0:	02a1                	add	t0,t0,8 # 46e37008 <buflen.1+0x46e36fc8>
    80005ad2:	52e1                	li	t0,-8
    80005ad4:	a814                	fsd	fa3,16(s0)
    80005ad6:	6d49                	lui	s10,0x12
    80005ad8:	1554                	add	a3,sp,676
    80005ada:	47ba                	lw	a5,140(sp)
    80005adc:	b802                	fsd	ft0,48(sp)
    80005ade:	0309                	add	t1,t1,2
    80005ae0:	7e0c                	ld	a1,56(a2)
    80005ae2:	4f6a                	lw	t5,152(sp)
    80005ae4:	5a46b2c3          	fmadd.d	ft5,fa3,ft4,fa1,rup
    80005ae8:	69d9                	lui	s3,0x16
    80005aea:	3632                	fld	fa2,296(sp)
    80005aec:	adc9                	j	800061be <input_data+0x1736>
    80005aee:	7221                	lui	tp,0xfffe8
    80005af0:	0b52                	sll	s6,s6,0x14
    80005af2:	05a3216b          	.4byte	0x5a3216b
    80005af6:	3d91                	addw	s11,s11,-28
    80005af8:	4881f2b7          	lui	t0,0x4881f
    80005afc:	06c34b8b          	.4byte	0x6c34b8b
    80005b00:	4f41                	li	t5,16
    80005b02:	0fd74577          	.4byte	0xfd74577
    80005b06:	2fb8                	fld	fa4,88(a5)
    80005b08:	227f 3f1a 5cc9 19c1 	.byte	0x7f, 0x22, 0x1a, 0x3f, 0xc9, 0x5c, 0xc1, 0x19, 0x05, 0xa6, 0x10, 0x7f, 0x49, 0x24
    80005b10:	a605 7f10 2449 
    80005b16:	4609                	li	a2,2
    80005b18:	3495                	addw	s1,s1,-27
    80005b1a:	5f89                	li	t6,-30
    80005b1c:	b74e                	fsd	fs3,424(sp)
    80005b1e:	3462                	fld	fs0,56(sp)
    80005b20:	1a9b193f 0f5c9eb7 	.8byte	0xf5c9eb71a9b193f
    80005b28:	21dc                	fld	fa5,128(a1)
    80005b2a:	2fb9                	addw	t6,t6,14 # ffffffffdcd0400e <_tbss_end+0xffffffff5ccfb34a>
    80005b2c:	2390                	fld	fa2,0(a5)
    80005b2e:	52b9                	li	t0,-18
    80005b30:	5dbc                	lw	a5,120(a1)
    80005b32:	777e                	ld	a4,504(sp)
    80005b34:	07e4                	add	s1,sp,972
    80005b36:	f6013b8f          	.4byte	0xf6013b8f
    80005b3a:	5520                	lw	s0,104(a0)
    80005b3c:	2930                	fld	fa2,80(a0)
    80005b3e:	b2da0a7b          	.4byte	0xb2da0a7b
    80005b42:	0476                	sll	s0,s0,0x1d
    80005b44:	0af0                	add	a2,sp,348
    80005b46:	ef612593          	slti	a1,sp,-266
    80005b4a:	4469                	li	s0,26
    80005b4c:	e19d                	bnez	a1,80005b72 <input_data+0x10ea>
    80005b4e:	06b6                	sll	a3,a3,0xd
    80005b50:	1d74                	add	a3,sp,700
    80005b52:	3d4e                	fld	fs10,240(sp)
    80005b54:	2dc1                	addw	s11,s11,16
    80005b56:	70c4                	ld	s1,160(s1)
    80005b58:	7398                	ld	a4,32(a5)
    80005b5a:	7476                	ld	s0,376(sp)
    80005b5c:	12d4                	add	a3,sp,356
    80005b5e:	1cb4                	add	a3,sp,632
    80005b60:	1886                	sll	a7,a7,0x21
    80005b62:	1a04                	add	s1,sp,304
    80005b64:	5ea0                	lw	s0,120(a3)
    80005b66:	82a85f6f          	jal	t5,7ff8ab90 <buflen.1+0x7ff8ab50>
    80005b6a:	f449044f          	.4byte	0xf449044f
    80005b6e:	5e3d                	li	t3,-17
    80005b70:	1b717563          	bgeu	sp,s7,80005d1a <input_data+0x1292>
    80005b74:	88e1                	and	s1,s1,24
    80005b76:	7185                	lui	gp,0xfffe1
    80005b78:	f2c1                	bnez	a3,80005af8 <input_data+0x1070>
    80005b7a:	2edd                	addw	t4,t4,23
    80005b7c:	1fe2                	sll	t6,t6,0x38
    80005b7e:	1571                	add	a0,a0,-4
    80005b80:	c58d                	beqz	a1,80005baa <input_data+0x1122>
    80005b82:	82bc7257          	.4byte	0x82bc7257
    80005b86:	003d                	c.nop	15
    80005b88:	5eb2                	lw	t4,44(sp)
    80005b8a:	641f 5118 4430      	.byte	0x1f, 0x64, 0x18, 0x51, 0x30, 0x44
    80005b90:	4838                	lw	a4,80(s0)
    80005b92:	c6375727          	vsuxseg7ei16.v	v14,(a4),v3
    80005b96:	292d                	addw	s2,s2,11
    80005b98:	50ec                	lw	a1,100(s1)
    80005b9a:	b4405a5b          	.4byte	0xb4405a5b
    80005b9e:	15aa                	sll	a1,a1,0x2a
    80005ba0:	f556                	sd	s5,168(sp)
    80005ba2:	8743583b          	.4byte	0x8743583b
    80005ba6:	d5303e3b          	.4byte	0xd5303e3b
    80005baa:	a7e9795b          	.4byte	0xa7e9795b
    80005bae:	0d08                	add	a0,sp,656
    80005bb0:	e05e                	sd	s7,0(sp)
    80005bb2:	3181                	addw	gp,gp,-32 # fffffffffffe0fe0 <_tbss_end+0xffffffff7ffd831c>
    80005bb4:	d8e5                	beqz	s1,80005ba4 <input_data+0x111c>
    80005bb6:	3ad616c3          	fmadd.d	fa3,fa2,fa3,ft7,rtz
    80005bba:	0675                	add	a2,a2,29 # 701d <buflen.1+0x6fdd>
    80005bbc:	f25c                	sd	a5,160(a2)
    80005bbe:	057f cc9f 0cfa b38c 	.byte	0x7f, 0x05, 0x9f, 0xcc, 0xfa, 0x0c, 0x8c, 0xb3, 0xbc, 0x5a
    80005bc6:	5abc 
    80005bc8:	71b9                	lui	gp,0xfffee
    80005bca:	8d403cdb          	.4byte	0x8d403cdb
    80005bce:	53de                	lw	t2,244(sp)
    80005bd0:	33226d3b          	.4byte	0x33226d3b
    80005bd4:	ce81                	beqz	a3,80005bec <input_data+0x1164>
    80005bd6:	7556                	ld	a0,368(sp)
    80005bd8:	0bc1                	add	s7,s7,16 # 5010 <buflen.1+0x4fd0>
    80005bda:	5700                	lw	s0,40(a4)
    80005bdc:	495f 502b 6ac2      	.byte	0x5f, 0x49, 0x2b, 0x50, 0xc2, 0x6a
    80005be2:	2a4c                	fld	fa1,144(a2)
    80005be4:	5e7e                	lw	t3,252(sp)
    80005be6:	1f06                	sll	t5,t5,0x21
    80005be8:	8d0d                	sub	a0,a0,a1
    80005bea:	7a1a                	ld	s4,416(sp)
    80005bec:	ac82                	fsd	ft0,88(sp)
    80005bee:	696d                	lui	s2,0x1b
    80005bf0:	3c6ee86b          	.4byte	0x3c6ee86b
    80005bf4:	eb55                	bnez	a4,80005ca8 <input_data+0x1220>
    80005bf6:	54be65e7          	.4byte	0x54be65e7
    80005bfa:	3d2d                	addw	s10,s10,-21 # 11feb <buflen.1+0x11fab>
    80005bfc:	8b7a                	mv	s6,t5
    80005bfe:	5222                	lw	tp,40(sp)
    80005c00:	e2f0                	sd	a2,192(a3)
    80005c02:	5cfd                	li	s9,-1
    80005c04:	8ed1                	or	a3,a3,a2
    80005c06:	085b2057          	vredor.vs	v0,v5,v22,v0.t
    80005c0a:	5b74                	lw	a3,116(a4)
    80005c0c:	0239                	add	tp,tp,14 # fffffffffffe800e <_tbss_end+0xffffffff7ffdf34a>
    80005c0e:	1f79                	add	t5,t5,-2
    80005c10:	78276307          	.4byte	0x78276307
    80005c14:	13640e9b          	addw	t4,s0,310
    80005c18:	0be4                	add	s1,sp,476
    80005c1a:	43cd                	li	t2,19
    80005c1c:	8c1c                	.2byte	0x8c1c
    80005c1e:	1d7a704b          	.4byte	0x1d7a704b
    80005c22:	6f86                	ld	t6,64(sp)
    80005c24:	6351                	lui	t1,0x14
    80005c26:	2aac                	fld	fa1,80(a3)
    80005c28:	09fe3077          	.4byte	0x9fe3077
    80005c2c:	1e4c                	add	a1,sp,820
    80005c2e:	bae34d03          	lbu	s10,-1106(t1) # 13bae <buflen.1+0x13b6e>
    80005c32:	45df 5ebc 784d      	.byte	0xdf, 0x45, 0xbc, 0x5e, 0x4d, 0x78
    80005c38:	744d6397          	auipc	t2,0x744d6
    80005c3c:	463a                	lw	a2,140(sp)
    80005c3e:	634e                	ld	t1,208(sp)
    80005c40:	a105                	j	80006060 <input_data+0x15d8>
    80005c42:	6d5d                	lui	s10,0x17
    80005c44:	32ee431b          	.4byte	0x32ee431b
    80005c48:	c920                	sw	s0,80(a0)
    80005c4a:	1268                	add	a0,sp,300
    80005c4c:	6e48                	ld	a0,152(a2)
    80005c4e:	1df4                	add	a3,sp,764
    80005c50:	b7c8                	fsd	fa0,168(a5)
    80005c52:	7d82                	ld	s11,32(sp)
    80005c54:	3d99                	addw	s11,s11,-26
    80005c56:	60d6                	ld	ra,336(sp)
    80005c58:	49c4                	lw	s1,20(a1)
    80005c5a:	1ea6                	sll	t4,t4,0x29
    80005c5c:	8a86                	mv	s5,ra
    80005c5e:	3a2d                	addw	s4,s4,-21
    80005c60:	0d8e43d3          	.4byte	0xd8e43d3
    80005c64:	d5de                	sw	s7,232(sp)
    80005c66:	3661                	addw	a2,a2,-8
    80005c68:	4040                	lw	s0,4(s0)
    80005c6a:	2ed9                	addw	t4,t4,22
    80005c6c:	8f99                	sub	a5,a5,a4
    80005c6e:	1ae8                	add	a0,sp,380
    80005c70:	90c0                	vmsge.vx	v1,v0,ra,v0.t
    80005c72:	84c10ca3          	sb	a2,-1959(sp)
    80005c76:	7b4e                	ld	s6,240(sp)
    80005c78:	8f21                	xor	a4,a4,s0
    80005c7a:	06fd                	add	a3,a3,31
    80005c7c:	736f35b7          	lui	a1,0x736f3
    80005c80:	c4ff 0c8f c41b 7643 	.byte	0xff, 0xc4, 0x8f, 0x0c, 0x1b, 0xc4, 0x43, 0x76, 0x2d, 0x09, 0x62, 0x38, 0xd0, 0xa9, 0xfb, 0x53, 0x48, 0xd9
    80005c88:	092d 3862 a9d0 53fb 
    80005c90:	d948 
    80005c92:	6202                	ld	tp,0(sp)
    80005c94:	43e409b7          	lui	s3,0x43e40
    80005c98:	2870b66f          	jal	a2,8001171e <_tbss_end+0x8a5a>
    80005c9c:	4c3ceec7          	.4byte	0x4c3ceec7
    80005ca0:	4dbe                	lw	s11,204(sp)
    80005ca2:	2b26                	fld	fs6,72(sp)
    80005ca4:	3f66                	fld	ft10,120(sp)
    80005ca6:	0ba5                	add	s7,s7,9
    80005ca8:	1fe2                	sll	t6,t6,0x38
    80005caa:	5952                	lw	s2,52(sp)
    80005cac:	d0de                	sw	s7,96(sp)
    80005cae:	3b90                	fld	fa2,48(a5)
    80005cb0:	d69d                	beqz	a3,80005bde <input_data+0x1156>
    80005cb2:	6a2e634b          	fnmsub.d	ft6,ft8,ft2,fa3,unknown
    80005cb6:	6bb957d7          	.4byte	0x6bb957d7
    80005cba:	5d11                	li	s10,-28
    80005cbc:	6d30                	ld	a2,88(a0)
    80005cbe:	0906                	sll	s2,s2,0x1
    80005cc0:	daa0                	sw	s0,112(a3)
    80005cc2:	52a12997          	auipc	s3,0x52a12
    80005cc6:	60b9                	lui	ra,0xe
    80005cc8:	b44a                	fsd	fs2,40(sp)
    80005cca:	2439                	addw	s0,s0,14
    80005ccc:	6f58                	ld	a4,152(a4)
    80005cce:	042a                	sll	s0,s0,0xa
    80005cd0:	3cf2                	fld	fs9,312(sp)
    80005cd2:	204c44af          	.4byte	0x204c44af
    80005cd6:	3f66                	fld	ft10,120(sp)
    80005cd8:	a394                	fsd	fa3,0(a5)
    80005cda:	4fc1                	li	t6,16
    80005cdc:	472e                	lw	a4,200(sp)
    80005cde:	034e                	sll	t1,t1,0x13
    80005ce0:	8cce                	mv	s9,s3
    80005ce2:	4c2d                	li	s8,11
    80005ce4:	31e3fa47          	fmsub.s	fs4,ft7,ft10,ft6
    80005ce8:	7220fd73          	csrrc	s10,0x722,1
    80005cec:	b8b0                	fsd	fa2,112(s1)
    80005cee:	3e8d                	addw	t4,t4,-29
    80005cf0:	54b6                	lw	s1,108(sp)
    80005cf2:	09a0                	add	s0,sp,216
    80005cf4:	deea                	sw	s10,124(sp)
    80005cf6:	04ca                	sll	s1,s1,0x12
    80005cf8:	625f 253c 47ff      	.byte	0x5f, 0x62, 0x3c, 0x25, 0xff, 0x47
    80005cfe:	346a                	fld	fs0,184(sp)
    80005d00:	3f95e34b          	.4byte	0x3f95e34b
    80005d04:	049e                	sll	s1,s1,0x7
    80005d06:	51fc                	lw	a5,100(a1)
    80005d08:	5d0e34db          	.4byte	0x5d0e34db
    80005d0c:	2382                	fld	ft7,0(sp)
    80005d0e:	038a                	sll	t2,t2,0x2
    80005d10:	399987cf          	fnmadd.s	fa5,fs3,fs9,ft7,rne
    80005d14:	35d0                	fld	fa2,168(a1)
    80005d16:	79d5                	lui	s3,0xffff5
    80005d18:	2b82                	fld	fs7,0(sp)
    80005d1a:	4638                	lw	a4,72(a2)
    80005d1c:	4e25                	li	t3,9
    80005d1e:	4520                	lw	s0,72(a0)
    80005d20:	dc36                	sw	a3,56(sp)
    80005d22:	115c                	add	a5,sp,164
    80005d24:	0a50ba03          	ld	s4,165(ra) # e0a5 <buflen.1+0xe065>
    80005d28:	b9a9                	j	80005982 <input_data+0xefa>
    80005d2a:	ebc45297          	auipc	t0,0xebc45
    80005d2e:	26dd                	addw	a3,a3,23
    80005d30:	56e2                	lw	a3,56(sp)
    80005d32:	6b6d                	lui	s6,0x1b
    80005d34:	7dfd                	lui	s11,0xfffff
    80005d36:	5cb9                	li	s9,-18
    80005d38:	18b0                	add	a2,sp,120
    80005d3a:	2530                	fld	fa2,72(a0)
    80005d3c:	b1a2                	fsd	fs0,224(sp)
    80005d3e:	5e28                	lw	a0,120(a2)
    80005d40:	624efe03          	vmsge.vx	v28,v4,t4
    80005d44:	10244d23          	vmsge.vx	v26,v2,s0,v0.t
    80005d48:	14df5beb          	.4byte	0x14df5beb
    80005d4c:	46d09d13          	.4byte	0x46d09d13
    80005d50:	3548b68b          	.4byte	0x3548b68b
    80005d54:	0dde                	sll	s11,s11,0x17
    80005d56:	1fda                	sll	t6,t6,0x36
    80005d58:	9926                	add	s2,s2,s1
    80005d5a:	3f00                	fld	fs0,56(a4)
    80005d5c:	323a                	fld	ft4,424(sp)
    80005d5e:	48c70dbf 133b7e3c 	.8byte	0x133b7e3c48c70dbf
    80005d66:	2e6c                	fld	fa1,216(a2)
    80005d68:	cfda                	sw	s6,220(sp)
    80005d6a:	a4ed0ef3          	.4byte	0xa4ed0ef3
    80005d6e:	063c                	add	a5,sp,776
    80005d70:	d49f 4f2b b592      	.byte	0x9f, 0xd4, 0x2b, 0x4f, 0x92, 0xb5
    80005d76:	6f6a                	ld	t5,152(sp)
    80005d78:	6e24d8eb          	.4byte	0x6e24d8eb
    80005d7c:	6db5                	lui	s11,0xd
    80005d7e:	0f6b128b          	.4byte	0xf6b128b
    80005d82:	1e30                	add	a2,sp,824
    80005d84:	845e                	mv	s0,s7
    80005d86:	491c6bc7          	fmsub.s	fs7,fs8,fa7,fs1,unknown
    80005d8a:	2435                	addw	s0,s0,13
    80005d8c:	ecf0                	sd	a2,216(s1)
    80005d8e:	5ce0                	lw	s0,124(s1)
    80005d90:	493e456f          	jal	a0,800eaa22 <_tbss_end+0xe1d5e>
    80005d94:	832c                	.2byte	0x832c
    80005d96:	d0102aef          	jal	s5,7ff08a96 <buflen.1+0x7ff08a56>
    80005d9a:	7501                	lui	a0,0xfffe0
    80005d9c:	de19                	beqz	a2,80005cba <input_data+0x1232>
    80005d9e:	3c49                	addw	s8,s8,-14 # 53806ff2 <buflen.1+0x53806fb2>
    80005da0:	b8f5                	j	8000569c <input_data+0xc14>
    80005da2:	47d2                	lw	a5,20(sp)
    80005da4:	21bf03af          	.4byte	0x21bf03af
    80005da8:	3dfe                	fld	fs11,504(sp)
    80005daa:	18fa                	sll	a7,a7,0x3e
    80005dac:	7d20                	ld	s0,120(a0)
    80005dae:	99062bf3          	csrrs	s7,0x990,a2
    80005db2:	ceef1f03          	lh	t5,-786(t5)
    80005db6:	f9ef67b7          	lui	a5,0xf9ef6
    80005dba:	5ff3644b          	.4byte	0x5ff3644b
    80005dbe:	56be                	lw	a3,236(sp)
    80005dc0:	69c4                	ld	s1,144(a1)
    80005dc2:	7e4a                	ld	t3,176(sp)
    80005dc4:	6fa2                	ld	t6,8(sp)
    80005dc6:	52b62b7b          	.4byte	0x52b62b7b
    80005dca:	5d51                	li	s10,-12
    80005dcc:	261f 2b0e 5867      	.byte	0x1f, 0x26, 0x0e, 0x2b, 0x67, 0x58
    80005dd2:	2c15                	addw	s8,s8,5
    80005dd4:	34968f93          	add	t6,a3,841
    80005dd8:	b46e                	fsd	fs11,40(sp)
    80005dda:	3734                	fld	fa3,104(a4)
    80005ddc:	3b99408f          	.4byte	0x3b99408f
    80005de0:	94d2                	add	s1,s1,s4
    80005de2:	7a3f4e8f          	.4byte	0x7a3f4e8f
    80005de6:	6ca90747          	.4byte	0x6ca90747
    80005dea:	615d                	add	sp,sp,432
    80005dec:	3372                	fld	ft6,312(sp)
    80005dee:	4bae                	lw	s7,200(sp)
    80005df0:	6ad2                	ld	s5,272(sp)
    80005df2:	f67f16a7          	.4byte	0xf67f16a7
    80005df6:	3e38                	fld	fa4,120(a2)
    80005df8:	27ac473b          	.4byte	0x27ac473b
    80005dfc:	3417d43b          	.4byte	0x3417d43b
    80005e00:	74f2                	ld	s1,312(sp)
    80005e02:	2aca                	fld	fs5,144(sp)
    80005e04:	c95e                	sw	s7,144(sp)
    80005e06:	eda17f4b          	.4byte	0xeda17f4b
    80005e0a:	2d68                	fld	fa0,216(a0)
    80005e0c:	25c2                	fld	fa1,16(sp)
    80005e0e:	5fa0                	lw	s0,120(a5)
    80005e10:	e2fd                	bnez	a3,80005ef6 <input_data+0x146e>
    80005e12:	540d27bb          	.4byte	0x540d27bb
    80005e16:	1e9c                	add	a5,sp,880
    80005e18:	930e                	add	t1,t1,gp
    80005e1a:	59a5                	li	s3,-23
    80005e1c:	9488                	.2byte	0x9488
    80005e1e:	4349                	li	t1,18
    80005e20:	6e11                	lui	t3,0x4
    80005e22:	05ee                	sll	a1,a1,0x1b
    80005e24:	deec                	sw	a1,124(a3)
    80005e26:	2b16                	fld	fs6,320(sp)
    80005e28:	1714                	add	a3,sp,928
    80005e2a:	3e6d                	addw	t3,t3,-5 # 3ffb <buflen.1+0x3fbb>
    80005e2c:	7518                	ld	a4,40(a0)
    80005e2e:	20d0                	fld	fa2,128(s1)
    80005e30:	345c                	fld	fa5,168(s0)
    80005e32:	43c8408b          	.4byte	0x43c8408b
    80005e36:	1144                	add	s1,sp,164
    80005e38:	68ec                	ld	a1,208(s1)
    80005e3a:	0ce8                	add	a0,sp,604
    80005e3c:	c688                	sw	a0,8(a3)
    80005e3e:	4602                	lw	a2,0(sp)
    80005e40:	5676                	lw	a2,124(sp)
    80005e42:	3268                	fld	fa0,224(a2)
    80005e44:	c924                	sw	s1,80(a0)
    80005e46:	5ca1                	li	s9,-24
    80005e48:	9562                	add	a0,a0,s8
    80005e4a:	226a                	fld	ft4,152(sp)
    80005e4c:	5b1f 2f1a d05b      	.byte	0x1f, 0x5b, 0x1a, 0x2f, 0x5b, 0xd0
    80005e52:	2845                	addw	a6,a6,17 # 14011 <buflen.1+0x13fd1>
    80005e54:	78f220af          	.4byte	0x78f220af
    80005e58:	8960                	vmsge.vx	v18,v0,ra,v0.t
    80005e5a:	099f a911 0da5      	.byte	0x9f, 0x09, 0x11, 0xa9, 0xa5, 0x0d
    80005e60:	2c54a803          	lw	a6,709(s1)
    80005e64:	9ad6                	add	s5,s5,s5
    80005e66:	50a2                	lw	ra,40(sp)
    80005e68:	3314                	fld	fa3,32(a4)
    80005e6a:	7e90                	ld	a2,56(a3)
    80005e6c:	a565                	j	80006514 <input_data+0x1a8c>
    80005e6e:	32cd                	addw	t0,t0,-13 # 6bc4ad1d <buflen.1+0x6bc4acdd>
    80005e70:	2ba0                	fld	fs0,80(a5)
    80005e72:	4cf4                	lw	a3,92(s1)
    80005e74:	c174                	sw	a3,68(a0)
    80005e76:	1abe                	sll	s5,s5,0x2f
    80005e78:	4bc0                	lw	s0,20(a5)
    80005e7a:	2af7746f          	jal	s0,8007d928 <_tbss_end+0x74c64>
    80005e7e:	9973370b          	.4byte	0x9973370b
    80005e82:	3152                	fld	ft2,304(sp)
    80005e84:	aba4                	fsd	fs1,80(a5)
    80005e86:	431d                	li	t1,7
    80005e88:	b420                	fsd	fs0,104(s0)
    80005e8a:	0bcc                	add	a1,sp,468
    80005e8c:	8f9a                	mv	t6,t1
    80005e8e:	10c4                	add	s1,sp,100
    80005e90:	45da2b4b          	.4byte	0x45da2b4b
    80005e94:	7cb6                	ld	s9,360(sp)
    80005e96:	ed702d97          	auipc	s11,0xed702
    80005e9a:	2381                	sext.w	t2,t2
    80005e9c:	2954                	fld	fa3,144(a0)
    80005e9e:	7ef4                	ld	a3,248(a3)
    80005ea0:	1f9c                	add	a5,sp,1008
    80005ea2:	55a9                	li	a1,-22
    80005ea4:	5646a03f 2d08d921 	.8byte	0x2d08d9215646a03f
    80005eac:	a5cd                	j	8000658e <input_data+0x1b06>
    80005eae:	7f02                	ld	t5,32(sp)
    80005eb0:	fa38                	sd	a4,112(a2)
    80005eb2:	6d62                	ld	s10,24(sp)
    80005eb4:	754a                	ld	a0,176(sp)
    80005eb6:	89185c3f 35c46e96 	.8byte	0x35c46e9689185c3f
    80005ebe:	398c                	fld	fa1,48(a1)
    80005ec0:	d6ad                	beqz	a3,80005e2a <input_data+0x13a2>
    80005ec2:	2812                	fld	fa6,256(sp)
    80005ec4:	3aae                	fld	fs5,232(sp)
    80005ec6:	0ae2                	sll	s5,s5,0x18
    80005ec8:	8aa1                	and	a3,a3,8
    80005eca:	0ce6                	sll	s9,s9,0x19
    80005ecc:	aeb6                	fsd	fa3,344(sp)
    80005ece:	4ef5                	li	t4,29
    80005ed0:	463a                	lw	a2,140(sp)
    80005ed2:	443a                	lw	s0,140(sp)
    80005ed4:	2e78                	fld	fa4,216(a2)
    80005ed6:	1b16                	sll	s6,s6,0x25
    80005ed8:	48bfb5ef          	jal	a1,80101b62 <_tbss_end+0xf8e9e>
    80005edc:	e4a2                	sd	s0,72(sp)
    80005ede:	5aa6                	lw	s5,104(sp)
    80005ee0:	d36e                	sw	s11,164(sp)
    80005ee2:	6b25                	lui	s6,0x9
    80005ee4:	f286                	sd	ra,352(sp)
    80005ee6:	5e79                	li	t3,-2
    80005ee8:	2c50                	fld	fa2,152(s0)
    80005eea:	2f82                	fld	ft11,0(sp)
    80005eec:	9de8                	.2byte	0x9de8
    80005eee:	6c91                	lui	s9,0x4
    80005ef0:	e55e                	sd	s7,136(sp)
    80005ef2:	68357ed7          	vsetvli	t4,a0,1667
    80005ef6:	3a04                	fld	fs1,48(a2)
    80005ef8:	cef1                	beqz	a3,80005fd4 <input_data+0x154c>
    80005efa:	3b1e                	fld	fs6,480(sp)
    80005efc:	a34d                	j	8000649e <input_data+0x1a16>
    80005efe:	2880                	fld	fs0,16(s1)
    80005f00:	74ec5c83          	lhu	s9,1870(s8)
    80005f04:	5531                	li	a0,-20
    80005f06:	7cd2                	ld	s9,304(sp)
    80005f08:	1753184b          	.4byte	0x1753184b
    80005f0c:	8e1a                	mv	t3,t1
    80005f0e:	5fa0                	lw	s0,120(a5)
    80005f10:	e330                	sd	a2,64(a4)
    80005f12:	2262                	fld	ft4,24(sp)
    80005f14:	436d                	li	t1,27
    80005f16:	6610                	ld	a2,8(a2)
    80005f18:	e22a                	sd	a0,256(sp)
    80005f1a:	1488                	add	a0,sp,608
    80005f1c:	1664                	add	s1,sp,812
    80005f1e:	42ec                	lw	a1,68(a3)
    80005f20:	62e38bab          	.4byte	0x62e38bab
    80005f24:	2e2c                	fld	fa1,88(a2)
    80005f26:	4f35                	li	t5,13
    80005f28:	4258                	lw	a4,4(a2)
    80005f2a:	02e8                	add	a0,sp,332
    80005f2c:	c368                	sw	a0,68(a4)
    80005f2e:	f5ee0ebf ae3b6d70 	.8byte	0xae3b6d70f5ee0ebf
    80005f36:	5d39                	li	s10,-18
    80005f38:	47ea                	lw	a5,152(sp)
    80005f3a:	52a2                	lw	t0,40(sp)
    80005f3c:	000d                	c.nop	3
    80005f3e:	1cf5                	add	s9,s9,-3 # 3ffd <buflen.1+0x3fbd>
    80005f40:	d6fc                	sw	a5,108(a3)
    80005f42:	0234                	add	a3,sp,264
    80005f44:	7742                	ld	a4,48(sp)
    80005f46:	1540                	add	s0,sp,676
    80005f48:	0326                	sll	t1,t1,0x9
    80005f4a:	63de                	ld	t2,464(sp)
    80005f4c:	19a2b58b          	.4byte	0x19a2b58b
    80005f50:	5bd8                	lw	a4,52(a5)
    80005f52:	182e74c7          	fmsub.s	fs1,ft8,ft2,ft3
    80005f56:	6a60                	ld	s0,208(a2)
    80005f58:	6d9de20f          	.4byte	0x6d9de20f
    80005f5c:	ae28                	fsd	fa0,88(a2)
    80005f5e:	5f21                	li	t5,-24
    80005f60:	119f8227          	.4byte	0x119f8227
    80005f64:	10d2                	sll	ra,ra,0x34
    80005f66:	0b8f180b          	.4byte	0xb8f180b
    80005f6a:	7e0a                	ld	t3,160(sp)
    80005f6c:	2220                	fld	fs0,64(a2)
    80005f6e:	5a55                	li	s4,-11
    80005f70:	2062                	fld	ft0,24(sp)
    80005f72:	5be2                	lw	s7,56(sp)
    80005f74:	56126e87          	.4byte	0x56126e87
    80005f78:	0341                	add	t1,t1,16
    80005f7a:	486d                	li	a6,27
    80005f7c:	f0a0                	sd	s0,96(s1)
    80005f7e:	f7b7649b          	.4byte	0xf7b7649b
    80005f82:	5c26                	lw	s8,104(sp)
    80005f84:	420c                	lw	a1,0(a2)
    80005f86:	7190                	ld	a2,32(a1)
    80005f88:	7fd8                	ld	a4,184(a5)
    80005f8a:	207a                	fld	ft0,408(sp)
    80005f8c:	26e9                	addw	a3,a3,26
    80005f8e:	7b55                	lui	s6,0xffff5
    80005f90:	c97d                	beqz	a0,80006086 <input_data+0x15fe>
    80005f92:	64a6                	ld	s1,72(sp)
    80005f94:	6075                	c.lui	zero,0x1d
    80005f96:	544a                	lw	s0,176(sp)
    80005f98:	13ccfe2f          	.4byte	0x13ccfe2f
    80005f9c:	25aa979b          	.4byte	0x25aa979b
    80005fa0:	193b0a53          	fdiv.s	fs4,fs6,fs3,rne
    80005fa4:	4f730137          	lui	sp,0x4f730
    80005fa8:	3aed                	addw	s5,s5,-5 # dffb <buflen.1+0xdfbb>
    80005faa:	2085                	addw	ra,ra,1
    80005fac:	6408                	ld	a0,8(s0)
    80005fae:	127e                	sll	tp,tp,0x3f
    80005fb0:	6cd4                	ld	a3,152(s1)
    80005fb2:	eb5f3947          	fmsub.d	fs2,ft10,fs5,ft9,rup
    80005fb6:	5cd41633          	.4byte	0x5cd41633
    80005fba:	79c3733f 1df96604 	.8byte	0x1df9660479c3733f
    80005fc2:	03e500af          	.4byte	0x3e500af
    80005fc6:	094a                	sll	s2,s2,0x12
    80005fc8:	29c439a7          	fsd	ft8,659(s0)
    80005fcc:	263e                	fld	fa2,456(sp)
    80005fce:	56df 2d0a 4efb      	.byte	0xdf, 0x56, 0x0a, 0x2d, 0xfb, 0x4e
    80005fd4:	2f1a                	fld	ft10,384(sp)
    80005fd6:	0a42                	sll	s4,s4,0x10
    80005fd8:	bfb6                	fsd	fa3,504(sp)
    80005fda:	2799                	addw	a5,a5,6 # fffffffff9ef6006 <_tbss_end+0xffffffff79eed342>
    80005fdc:	65a60287          	vluxseg4ei8.v	v5,(a2),v26,v0.t
    80005fe0:	3942                	fld	fs2,48(sp)
    80005fe2:	1675                	add	a2,a2,-3
    80005fe4:	973c                	.2byte	0x973c
    80005fe6:	57c5                	li	a5,-15
    80005fe8:	2e08                	fld	fa0,24(a2)
    80005fea:	147c                	add	a5,sp,556
    80005fec:	9932                	add	s2,s2,a2
    80005fee:	51b0                	lw	a2,96(a1)
    80005ff0:	1efe                	sll	t4,t4,0x3f
    80005ff2:	0fd1                	add	t6,t6,20
    80005ff4:	8a2c                	.2byte	0x8a2c
    80005ff6:	7bf2                	ld	s7,312(sp)
    80005ff8:	6522                	ld	a0,8(sp)
    80005ffa:	6b7a                	ld	s6,408(sp)
    80005ffc:	4855                	li	a6,21
    80005ffe:	1ef2                	sll	t4,t4,0x3c
    80006000:	fea1                	bnez	a3,80005f58 <input_data+0x14d0>
    80006002:	5bb1                	li	s7,-20
    80006004:	4038                	lw	a4,64(s0)
    80006006:	7320                	ld	s0,96(a4)
    80006008:	3a7a                	fld	fs4,440(sp)
    8000600a:	468a                	lw	a3,128(sp)
    8000600c:	58cb01ab          	.4byte	0x58cb01ab
    80006010:	9709                	sra	a4,a4,0x22
    80006012:	1d82                	sll	s11,s11,0x20
    80006014:	2fbefe13          	and	t3,t4,763
    80006018:	5874                	lw	a3,116(s0)
    8000601a:	0a8e                	sll	s5,s5,0x3
    8000601c:	4d08aadb          	.4byte	0x4d08aadb
    80006020:	8da5                	xor	a1,a1,s1
    80006022:	505e                	.2byte	0x505e
    80006024:	5c6b23e3          	vmsge.vx	v7,v6,s6,v0.t
    80006028:	d515                	beqz	a0,80005f54 <input_data+0x14cc>
    8000602a:	2995                	addw	s3,s3,5 # ffffffffffff5005 <_tbss_end+0xffffffff7ffec341>
    8000602c:	ffd4                	sd	a3,184(a5)
    8000602e:	330e                	fld	ft6,224(sp)
    80006030:	76c9de3b          	.4byte	0x76c9de3b
    80006034:	db78                	sw	a4,116(a4)
    80006036:	46e0                	lw	s0,76(a3)
    80006038:	0d36494b          	.4byte	0xd36494b
    8000603c:	0957f94f          	fnmadd.s	fs2,fa5,fs5,ft1
    80006040:	4c36                	lw	s8,76(sp)
    80006042:	024d                	add	tp,tp,19 # 13 <buf.2+0x13>
    80006044:	379a                	fld	fa5,416(sp)
    80006046:	d2d71667          	.4byte	0xd2d71667
    8000604a:	d9767be3          	bgeu	a2,s7,80005de0 <input_data+0x1358>
    8000604e:	7d5c                	ld	a5,184(a0)
    80006050:	14624fa3          	vmsge.vx	v31,v6,tp,v0.t
    80006054:	29a4b67b          	.4byte	0x29a4b67b
    80006058:	0ad6                	sll	s5,s5,0x15
    8000605a:	20a316b7          	lui	a3,0x20a31
    8000605e:	4798                	lw	a4,8(a5)
    80006060:	97d2                	add	a5,a5,s4
    80006062:	4c06                	lw	s8,64(sp)
    80006064:	394c                	fld	fa1,176(a0)
    80006066:	17bc                	add	a5,sp,1000
    80006068:	2fc79aeb          	.4byte	0x2fc79aeb
    8000606c:	cc41                	beqz	s0,80006104 <input_data+0x167c>
    8000606e:	40d2                	lw	ra,20(sp)
    80006070:	dd86                	sw	ra,248(sp)
    80006072:	3276                	fld	ft4,376(sp)
    80006074:	a2ea                	fsd	fs10,320(sp)
    80006076:	6e30                	ld	a2,88(a2)
    80006078:	4cc2bb0b          	.4byte	0x4cc2bb0b
    8000607c:	537361cf          	fnmadd.d	ft3,ft6,fs7,fa0,unknown
    80006080:	5ed6                	lw	t4,116(sp)
    80006082:	5f92                	lw	t6,36(sp)
    80006084:	6fb9                	lui	t6,0xe
    80006086:	497e                	lw	s2,220(sp)
    80006088:	81e5                	srl	a1,a1,0x19
    8000608a:	6803304f          	fnmadd.s	ft0,ft6,ft0,fa3,rup
    8000608e:	fea4292b          	.4byte	0xfea4292b
    80006092:	b88a6ee3          	bltu	s4,s0,80005c2e <input_data+0x11a6>
    80006096:	2cbd                	addw	s9,s9,15
    80006098:	91ec                	.2byte	0x91ec
    8000609a:	100b4bc7          	fmsub.s	fs7,fs6,ft0,ft2,rmm
    8000609e:	3348                	fld	fa0,160(a4)
    800060a0:	a1b8                	fsd	fa4,64(a1)
    800060a2:	32b546e3          	blt	a0,a1,80006bce <input_data+0x2146>
    800060a6:	7214                	ld	a3,32(a2)
    800060a8:	4d02                	lw	s10,0(sp)
    800060aa:	3869                	addw	a6,a6,-6
    800060ac:	f0ee                	sd	s11,96(sp)
    800060ae:	6c34                	ld	a3,88(s0)
    800060b0:	0379                	add	t1,t1,30
    800060b2:	2c52                	fld	fs8,272(sp)
    800060b4:	df4c                	sw	a1,60(a4)
    800060b6:	7165                	add	sp,sp,-400
    800060b8:	58c2                	lw	a7,48(sp)
    800060ba:	4c11                	li	s8,4
    800060bc:	d711                	beqz	a4,80005fc8 <input_data+0x1540>
    800060be:	dc48778b          	.4byte	0xdc48778b
    800060c2:	253a                	fld	fa0,392(sp)
    800060c4:	3b66                	fld	fs6,120(sp)
    800060c6:	7dac                	ld	a1,120(a1)
    800060c8:	dd6a                	sw	s10,184(sp)
    800060ca:	c9d6745b          	.4byte	0xc9d6745b
    800060ce:	397a                	fld	fs2,440(sp)
    800060d0:	d378                	sw	a4,100(a4)
    800060d2:	45cc                	lw	a1,12(a1)
    800060d4:	7ec6e397          	auipc	t2,0x7ec6e
    800060d8:	8964                	.2byte	0x8964
    800060da:	306a                	fld	ft0,184(sp)
    800060dc:	895f 0679 56ec      	.byte	0x5f, 0x89, 0x79, 0x06, 0xec, 0x56
    800060e2:	3a74                	fld	fa3,240(a2)
    800060e4:	bc82                	fsd	ft0,120(sp)
    800060e6:	2a95                	addw	s5,s5,5
    800060e8:	6413036f          	jal	t1,80036f28 <_tbss_end+0x2e264>
    800060ec:	e670                	sd	a2,200(a2)
    800060ee:	7359                	lui	t1,0xffff6
    800060f0:	0e1e124f          	.4byte	0xe1e124f
    800060f4:	d285                	beqz	a3,80006014 <input_data+0x158c>
    800060f6:	156e5bdb          	.4byte	0x156e5bdb
    800060fa:	3f8a                	fld	ft11,160(sp)
    800060fc:	7672                	ld	a2,312(sp)
    800060fe:	5fd2                	lw	t6,52(sp)
    80006100:	5fea                	lw	t6,184(sp)
    80006102:	429272d7          	vsetvli	t0,tp,1065
    80006106:	79cd38eb          	.4byte	0x79cd38eb
    8000610a:	675a                	ld	a4,400(sp)
    8000610c:	4595                	li	a1,5
    8000610e:	00d9                	add	ra,ra,22
    80006110:	ad26                	fsd	fs1,152(sp)
    80006112:	59ce                	lw	s3,240(sp)
    80006114:	9e1e                	add	t3,t3,t2
    80006116:	328d                	addw	t0,t0,-29
    80006118:	d58c                	sw	a1,40(a1)
    8000611a:	463a                	lw	a2,140(sp)
    8000611c:	490d                	li	s2,3
    8000611e:	249c                	fld	fa5,8(s1)
    80006120:	6ca0                	ld	s0,88(s1)
    80006122:	5c312b9b          	.4byte	0x5c312b9b
    80006126:	5a21                	li	s4,-24
    80006128:	08ea                	sll	a7,a7,0x1a
    8000612a:	03c5                	add	t2,t2,17 # fec740e5 <_tbss_end+0x7ec6b421>
    8000612c:	737c                	ld	a5,224(a4)
    8000612e:	cfe139bf 099e6a54 	.8byte	0x99e6a54cfe139bf
    80006136:	539c                	lw	a5,32(a5)
    80006138:	a0ae                	fsd	fa1,64(sp)
    8000613a:	50c9                	li	ra,-14
    8000613c:	62e46d6f          	jal	s10,8004c76a <_tbss_end+0x43aa6>
    80006140:	22c2                	fld	ft5,16(sp)
    80006142:	45f8                	lw	a4,76(a1)
    80006144:	0a4d                	add	s4,s4,19
    80006146:	3e2a                	fld	ft8,168(sp)
    80006148:	d214                	sw	a3,32(a2)
    8000614a:	4e9c                	lw	a5,24(a3)
    8000614c:	1402                	sll	s0,s0,0x20
    8000614e:	447e                	lw	s0,220(sp)
    80006150:	7c93425b          	.4byte	0x7c93425b
    80006154:	ddb4                	sw	a3,120(a1)
    80006156:	479f 0b53 0ee7      	.byte	0x9f, 0x47, 0x53, 0x0b, 0xe7, 0x0e
    8000615c:	ffa0                	sd	s0,120(a5)
    8000615e:	3db1                	addw	s11,s11,-20 # 6d707e82 <buflen.1+0x6d707e42>
    80006160:	49a5                	li	s3,9
    80006162:	2835                	addw	a6,a6,13
    80006164:	f865                	bnez	s0,80006154 <input_data+0x16cc>
    80006166:	40fd                	li	ra,31
    80006168:	73d9c2c7          	fmsub.d	ft5,fs3,ft9,fa4,rmm
    8000616c:	74e5                	lui	s1,0xffff9
    8000616e:	37ac                	fld	fa1,104(a5)
    80006170:	7c6f2dab          	.4byte	0x7c6f2dab
    80006174:	64c0                	ld	s0,136(s1)
    80006176:	cec02c07          	flw	fs8,-788(zero) # fffffffffffffcec <_tbss_end+0xffffffff7fff7028>
    8000617a:	4dc9                	li	s11,18
    8000617c:	41a4                	lw	s1,64(a1)
    8000617e:	a371056f          	jal	a0,7ff16bb4 <buflen.1+0x7ff16b74>
    80006182:	7cc865cf          	.4byte	0x7cc865cf
    80006186:	647c                	ld	a5,200(s0)
    80006188:	15bb2fe7          	.4byte	0x15bb2fe7
    8000618c:	6eea2803          	lw	a6,1774(s4)
    80006190:	4961                	li	s2,24
    80006192:	72e1                	lui	t0,0xffff8
    80006194:	360e2f13          	slti	t5,t3,864
    80006198:	40fed847          	fmsub.s	fa6,ft9,fa5,fs0,unknown
    8000619c:	99c5                	and	a1,a1,-15
    8000619e:	ae6e3533          	.4byte	0xae6e3533
    800061a2:	60db7567          	.4byte	0x60db7567
    800061a6:	98ff6fb3          	.4byte	0x98ff6fb3
    800061aa:	3741                	addw	a4,a4,-16 # ffffffffffff0ff0 <_tbss_end+0xffffffff7ffe832c>
    800061ac:	a5a0                	fsd	fs0,72(a1)
    800061ae:	4522                	lw	a0,8(sp)
    800061b0:	70c8                	ld	a0,160(s1)
    800061b2:	1f332b87          	flw	fs7,499(t1) # ffffffffffff61f3 <_tbss_end+0xffffffff7ffed52f>
    800061b6:	14d1                	add	s1,s1,-12 # ffffffffffff8ff4 <_tbss_end+0xffffffff7fff0330>
    800061b8:	12f40083          	lb	ra,303(s0)
    800061bc:	18cd                	add	a7,a7,-13 # fffffffffffe1ff3 <_tbss_end+0xffffffff7ffd932f>
    800061be:	4e3b0d77          	.4byte	0x4e3b0d77
    800061c2:	71531ccf          	fnmadd.s	fs9,ft6,fs5,fa4,rtz
    800061c6:	938a3dbf f69e0e65 	.8byte	0xf69e0e65938a3dbf
    800061ce:	4c4a                	lw	s8,144(sp)
    800061d0:	4a5ba023          	sw	t0,1184(s7)
    800061d4:	be14                	fsd	fa3,56(a2)
    800061d6:	6a980ebf 88496aea 	.8byte	0x88496aea6a980ebf
    800061de:	2cd8                	fld	fa4,152(s1)
    800061e0:	112b5d0f          	.4byte	0x112b5d0f
    800061e4:	d676                	sw	t4,44(sp)
    800061e6:	7b96                	ld	s7,352(sp)
    800061e8:	7988de27          	.4byte	0x7988de27
    800061ec:	24d266c3          	vmsge.vx	v13,v13,tp,v0.t
    800061f0:	59f1                	li	s3,-4
    800061f2:	19d5                	add	s3,s3,-11
    800061f4:	d75f 1dcb 8b75      	.byte	0x5f, 0xd7, 0xcb, 0x1d, 0x75, 0x8b
    800061fa:	3e9d                	addw	t4,t4,-25
    800061fc:	13bf00c7          	fmsub.d	ft1,ft10,fs11,ft2,rne
    80006200:	24ff 32be 345f 4d2e 	.byte	0xff, 0x24, 0xbe, 0x32, 0x5f, 0x34, 0x2e, 0x4d, 0xe5, 0x9b, 0x3e, 0x66, 0xf5, 0x3e
    80006208:	9be5 663e 3ef5 
    8000620e:	451f 742a 3d5a      	.byte	0x1f, 0x45, 0x2a, 0x74, 0x5a, 0x3d
    80006214:	5dae                	lw	s11,232(sp)
    80006216:	78d8                	ld	a4,176(s1)
    80006218:	628bd913          	.4byte	0x628bd913
    8000621c:	6fc00817          	auipc	a6,0x6fc00
    80006220:	c139                	beqz	a0,80006266 <input_data+0x17de>
    80006222:	9338498f          	.4byte	0x9338498f
    80006226:	0f89                	add	t6,t6,2 # e002 <buflen.1+0xdfc2>
    80006228:	3e27b777          	.4byte	0x3e27b777
    8000622c:	8780                	vmsge.vx	v15,v0,ra,v0.t
    8000622e:	5390                	lw	a2,32(a5)
    80006230:	4d81                	li	s11,0
    80006232:	2b84                	fld	fs1,16(a5)
    80006234:	96cd                	sra	a3,a3,0x33
    80006236:	6808                	ld	a0,16(s0)
    80006238:	21b4                	fld	fa3,64(a1)
    8000623a:	5c6e                	lw	s8,248(sp)
    8000623c:	378e                	fld	fa5,224(sp)
    8000623e:	67435fd3          	.4byte	0x67435fd3
    80006242:	39c9                	addw	s3,s3,-14
    80006244:	0f7c                	add	a5,sp,924
    80006246:	2e6a                	fld	ft8,152(sp)
    80006248:	6e7e                	ld	t3,472(sp)
    8000624a:	6940                	ld	s0,144(a0)
    8000624c:	d24e                	sw	s3,36(sp)
    8000624e:	2b9d                	addw	s7,s7,7
    80006250:	6aa2                	ld	s5,8(sp)
    80006252:	5f5e                	lw	t5,244(sp)
    80006254:	8ffa                	mv	t6,t5
    80006256:	74b0                	ld	a2,104(s1)
    80006258:	000a8b27          	vse8.v	v22,(s5),v0.t
    8000625c:	6a3e                	ld	s4,456(sp)
    8000625e:	1a7c                	add	a5,sp,316
    80006260:	4c38983f 4969523d 	.8byte	0x4969523d4c38983f
    80006268:	04c5                	add	s1,s1,17
    8000626a:	239c                	fld	fa5,0(a5)
    8000626c:	0d2d                	add	s10,s10,11 # 1700b <buflen.1+0x16fcb>
    8000626e:	40ce                	lw	ra,208(sp)
    80006270:	0f637b73          	csrrc	s6,0xf6,6
    80006274:	da26                	sw	s1,52(sp)
    80006276:	3a007cc7          	fmsub.d	fs9,ft0,ft0,ft7
    8000627a:	5730                	lw	a2,104(a4)
    8000627c:	7b35733f 610f3a28 	.8byte	0x610f3a287b35733f
    80006284:	2d73d15b          	.4byte	0x2d73d15b
    80006288:	9f7d                	.2byte	0x9f7d
    8000628a:	5c0d472b          	.4byte	0x5c0d472b
    8000628e:	505e                	.2byte	0x505e
    80006290:	c854                	sw	a3,20(s0)
    80006292:	6c9d                	lui	s9,0x7
    80006294:	8e32                	mv	t3,a2
    80006296:	6cdf a0e2 4248      	.byte	0xdf, 0x6c, 0xe2, 0xa0, 0x48, 0x42
    8000629c:	5be8                	lw	a0,116(a5)
    8000629e:	7c80                	ld	s0,56(s1)
    800062a0:	9914                	.2byte	0x9914
    800062a2:	3095                	addw	ra,ra,-27
    800062a4:	d7c8                	sw	a0,44(a5)
    800062a6:	74b2                	ld	s1,296(sp)
    800062a8:	4885                	li	a7,1
    800062aa:	40cd                	li	ra,19
    800062ac:	3491fb3f 73f00760 	.8byte	0x73f007603491fb3f
    800062b4:	9932                	add	s2,s2,a2
    800062b6:	62bc                	ld	a5,64(a3)
    800062b8:	1f8b77b7          	lui	a5,0x1f8b7
    800062bc:	082b2a17          	auipc	s4,0x82b2
    800062c0:	5071                	c.li	zero,-4
    800062c2:	55cb1f23          	sh	t3,1374(s6) # ffffffffffff555e <_tbss_end+0xffffffff7ffec89a>
    800062c6:	19a67017          	auipc	zero,0x19a67
    800062ca:	3280                	fld	fs0,32(a3)
    800062cc:	29b6                	fld	fs3,328(sp)
    800062ce:	32c4                	fld	fs1,160(a3)
    800062d0:	99ac                	.2byte	0x99ac
    800062d2:	50ad372b          	.4byte	0x50ad372b
    800062d6:	5af33dd7          	.4byte	0x5af33dd7
    800062da:	1b82                	sll	s7,s7,0x20
    800062dc:	2e64                	fld	fs1,216(a2)
    800062de:	4f6e                	lw	t5,216(sp)
    800062e0:	1c49                	add	s8,s8,-14
    800062e2:	1f54                	add	a3,sp,948
    800062e4:	52d6793b          	.4byte	0x52d6793b
    800062e8:	8fd1                	or	a5,a5,a2
    800062ea:	433a                	lw	t1,140(sp)
    800062ec:	1b49                	add	s6,s6,-14
    800062ee:	4775                	li	a4,29
    800062f0:	3085                	addw	ra,ra,-31
    800062f2:	3339                	addw	t1,t1,-18
    800062f4:	4eda                	lw	t4,148(sp)
    800062f6:	2a21                	addw	s4,s4,8 # ffffffff882b82c4 <_tbss_end+0xffffffff082af600>
    800062f8:	12d6                	sll	t0,t0,0x35
    800062fa:	1629                	add	a2,a2,-22
    800062fc:	da71                	beqz	a2,800062d0 <input_data+0x1848>
    800062fe:	08ad                	add	a7,a7,11
    80006300:	9280                	vmsge.vx	v5,v0,ra,v0.t
    80006302:	270d                	addw	a4,a4,3
    80006304:	71490dbf 4f800661 	.8byte	0x4f80066171490dbf
    8000630c:	41aaf2ef          	jal	t0,800b5726 <_tbss_end+0xaca62>
    80006310:	dab4                	sw	a3,112(a3)
    80006312:	4c38                	lw	a4,88(s0)
    80006314:	7c9296e3          	bne	t0,s1,800072e0 <__global_pointer$+0x58>
    80006318:	82a8                	.2byte	0x82a8
    8000631a:	1f1d4497          	auipc	s1,0x1f1d4
    8000631e:	00c9                	add	ra,ra,18
    80006320:	c412                	sw	tp,8(sp)
    80006322:	598a                	lw	s3,160(sp)
    80006324:	a514                	fsd	fa3,8(a0)
    80006326:	41be                	lw	gp,204(sp)
    80006328:	5a5e                	lw	s4,244(sp)
    8000632a:	1472                	sll	s0,s0,0x3c
    8000632c:	c500                	sw	s0,8(a0)
    8000632e:	711f 79bb 601e      	.byte	0x1f, 0x71, 0xbb, 0x79, 0x1e, 0x60
    80006334:	0125                	add	sp,sp,9 # 4f730009 <buflen.1+0x4f72ffc9>
    80006336:	481f 3ffd 67c2      	.byte	0x1f, 0x48, 0xfd, 0x3f, 0xc2, 0x67
    8000633c:	52ca                	lw	t0,176(sp)
    8000633e:	61fd                	lui	gp,0x1f
    80006340:	c658                	sw	a4,12(a2)
    80006342:	3a42                	fld	fs4,48(sp)
    80006344:	8746                	mv	a4,a7
    80006346:	2ef5                	addw	t4,t4,29
    80006348:	b5b6                	fsd	fa3,232(sp)
    8000634a:	09bc                	add	a5,sp,216
    8000634c:	a17a                	fsd	ft10,128(sp)
    8000634e:	40d5                	li	ra,21
    80006350:	9f16                	add	t5,t5,t0
    80006352:	ef6e0bef          	jal	s7,7ffe6a48 <buflen.1+0x7ffe6a08>
    80006356:	64d4                	ld	a3,136(s1)
    80006358:	d1f1                	beqz	a1,8000631c <input_data+0x1894>
    8000635a:	157e                	sll	a0,a0,0x3f
    8000635c:	9f9f 6a88 2442      	.byte	0x9f, 0x9f, 0x88, 0x6a, 0x42, 0x24
    80006362:	021f 6af4 3108      	.byte	0x1f, 0x02, 0xf4, 0x6a, 0x08, 0x31
    80006368:	8282                	jr	t0
    8000636a:	6d54                	ld	a3,152(a0)
    8000636c:	a63a                	fsd	fa4,264(sp)
    8000636e:	51c9                	li	gp,-14
    80006370:	d17c                	sw	a5,100(a0)
    80006372:	493e3f67          	.4byte	0x493e3f67
    80006376:	3a06                	fld	fs4,96(sp)
    80006378:	2998986b          	.4byte	0x2998986b
    8000637c:	f9c1                	bnez	a1,8000630c <input_data+0x1884>
    8000637e:	379b0953          	.4byte	0x379b0953
    80006382:	f5910a17          	auipc	s4,0xf5910
    80006386:	0ac2                	sll	s5,s5,0x10
    80006388:	8648                	.2byte	0x8648
    8000638a:	06ad                	add	a3,a3,11 # 20a3100b <buflen.1+0x20a30fcb>
    8000638c:	079f193f 0e683a1d 	.8byte	0xe683a1d079f193f
    80006394:	c005                	beqz	s0,800063b4 <input_data+0x192c>
    80006396:	777c                	ld	a5,232(a4)
    80006398:	01635b5b          	.4byte	0x1635b5b
    8000639c:	770d9d97          	auipc	s11,0x770d9
    800063a0:	6a49                	lui	s4,0x12
    800063a2:	2be5                	addw	s7,s7,25
    800063a4:	039c                	add	a5,sp,448
    800063a6:	766e                	ld	a2,248(sp)
    800063a8:	2534                	fld	fa3,72(a0)
    800063aa:	5d9e                	lw	s11,228(sp)
    800063ac:	8ae9                	and	a3,a3,26
    800063ae:	b9e37b3b          	.4byte	0xb9e37b3b
    800063b2:	5b6b5737          	lui	a4,0x5b6b5
    800063b6:	08da                	sll	a7,a7,0x16
    800063b8:	81fd                	srl	a1,a1,0x1f
    800063ba:	24d8                	fld	fa4,136(s1)
    800063bc:	160e                	sll	a2,a2,0x23
    800063be:	663d                	lui	a2,0xf
    800063c0:	7b2b5f8b          	.4byte	0x7b2b5f8b
    800063c4:	b8ee                	fsd	fs11,112(sp)
    800063c6:	7e44                	ld	s1,184(a2)
    800063c8:	cd60                	sw	s0,92(a0)
    800063ca:	0bd0                	add	a2,sp,468
    800063cc:	003e                	c.slli	zero,0xf
    800063ce:	6d6d                	lui	s10,0x1b
    800063d0:	503866b3          	.4byte	0x503866b3
    800063d4:	4d82                	lw	s11,0(sp)
    800063d6:	f2147167          	.4byte	0xf2147167
    800063da:	cad274eb          	.4byte	0xcad274eb
    800063de:	4cf9                	li	s9,30
    800063e0:	4efa053b          	.4byte	0x4efa053b
    800063e4:	58ee                	lw	a7,248(sp)
    800063e6:	8a0b31e3          	vmsge.vx	v3,v0,s6
    800063ea:	25246e3f 70ab1dd3 	.8byte	0x70ab1dd325246e3f
    800063f2:	0f155f57          	.4byte	0xf155f57
    800063f6:	65ae                	ld	a1,200(sp)
    800063f8:	9731                	sra	a4,a4,0x2c
    800063fa:	5f65                	li	t5,-7
    800063fc:	1692                	sll	a3,a3,0x24
    800063fe:	170d                	add	a4,a4,-29 # 5b6b4fe3 <buflen.1+0x5b6b4fa3>
    80006400:	8d0c                	.2byte	0x8d0c
    80006402:	3d52                	fld	fs10,304(sp)
    80006404:	e6d2                	sd	s4,328(sp)
    80006406:	6320                	ld	s0,64(a4)
    80006408:	4ed6bee3          	vmsge.vx	v29,v13,a3
    8000640c:	86a0                	vmsge.vx	v13,v0,ra,v0.t
    8000640e:	5864                	lw	s1,116(s0)
    80006410:	411c6f63          	bltu	s8,a7,8000682e <input_data+0x1da6>
    80006414:	c3dd                	beqz	a5,800064ba <input_data+0x1a32>
    80006416:	6366                	ld	t1,88(sp)
    80006418:	91ec                	.2byte	0x91ec
    8000641a:	752c                	ld	a1,104(a0)
    8000641c:	e53c                	sd	a5,72(a0)
    8000641e:	3f68                	fld	fa0,248(a4)
    80006420:	67d54dcb          	.4byte	0x67d54dcb
    80006424:	8de8                	.2byte	0x8de8
    80006426:	11e4                	add	s1,sp,236
    80006428:	0b3d                	add	s6,s6,15
    8000642a:	24fc                	fld	fa5,200(s1)
    8000642c:	d51d                	beqz	a0,8000635a <input_data+0x18d2>
    8000642e:	1e08                	add	a0,sp,816
    80006430:	172d                	add	a4,a4,-21
    80006432:	7cdd                	lui	s9,0xffff7
    80006434:	3752e6c7          	.4byte	0x3752e6c7
    80006438:	0f29                	add	t5,t5,10
    8000643a:	1091                	add	ra,ra,-28
    8000643c:	da45                	beqz	a2,800063ec <input_data+0x1964>
    8000643e:	8c9f63fb          	.4byte	0x8c9f63fb
    80006442:	d1cb4a73          	.4byte	0xd1cb4a73
    80006446:	55582fa7          	fsw	fs5,1375(a6) # efc0677b <_tbss_end+0x6fbfdab7>
    8000644a:	4656                	lw	a2,84(sp)
    8000644c:	02e12ea7          	fsw	fa4,61(sp)
    80006450:	6f3a5657          	vmflt.vf	v12,v19,fs4
    80006454:	53ca3e2f          	.4byte	0x53ca3e2f
    80006458:	c751                	beqz	a4,800064e4 <input_data+0x1a5c>
    8000645a:	7dc1                	lui	s11,0xffff0
    8000645c:	fee2                	sd	s8,376(sp)
    8000645e:	2e4b5f0b          	.4byte	0x2e4b5f0b
    80006462:	2299                	addw	t0,t0,6 # ffffffffffff8006 <_tbss_end+0xffffffff7ffef342>
    80006464:	86aa                	mv	a3,a0
    80006466:	6876                	ld	a6,344(sp)
    80006468:	fda0                	sd	s0,120(a1)
    8000646a:	712a4fd3          	.4byte	0x712a4fd3
    8000646e:	da6636f7          	.4byte	0xda6636f7
    80006472:	182653ab          	.4byte	0x182653ab
    80006476:	11da                	sll	gp,gp,0x36
    80006478:	259f 503a f848      	.byte	0x9f, 0x25, 0x3a, 0x50, 0x48, 0xf8
    8000647e:	4d60                	lw	s0,92(a0)
    80006480:	5068                	lw	a0,100(s0)
    80006482:	91897ee3          	bgeu	s2,s8,80005d9e <input_data+0x1316>
    80006486:	285d                	addw	a6,a6,23
    80006488:	318c39e7          	.4byte	0x318c39e7
    8000648c:	94b8                	.2byte	0x94b8
    8000648e:	2c2d                	addw	s8,s8,11
    80006490:	297efd5b          	.4byte	0x297efd5b
    80006494:	ceae                	sw	a1,92(sp)
    80006496:	175271f7          	.4byte	0x175271f7
    8000649a:	3c96                	fld	fs9,352(sp)
    8000649c:	c5f0                	sw	a2,76(a1)
    8000649e:	28a6                	fld	fa7,72(sp)
    800064a0:	caae                	sw	a1,84(sp)
    800064a2:	1518                	add	a4,sp,672
    800064a4:	7078                	ld	a4,224(s0)
    800064a6:	2159                	addw	sp,sp,22
    800064a8:	98ac                	.2byte	0x98ac
    800064aa:	1eb8                	add	a4,sp,888
    800064ac:	0dc0                	add	s0,sp,724
    800064ae:	6e66                	ld	t3,88(sp)
    800064b0:	184e1aef          	jal	s5,800e7634 <_tbss_end+0xde970>
    800064b4:	93fd                	srl	a5,a5,0x3f
    800064b6:	82f53067          	.4byte	0x82f53067
    800064ba:	6ed8                	ld	a4,152(a3)
    800064bc:	07d4                	add	a3,sp,964
    800064be:	4192                	lw	gp,4(sp)
    800064c0:	9829                	and	s0,s0,-22
    800064c2:	1db9                	add	s11,s11,-18 # fffffffffffeffee <_tbss_end+0xffffffff7ffe732a>
    800064c4:	8add                	and	a3,a3,23
    800064c6:	26f5                	addw	a3,a3,29
    800064c8:	ac55                	j	8000677c <input_data+0x1cf4>
    800064ca:	37572da3          	sw	s5,891(a4)
    800064ce:	08fe                	sll	a7,a7,0x1f
    800064d0:	4dd8                	lw	a4,28(a1)
    800064d2:	1395                	add	t2,t2,-27
    800064d4:	86b6                	mv	a3,a3
    800064d6:	0498                	add	a4,sp,576
    800064d8:	679c                	ld	a5,8(a5)
    800064da:	69d1                	lui	s3,0x14
    800064dc:	ccb2                	sw	a2,88(sp)
    800064de:	6d6e                	ld	s10,216(sp)
    800064e0:	2885                	addw	a7,a7,1
    800064e2:	2a1a                	fld	fs4,384(sp)
    800064e4:	49b0                	lw	a2,80(a1)
    800064e6:	49ed                	li	s3,27
    800064e8:	de75                	beqz	a2,800064e4 <input_data+0x1a5c>
    800064ea:	3209                	addw	tp,tp,-30 # ffffffffffffffe2 <_tbss_end+0xffffffff7fff731e>
    800064ec:	c572                	sw	t3,136(sp)
    800064ee:	95023ed3          	.4byte	0x95023ed3
    800064f2:	6ca9                	lui	s9,0xa
    800064f4:	29d70e33          	.4byte	0x29d70e33
    800064f8:	a428                	fsd	fa0,72(s0)
    800064fa:	04f0                	add	a2,sp,588
    800064fc:	e848                	sd	a0,144(s0)
    800064fe:	26e2                	fld	fa3,24(sp)
    80006500:	9944                	.2byte	0x9944
    80006502:	339f f7b8 373f      	.byte	0x9f, 0x33, 0xb8, 0xf7, 0x3f, 0x37
    80006508:	6b08                	ld	a0,16(a4)
    8000650a:	4f09                	li	t5,2
    8000650c:	3f29                	addw	t5,t5,-22
    8000650e:	682e                	ld	a6,200(sp)
    80006510:	60d8                	ld	a4,128(s1)
    80006512:	7ebd45f7          	.4byte	0x7ebd45f7
    80006516:	5ad6                	lw	s5,116(sp)
    80006518:	6680                	ld	s0,8(a3)
    8000651a:	1a72                	sll	s4,s4,0x3c
    8000651c:	d196                	sw	t0,224(sp)
    8000651e:	31cc                	fld	fa1,160(a1)
    80006520:	d704                	sw	s1,40(a4)
    80006522:	0051                	c.nop	20
    80006524:	69d2                	ld	s3,272(sp)
    80006526:	7b48                	ld	a0,176(a4)
    80006528:	83b4                	.2byte	0x83b4
    8000652a:	645e                	ld	s0,464(sp)
    8000652c:	80f5                	srl	s1,s1,0x1d
    8000652e:	7c05                	lui	s8,0xfffe1
    80006530:	887a                	mv	a6,t5
    80006532:	720d                	lui	tp,0xfffe3
    80006534:	05d1                	add	a1,a1,20 # 736f3014 <buflen.1+0x736f2fd4>
    80006536:	42d638b3          	.4byte	0x42d638b3
    8000653a:	6872                	ld	a6,280(sp)
    8000653c:	091f 0648 a6bb      	.byte	0x1f, 0x09, 0x48, 0x06, 0xbb, 0xa6
    80006542:	6a98                	ld	a4,16(a3)
    80006544:	6f2a                	ld	t5,136(sp)
    80006546:	6a89                	lui	s5,0x2
    80006548:	9b08                	.2byte	0x9b08
    8000654a:	5548                	lw	a0,44(a0)
    8000654c:	46f4                	lw	a3,76(a3)
    8000654e:	203e                	fld	ft0,456(sp)
    80006550:	3499a707          	flw	fa4,841(s3) # 14349 <buflen.1+0x14309>
    80006554:	de5d                	beqz	a2,80006512 <input_data+0x1a8a>
    80006556:	292c                	fld	fa1,80(a0)
    80006558:	f2ea                	sd	s10,352(sp)
    8000655a:	0c11                	add	s8,s8,4 # fffffffffffe1004 <_tbss_end+0xffffffff7ffd8340>
    8000655c:	5f000727          	.4byte	0x5f000727
    80006560:	96fd                	sra	a3,a3,0x3f
    80006562:	1f98                	add	a4,sp,1008
    80006564:	0981                	add	s3,s3,0
    80006566:	1700                	add	s0,sp,928
    80006568:	3615d7bf 1695bf1f 	.8byte	0x1695bf1f3615d7bf
    80006570:	1b1ae0d3          	fdiv.d	ft1,fs5,fa7,unknown
    80006574:	cd00                	sw	s0,24(a0)
    80006576:	0efd                	add	t4,t4,31
    80006578:	5680bd3f 431ab1f5 	.8byte	0x431ab1f55680bd3f
    80006580:	d932                	sw	a2,176(sp)
    80006582:	0144                	add	s1,sp,132
    80006584:	6d64                	ld	s1,216(a0)
    80006586:	61ec                	ld	a1,192(a1)
    80006588:	2ff1affb          	.4byte	0x2ff1affb
    8000658c:	2399                	addw	t2,t2,6
    8000658e:	7a15                	lui	s4,0xfffe5
    80006590:	10ae                	sll	ra,ra,0x2b
    80006592:	36b0                	fld	fa2,104(a3)
    80006594:	e44c                	sd	a1,136(s0)
    80006596:	5a49                	li	s4,-14
    80006598:	8469                	sra	s0,s0,0x1a
    8000659a:	0850                	add	a2,sp,20
    8000659c:	5c12                	lw	s8,36(sp)
    8000659e:	02e24423          	vmsge.vx	v8,v14,tp
    800065a2:	ca7a06db          	.4byte	0xca7a06db
    800065a6:	6722                	ld	a4,8(sp)
    800065a8:	6133ac8b          	.4byte	0x6133ac8b
    800065ac:	03065ce3          	bge	a2,a6,80006de4 <scratch.0+0x1b4>
    800065b0:	5d24                	lw	s1,120(a0)
    800065b2:	6806                	ld	a6,64(sp)
    800065b4:	4e4c9107          	.4byte	0x4e4c9107
    800065b8:	7e40                	ld	s0,184(a2)
    800065ba:	4025                	c.li	zero,9
    800065bc:	4a88                	lw	a0,16(a3)
    800065be:	6c7f b6ea 381d dbb7 	.byte	0x7f, 0x6c, 0xea, 0xb6, 0x1d, 0x38, 0xb7, 0xdb, 0x14, 0x30, 0x27, 0x54, 0x0b, 0x2b, 0x1f, 0xac, 0x82, 0x6d, 0xba, 0x35, 0x0d, 0x2a
    800065c6:	3014 5427 2b0b ac1f 
    800065ce:	6d82 35ba 2a0d 
    800065d4:	ee66                	sd	s9,280(sp)
    800065d6:	7c82                	ld	s9,32(sp)
    800065d8:	932c                	.2byte	0x932c
    800065da:	1e6d                	add	t3,t3,-5
    800065dc:	c325                	beqz	a4,8000663c <input_data+0x1bb4>
    800065de:	0314                	add	a3,sp,384
    800065e0:	36c6                	fld	fa3,112(sp)
    800065e2:	3fa13543          	vmsge.vx	v10,v26,sp
    800065e6:	51e5                	li	gp,-7
    800065e8:	3eb0                	fld	fa2,120(a3)
    800065ea:	3c06                	fld	fs8,96(sp)
    800065ec:	5d55                	li	s10,-11
    800065ee:	28d4                	fld	fa3,144(s1)
    800065f0:	57b4b82b          	.4byte	0x57b4b82b
    800065f4:	6251                	lui	tp,0x14
    800065f6:	5cb4                	lw	a3,120(s1)
    800065f8:	6559                	lui	a0,0x16
    800065fa:	486c                	lw	a1,84(s0)
    800065fc:	a2b4                	fsd	fa3,64(a3)
    800065fe:	54ed                	li	s1,-5
    80006600:	272cdbc7          	.4byte	0x272cdbc7
    80006604:	9892                	add	a7,a7,tp
    80006606:	52f5                	li	t0,-3
    80006608:	398d5073          	csrw	0x398,26
    8000660c:	240481ab          	.4byte	0x240481ab
    80006610:	7db2                	ld	s11,296(sp)
    80006612:	81a24c9b          	.4byte	0x81a24c9b
    80006616:	145a                	sll	s0,s0,0x36
    80006618:	0002                	c.slli64	zero
    8000661a:	1189                	add	gp,gp,-30 # 1efe2 <buflen.1+0x1efa2>
    8000661c:	7b4a                	ld	s6,176(sp)
    8000661e:	25be                	fld	fa1,456(sp)
    80006620:	711c785b          	.4byte	0x711c785b
    80006624:	74f4                	ld	a3,232(s1)
    80006626:	7180                	ld	s0,32(a1)
    80006628:	1d65                	add	s10,s10,-7 # 1aff9 <buflen.1+0x1afb9>
    8000662a:	3116                	fld	ft2,352(sp)
    8000662c:	b1aa                	fsd	fa0,224(sp)
    8000662e:	5e0d                	li	t3,-29
    80006630:	d041                	beqz	s0,800065b0 <input_data+0x1b28>
    80006632:	7830                	ld	a2,112(s0)
    80006634:	3c64                	fld	fs1,248(s0)
    80006636:	6f09                	lui	t5,0x2
    80006638:	226a2ea7          	fsw	ft6,573(s4) # fffffffffffe523d <_tbss_end+0xffffffff7ffdc579>
    8000663c:	3a76                	fld	fs4,376(sp)
    8000663e:	a14b3c5b          	.4byte	0xa14b3c5b
    80006642:	0ebc                	add	a5,sp,856
    80006644:	ff86                	sd	ra,504(sp)
    80006646:	746525ef          	jal	a1,80058d8c <_tbss_end+0x500c8>
    8000664a:	7465                	lui	s0,0xffff9
    8000664c:	d780                	sw	s0,40(a5)
    8000664e:	564c                	lw	a1,44(a2)
    80006650:	47c4                	lw	s1,12(a5)
    80006652:	0670                	add	a2,sp,780
    80006654:	3c985217          	auipc	tp,0x3c985
    80006658:	7a0e7c57          	vsetvli	s8,t3,1952
    8000665c:	578e                	lw	a5,224(sp)
    8000665e:	3842                	fld	fa6,48(sp)
    80006660:	def5                	beqz	a3,8000665c <input_data+0x1bd4>
    80006662:	2ef0                	fld	fa2,216(a3)
    80006664:	7796                	ld	a5,352(sp)
    80006666:	00c2                	sll	ra,ra,0x10
    80006668:	127e                	sll	tp,tp,0x3f
    8000666a:	32e0                	fld	fs0,224(a3)
    8000666c:	0138                	add	a4,sp,136
    8000666e:	13e9                	add	t2,t2,-6
    80006670:	cf61                	beqz	a4,80006748 <input_data+0x1cc0>
    80006672:	0dea20fb          	.4byte	0xdea20fb
    80006676:	daea40ef          	jal	7ffaac24 <buflen.1+0x7ffaabe4>
    8000667a:	1dac                	add	a1,sp,760
    8000667c:	89e9                	and	a1,a1,26
    8000667e:	c6977987          	vluxseg7ei64.v	v19,(a4),v9
    80006682:	5582                	lw	a1,32(sp)
    80006684:	4ced7143          	vmsge.vx	v2,v14,s10,v0.t
    80006688:	7e24                	ld	s1,120(a2)
    8000668a:	0486                	sll	s1,s1,0x1
    8000668c:	390b3b03          	ld	s6,912(s6)
    80006690:	7ef912b7          	lui	t0,0x7ef91
    80006694:	4b00                	lw	s0,16(a4)
    80006696:	f23d1c73          	csrrw	s8,0xf23,s10
    8000669a:	38ca                	fld	fa7,176(sp)
    8000669c:	071f 6487 fb86      	.byte	0x1f, 0x07, 0x87, 0x64, 0x86, 0xfb
    800066a2:	1b60                	add	s0,sp,444
    800066a4:	ddc4                	sw	s1,60(a1)
    800066a6:	2cd0                	fld	fa2,152(s1)
    800066a8:	0a74                	add	a3,sp,284
    800066aa:	31d9                	addw	gp,gp,-10 # ffffffff8000727e <_tbss_end+0xfffffffeffffe5ba>
    800066ac:	7171                	add	sp,sp,-176
    800066ae:	78df 5324 01b7      	.byte	0xdf, 0x78, 0x24, 0x53, 0xb7, 0x01
    800066b4:	c0ac                	sw	a1,64(s1)
    800066b6:	133c                	add	a5,sp,424
    800066b8:	177e                	sll	a4,a4,0x3f
    800066ba:	4f96                	lw	t6,68(sp)
    800066bc:	2eea494b          	.4byte	0x2eea494b
    800066c0:	1870                	add	a2,sp,60
    800066c2:	06c5                	add	a3,a3,17
    800066c4:	db9c                	sw	a5,48(a5)
    800066c6:	38ea                	fld	fa7,184(sp)
    800066c8:	0276                	sll	tp,tp,0x1d
    800066ca:	4e81                	li	t4,0
    800066cc:	5bb8                	lw	a4,112(a5)
    800066ce:	a4f94d77          	.4byte	0xa4f94d77
    800066d2:	77c2                	ld	a5,48(sp)
    800066d4:	5c4d96b3          	.4byte	0x5c4d96b3
    800066d8:	ec61                	bnez	s0,800067b0 <input_data+0x1d28>
    800066da:	5d497a2b          	.4byte	0x5d497a2b
    800066de:	809e2ba7          	fsw	fs1,-2025(t3)
    800066e2:	6a35                	lui	s4,0xd
    800066e4:	4ee1                	li	t4,24
    800066e6:	7c9d                	lui	s9,0xfffe7
    800066e8:	fc5c                	sd	a5,184(s0)
    800066ea:	6dec3b3b          	.4byte	0x6dec3b3b
    800066ee:	74c8                	ld	a0,168(s1)
    800066f0:	94c6                	add	s1,s1,a7
    800066f2:	4fa9                	li	t6,10
    800066f4:	4190                	lw	a2,0(a1)
    800066f6:	2931                	addw	s2,s2,12 # 1b00c <buflen.1+0x1afcc>
    800066f8:	a664                	fsd	fs1,200(a2)
    800066fa:	681f b8f7 37c3      	.byte	0x1f, 0x68, 0xf7, 0xb8, 0xc3, 0x37
    80006700:	1936                	sll	s2,s2,0x2d
    80006702:	42f8                	lw	a4,68(a3)
    80006704:	417f 0676 54c2 5626 	.byte	0x7f, 0x41, 0x76, 0x06, 0xc2, 0x54, 0x26, 0x56, 0x45, 0xd3, 0x1d, 0x0a, 0x93, 0x34, 0x5a, 0x07, 0xab, 0xa6
    8000670c:	d345 0a1d 3493 075a 
    80006714:	a6ab 
    80006716:	6182                	ld	gp,0(sp)
    80006718:	fe11                	bnez	a2,80006634 <input_data+0x1bac>
    8000671a:	2828                	fld	fa0,80(s0)
    8000671c:	79c39977          	.4byte	0x79c39977
    80006720:	2d2aea73          	csrrs	s4,0x2d2,21
    80006724:	0b6e                	sll	s6,s6,0x1b
    80006726:	1e8c                	add	a1,sp,880
    80006728:	d1ee                	sw	s11,224(sp)
    8000672a:	0721                	add	a4,a4,8
    8000672c:	705c                	ld	a5,160(s0)
    8000672e:	91200377          	.4byte	0x91200377
    80006732:	88a17c9b          	.4byte	0x88a17c9b
    80006736:	1cfa                	sll	s9,s9,0x3e
    80006738:	c63a                	sw	a4,12(sp)
    8000673a:	6089                	lui	ra,0x2
    8000673c:	19cee96b          	.4byte	0x19cee96b
    80006740:	a8ed                	j	8000683a <input_data+0x1db2>
    80006742:	42fc3557          	.4byte	0x42fc3557
    80006746:	169e                	sll	a3,a3,0x27
    80006748:	6f0e                	ld	t5,192(sp)
    8000674a:	70b5                	lui	ra,0xfffed
    8000674c:	ed6c                	sd	a1,216(a0)
    8000674e:	706e                	.2byte	0x706e
    80006750:	8f2e                	mv	t5,a1
    80006752:	6ec8                	ld	a0,152(a3)
    80006754:	39c73b7f 49572b3c 	.byte	0x7f, 0x3b, 0xc7, 0x39, 0x3c, 0x2b, 0x57, 0x49, 0x37, 0xaf, 0xb4, 0x70, 0xd6, 0x26, 0xf7, 0x14
    8000675c:	70b4af37 14f726d6 
    80006764:	7509                	lui	a0,0xfffe2
    80006766:	0ccc                	add	a1,sp,596
    80006768:	4f7e                	lw	t5,220(sp)
    8000676a:	c8955c63          	bge	a0,s1,80005c02 <input_data+0x117a>
    8000676e:	30b0125b          	.4byte	0x30b0125b
    80006772:	0191                	add	gp,gp,4 # 8000728c <__global_pointer$+0x4>
    80006774:	040ea107          	flw	ft2,64(t4)
    80006778:	9a3e                	add	s4,s4,a5
    8000677a:	03435273          	csrrw	tp,0x34,6
    8000677e:	6816                	ld	a6,320(sp)
    80006780:	ad38                	fsd	fa4,88(a0)
    80006782:	40f9                	li	ra,30
    80006784:	a545                	j	80006e24 <scratch.0+0x1f4>
    80006786:	da0162d3          	.4byte	0xda0162d3
    8000678a:	7c11                	lui	s8,0xfffe4
    8000678c:	7015                	c.lui	zero,0xfffe5
    8000678e:	4216438f          	.4byte	0x4216438f
    80006792:	6ce86427          	vsoxseg4ei32.v	v8,(a6),v14,v0.t
    80006796:	50713e9b          	.4byte	0x50713e9b
    8000679a:	6ba6                	ld	s7,72(sp)
    8000679c:	8e36                	mv	t3,a3
    8000679e:	6621                	lui	a2,0x8
    800067a0:	3d39                	addw	s10,s10,-18
    800067a2:	1f09                	add	t5,t5,-30 # 1fe2 <buflen.1+0x1fa2>
    800067a4:	9675                	sra	a2,a2,0x3d
    800067a6:	fc0518e3          	bnez	a0,80006776 <input_data+0x1cee>
    800067aa:	50c4                	lw	s1,36(s1)
    800067ac:	648d                	lui	s1,0x3
    800067ae:	25a2                	fld	fa1,8(sp)
    800067b0:	6f8c                	ld	a1,24(a5)
    800067b2:	b10867db          	.4byte	0xb10867db
    800067b6:	7bd6                	ld	s7,368(sp)
    800067b8:	65dd924f          	.4byte	0x65dd924f
    800067bc:	23688f3b          	.4byte	0x23688f3b
    800067c0:	b958                	fsd	fa4,176(a0)
    800067c2:	37da                	fld	fa5,432(sp)
    800067c4:	2c3cdaab          	.4byte	0x2c3cdaab
    800067c8:	94e1                	sra	s1,s1,0x38
    800067ca:	7184                	ld	s1,32(a1)
    800067cc:	6341                	lui	t1,0x10
    800067ce:	c23634eb          	.4byte	0xc23634eb
    800067d2:	b1bf4ccf          	fnmadd.s	fs9,ft10,fs11,fs6,rmm
    800067d6:	194e                	sll	s2,s2,0x33
    800067d8:	8add                	and	a3,a3,23
    800067da:	5948                	lw	a0,52(a0)
    800067dc:	31766a3f 5282f6af 	.8byte	0x5282f6af31766a3f
    800067e4:	ab91                	j	80006d38 <scratch.0+0x108>
    800067e6:	0ee8                	add	a0,sp,860
    800067e8:	0919                	add	s2,s2,6
    800067ea:	0bed                	add	s7,s7,27
    800067ec:	29599857          	vfsgnjx.vv	v16,v21,v19,v0.t
    800067f0:	8572                	mv	a0,t3
    800067f2:	5b04                	lw	s1,48(a4)
    800067f4:	0211                	add	tp,tp,4 # bc98b658 <_tbss_end+0x3c982994>
    800067f6:	572c                	lw	a1,104(a4)
    800067f8:	d2ea                	sw	s10,100(sp)
    800067fa:	6495                	lui	s1,0x5
    800067fc:	be30                	fsd	fa2,120(a2)
    800067fe:	b63144f3          	.4byte	0xb63144f3
    80006802:	0e64                	add	s1,sp,796
    80006804:	8a9e                	mv	s5,t2
    80006806:	fd9646fb          	.4byte	0xfd9646fb
    8000680a:	4a86                	lw	s5,64(sp)
    8000680c:	d916                	sw	t0,176(sp)
    8000680e:	7b0a                	ld	s6,160(sp)
    80006810:	9418                	.2byte	0x9418
    80006812:	01a4                	add	s1,sp,200
    80006814:	e7fa                	sd	t5,456(sp)
    80006816:	7015                	c.lui	zero,0xfffe5
    80006818:	a050                	fsd	fa2,128(s0)
    8000681a:	03407643          	fmadd.d	fa2,ft0,fs4,ft0
    8000681e:	063e                	sll	a2,a2,0xf
    80006820:	85ea                	mv	a1,s10
    80006822:	4eec                	lw	a1,92(a3)
    80006824:	a95e                	fsd	fs7,144(sp)
    80006826:	3aef40f3          	.4byte	0x3aef40f3
    8000682a:	e62853a3          	vmsge.vx	v7,v2,a6
    8000682e:	7316                	ld	t1,352(sp)
    80006830:	2e160dbb          	.4byte	0x2e160dbb
    80006834:	452708a7          	vsuxseg3ei8.v	v17,(a4),v18,v0.t
    80006838:	9d30                	.2byte	0x9d30
    8000683a:	218e                	fld	ft3,192(sp)
    8000683c:	b11e                	fsd	ft7,160(sp)
    8000683e:	3f7c                	fld	fa5,248(a4)
    80006840:	8a44                	.2byte	0x8a44
    80006842:	19ad1def          	jal	s11,800d79dc <_tbss_end+0xced18>
    80006846:	61e4                	ld	s1,192(a1)
    80006848:	b8a4                	fsd	fs1,112(s1)
    8000684a:	b5d94e17          	auipc	t3,0xb5d94
    8000684e:	6728                	ld	a0,72(a4)
    80006850:	73e6                	ld	t2,120(sp)
    80006852:	57f4                	lw	a3,108(a5)
    80006854:	5cb5                	li	s9,-19
    80006856:	673824b3          	.4byte	0x673824b3
    8000685a:	452c                	lw	a1,72(a0)
    8000685c:	375ced43          	vmsge.vx	v26,v21,s9
    80006860:	2f3e                	fld	ft10,456(sp)
    80006862:	0f22                	sll	t5,t5,0x8
    80006864:	c5fc                	sw	a5,76(a1)
    80006866:	6b3d                	lui	s6,0xf
    80006868:	d05f 47da c656      	.byte	0x5f, 0xd0, 0xda, 0x47, 0x56, 0xc6
    8000686e:	189e                	sll	a7,a7,0x27
    80006870:	2f60                	fld	fs0,216(a4)
    80006872:	5eb9                	li	t4,-18
    80006874:	69c06c73          	csrrs	s8,0x69c,0
    80006878:	b6de                	fsd	fs7,360(sp)
    8000687a:	029e                	sll	t0,t0,0x7
    8000687c:	63bcc123          	vmsge.vx	v2,v27,s9
    80006880:	c1b4                	sw	a3,64(a1)
    80006882:	318b28bb          	.4byte	0x318b28bb
    80006886:	99334b27          	.4byte	0x99334b27
    8000688a:	7d19                	lui	s10,0xfffe6
    8000688c:	2e0b77ef          	jal	a5,800bdb6c <_tbss_end+0xb4ea8>
    80006890:	49777d6b          	.4byte	0x49777d6b
    80006894:	d426                	sw	s1,40(sp)
    80006896:	2d30                	fld	fa2,88(a0)
    80006898:	318c2ea3          	sw	s8,797(s8) # fffffffffffe431d <_tbss_end+0xffffffff7ffdb659>
    8000689c:	5faed877          	.4byte	0x5faed877
    800068a0:	f09c                	sd	a5,32(s1)
    800068a2:	00ad62fb          	.4byte	0xad62fb
    800068a6:	0174                	add	a3,sp,140
    800068a8:	6adf 5506 6f54      	.byte	0xdf, 0x6a, 0x06, 0x55, 0x54, 0x6f
    800068ae:	600e                	.2byte	0x600e
    800068b0:	c4ff 40b0 1040 00c4 	.byte	0xff, 0xc4, 0xb0, 0x40, 0x40, 0x10, 0xc4, 0x00, 0x52, 0xd2, 0x2b, 0x1b, 0x7a, 0xc7, 0x5f, 0x34, 0x44, 0x36
    800068b8:	d252 1b2b c77a 345f 
    800068c0:	3644 
    800068c2:	490671e7          	.4byte	0x490671e7
    800068c6:	526d                	li	tp,-5
    800068c8:	8909                	and	a0,a0,2
    800068ca:	743c                	ld	a5,104(s0)
    800068cc:	ffda                	sd	s6,504(sp)
    800068ce:	389f 5411 35e6      	.byte	0x9f, 0x38, 0x11, 0x54, 0xe6, 0x35
    800068d4:	91a6                	add	gp,gp,s1
    800068d6:	26402f2b          	.4byte	0x26402f2b
    800068da:	5e70                	lw	a2,124(a2)
    800068dc:	d928                	sw	a0,112(a0)
    800068de:	0c85                	add	s9,s9,1 # fffffffffffe7001 <_tbss_end+0xffffffff7ffde33d>
    800068e0:	422f2997          	auipc	s3,0x422f2
    800068e4:	a9d0                	fsd	fa2,144(a1)
    800068e6:	f68615bb          	.4byte	0xf68615bb
    800068ea:	0335                	add	t1,t1,13 # 1000d <buflen.1+0xffcd>
    800068ec:	9db6                	add	s11,s11,a3
    800068ee:	84d02e07          	flw	ft8,-1971(zero) # fffffffffffff84d <_tbss_end+0xffffffff7fff6b89>
    800068f2:	1c2d                	add	s8,s8,-21
    800068f4:	19f2                	sll	s3,s3,0x3c
    800068f6:	4396                	lw	t2,68(sp)
    800068f8:	663ef68b          	.4byte	0x663ef68b
    800068fc:	657f 5624 b757 5bdb 	.byte	0x7f, 0x65, 0x24, 0x56, 0x57, 0xb7, 0xdb, 0x5b, 0x11, 0x2c, 0xe4, 0x08, 0x8e, 0x70, 0xf0, 0x39, 0x40, 0x58, 0xd6, 0x70, 0xe3, 0x4a
    80006904:	2c11 08e4 708e 39f0 
    8000690c:	5840 70d6 4ae3 
    80006912:	5fae58ab          	.4byte	0x5fae58ab
    80006916:	2632                	fld	fa2,264(sp)
    80006918:	c65d                	beqz	a2,800069c6 <input_data+0x1f3e>
    8000691a:	57a2                	lw	a5,40(sp)
    8000691c:	afc1                	j	800070ec <scratch.0+0x4bc>
    8000691e:	4361268b          	.4byte	0x4361268b
    80006922:	3aea                	fld	fs5,184(sp)
    80006924:	eae5                	bnez	a3,80006a14 <input_data+0x1f8c>
    80006926:	29e8                	fld	fa0,208(a1)
    80006928:	9209                	srl	a2,a2,0x22
    8000692a:	687e                	ld	a6,472(sp)
    8000692c:	5c32                	lw	s8,44(sp)
    8000692e:	765e                	ld	a2,496(sp)
    80006930:	28ae                	fld	fa7,200(sp)
    80006932:	297c                	fld	fa5,208(a0)
    80006934:	fa95                	bnez	a3,80006868 <input_data+0x1de0>
    80006936:	6a49                	lui	s4,0x12
    80006938:	e729                	bnez	a4,80006982 <input_data+0x1efa>
    8000693a:	4e82                	lw	t4,0(sp)
    8000693c:	4cb0                	lw	a2,88(s1)
    8000693e:	689e                	ld	a7,448(sp)
    80006940:	b1ee                	fsd	fs11,224(sp)
    80006942:	83ba1fb7          	lui	t6,0x83ba1
    80006946:	3fbe                	fld	ft11,488(sp)
    80006948:	0ee21ec7          	.4byte	0xee21ec7
    8000694c:	1f407de7          	.4byte	0x1f407de7
    80006950:	8c8c                	.2byte	0x8c8c
    80006952:	2d2d                	addw	s10,s10,11 # fffffffffffe600b <_tbss_end+0xffffffff7ffdd347>
    80006954:	97d6                	add	a5,a5,s5
    80006956:	7db5                	lui	s11,0xfffed
    80006958:	37ea                	fld	fa5,184(sp)
    8000695a:	10d0240f          	.4byte	0x10d0240f
    8000695e:	7585                	lui	a1,0xfffe1
    80006960:	58ce                	lw	a7,240(sp)
    80006962:	5eaa                	lw	t4,168(sp)
    80006964:	4e8e                	lw	t4,192(sp)
    80006966:	76c05b67          	.4byte	0x76c05b67
    8000696a:	252c                	fld	fa1,72(a0)
    8000696c:	53c8cb9b          	.4byte	0x53c8cb9b
    80006970:	748d9613          	.4byte	0x748d9613
    80006974:	7651                	lui	a2,0xffff4
    80006976:	8c68408b          	.4byte	0x8c68408b
    8000697a:	52ac                	lw	a1,96(a3)
    8000697c:	86a9                	sra	a3,a3,0xa
    8000697e:	341a                	fld	fs0,416(sp)
    80006980:	d8ac                	sw	a1,112(s1)
    80006982:	5030                	lw	a2,96(s0)
    80006984:	45a55e33          	.4byte	0x45a55e33
    80006988:	3159                	addw	sp,sp,-10
    8000698a:	7782                	ld	a5,32(sp)
    8000698c:	27b1                	addw	a5,a5,12 # 1f8b700c <buflen.1+0x1f8b6fcc>
    8000698e:	43550df3          	.4byte	0x43550df3
    80006992:	1c36                	sll	s8,s8,0x2d
    80006994:	2ad8                	fld	fa4,144(a3)
    80006996:	2709                	addw	a4,a4,2
    80006998:	57cebc73          	csrrc	s8,0x57c,t4
    8000699c:	ed02                	sd	zero,152(sp)
    8000699e:	3b76                	fld	fs6,376(sp)
    800069a0:	2fcade4f          	.4byte	0x2fcade4f
    800069a4:	7a54488b          	.4byte	0x7a54488b
    800069a8:	e0a1                	bnez	s1,800069e8 <input_data+0x1f60>
    800069aa:	703e                	.2byte	0x703e
    800069ac:	eae8                	sd	a0,208(a3)
    800069ae:	0b10                	add	a2,sp,400
    800069b0:	52d9061b          	addw	a2,s2,1325
    800069b4:	ac6e                	fsd	fs11,24(sp)
    800069b6:	66d9                	lui	a3,0x16
    800069b8:	5b28                	lw	a0,112(a4)
    800069ba:	34cd                	addw	s1,s1,-13 # 4ff3 <buflen.1+0x4fb3>
    800069bc:	bd26                	fsd	fs1,184(sp)
    800069be:	3925                	addw	s2,s2,-23
    800069c0:	cbd4                	sw	a3,20(a5)
    800069c2:	7a70                	ld	a2,240(a2)
    800069c4:	b6cd                	j	800065a6 <input_data+0x1b1e>
    800069c6:	fc8e039b          	addw	t2,t3,-56 # 35d9a812 <buflen.1+0x35d9a7d2>
    800069ca:	5515                	li	a0,-27
    800069cc:	45288ea3          	sb	s2,1117(a7)
    800069d0:	c129                	beqz	a0,80006a12 <input_data+0x1f8a>
    800069d2:	a88b6cef          	jal	s9,7ffbcc5a <buflen.1+0x7ffbcc1a>
    800069d6:	53f8                	lw	a4,100(a5)
    800069d8:	1629                	add	a2,a2,-22 # ffffffffffff3fea <_tbss_end+0xffffffff7ffeb326>
    800069da:	6460                	ld	s0,200(s0)
    800069dc:	b922                	fsd	fs0,176(sp)
    800069de:	03ad                	add	t2,t2,11
    800069e0:	324f49f7          	.4byte	0x324f49f7
    800069e4:	bdbd                	j	80006862 <input_data+0x1dda>
    800069e6:	f6433c4b          	.4byte	0xf6433c4b
    800069ea:	5aad                	li	s5,-21
    800069ec:	5f29                	li	t5,-22
    800069ee:	5e48                	lw	a0,60(a2)
    800069f0:	2d7f 3618 1f55 7894 	.byte	0x7f, 0x2d, 0x18, 0x36, 0x55, 0x1f, 0x94, 0x78, 0xe7, 0xbc, 0x0f, 0x43, 0x04, 0x82
    800069f8:	bce7 430f 8204 
    800069fe:	4e34                	lw	a3,88(a2)
    80006a00:	c149                	beqz	a0,80006a82 <input_data+0x1ffa>
    80006a02:	fdf6576b          	.4byte	0xfdf6576b
    80006a06:	734b39d3          	.4byte	0x734b39d3
    80006a0a:	04d2                	sll	s1,s1,0x14
    80006a0c:	35e2                	fld	fa1,56(sp)
    80006a0e:	5625                	li	a2,-23
    80006a10:	a794                	fsd	fa3,8(a5)
    80006a12:	13fe                	sll	t2,t2,0x3f
    80006a14:	47e8                	lw	a0,76(a5)
    80006a16:	1e6d                	add	t3,t3,-5
    80006a18:	efda                	sd	s6,472(sp)
    80006a1a:	0588                	add	a0,sp,704
    80006a1c:	b61d                	j	80006542 <input_data+0x1aba>
    80006a1e:	6226                	ld	tp,72(sp)
    80006a20:	bb78                	fsd	fa4,240(a4)
    80006a22:	6266                	ld	tp,88(sp)
    80006a24:	5b668c23          	sb	s6,1464(a3) # 165b8 <buflen.1+0x16578>
    80006a28:	b0dc                	fsd	fa5,160(s1)
    80006a2a:	0ffa                	sll	t6,t6,0x1e
    80006a2c:	347e3b97          	auipc	s7,0x347e3
    80006a30:	465d649b          	.4byte	0x465d649b
    80006a34:	bc8d                	j	800064a6 <input_data+0x1a1e>
    80006a36:	6f59                	lui	t5,0x16
    80006a38:	685d77c3          	fmadd.s	fa5,fs10,ft5,fa3
    80006a3c:	9740                	vmsge.vx	v14,v0,ra,v0.t
    80006a3e:	17ed                	add	a5,a5,-5
    80006a40:	2c8c                	fld	fa1,24(s1)
    80006a42:	2031                	.2byte	0x2031
    80006a44:	a141                	j	80006ec4 <scratch.0+0x294>
    80006a46:	0f163cf7          	.4byte	0xf163cf7
    80006a4a:	1b81                	add	s7,s7,-32 # b47e9a0c <_tbss_end+0x347e0d48>
    80006a4c:	48deb2b3          	.4byte	0x48deb2b3
    80006a50:	1b350fbf 05a5ef07 	.8byte	0x5a5ef071b350fbf
    80006a58:	44f2                	lw	s1,28(sp)
    80006a5a:	4961                	li	s2,24
    80006a5c:	3900                	fld	fs0,48(a0)
    80006a5e:	a4257fdb          	.4byte	0xa4257fdb
    80006a62:	7329                	lui	t1,0xfffea
    80006a64:	12e0                	add	s0,sp,364
    80006a66:	c44211eb          	.4byte	0xc44211eb
    80006a6a:	7a88                	ld	a0,48(a3)
    80006a6c:	c985                	beqz	a1,80006a9c <input_data+0x2014>
    80006a6e:	3a76                	fld	fs4,376(sp)
    80006a70:	4e03cf67          	.4byte	0x4e03cf67
    80006a74:	e4c1                	bnez	s1,80006afc <input_data+0x2074>
    80006a76:	3c39                	addw	s8,s8,-18
    80006a78:	167d                	add	a2,a2,-1
    80006a7a:	5370                	lw	a2,100(a4)
    80006a7c:	36f5                	addw	a3,a3,-3
    80006a7e:	4896                	lw	a7,68(sp)
    80006a80:	66c0                	ld	s0,136(a3)
    80006a82:	37b6                	fld	fa5,360(sp)
    80006a84:	935e                	add	t1,t1,s7
    80006a86:	3460                	fld	fs0,232(s0)
