
dhry.elf:     file format elf32-littleriscv


Disassembly of section .text:

00000000 <_start>:
       0:	00018197          	auipc	gp,0x18
       4:	f3818193          	add	gp,gp,-200 # 17f38 <__global_pointer$>
       8:	82c18513          	add	a0,gp,-2004 # 17764 <Dhrystones_Per_Second>
       c:	0001a617          	auipc	a2,0x1a
      10:	fc460613          	add	a2,a2,-60 # 19fd0 <_end>
      14:	40a60633          	sub	a2,a2,a0
      18:	00000593          	li	a1,0
      1c:	48c000ef          	jal	4a8 <memset>
      20:	00008517          	auipc	a0,0x8
      24:	3e450513          	add	a0,a0,996 # 8404 <atexit>
      28:	00050863          	beqz	a0,38 <_start+0x38>
      2c:	00009517          	auipc	a0,0x9
      30:	a9c50513          	add	a0,a0,-1380 # 8ac8 <__libc_fini_array>
      34:	3d0080ef          	jal	8404 <atexit>
      38:	45d040ef          	jal	4c94 <__libc_init_array>
      3c:	00012503          	lw	a0,0(sp)
      40:	00410593          	add	a1,sp,4
      44:	00000613          	li	a2,0
      48:	44c040ef          	jal	4494 <main>
      4c:	4180406f          	j	4464 <exit>

00000050 <__do_global_dtors_aux>:
      50:	ff010113          	add	sp,sp,-16
      54:	00812423          	sw	s0,8(sp)
      58:	87c1c783          	lbu	a5,-1924(gp) # 177b4 <completed.1>
      5c:	00112623          	sw	ra,12(sp)
      60:	02079263          	bnez	a5,84 <__do_global_dtors_aux+0x34>
      64:	00000793          	li	a5,0
      68:	00078a63          	beqz	a5,7c <__do_global_dtors_aux+0x2c>
      6c:	00017537          	lui	a0,0x17
      70:	d8450513          	add	a0,a0,-636 # 16d84 <__EH_FRAME_BEGIN__>
      74:	00000097          	auipc	ra,0x0
      78:	000000e7          	jalr	zero # 0 <_start>
      7c:	00100793          	li	a5,1
      80:	86f18e23          	sb	a5,-1924(gp) # 177b4 <completed.1>
      84:	00c12083          	lw	ra,12(sp)
      88:	00812403          	lw	s0,8(sp)
      8c:	01010113          	add	sp,sp,16
      90:	00008067          	ret

00000094 <frame_dummy>:
      94:	00000793          	li	a5,0
      98:	00078c63          	beqz	a5,b0 <frame_dummy+0x1c>
      9c:	00017537          	lui	a0,0x17
      a0:	88018593          	add	a1,gp,-1920 # 177b8 <object.0>
      a4:	d8450513          	add	a0,a0,-636 # 16d84 <__EH_FRAME_BEGIN__>
      a8:	00000317          	auipc	t1,0x0
      ac:	00000067          	jr	zero # 0 <_start>
      b0:	00008067          	ret

000000b4 <Proc_1>:
      b4:	ff010113          	add	sp,sp,-16
      b8:	01212023          	sw	s2,0(sp)
      bc:	8601a783          	lw	a5,-1952(gp) # 17798 <Ptr_Glob>
      c0:	00812423          	sw	s0,8(sp)
      c4:	00052403          	lw	s0,0(a0)
      c8:	0007a683          	lw	a3,0(a5)
      cc:	0047af03          	lw	t5,4(a5)
      d0:	0087ae83          	lw	t4,8(a5)
      d4:	0107ae03          	lw	t3,16(a5)
      d8:	0147a303          	lw	t1,20(a5)
      dc:	0187a883          	lw	a7,24(a5)
      e0:	01c7a803          	lw	a6,28(a5)
      e4:	0287a603          	lw	a2,40(a5)
      e8:	02c7a703          	lw	a4,44(a5)
      ec:	0247a583          	lw	a1,36(a5)
      f0:	00112623          	sw	ra,12(sp)
      f4:	00912223          	sw	s1,4(sp)
      f8:	00050493          	mv	s1,a0
      fc:	0207a503          	lw	a0,32(a5)
     100:	00d42023          	sw	a3,0(s0)
     104:	0004a683          	lw	a3,0(s1)
     108:	01e42223          	sw	t5,4(s0)
     10c:	01d42423          	sw	t4,8(s0)
     110:	01c42823          	sw	t3,16(s0)
     114:	00642a23          	sw	t1,20(s0)
     118:	01142c23          	sw	a7,24(s0)
     11c:	01042e23          	sw	a6,28(s0)
     120:	02a42023          	sw	a0,32(s0)
     124:	02c42423          	sw	a2,40(s0)
     128:	02e42623          	sw	a4,44(s0)
     12c:	02b42223          	sw	a1,36(s0)
     130:	00500713          	li	a4,5
     134:	00e4a623          	sw	a4,12(s1)
     138:	00d42023          	sw	a3,0(s0)
     13c:	0007a783          	lw	a5,0(a5)
     140:	8581a583          	lw	a1,-1960(gp) # 17790 <Int_Glob>
     144:	00f42023          	sw	a5,0(s0)
     148:	8601a603          	lw	a2,-1952(gp) # 17798 <Ptr_Glob>
     14c:	00e42623          	sw	a4,12(s0)
     150:	00a00513          	li	a0,10
     154:	00c60613          	add	a2,a2,12
     158:	19c000ef          	jal	2f4 <Proc_7>
     15c:	00442783          	lw	a5,4(s0)
     160:	08078063          	beqz	a5,1e0 <Proc_1+0x12c>
     164:	0004a783          	lw	a5,0(s1)
     168:	00c12083          	lw	ra,12(sp)
     16c:	00812403          	lw	s0,8(sp)
     170:	0007af83          	lw	t6,0(a5)
     174:	0047af03          	lw	t5,4(a5)
     178:	0087ae83          	lw	t4,8(a5)
     17c:	00c7ae03          	lw	t3,12(a5)
     180:	0107a303          	lw	t1,16(a5)
     184:	0147a883          	lw	a7,20(a5)
     188:	0187a803          	lw	a6,24(a5)
     18c:	01c7a583          	lw	a1,28(a5)
     190:	0207a603          	lw	a2,32(a5)
     194:	0247a683          	lw	a3,36(a5)
     198:	0287a703          	lw	a4,40(a5)
     19c:	02c7a783          	lw	a5,44(a5)
     1a0:	01f4a023          	sw	t6,0(s1)
     1a4:	01e4a223          	sw	t5,4(s1)
     1a8:	01d4a423          	sw	t4,8(s1)
     1ac:	01c4a623          	sw	t3,12(s1)
     1b0:	0064a823          	sw	t1,16(s1)
     1b4:	0114aa23          	sw	a7,20(s1)
     1b8:	0104ac23          	sw	a6,24(s1)
     1bc:	00b4ae23          	sw	a1,28(s1)
     1c0:	02c4a023          	sw	a2,32(s1)
     1c4:	02d4a223          	sw	a3,36(s1)
     1c8:	02e4a423          	sw	a4,40(s1)
     1cc:	02f4a623          	sw	a5,44(s1)
     1d0:	00012903          	lw	s2,0(sp)
     1d4:	00412483          	lw	s1,4(sp)
     1d8:	01010113          	add	sp,sp,16
     1dc:	00008067          	ret
     1e0:	0084a503          	lw	a0,8(s1)
     1e4:	00600793          	li	a5,6
     1e8:	00840593          	add	a1,s0,8
     1ec:	00f42623          	sw	a5,12(s0)
     1f0:	0b4000ef          	jal	2a4 <Proc_6>
     1f4:	8601a783          	lw	a5,-1952(gp) # 17798 <Ptr_Glob>
     1f8:	00c42503          	lw	a0,12(s0)
     1fc:	00c40613          	add	a2,s0,12
     200:	0007a783          	lw	a5,0(a5)
     204:	00c12083          	lw	ra,12(sp)
     208:	00412483          	lw	s1,4(sp)
     20c:	00f42023          	sw	a5,0(s0)
     210:	00812403          	lw	s0,8(sp)
     214:	00012903          	lw	s2,0(sp)
     218:	00a00593          	li	a1,10
     21c:	01010113          	add	sp,sp,16
     220:	0d40006f          	j	2f4 <Proc_7>

00000224 <Proc_2>:
     224:	8511c703          	lbu	a4,-1967(gp) # 17789 <Ch_1_Glob>
     228:	04100793          	li	a5,65
     22c:	00f70463          	beq	a4,a5,234 <Proc_2+0x10>
     230:	00008067          	ret
     234:	00052783          	lw	a5,0(a0)
     238:	8581a703          	lw	a4,-1960(gp) # 17790 <Int_Glob>
     23c:	00978793          	add	a5,a5,9
     240:	40e787b3          	sub	a5,a5,a4
     244:	00f52023          	sw	a5,0(a0)
     248:	00008067          	ret

0000024c <Proc_3>:
     24c:	8601a603          	lw	a2,-1952(gp) # 17798 <Ptr_Glob>
     250:	00060863          	beqz	a2,260 <Proc_3+0x14>
     254:	00062703          	lw	a4,0(a2)
     258:	00e52023          	sw	a4,0(a0)
     25c:	8601a603          	lw	a2,-1952(gp) # 17798 <Ptr_Glob>
     260:	8581a583          	lw	a1,-1960(gp) # 17790 <Int_Glob>
     264:	00c60613          	add	a2,a2,12
     268:	00a00513          	li	a0,10
     26c:	0880006f          	j	2f4 <Proc_7>

00000270 <Proc_4>:
     270:	8511c783          	lbu	a5,-1967(gp) # 17789 <Ch_1_Glob>
     274:	8541a683          	lw	a3,-1964(gp) # 1778c <Bool_Glob>
     278:	fbf78793          	add	a5,a5,-65
     27c:	0017b793          	seqz	a5,a5
     280:	00d7e7b3          	or	a5,a5,a3
     284:	84f1aa23          	sw	a5,-1964(gp) # 1778c <Bool_Glob>
     288:	04200713          	li	a4,66
     28c:	84e18823          	sb	a4,-1968(gp) # 17788 <Ch_2_Glob>
     290:	00008067          	ret

00000294 <Proc_5>:
     294:	04100713          	li	a4,65
     298:	84e188a3          	sb	a4,-1967(gp) # 17789 <Ch_1_Glob>
     29c:	8401aa23          	sw	zero,-1964(gp) # 1778c <Bool_Glob>
     2a0:	00008067          	ret

000002a4 <Proc_6>:
     2a4:	00200793          	li	a5,2
     2a8:	04f50063          	beq	a0,a5,2e8 <Proc_6+0x44>
     2ac:	00300713          	li	a4,3
     2b0:	00e5a023          	sw	a4,0(a1)
     2b4:	00100713          	li	a4,1
     2b8:	00e50a63          	beq	a0,a4,2cc <Proc_6+0x28>
     2bc:	00400713          	li	a4,4
     2c0:	02e50063          	beq	a0,a4,2e0 <Proc_6+0x3c>
     2c4:	00050a63          	beqz	a0,2d8 <Proc_6+0x34>
     2c8:	00008067          	ret
     2cc:	8581a703          	lw	a4,-1960(gp) # 17790 <Int_Glob>
     2d0:	06400793          	li	a5,100
     2d4:	fee7dae3          	bge	a5,a4,2c8 <Proc_6+0x24>
     2d8:	0005a023          	sw	zero,0(a1)
     2dc:	00008067          	ret
     2e0:	00f5a023          	sw	a5,0(a1)
     2e4:	00008067          	ret
     2e8:	00100793          	li	a5,1
     2ec:	00f5a023          	sw	a5,0(a1)
     2f0:	00008067          	ret

000002f4 <Proc_7>:
     2f4:	00250513          	add	a0,a0,2
     2f8:	00b505b3          	add	a1,a0,a1
     2fc:	00b62023          	sw	a1,0(a2)
     300:	00008067          	ret

00000304 <Proc_8>:
     304:	00560713          	add	a4,a2,5
     308:	0c800813          	li	a6,200
     30c:	03070833          	mul	a6,a4,a6
     310:	00261613          	sll	a2,a2,0x2
     314:	00271793          	sll	a5,a4,0x2
     318:	00f50533          	add	a0,a0,a5
     31c:	00d52023          	sw	a3,0(a0)
     320:	06e52c23          	sw	a4,120(a0)
     324:	00d52223          	sw	a3,4(a0)
     328:	00c807b3          	add	a5,a6,a2
     32c:	00f587b3          	add	a5,a1,a5
     330:	0107a683          	lw	a3,16(a5)
     334:	00e7aa23          	sw	a4,20(a5)
     338:	00e7ac23          	sw	a4,24(a5)
     33c:	00168713          	add	a4,a3,1
     340:	00e7a823          	sw	a4,16(a5)
     344:	00052703          	lw	a4,0(a0)
     348:	010585b3          	add	a1,a1,a6
     34c:	00c585b3          	add	a1,a1,a2
     350:	000017b7          	lui	a5,0x1
     354:	00b787b3          	add	a5,a5,a1
     358:	fae7aa23          	sw	a4,-76(a5) # fb4 <__muldf3+0x1ec>
     35c:	00500713          	li	a4,5
     360:	84e1ac23          	sw	a4,-1960(gp) # 17790 <Int_Glob>
     364:	00008067          	ret

00000368 <Func_1>:
     368:	0ff57513          	zext.b	a0,a0
     36c:	0ff5f593          	zext.b	a1,a1
     370:	00b50663          	beq	a0,a1,37c <Func_1+0x14>
     374:	00000513          	li	a0,0
     378:	00008067          	ret
     37c:	84a188a3          	sb	a0,-1967(gp) # 17789 <Ch_1_Glob>
     380:	00100513          	li	a0,1
     384:	00008067          	ret

00000388 <Func_2>:
     388:	ff010113          	add	sp,sp,-16
     38c:	00112623          	sw	ra,12(sp)
     390:	00254783          	lbu	a5,2(a0)
     394:	0035c703          	lbu	a4,3(a1)
     398:	00000613          	li	a2,0
     39c:	00000693          	li	a3,0
     3a0:	02e78a63          	beq	a5,a4,3d4 <Func_2+0x4c>
     3a4:	00068463          	beqz	a3,3ac <Func_2+0x24>
     3a8:	84c188a3          	sb	a2,-1967(gp) # 17789 <Ch_1_Glob>
     3ac:	1d8000ef          	jal	584 <strcmp>
     3b0:	00000793          	li	a5,0
     3b4:	00a05863          	blez	a0,3c4 <Func_2+0x3c>
     3b8:	00a00713          	li	a4,10
     3bc:	84e1ac23          	sw	a4,-1960(gp) # 17790 <Int_Glob>
     3c0:	00100793          	li	a5,1
     3c4:	00c12083          	lw	ra,12(sp)
     3c8:	00078513          	mv	a0,a5
     3cc:	01010113          	add	sp,sp,16
     3d0:	00008067          	ret
     3d4:	00100693          	li	a3,1
     3d8:	00078613          	mv	a2,a5
     3dc:	fc5ff06f          	j	3a0 <Func_2+0x18>

000003e0 <Func_3>:
     3e0:	ffe50513          	add	a0,a0,-2
     3e4:	00153513          	seqz	a0,a0
     3e8:	00008067          	ret

000003ec <time>:
     3ec:	c0002573          	rdcycle	a0
     3f0:	00008067          	ret

000003f4 <insn>:
     3f4:	c0202573          	rdinstret	a0
     3f8:	00008067          	ret

000003fc <_access>:
     3fc:	0040006f          	j	400 <unimplemented_syscall>

00000400 <unimplemented_syscall>:
     400:	000157b7          	lui	a5,0x15
     404:	edc78793          	add	a5,a5,-292 # 14edc <_getpid_r+0x5c0>
     408:	05500713          	li	a4,85
     40c:	100006b7          	lui	a3,0x10000
     410:	00178793          	add	a5,a5,1
     414:	00e6a023          	sw	a4,0(a3) # 10000000 <_end+0xffe6030>
     418:	0007c703          	lbu	a4,0(a5)
     41c:	fe071ae3          	bnez	a4,410 <unimplemented_syscall+0x10>
     420:	00100073          	ebreak

00000424 <_read>:
     424:	00000513          	li	a0,0
     428:	00008067          	ret

0000042c <_write>:
     42c:	00c58733          	add	a4,a1,a2
     430:	00060513          	mv	a0,a2
     434:	00e58c63          	beq	a1,a4,44c <_write+0x20>
     438:	100006b7          	lui	a3,0x10000
     43c:	0005c783          	lbu	a5,0(a1)
     440:	00158593          	add	a1,a1,1
     444:	00f6a023          	sw	a5,0(a3) # 10000000 <_end+0xffe6030>
     448:	feb71ae3          	bne	a4,a1,43c <_write+0x10>
     44c:	00008067          	ret

00000450 <_close>:
     450:	00000513          	li	a0,0
     454:	00008067          	ret

00000458 <_fstat>:
     458:	ff010113          	add	sp,sp,-16
     45c:	00112623          	sw	ra,12(sp)
     460:	02d040ef          	jal	4c8c <__errno>
     464:	00c12083          	lw	ra,12(sp)
     468:	00200793          	li	a5,2
     46c:	00f52023          	sw	a5,0(a0)
     470:	fff00513          	li	a0,-1
     474:	01010113          	add	sp,sp,16
     478:	00008067          	ret

0000047c <_sbrk>:
     47c:	8641a703          	lw	a4,-1948(gp) # 1779c <heap_end.0>
     480:	00050793          	mv	a5,a0
     484:	00070513          	mv	a0,a4
     488:	00071863          	bnez	a4,498 <_sbrk+0x1c>
     48c:	0001a537          	lui	a0,0x1a
     490:	fd050713          	add	a4,a0,-48 # 19fd0 <_end>
     494:	fd050513          	add	a0,a0,-48
     498:	00e787b3          	add	a5,a5,a4
     49c:	86f1a223          	sw	a5,-1948(gp) # 1779c <heap_end.0>
     4a0:	00008067          	ret

000004a4 <_exit>:
     4a4:	00100073          	ebreak

000004a8 <memset>:
     4a8:	00f00313          	li	t1,15
     4ac:	00050713          	mv	a4,a0
     4b0:	02c37e63          	bgeu	t1,a2,4ec <memset+0x44>
     4b4:	00f77793          	and	a5,a4,15
     4b8:	0a079063          	bnez	a5,558 <memset+0xb0>
     4bc:	08059263          	bnez	a1,540 <memset+0x98>
     4c0:	ff067693          	and	a3,a2,-16
     4c4:	00f67613          	and	a2,a2,15
     4c8:	00e686b3          	add	a3,a3,a4
     4cc:	00b72023          	sw	a1,0(a4)
     4d0:	00b72223          	sw	a1,4(a4)
     4d4:	00b72423          	sw	a1,8(a4)
     4d8:	00b72623          	sw	a1,12(a4)
     4dc:	01070713          	add	a4,a4,16
     4e0:	fed766e3          	bltu	a4,a3,4cc <memset+0x24>
     4e4:	00061463          	bnez	a2,4ec <memset+0x44>
     4e8:	00008067          	ret
     4ec:	40c306b3          	sub	a3,t1,a2
     4f0:	00269693          	sll	a3,a3,0x2
     4f4:	00000297          	auipc	t0,0x0
     4f8:	005686b3          	add	a3,a3,t0
     4fc:	00c68067          	jr	12(a3)
     500:	00b70723          	sb	a1,14(a4)
     504:	00b706a3          	sb	a1,13(a4)
     508:	00b70623          	sb	a1,12(a4)
     50c:	00b705a3          	sb	a1,11(a4)
     510:	00b70523          	sb	a1,10(a4)
     514:	00b704a3          	sb	a1,9(a4)
     518:	00b70423          	sb	a1,8(a4)
     51c:	00b703a3          	sb	a1,7(a4)
     520:	00b70323          	sb	a1,6(a4)
     524:	00b702a3          	sb	a1,5(a4)
     528:	00b70223          	sb	a1,4(a4)
     52c:	00b701a3          	sb	a1,3(a4)
     530:	00b70123          	sb	a1,2(a4)
     534:	00b700a3          	sb	a1,1(a4)
     538:	00b70023          	sb	a1,0(a4)
     53c:	00008067          	ret
     540:	0ff5f593          	zext.b	a1,a1
     544:	00859693          	sll	a3,a1,0x8
     548:	00d5e5b3          	or	a1,a1,a3
     54c:	01059693          	sll	a3,a1,0x10
     550:	00d5e5b3          	or	a1,a1,a3
     554:	f6dff06f          	j	4c0 <memset+0x18>
     558:	00279693          	sll	a3,a5,0x2
     55c:	00000297          	auipc	t0,0x0
     560:	005686b3          	add	a3,a3,t0
     564:	00008293          	mv	t0,ra
     568:	fa0680e7          	jalr	-96(a3)
     56c:	00028093          	mv	ra,t0
     570:	ff078793          	add	a5,a5,-16
     574:	40f70733          	sub	a4,a4,a5
     578:	00f60633          	add	a2,a2,a5
     57c:	f6c378e3          	bgeu	t1,a2,4ec <memset+0x44>
     580:	f3dff06f          	j	4bc <memset+0x14>

00000584 <strcmp>:
     584:	00b56733          	or	a4,a0,a1
     588:	fff00393          	li	t2,-1
     58c:	00377713          	and	a4,a4,3
     590:	10071063          	bnez	a4,690 <strcmp+0x10c>
     594:	7f7f87b7          	lui	a5,0x7f7f8
     598:	f7f78793          	add	a5,a5,-129 # 7f7f7f7f <_end+0x7f7ddfaf>
     59c:	00052603          	lw	a2,0(a0)
     5a0:	0005a683          	lw	a3,0(a1)
     5a4:	00f672b3          	and	t0,a2,a5
     5a8:	00f66333          	or	t1,a2,a5
     5ac:	00f282b3          	add	t0,t0,a5
     5b0:	0062e2b3          	or	t0,t0,t1
     5b4:	10729263          	bne	t0,t2,6b8 <strcmp+0x134>
     5b8:	08d61663          	bne	a2,a3,644 <strcmp+0xc0>
     5bc:	00452603          	lw	a2,4(a0)
     5c0:	0045a683          	lw	a3,4(a1)
     5c4:	00f672b3          	and	t0,a2,a5
     5c8:	00f66333          	or	t1,a2,a5
     5cc:	00f282b3          	add	t0,t0,a5
     5d0:	0062e2b3          	or	t0,t0,t1
     5d4:	0c729e63          	bne	t0,t2,6b0 <strcmp+0x12c>
     5d8:	06d61663          	bne	a2,a3,644 <strcmp+0xc0>
     5dc:	00852603          	lw	a2,8(a0)
     5e0:	0085a683          	lw	a3,8(a1)
     5e4:	00f672b3          	and	t0,a2,a5
     5e8:	00f66333          	or	t1,a2,a5
     5ec:	00f282b3          	add	t0,t0,a5
     5f0:	0062e2b3          	or	t0,t0,t1
     5f4:	0c729863          	bne	t0,t2,6c4 <strcmp+0x140>
     5f8:	04d61663          	bne	a2,a3,644 <strcmp+0xc0>
     5fc:	00c52603          	lw	a2,12(a0)
     600:	00c5a683          	lw	a3,12(a1)
     604:	00f672b3          	and	t0,a2,a5
     608:	00f66333          	or	t1,a2,a5
     60c:	00f282b3          	add	t0,t0,a5
     610:	0062e2b3          	or	t0,t0,t1
     614:	0c729263          	bne	t0,t2,6d8 <strcmp+0x154>
     618:	02d61663          	bne	a2,a3,644 <strcmp+0xc0>
     61c:	01052603          	lw	a2,16(a0)
     620:	0105a683          	lw	a3,16(a1)
     624:	00f672b3          	and	t0,a2,a5
     628:	00f66333          	or	t1,a2,a5
     62c:	00f282b3          	add	t0,t0,a5
     630:	0062e2b3          	or	t0,t0,t1
     634:	0a729c63          	bne	t0,t2,6ec <strcmp+0x168>
     638:	01450513          	add	a0,a0,20
     63c:	01458593          	add	a1,a1,20
     640:	f4d60ee3          	beq	a2,a3,59c <strcmp+0x18>
     644:	01061713          	sll	a4,a2,0x10
     648:	01069793          	sll	a5,a3,0x10
     64c:	00f71e63          	bne	a4,a5,668 <strcmp+0xe4>
     650:	01065713          	srl	a4,a2,0x10
     654:	0106d793          	srl	a5,a3,0x10
     658:	40f70533          	sub	a0,a4,a5
     65c:	0ff57593          	zext.b	a1,a0
     660:	02059063          	bnez	a1,680 <strcmp+0xfc>
     664:	00008067          	ret
     668:	01075713          	srl	a4,a4,0x10
     66c:	0107d793          	srl	a5,a5,0x10
     670:	40f70533          	sub	a0,a4,a5
     674:	0ff57593          	zext.b	a1,a0
     678:	00059463          	bnez	a1,680 <strcmp+0xfc>
     67c:	00008067          	ret
     680:	0ff77713          	zext.b	a4,a4
     684:	0ff7f793          	zext.b	a5,a5
     688:	40f70533          	sub	a0,a4,a5
     68c:	00008067          	ret
     690:	00054603          	lbu	a2,0(a0)
     694:	0005c683          	lbu	a3,0(a1)
     698:	00150513          	add	a0,a0,1
     69c:	00158593          	add	a1,a1,1
     6a0:	00d61463          	bne	a2,a3,6a8 <strcmp+0x124>
     6a4:	fe0616e3          	bnez	a2,690 <strcmp+0x10c>
     6a8:	40d60533          	sub	a0,a2,a3
     6ac:	00008067          	ret
     6b0:	00450513          	add	a0,a0,4
     6b4:	00458593          	add	a1,a1,4
     6b8:	fcd61ce3          	bne	a2,a3,690 <strcmp+0x10c>
     6bc:	00000513          	li	a0,0
     6c0:	00008067          	ret
     6c4:	00850513          	add	a0,a0,8
     6c8:	00858593          	add	a1,a1,8
     6cc:	fcd612e3          	bne	a2,a3,690 <strcmp+0x10c>
     6d0:	00000513          	li	a0,0
     6d4:	00008067          	ret
     6d8:	00c50513          	add	a0,a0,12
     6dc:	00c58593          	add	a1,a1,12
     6e0:	fad618e3          	bne	a2,a3,690 <strcmp+0x10c>
     6e4:	00000513          	li	a0,0
     6e8:	00008067          	ret
     6ec:	01050513          	add	a0,a0,16
     6f0:	01058593          	add	a1,a1,16
     6f4:	f8d61ee3          	bne	a2,a3,690 <strcmp+0x10c>
     6f8:	00000513          	li	a0,0
     6fc:	00008067          	ret

00000700 <__divdf3>:
     700:	fd010113          	add	sp,sp,-48
     704:	01712623          	sw	s7,12(sp)
     708:	00060b93          	mv	s7,a2
     70c:	0145d613          	srl	a2,a1,0x14
     710:	02812423          	sw	s0,40(sp)
     714:	03212023          	sw	s2,32(sp)
     718:	01312e23          	sw	s3,28(sp)
     71c:	01612823          	sw	s6,16(sp)
     720:	00c59413          	sll	s0,a1,0xc
     724:	02112623          	sw	ra,44(sp)
     728:	02912223          	sw	s1,36(sp)
     72c:	01412c23          	sw	s4,24(sp)
     730:	01512a23          	sw	s5,20(sp)
     734:	7ff67613          	and	a2,a2,2047
     738:	00050b13          	mv	s6,a0
     73c:	00068913          	mv	s2,a3
     740:	00c45413          	srl	s0,s0,0xc
     744:	01f5d993          	srl	s3,a1,0x1f
     748:	0a060063          	beqz	a2,7e8 <__divdf3+0xe8>
     74c:	7ff00793          	li	a5,2047
     750:	10f60063          	beq	a2,a5,850 <__divdf3+0x150>
     754:	01d55693          	srl	a3,a0,0x1d
     758:	00341413          	sll	s0,s0,0x3
     75c:	0086e6b3          	or	a3,a3,s0
     760:	008007b7          	lui	a5,0x800
     764:	00f6ea33          	or	s4,a3,a5
     768:	00351493          	sll	s1,a0,0x3
     76c:	c0160a93          	add	s5,a2,-1023
     770:	00000b13          	li	s6,0
     774:	01495793          	srl	a5,s2,0x14
     778:	00c91413          	sll	s0,s2,0xc
     77c:	7ff7f793          	and	a5,a5,2047
     780:	00c45413          	srl	s0,s0,0xc
     784:	01f95913          	srl	s2,s2,0x1f
     788:	10078263          	beqz	a5,88c <__divdf3+0x18c>
     78c:	7ff00713          	li	a4,2047
     790:	16e78663          	beq	a5,a4,8fc <__divdf3+0x1fc>
     794:	00341413          	sll	s0,s0,0x3
     798:	01dbd713          	srl	a4,s7,0x1d
     79c:	00876733          	or	a4,a4,s0
     7a0:	00800437          	lui	s0,0x800
     7a4:	00876433          	or	s0,a4,s0
     7a8:	003b9f13          	sll	t5,s7,0x3
     7ac:	c0178693          	add	a3,a5,-1023 # 7ffc01 <_end+0x7e5c31>
     7b0:	00000593          	li	a1,0
     7b4:	002b1793          	sll	a5,s6,0x2
     7b8:	00b7e7b3          	or	a5,a5,a1
     7bc:	40da8633          	sub	a2,s5,a3
     7c0:	fff78793          	add	a5,a5,-1
     7c4:	00e00693          	li	a3,14
     7c8:	0129c733          	xor	a4,s3,s2
     7cc:	18f6ec63          	bltu	a3,a5,964 <__divdf3+0x264>
     7d0:	000166b7          	lui	a3,0x16
     7d4:	00279793          	sll	a5,a5,0x2
     7d8:	c4868693          	add	a3,a3,-952 # 15c48 <_ctype_+0x104>
     7dc:	00d787b3          	add	a5,a5,a3
     7e0:	0007a783          	lw	a5,0(a5)
     7e4:	00078067          	jr	a5
     7e8:	00a46a33          	or	s4,s0,a0
     7ec:	080a0063          	beqz	s4,86c <__divdf3+0x16c>
     7f0:	02040e63          	beqz	s0,82c <__divdf3+0x12c>
     7f4:	00040513          	mv	a0,s0
     7f8:	421030ef          	jal	4418 <__clzsi2>
     7fc:	ff550793          	add	a5,a0,-11
     800:	01d00693          	li	a3,29
     804:	ff850713          	add	a4,a0,-8
     808:	40f686b3          	sub	a3,a3,a5
     80c:	00e41433          	sll	s0,s0,a4
     810:	00db56b3          	srl	a3,s6,a3
     814:	0086ea33          	or	s4,a3,s0
     818:	00eb1433          	sll	s0,s6,a4
     81c:	c0d00613          	li	a2,-1011
     820:	40a60ab3          	sub	s5,a2,a0
     824:	00040493          	mv	s1,s0
     828:	f49ff06f          	j	770 <__divdf3+0x70>
     82c:	3ed030ef          	jal	4418 <__clzsi2>
     830:	00050a13          	mv	s4,a0
     834:	015a0793          	add	a5,s4,21
     838:	01c00713          	li	a4,28
     83c:	02050513          	add	a0,a0,32
     840:	fcf750e3          	bge	a4,a5,800 <__divdf3+0x100>
     844:	ff8a0a13          	add	s4,s4,-8
     848:	014b1a33          	sll	s4,s6,s4
     84c:	fd1ff06f          	j	81c <__divdf3+0x11c>
     850:	00a46a33          	or	s4,s0,a0
     854:	020a0463          	beqz	s4,87c <__divdf3+0x17c>
     858:	00050493          	mv	s1,a0
     85c:	00040a13          	mv	s4,s0
     860:	7ff00a93          	li	s5,2047
     864:	00300b13          	li	s6,3
     868:	f0dff06f          	j	774 <__divdf3+0x74>
     86c:	00000493          	li	s1,0
     870:	00000a93          	li	s5,0
     874:	00100b13          	li	s6,1
     878:	efdff06f          	j	774 <__divdf3+0x74>
     87c:	00000493          	li	s1,0
     880:	7ff00a93          	li	s5,2047
     884:	00200b13          	li	s6,2
     888:	eedff06f          	j	774 <__divdf3+0x74>
     88c:	01746f33          	or	t5,s0,s7
     890:	080f0263          	beqz	t5,914 <__divdf3+0x214>
     894:	04040063          	beqz	s0,8d4 <__divdf3+0x1d4>
     898:	00040513          	mv	a0,s0
     89c:	37d030ef          	jal	4418 <__clzsi2>
     8a0:	ff550713          	add	a4,a0,-11
     8a4:	01d00793          	li	a5,29
     8a8:	ff850693          	add	a3,a0,-8
     8ac:	40e787b3          	sub	a5,a5,a4
     8b0:	00d41433          	sll	s0,s0,a3
     8b4:	00fbd7b3          	srl	a5,s7,a5
     8b8:	0087e7b3          	or	a5,a5,s0
     8bc:	00db9433          	sll	s0,s7,a3
     8c0:	c0d00693          	li	a3,-1011
     8c4:	00040f13          	mv	t5,s0
     8c8:	40a686b3          	sub	a3,a3,a0
     8cc:	00078413          	mv	s0,a5
     8d0:	ee1ff06f          	j	7b0 <__divdf3+0xb0>
     8d4:	000b8513          	mv	a0,s7
     8d8:	341030ef          	jal	4418 <__clzsi2>
     8dc:	00050793          	mv	a5,a0
     8e0:	01578713          	add	a4,a5,21
     8e4:	01c00693          	li	a3,28
     8e8:	02050513          	add	a0,a0,32
     8ec:	fae6dce3          	bge	a3,a4,8a4 <__divdf3+0x1a4>
     8f0:	ff878793          	add	a5,a5,-8
     8f4:	00fb97b3          	sll	a5,s7,a5
     8f8:	fc9ff06f          	j	8c0 <__divdf3+0x1c0>
     8fc:	01746f33          	or	t5,s0,s7
     900:	020f0263          	beqz	t5,924 <__divdf3+0x224>
     904:	000b8f13          	mv	t5,s7
     908:	7ff00693          	li	a3,2047
     90c:	00300593          	li	a1,3
     910:	ea5ff06f          	j	7b4 <__divdf3+0xb4>
     914:	00000413          	li	s0,0
     918:	00000693          	li	a3,0
     91c:	00100593          	li	a1,1
     920:	e95ff06f          	j	7b4 <__divdf3+0xb4>
     924:	00000413          	li	s0,0
     928:	7ff00693          	li	a3,2047
     92c:	00200593          	li	a1,2
     930:	e85ff06f          	j	7b4 <__divdf3+0xb4>
     934:	00098713          	mv	a4,s3
     938:	000a0413          	mv	s0,s4
     93c:	00048f13          	mv	t5,s1
     940:	00200793          	li	a5,2
     944:	46fb0263          	beq	s6,a5,da8 <__divdf3+0x6a8>
     948:	00300793          	li	a5,3
     94c:	44fb0463          	beq	s6,a5,d94 <__divdf3+0x694>
     950:	00100793          	li	a5,1
     954:	2cfb1263          	bne	s6,a5,c18 <__divdf3+0x518>
     958:	00000413          	li	s0,0
     95c:	00000693          	li	a3,0
     960:	3f80006f          	j	d58 <__divdf3+0x658>
     964:	01446663          	bltu	s0,s4,970 <__divdf3+0x270>
     968:	348a1e63          	bne	s4,s0,cc4 <__divdf3+0x5c4>
     96c:	35e4ec63          	bltu	s1,t5,cc4 <__divdf3+0x5c4>
     970:	01fa1693          	sll	a3,s4,0x1f
     974:	0014d793          	srl	a5,s1,0x1
     978:	01f49313          	sll	t1,s1,0x1f
     97c:	001a5a13          	srl	s4,s4,0x1
     980:	00f6e4b3          	or	s1,a3,a5
     984:	00841413          	sll	s0,s0,0x8
     988:	01045893          	srl	a7,s0,0x10
     98c:	031a5eb3          	divu	t4,s4,a7
     990:	018f5593          	srl	a1,t5,0x18
     994:	0085e5b3          	or	a1,a1,s0
     998:	01059813          	sll	a6,a1,0x10
     99c:	01085813          	srl	a6,a6,0x10
     9a0:	0104d793          	srl	a5,s1,0x10
     9a4:	008f1513          	sll	a0,t5,0x8
     9a8:	031a76b3          	remu	a3,s4,a7
     9ac:	03d80e33          	mul	t3,a6,t4
     9b0:	01069693          	sll	a3,a3,0x10
     9b4:	00d7e7b3          	or	a5,a5,a3
     9b8:	000e8693          	mv	a3,t4
     9bc:	01c7fe63          	bgeu	a5,t3,9d8 <__divdf3+0x2d8>
     9c0:	00f587b3          	add	a5,a1,a5
     9c4:	fffe8693          	add	a3,t4,-1
     9c8:	00b7e863          	bltu	a5,a1,9d8 <__divdf3+0x2d8>
     9cc:	01c7f663          	bgeu	a5,t3,9d8 <__divdf3+0x2d8>
     9d0:	ffee8693          	add	a3,t4,-2
     9d4:	00b787b3          	add	a5,a5,a1
     9d8:	41c787b3          	sub	a5,a5,t3
     9dc:	0317deb3          	divu	t4,a5,a7
     9e0:	01049493          	sll	s1,s1,0x10
     9e4:	0104d493          	srl	s1,s1,0x10
     9e8:	0317f7b3          	remu	a5,a5,a7
     9ec:	03d80e33          	mul	t3,a6,t4
     9f0:	01079793          	sll	a5,a5,0x10
     9f4:	00f4e4b3          	or	s1,s1,a5
     9f8:	000e8793          	mv	a5,t4
     9fc:	01c4fe63          	bgeu	s1,t3,a18 <__divdf3+0x318>
     a00:	009584b3          	add	s1,a1,s1
     a04:	fffe8793          	add	a5,t4,-1
     a08:	00b4e863          	bltu	s1,a1,a18 <__divdf3+0x318>
     a0c:	01c4f663          	bgeu	s1,t3,a18 <__divdf3+0x318>
     a10:	ffee8793          	add	a5,t4,-2
     a14:	00b484b3          	add	s1,s1,a1
     a18:	01069693          	sll	a3,a3,0x10
     a1c:	000103b7          	lui	t2,0x10
     a20:	00f6efb3          	or	t6,a3,a5
     a24:	41c484b3          	sub	s1,s1,t3
     a28:	fff38e13          	add	t3,t2,-1 # ffff <_svfprintf_r+0x198f>
     a2c:	01cff7b3          	and	a5,t6,t3
     a30:	010fdf13          	srl	t5,t6,0x10
     a34:	01055e93          	srl	t4,a0,0x10
     a38:	01c57e33          	and	t3,a0,t3
     a3c:	02fe02b3          	mul	t0,t3,a5
     a40:	03cf0433          	mul	s0,t5,t3
     a44:	0102d693          	srl	a3,t0,0x10
     a48:	02fe87b3          	mul	a5,t4,a5
     a4c:	008787b3          	add	a5,a5,s0
     a50:	00f686b3          	add	a3,a3,a5
     a54:	03df0f33          	mul	t5,t5,t4
     a58:	0086f463          	bgeu	a3,s0,a60 <__divdf3+0x360>
     a5c:	007f0f33          	add	t5,t5,t2
     a60:	0106d793          	srl	a5,a3,0x10
     a64:	01e787b3          	add	a5,a5,t5
     a68:	00010f37          	lui	t5,0x10
     a6c:	ffff0f13          	add	t5,t5,-1 # ffff <_svfprintf_r+0x198f>
     a70:	01e6f6b3          	and	a3,a3,t5
     a74:	01069693          	sll	a3,a3,0x10
     a78:	01e2f2b3          	and	t0,t0,t5
     a7c:	005686b3          	add	a3,a3,t0
     a80:	00f4e863          	bltu	s1,a5,a90 <__divdf3+0x390>
     a84:	000f8413          	mv	s0,t6
     a88:	04f49863          	bne	s1,a5,ad8 <__divdf3+0x3d8>
     a8c:	04d37663          	bgeu	t1,a3,ad8 <__divdf3+0x3d8>
     a90:	00a30f33          	add	t5,t1,a0
     a94:	006f32b3          	sltu	t0,t5,t1
     a98:	00b283b3          	add	t2,t0,a1
     a9c:	007484b3          	add	s1,s1,t2
     aa0:	ffff8413          	add	s0,t6,-1
     aa4:	000f0313          	mv	t1,t5
     aa8:	0095e663          	bltu	a1,s1,ab4 <__divdf3+0x3b4>
     aac:	02959663          	bne	a1,s1,ad8 <__divdf3+0x3d8>
     ab0:	02029463          	bnez	t0,ad8 <__divdf3+0x3d8>
     ab4:	00f4e663          	bltu	s1,a5,ac0 <__divdf3+0x3c0>
     ab8:	02979063          	bne	a5,s1,ad8 <__divdf3+0x3d8>
     abc:	00df7e63          	bgeu	t5,a3,ad8 <__divdf3+0x3d8>
     ac0:	01e50f33          	add	t5,a0,t5
     ac4:	000f0313          	mv	t1,t5
     ac8:	00af3f33          	sltu	t5,t5,a0
     acc:	00bf0f33          	add	t5,t5,a1
     ad0:	ffef8413          	add	s0,t6,-2
     ad4:	01e484b3          	add	s1,s1,t5
     ad8:	40d306b3          	sub	a3,t1,a3
     adc:	40f484b3          	sub	s1,s1,a5
     ae0:	00d33333          	sltu	t1,t1,a3
     ae4:	406484b3          	sub	s1,s1,t1
     ae8:	fff00f13          	li	t5,-1
     aec:	12958663          	beq	a1,s1,c18 <__divdf3+0x518>
     af0:	0314dfb3          	divu	t6,s1,a7
     af4:	0106d793          	srl	a5,a3,0x10
     af8:	0314f4b3          	remu	s1,s1,a7
     afc:	000f8313          	mv	t1,t6
     b00:	03f80f33          	mul	t5,a6,t6
     b04:	01049493          	sll	s1,s1,0x10
     b08:	0097e7b3          	or	a5,a5,s1
     b0c:	01e7fe63          	bgeu	a5,t5,b28 <__divdf3+0x428>
     b10:	00f587b3          	add	a5,a1,a5
     b14:	ffff8313          	add	t1,t6,-1
     b18:	00b7e863          	bltu	a5,a1,b28 <__divdf3+0x428>
     b1c:	01e7f663          	bgeu	a5,t5,b28 <__divdf3+0x428>
     b20:	ffef8313          	add	t1,t6,-2
     b24:	00b787b3          	add	a5,a5,a1
     b28:	41e787b3          	sub	a5,a5,t5
     b2c:	0317df33          	divu	t5,a5,a7
     b30:	01069693          	sll	a3,a3,0x10
     b34:	0106d693          	srl	a3,a3,0x10
     b38:	0317f7b3          	remu	a5,a5,a7
     b3c:	03e80833          	mul	a6,a6,t5
     b40:	01079793          	sll	a5,a5,0x10
     b44:	00f6e7b3          	or	a5,a3,a5
     b48:	000f0693          	mv	a3,t5
     b4c:	0107fe63          	bgeu	a5,a6,b68 <__divdf3+0x468>
     b50:	00f587b3          	add	a5,a1,a5
     b54:	ffff0693          	add	a3,t5,-1
     b58:	00b7e863          	bltu	a5,a1,b68 <__divdf3+0x468>
     b5c:	0107f663          	bgeu	a5,a6,b68 <__divdf3+0x468>
     b60:	ffef0693          	add	a3,t5,-2
     b64:	00b787b3          	add	a5,a5,a1
     b68:	01031313          	sll	t1,t1,0x10
     b6c:	00d36333          	or	t1,t1,a3
     b70:	01031693          	sll	a3,t1,0x10
     b74:	0106d693          	srl	a3,a3,0x10
     b78:	01035893          	srl	a7,t1,0x10
     b7c:	03c68f33          	mul	t5,a3,t3
     b80:	410787b3          	sub	a5,a5,a6
     b84:	03c88e33          	mul	t3,a7,t3
     b88:	031e88b3          	mul	a7,t4,a7
     b8c:	02de8eb3          	mul	t4,t4,a3
     b90:	010f5693          	srl	a3,t5,0x10
     b94:	01ce8eb3          	add	t4,t4,t3
     b98:	01d686b3          	add	a3,a3,t4
     b9c:	01c6f663          	bgeu	a3,t3,ba8 <__divdf3+0x4a8>
     ba0:	00010837          	lui	a6,0x10
     ba4:	010888b3          	add	a7,a7,a6
     ba8:	0106d813          	srl	a6,a3,0x10
     bac:	01180833          	add	a6,a6,a7
     bb0:	000108b7          	lui	a7,0x10
     bb4:	fff88893          	add	a7,a7,-1 # ffff <_svfprintf_r+0x198f>
     bb8:	0116f6b3          	and	a3,a3,a7
     bbc:	01069693          	sll	a3,a3,0x10
     bc0:	011f7f33          	and	t5,t5,a7
     bc4:	01e686b3          	add	a3,a3,t5
     bc8:	0107e863          	bltu	a5,a6,bd8 <__divdf3+0x4d8>
     bcc:	00030f13          	mv	t5,t1
     bd0:	05079263          	bne	a5,a6,c14 <__divdf3+0x514>
     bd4:	04068263          	beqz	a3,c18 <__divdf3+0x518>
     bd8:	00f587b3          	add	a5,a1,a5
     bdc:	fff30f13          	add	t5,t1,-1 # a7 <frame_dummy+0x13>
     be0:	00078893          	mv	a7,a5
     be4:	02b7e463          	bltu	a5,a1,c0c <__divdf3+0x50c>
     be8:	0107e663          	bltu	a5,a6,bf4 <__divdf3+0x4f4>
     bec:	03079463          	bne	a5,a6,c14 <__divdf3+0x514>
     bf0:	02d57063          	bgeu	a0,a3,c10 <__divdf3+0x510>
     bf4:	ffe30f13          	add	t5,t1,-2
     bf8:	00151313          	sll	t1,a0,0x1
     bfc:	00a338b3          	sltu	a7,t1,a0
     c00:	00b888b3          	add	a7,a7,a1
     c04:	011788b3          	add	a7,a5,a7
     c08:	00030513          	mv	a0,t1
     c0c:	01089463          	bne	a7,a6,c14 <__divdf3+0x514>
     c10:	00a68463          	beq	a3,a0,c18 <__divdf3+0x518>
     c14:	001f6f13          	or	t5,t5,1
     c18:	3ff60793          	add	a5,a2,1023
     c1c:	0cf05063          	blez	a5,cdc <__divdf3+0x5dc>
     c20:	007f7693          	and	a3,t5,7
     c24:	02068063          	beqz	a3,c44 <__divdf3+0x544>
     c28:	00ff7693          	and	a3,t5,15
     c2c:	00400593          	li	a1,4
     c30:	00b68a63          	beq	a3,a1,c44 <__divdf3+0x544>
     c34:	004f0693          	add	a3,t5,4
     c38:	01e6b5b3          	sltu	a1,a3,t5
     c3c:	00b40433          	add	s0,s0,a1
     c40:	00068f13          	mv	t5,a3
     c44:	010006b7          	lui	a3,0x1000
     c48:	00d476b3          	and	a3,s0,a3
     c4c:	00068a63          	beqz	a3,c60 <__divdf3+0x560>
     c50:	ff0007b7          	lui	a5,0xff000
     c54:	fff78793          	add	a5,a5,-1 # feffffff <_end+0xfefe602f>
     c58:	00f47433          	and	s0,s0,a5
     c5c:	40060793          	add	a5,a2,1024
     c60:	7fe00693          	li	a3,2046
     c64:	14f6c263          	blt	a3,a5,da8 <__divdf3+0x6a8>
     c68:	01d41693          	sll	a3,s0,0x1d
     c6c:	003f5f13          	srl	t5,t5,0x3
     c70:	01e6e6b3          	or	a3,a3,t5
     c74:	00345413          	srl	s0,s0,0x3
     c78:	00c41413          	sll	s0,s0,0xc
     c7c:	00c45413          	srl	s0,s0,0xc
     c80:	01479793          	sll	a5,a5,0x14
     c84:	02c12083          	lw	ra,44(sp)
     c88:	0087e7b3          	or	a5,a5,s0
     c8c:	02812403          	lw	s0,40(sp)
     c90:	01f71713          	sll	a4,a4,0x1f
     c94:	00e7e633          	or	a2,a5,a4
     c98:	02412483          	lw	s1,36(sp)
     c9c:	02012903          	lw	s2,32(sp)
     ca0:	01c12983          	lw	s3,28(sp)
     ca4:	01812a03          	lw	s4,24(sp)
     ca8:	01412a83          	lw	s5,20(sp)
     cac:	01012b03          	lw	s6,16(sp)
     cb0:	00c12b83          	lw	s7,12(sp)
     cb4:	00068513          	mv	a0,a3
     cb8:	00060593          	mv	a1,a2
     cbc:	03010113          	add	sp,sp,48
     cc0:	00008067          	ret
     cc4:	fff60613          	add	a2,a2,-1
     cc8:	00000313          	li	t1,0
     ccc:	cb9ff06f          	j	984 <__divdf3+0x284>
     cd0:	00090713          	mv	a4,s2
     cd4:	00058b13          	mv	s6,a1
     cd8:	c69ff06f          	j	940 <__divdf3+0x240>
     cdc:	00100593          	li	a1,1
     ce0:	00078c63          	beqz	a5,cf8 <__divdf3+0x5f8>
     ce4:	40f585b3          	sub	a1,a1,a5
     ce8:	03800693          	li	a3,56
     cec:	c6b6c6e3          	blt	a3,a1,958 <__divdf3+0x258>
     cf0:	01f00693          	li	a3,31
     cf4:	06b6c663          	blt	a3,a1,d60 <__divdf3+0x660>
     cf8:	41e60613          	add	a2,a2,1054
     cfc:	00bf57b3          	srl	a5,t5,a1
     d00:	00cf1f33          	sll	t5,t5,a2
     d04:	01e03f33          	snez	t5,t5
     d08:	00c41633          	sll	a2,s0,a2
     d0c:	00cf6f33          	or	t5,t5,a2
     d10:	01e7e7b3          	or	a5,a5,t5
     d14:	00b45433          	srl	s0,s0,a1
     d18:	0077f693          	and	a3,a5,7
     d1c:	02068063          	beqz	a3,d3c <__divdf3+0x63c>
     d20:	00f7f693          	and	a3,a5,15
     d24:	00400613          	li	a2,4
     d28:	00c68a63          	beq	a3,a2,d3c <__divdf3+0x63c>
     d2c:	00478693          	add	a3,a5,4
     d30:	00f6b633          	sltu	a2,a3,a5
     d34:	00c40433          	add	s0,s0,a2
     d38:	00068793          	mv	a5,a3
     d3c:	008006b7          	lui	a3,0x800
     d40:	00d476b3          	and	a3,s0,a3
     d44:	06069a63          	bnez	a3,db8 <__divdf3+0x6b8>
     d48:	01d41693          	sll	a3,s0,0x1d
     d4c:	0037d793          	srl	a5,a5,0x3
     d50:	00f6e6b3          	or	a3,a3,a5
     d54:	00345413          	srl	s0,s0,0x3
     d58:	00000793          	li	a5,0
     d5c:	f1dff06f          	j	c78 <__divdf3+0x578>
     d60:	fe100693          	li	a3,-31
     d64:	40f687b3          	sub	a5,a3,a5
     d68:	02000513          	li	a0,32
     d6c:	00f457b3          	srl	a5,s0,a5
     d70:	00000693          	li	a3,0
     d74:	00a58663          	beq	a1,a0,d80 <__divdf3+0x680>
     d78:	43e60613          	add	a2,a2,1086
     d7c:	00c416b3          	sll	a3,s0,a2
     d80:	01e6e6b3          	or	a3,a3,t5
     d84:	00d036b3          	snez	a3,a3
     d88:	00d7e7b3          	or	a5,a5,a3
     d8c:	00000413          	li	s0,0
     d90:	f89ff06f          	j	d18 <__divdf3+0x618>
     d94:	00080437          	lui	s0,0x80
     d98:	00000693          	li	a3,0
     d9c:	7ff00793          	li	a5,2047
     da0:	00000713          	li	a4,0
     da4:	ed5ff06f          	j	c78 <__divdf3+0x578>
     da8:	00000413          	li	s0,0
     dac:	00000693          	li	a3,0
     db0:	7ff00793          	li	a5,2047
     db4:	ec5ff06f          	j	c78 <__divdf3+0x578>
     db8:	00000413          	li	s0,0
     dbc:	00000693          	li	a3,0
     dc0:	00100793          	li	a5,1
     dc4:	eb5ff06f          	j	c78 <__divdf3+0x578>

00000dc8 <__muldf3>:
     dc8:	fd010113          	add	sp,sp,-48
     dcc:	01512a23          	sw	s5,20(sp)
     dd0:	0145da93          	srl	s5,a1,0x14
     dd4:	02812423          	sw	s0,40(sp)
     dd8:	02912223          	sw	s1,36(sp)
     ddc:	01312e23          	sw	s3,28(sp)
     de0:	01412c23          	sw	s4,24(sp)
     de4:	01612823          	sw	s6,16(sp)
     de8:	00c59493          	sll	s1,a1,0xc
     dec:	02112623          	sw	ra,44(sp)
     df0:	03212023          	sw	s2,32(sp)
     df4:	01712623          	sw	s7,12(sp)
     df8:	7ffafa93          	and	s5,s5,2047
     dfc:	00050413          	mv	s0,a0
     e00:	00060b13          	mv	s6,a2
     e04:	00068993          	mv	s3,a3
     e08:	00c4d493          	srl	s1,s1,0xc
     e0c:	01f5da13          	srl	s4,a1,0x1f
     e10:	300a8063          	beqz	s5,1110 <__muldf3+0x348>
     e14:	7ff00793          	li	a5,2047
     e18:	36fa8263          	beq	s5,a5,117c <__muldf3+0x3b4>
     e1c:	00349493          	sll	s1,s1,0x3
     e20:	01d55793          	srl	a5,a0,0x1d
     e24:	0097e7b3          	or	a5,a5,s1
     e28:	008004b7          	lui	s1,0x800
     e2c:	0097e4b3          	or	s1,a5,s1
     e30:	00351913          	sll	s2,a0,0x3
     e34:	c01a8a93          	add	s5,s5,-1023
     e38:	00000b93          	li	s7,0
     e3c:	0149d713          	srl	a4,s3,0x14
     e40:	00c99413          	sll	s0,s3,0xc
     e44:	7ff77713          	and	a4,a4,2047
     e48:	00c45413          	srl	s0,s0,0xc
     e4c:	01f9d993          	srl	s3,s3,0x1f
     e50:	36070263          	beqz	a4,11b4 <__muldf3+0x3ec>
     e54:	7ff00793          	li	a5,2047
     e58:	3cf70663          	beq	a4,a5,1224 <__muldf3+0x45c>
     e5c:	00341413          	sll	s0,s0,0x3
     e60:	01db5793          	srl	a5,s6,0x1d
     e64:	0087e7b3          	or	a5,a5,s0
     e68:	00800437          	lui	s0,0x800
     e6c:	0087e433          	or	s0,a5,s0
     e70:	c0170693          	add	a3,a4,-1023
     e74:	003b1793          	sll	a5,s6,0x3
     e78:	00000513          	li	a0,0
     e7c:	002b9713          	sll	a4,s7,0x2
     e80:	00da8ab3          	add	s5,s5,a3
     e84:	00a76733          	or	a4,a4,a0
     e88:	00a00693          	li	a3,10
     e8c:	013a4633          	xor	a2,s4,s3
     e90:	001a8593          	add	a1,s5,1
     e94:	40e6c863          	blt	a3,a4,12a4 <__muldf3+0x4dc>
     e98:	00200693          	li	a3,2
     e9c:	3ce6c063          	blt	a3,a4,125c <__muldf3+0x494>
     ea0:	fff70713          	add	a4,a4,-1
     ea4:	00100693          	li	a3,1
     ea8:	3ce6fc63          	bgeu	a3,a4,1280 <__muldf3+0x4b8>
     eac:	00010837          	lui	a6,0x10
     eb0:	fff80e93          	add	t4,a6,-1 # ffff <_svfprintf_r+0x198f>
     eb4:	01095693          	srl	a3,s2,0x10
     eb8:	0107d893          	srl	a7,a5,0x10
     ebc:	01d97933          	and	s2,s2,t4
     ec0:	01d7ff33          	and	t5,a5,t4
     ec4:	03e907b3          	mul	a5,s2,t5
     ec8:	03e68333          	mul	t1,a3,t5
     ecc:	0107d513          	srl	a0,a5,0x10
     ed0:	03288733          	mul	a4,a7,s2
     ed4:	00670733          	add	a4,a4,t1
     ed8:	00e50533          	add	a0,a0,a4
     edc:	03168e33          	mul	t3,a3,a7
     ee0:	00657463          	bgeu	a0,t1,ee8 <__muldf3+0x120>
     ee4:	010e0e33          	add	t3,t3,a6
     ee8:	01055713          	srl	a4,a0,0x10
     eec:	01d57533          	and	a0,a0,t4
     ef0:	01d7f7b3          	and	a5,a5,t4
     ef4:	01045813          	srl	a6,s0,0x10
     ef8:	01d47eb3          	and	t4,s0,t4
     efc:	01051513          	sll	a0,a0,0x10
     f00:	00f50533          	add	a0,a0,a5
     f04:	03d90fb3          	mul	t6,s2,t4
     f08:	03d687b3          	mul	a5,a3,t4
     f0c:	03280933          	mul	s2,a6,s2
     f10:	03068333          	mul	t1,a3,a6
     f14:	00f90933          	add	s2,s2,a5
     f18:	010fd693          	srl	a3,t6,0x10
     f1c:	012686b3          	add	a3,a3,s2
     f20:	00f6f663          	bgeu	a3,a5,f2c <__muldf3+0x164>
     f24:	000107b7          	lui	a5,0x10
     f28:	00f30333          	add	t1,t1,a5
     f2c:	000103b7          	lui	t2,0x10
     f30:	0106d793          	srl	a5,a3,0x10
     f34:	fff38293          	add	t0,t2,-1 # ffff <_svfprintf_r+0x198f>
     f38:	00678333          	add	t1,a5,t1
     f3c:	0056f7b3          	and	a5,a3,t0
     f40:	005fffb3          	and	t6,t6,t0
     f44:	0104d913          	srl	s2,s1,0x10
     f48:	0054f2b3          	and	t0,s1,t0
     f4c:	01079793          	sll	a5,a5,0x10
     f50:	01f787b3          	add	a5,a5,t6
     f54:	03288433          	mul	s0,a7,s2
     f58:	00f70733          	add	a4,a4,a5
     f5c:	025f0fb3          	mul	t6,t5,t0
     f60:	025888b3          	mul	a7,a7,t0
     f64:	010fd693          	srl	a3,t6,0x10
     f68:	03e90f33          	mul	t5,s2,t5
     f6c:	01e888b3          	add	a7,a7,t5
     f70:	011686b3          	add	a3,a3,a7
     f74:	01e6f463          	bgeu	a3,t5,f7c <__muldf3+0x1b4>
     f78:	00740433          	add	s0,s0,t2
     f7c:	025e83b3          	mul	t2,t4,t0
     f80:	0106df13          	srl	t5,a3,0x10
     f84:	000104b7          	lui	s1,0x10
     f88:	008f0f33          	add	t5,t5,s0
     f8c:	fff48413          	add	s0,s1,-1 # ffff <_svfprintf_r+0x198f>
     f90:	0086f6b3          	and	a3,a3,s0
     f94:	01069693          	sll	a3,a3,0x10
     f98:	008fffb3          	and	t6,t6,s0
     f9c:	01f68fb3          	add	t6,a3,t6
     fa0:	03d90eb3          	mul	t4,s2,t4
     fa4:	0103d693          	srl	a3,t2,0x10
     fa8:	032808b3          	mul	a7,a6,s2
     fac:	02580833          	mul	a6,a6,t0
     fb0:	01d80833          	add	a6,a6,t4
     fb4:	01068833          	add	a6,a3,a6
     fb8:	01d87463          	bgeu	a6,t4,fc0 <__muldf3+0x1f8>
     fbc:	009888b3          	add	a7,a7,s1
     fc0:	008876b3          	and	a3,a6,s0
     fc4:	0083f3b3          	and	t2,t2,s0
     fc8:	01069693          	sll	a3,a3,0x10
     fcc:	01c70733          	add	a4,a4,t3
     fd0:	007686b3          	add	a3,a3,t2
     fd4:	00668333          	add	t1,a3,t1
     fd8:	00f737b3          	sltu	a5,a4,a5
     fdc:	00f307b3          	add	a5,t1,a5
     fe0:	00d336b3          	sltu	a3,t1,a3
     fe4:	0067b333          	sltu	t1,a5,t1
     fe8:	01085813          	srl	a6,a6,0x10
     fec:	0066e6b3          	or	a3,a3,t1
     ff0:	010686b3          	add	a3,a3,a6
     ff4:	01f70833          	add	a6,a4,t6
     ff8:	01e78f33          	add	t5,a5,t5
     ffc:	00e83733          	sltu	a4,a6,a4
    1000:	00ef0733          	add	a4,t5,a4
    1004:	00ff3433          	sltu	s0,t5,a5
    1008:	01e73f33          	sltu	t5,a4,t5
    100c:	01e46433          	or	s0,s0,t5
    1010:	00d40433          	add	s0,s0,a3
    1014:	01140433          	add	s0,s0,a7
    1018:	01775793          	srl	a5,a4,0x17
    101c:	00941413          	sll	s0,s0,0x9
    1020:	00f46433          	or	s0,s0,a5
    1024:	00981793          	sll	a5,a6,0x9
    1028:	00a7e7b3          	or	a5,a5,a0
    102c:	00f037b3          	snez	a5,a5
    1030:	01785813          	srl	a6,a6,0x17
    1034:	00971713          	sll	a4,a4,0x9
    1038:	0107e7b3          	or	a5,a5,a6
    103c:	00e7e7b3          	or	a5,a5,a4
    1040:	01000737          	lui	a4,0x1000
    1044:	00e47733          	and	a4,s0,a4
    1048:	28070063          	beqz	a4,12c8 <__muldf3+0x500>
    104c:	0017d713          	srl	a4,a5,0x1
    1050:	0017f793          	and	a5,a5,1
    1054:	00f76733          	or	a4,a4,a5
    1058:	01f41793          	sll	a5,s0,0x1f
    105c:	00f767b3          	or	a5,a4,a5
    1060:	00145413          	srl	s0,s0,0x1
    1064:	3ff58693          	add	a3,a1,1023
    1068:	26d05463          	blez	a3,12d0 <__muldf3+0x508>
    106c:	0077f713          	and	a4,a5,7
    1070:	02070063          	beqz	a4,1090 <__muldf3+0x2c8>
    1074:	00f7f713          	and	a4,a5,15
    1078:	00400513          	li	a0,4
    107c:	00a70a63          	beq	a4,a0,1090 <__muldf3+0x2c8>
    1080:	00478713          	add	a4,a5,4 # 10004 <_svfprintf_r+0x1994>
    1084:	00f73533          	sltu	a0,a4,a5
    1088:	00a40433          	add	s0,s0,a0
    108c:	00070793          	mv	a5,a4
    1090:	01000737          	lui	a4,0x1000
    1094:	00e47733          	and	a4,s0,a4
    1098:	00070a63          	beqz	a4,10ac <__muldf3+0x2e4>
    109c:	ff000737          	lui	a4,0xff000
    10a0:	fff70713          	add	a4,a4,-1 # feffffff <_end+0xfefe602f>
    10a4:	00e47433          	and	s0,s0,a4
    10a8:	40058693          	add	a3,a1,1024
    10ac:	7fe00713          	li	a4,2046
    10b0:	2ed74a63          	blt	a4,a3,13a4 <__muldf3+0x5dc>
    10b4:	01d41713          	sll	a4,s0,0x1d
    10b8:	0037d793          	srl	a5,a5,0x3
    10bc:	00f76733          	or	a4,a4,a5
    10c0:	00345413          	srl	s0,s0,0x3
    10c4:	00c41413          	sll	s0,s0,0xc
    10c8:	00c45413          	srl	s0,s0,0xc
    10cc:	01469693          	sll	a3,a3,0x14
    10d0:	02c12083          	lw	ra,44(sp)
    10d4:	0086e6b3          	or	a3,a3,s0
    10d8:	02812403          	lw	s0,40(sp)
    10dc:	01f61613          	sll	a2,a2,0x1f
    10e0:	00c6e7b3          	or	a5,a3,a2
    10e4:	02412483          	lw	s1,36(sp)
    10e8:	02012903          	lw	s2,32(sp)
    10ec:	01c12983          	lw	s3,28(sp)
    10f0:	01812a03          	lw	s4,24(sp)
    10f4:	01412a83          	lw	s5,20(sp)
    10f8:	01012b03          	lw	s6,16(sp)
    10fc:	00c12b83          	lw	s7,12(sp)
    1100:	00070513          	mv	a0,a4
    1104:	00078593          	mv	a1,a5
    1108:	03010113          	add	sp,sp,48
    110c:	00008067          	ret
    1110:	00a4e933          	or	s2,s1,a0
    1114:	08090063          	beqz	s2,1194 <__muldf3+0x3cc>
    1118:	04048063          	beqz	s1,1158 <__muldf3+0x390>
    111c:	00048513          	mv	a0,s1
    1120:	2f8030ef          	jal	4418 <__clzsi2>
    1124:	ff550713          	add	a4,a0,-11
    1128:	01d00793          	li	a5,29
    112c:	ff850693          	add	a3,a0,-8
    1130:	40e787b3          	sub	a5,a5,a4
    1134:	00d494b3          	sll	s1,s1,a3
    1138:	00f457b3          	srl	a5,s0,a5
    113c:	0097e7b3          	or	a5,a5,s1
    1140:	00d414b3          	sll	s1,s0,a3
    1144:	c0d00a93          	li	s5,-1011
    1148:	00048913          	mv	s2,s1
    114c:	40aa8ab3          	sub	s5,s5,a0
    1150:	00078493          	mv	s1,a5
    1154:	ce5ff06f          	j	e38 <__muldf3+0x70>
    1158:	2c0030ef          	jal	4418 <__clzsi2>
    115c:	00050793          	mv	a5,a0
    1160:	01578713          	add	a4,a5,21
    1164:	01c00693          	li	a3,28
    1168:	02050513          	add	a0,a0,32
    116c:	fae6dee3          	bge	a3,a4,1128 <__muldf3+0x360>
    1170:	ff878793          	add	a5,a5,-8
    1174:	00f417b3          	sll	a5,s0,a5
    1178:	fcdff06f          	j	1144 <__muldf3+0x37c>
    117c:	00a4e933          	or	s2,s1,a0
    1180:	02090263          	beqz	s2,11a4 <__muldf3+0x3dc>
    1184:	00050913          	mv	s2,a0
    1188:	7ff00a93          	li	s5,2047
    118c:	00300b93          	li	s7,3
    1190:	cadff06f          	j	e3c <__muldf3+0x74>
    1194:	00000493          	li	s1,0
    1198:	00000a93          	li	s5,0
    119c:	00100b93          	li	s7,1
    11a0:	c9dff06f          	j	e3c <__muldf3+0x74>
    11a4:	00000493          	li	s1,0
    11a8:	7ff00a93          	li	s5,2047
    11ac:	00200b93          	li	s7,2
    11b0:	c8dff06f          	j	e3c <__muldf3+0x74>
    11b4:	016467b3          	or	a5,s0,s6
    11b8:	08078263          	beqz	a5,123c <__muldf3+0x474>
    11bc:	04040063          	beqz	s0,11fc <__muldf3+0x434>
    11c0:	00040513          	mv	a0,s0
    11c4:	254030ef          	jal	4418 <__clzsi2>
    11c8:	ff550693          	add	a3,a0,-11
    11cc:	01d00713          	li	a4,29
    11d0:	ff850793          	add	a5,a0,-8
    11d4:	40d70733          	sub	a4,a4,a3
    11d8:	00f41433          	sll	s0,s0,a5
    11dc:	00eb5733          	srl	a4,s6,a4
    11e0:	00876733          	or	a4,a4,s0
    11e4:	00fb1433          	sll	s0,s6,a5
    11e8:	c0d00693          	li	a3,-1011
    11ec:	00040793          	mv	a5,s0
    11f0:	40a686b3          	sub	a3,a3,a0
    11f4:	00070413          	mv	s0,a4
    11f8:	c81ff06f          	j	e78 <__muldf3+0xb0>
    11fc:	000b0513          	mv	a0,s6
    1200:	218030ef          	jal	4418 <__clzsi2>
    1204:	00050793          	mv	a5,a0
    1208:	01578693          	add	a3,a5,21
    120c:	01c00713          	li	a4,28
    1210:	02050513          	add	a0,a0,32
    1214:	fad75ce3          	bge	a4,a3,11cc <__muldf3+0x404>
    1218:	ff878793          	add	a5,a5,-8
    121c:	00fb1733          	sll	a4,s6,a5
    1220:	fc9ff06f          	j	11e8 <__muldf3+0x420>
    1224:	016467b3          	or	a5,s0,s6
    1228:	02078263          	beqz	a5,124c <__muldf3+0x484>
    122c:	000b0793          	mv	a5,s6
    1230:	7ff00693          	li	a3,2047
    1234:	00300513          	li	a0,3
    1238:	c45ff06f          	j	e7c <__muldf3+0xb4>
    123c:	00000413          	li	s0,0
    1240:	00000693          	li	a3,0
    1244:	00100513          	li	a0,1
    1248:	c35ff06f          	j	e7c <__muldf3+0xb4>
    124c:	00000413          	li	s0,0
    1250:	7ff00693          	li	a3,2047
    1254:	00200513          	li	a0,2
    1258:	c25ff06f          	j	e7c <__muldf3+0xb4>
    125c:	00100693          	li	a3,1
    1260:	00e696b3          	sll	a3,a3,a4
    1264:	5306f713          	and	a4,a3,1328
    1268:	04071863          	bnez	a4,12b8 <__muldf3+0x4f0>
    126c:	2406f813          	and	a6,a3,576
    1270:	10081c63          	bnez	a6,1388 <__muldf3+0x5c0>
    1274:	0886f693          	and	a3,a3,136
    1278:	c2068ae3          	beqz	a3,eac <__muldf3+0xe4>
    127c:	00098613          	mv	a2,s3
    1280:	00200713          	li	a4,2
    1284:	12e50063          	beq	a0,a4,13a4 <__muldf3+0x5dc>
    1288:	00300713          	li	a4,3
    128c:	10e50663          	beq	a0,a4,1398 <__muldf3+0x5d0>
    1290:	00100713          	li	a4,1
    1294:	dce518e3          	bne	a0,a4,1064 <__muldf3+0x29c>
    1298:	00000413          	li	s0,0
    129c:	00000713          	li	a4,0
    12a0:	0ac0006f          	j	134c <__muldf3+0x584>
    12a4:	00f00693          	li	a3,15
    12a8:	0ed70863          	beq	a4,a3,1398 <__muldf3+0x5d0>
    12ac:	00b00693          	li	a3,11
    12b0:	000a0613          	mv	a2,s4
    12b4:	fcd704e3          	beq	a4,a3,127c <__muldf3+0x4b4>
    12b8:	00048413          	mv	s0,s1
    12bc:	00090793          	mv	a5,s2
    12c0:	000b8513          	mv	a0,s7
    12c4:	fbdff06f          	j	1280 <__muldf3+0x4b8>
    12c8:	000a8593          	mv	a1,s5
    12cc:	d99ff06f          	j	1064 <__muldf3+0x29c>
    12d0:	00100513          	li	a0,1
    12d4:	00068c63          	beqz	a3,12ec <__muldf3+0x524>
    12d8:	40d50533          	sub	a0,a0,a3
    12dc:	03800713          	li	a4,56
    12e0:	faa74ce3          	blt	a4,a0,1298 <__muldf3+0x4d0>
    12e4:	01f00713          	li	a4,31
    12e8:	06a74663          	blt	a4,a0,1354 <__muldf3+0x58c>
    12ec:	41e58593          	add	a1,a1,1054
    12f0:	00a7d733          	srl	a4,a5,a0
    12f4:	00b797b3          	sll	a5,a5,a1
    12f8:	00f037b3          	snez	a5,a5
    12fc:	00b415b3          	sll	a1,s0,a1
    1300:	00b7e7b3          	or	a5,a5,a1
    1304:	00e7e7b3          	or	a5,a5,a4
    1308:	00a45433          	srl	s0,s0,a0
    130c:	0077f713          	and	a4,a5,7
    1310:	02070063          	beqz	a4,1330 <__muldf3+0x568>
    1314:	00f7f713          	and	a4,a5,15
    1318:	00400693          	li	a3,4
    131c:	00d70a63          	beq	a4,a3,1330 <__muldf3+0x568>
    1320:	00478713          	add	a4,a5,4
    1324:	00f736b3          	sltu	a3,a4,a5
    1328:	00d40433          	add	s0,s0,a3
    132c:	00070793          	mv	a5,a4
    1330:	00800737          	lui	a4,0x800
    1334:	00e47733          	and	a4,s0,a4
    1338:	06071e63          	bnez	a4,13b4 <__muldf3+0x5ec>
    133c:	01d41713          	sll	a4,s0,0x1d
    1340:	0037d793          	srl	a5,a5,0x3
    1344:	00f76733          	or	a4,a4,a5
    1348:	00345413          	srl	s0,s0,0x3
    134c:	00000693          	li	a3,0
    1350:	d75ff06f          	j	10c4 <__muldf3+0x2fc>
    1354:	fe100713          	li	a4,-31
    1358:	40d70733          	sub	a4,a4,a3
    135c:	02000813          	li	a6,32
    1360:	00e45733          	srl	a4,s0,a4
    1364:	00000693          	li	a3,0
    1368:	01050663          	beq	a0,a6,1374 <__muldf3+0x5ac>
    136c:	43e58593          	add	a1,a1,1086
    1370:	00b416b3          	sll	a3,s0,a1
    1374:	00f6e6b3          	or	a3,a3,a5
    1378:	00d036b3          	snez	a3,a3
    137c:	00d767b3          	or	a5,a4,a3
    1380:	00000413          	li	s0,0
    1384:	f89ff06f          	j	130c <__muldf3+0x544>
    1388:	00080437          	lui	s0,0x80
    138c:	7ff00693          	li	a3,2047
    1390:	00000613          	li	a2,0
    1394:	d31ff06f          	j	10c4 <__muldf3+0x2fc>
    1398:	00080437          	lui	s0,0x80
    139c:	00000713          	li	a4,0
    13a0:	fedff06f          	j	138c <__muldf3+0x5c4>
    13a4:	00000413          	li	s0,0
    13a8:	00000713          	li	a4,0
    13ac:	7ff00693          	li	a3,2047
    13b0:	d15ff06f          	j	10c4 <__muldf3+0x2fc>
    13b4:	00000413          	li	s0,0
    13b8:	00000713          	li	a4,0
    13bc:	00100693          	li	a3,1
    13c0:	d05ff06f          	j	10c4 <__muldf3+0x2fc>

000013c4 <__eqtf2>:
    13c4:	00c52703          	lw	a4,12(a0)
    13c8:	00c5a603          	lw	a2,12(a1)
    13cc:	0005a283          	lw	t0,0(a1)
    13d0:	0045af83          	lw	t6,4(a1)
    13d4:	0085af03          	lw	t5,8(a1)
    13d8:	000085b7          	lui	a1,0x8
    13dc:	01075813          	srl	a6,a4,0x10
    13e0:	fff58593          	add	a1,a1,-1 # 7fff <_vfprintf_r+0x28bb>
    13e4:	01071893          	sll	a7,a4,0x10
    13e8:	01061e93          	sll	t4,a2,0x10
    13ec:	01065693          	srl	a3,a2,0x10
    13f0:	00b87833          	and	a6,a6,a1
    13f4:	00052783          	lw	a5,0(a0)
    13f8:	00452e03          	lw	t3,4(a0)
    13fc:	00852303          	lw	t1,8(a0)
    1400:	ff010113          	add	sp,sp,-16
    1404:	0108d893          	srl	a7,a7,0x10
    1408:	01f75713          	srl	a4,a4,0x1f
    140c:	010ede93          	srl	t4,t4,0x10
    1410:	00b6f6b3          	and	a3,a3,a1
    1414:	01f65613          	srl	a2,a2,0x1f
    1418:	00100513          	li	a0,1
    141c:	00b80863          	beq	a6,a1,142c <__eqtf2+0x68>
    1420:	02b69e63          	bne	a3,a1,145c <__eqtf2+0x98>
    1424:	01010113          	add	sp,sp,16
    1428:	00008067          	ret
    142c:	ff069ce3          	bne	a3,a6,1424 <__eqtf2+0x60>
    1430:	01c7e7b3          	or	a5,a5,t3
    1434:	0067e7b3          	or	a5,a5,t1
    1438:	0117e7b3          	or	a5,a5,a7
    143c:	0057e7b3          	or	a5,a5,t0
    1440:	01f7e7b3          	or	a5,a5,t6
    1444:	01e7e7b3          	or	a5,a5,t5
    1448:	01d7e7b3          	or	a5,a5,t4
    144c:	fc079ce3          	bnez	a5,1424 <__eqtf2+0x60>
    1450:	40c70733          	sub	a4,a4,a2
    1454:	00e03533          	snez	a0,a4
    1458:	fcdff06f          	j	1424 <__eqtf2+0x60>
    145c:	00100513          	li	a0,1
    1460:	fd0692e3          	bne	a3,a6,1424 <__eqtf2+0x60>
    1464:	fc5790e3          	bne	a5,t0,1424 <__eqtf2+0x60>
    1468:	fbfe1ee3          	bne	t3,t6,1424 <__eqtf2+0x60>
    146c:	fbe31ce3          	bne	t1,t5,1424 <__eqtf2+0x60>
    1470:	fbd89ae3          	bne	a7,t4,1424 <__eqtf2+0x60>
    1474:	00c70e63          	beq	a4,a2,1490 <__eqtf2+0xcc>
    1478:	fa0696e3          	bnez	a3,1424 <__eqtf2+0x60>
    147c:	01c7e533          	or	a0,a5,t3
    1480:	00656533          	or	a0,a0,t1
    1484:	01156533          	or	a0,a0,a7
    1488:	00a03533          	snez	a0,a0
    148c:	f99ff06f          	j	1424 <__eqtf2+0x60>
    1490:	00000513          	li	a0,0
    1494:	f91ff06f          	j	1424 <__eqtf2+0x60>

00001498 <__getf2>:
    1498:	00052883          	lw	a7,0(a0)
    149c:	00452303          	lw	t1,4(a0)
    14a0:	00852e03          	lw	t3,8(a0)
    14a4:	00c52503          	lw	a0,12(a0)
    14a8:	00c5a803          	lw	a6,12(a1)
    14ac:	00008737          	lui	a4,0x8
    14b0:	01055693          	srl	a3,a0,0x10
    14b4:	fff70713          	add	a4,a4,-1 # 7fff <_vfprintf_r+0x28bb>
    14b8:	01051613          	sll	a2,a0,0x10
    14bc:	01081f13          	sll	t5,a6,0x10
    14c0:	0005a783          	lw	a5,0(a1)
    14c4:	0045af83          	lw	t6,4(a1)
    14c8:	0085ae83          	lw	t4,8(a1)
    14cc:	00e6f6b3          	and	a3,a3,a4
    14d0:	01f55593          	srl	a1,a0,0x1f
    14d4:	01085513          	srl	a0,a6,0x10
    14d8:	ff010113          	add	sp,sp,-16
    14dc:	01065613          	srl	a2,a2,0x10
    14e0:	010f5f13          	srl	t5,t5,0x10
    14e4:	00e57533          	and	a0,a0,a4
    14e8:	01f85813          	srl	a6,a6,0x1f
    14ec:	04e69663          	bne	a3,a4,1538 <__getf2+0xa0>
    14f0:	011368b3          	or	a7,t1,a7
    14f4:	01c8e8b3          	or	a7,a7,t3
    14f8:	00c8e8b3          	or	a7,a7,a2
    14fc:	0e089c63          	bnez	a7,15f4 <__getf2+0x15c>
    1500:	00d50a63          	beq	a0,a3,1514 <__getf2+0x7c>
    1504:	00100513          	li	a0,1
    1508:	02058463          	beqz	a1,1530 <__getf2+0x98>
    150c:	fff00513          	li	a0,-1
    1510:	0200006f          	j	1530 <__getf2+0x98>
    1514:	01f7e7b3          	or	a5,a5,t6
    1518:	01d7e7b3          	or	a5,a5,t4
    151c:	01e7e7b3          	or	a5,a5,t5
    1520:	ffe00513          	li	a0,-2
    1524:	00079663          	bnez	a5,1530 <__getf2+0x98>
    1528:	00000513          	li	a0,0
    152c:	fcb81ce3          	bne	a6,a1,1504 <__getf2+0x6c>
    1530:	01010113          	add	sp,sp,16
    1534:	00008067          	ret
    1538:	02e51663          	bne	a0,a4,1564 <__getf2+0xcc>
    153c:	01f7e733          	or	a4,a5,t6
    1540:	01d76733          	or	a4,a4,t4
    1544:	01e76733          	or	a4,a4,t5
    1548:	0a071663          	bnez	a4,15f4 <__getf2+0x15c>
    154c:	02068863          	beqz	a3,157c <__getf2+0xe4>
    1550:	fab81ae3          	bne	a6,a1,1504 <__getf2+0x6c>
    1554:	fff00513          	li	a0,-1
    1558:	fc058ce3          	beqz	a1,1530 <__getf2+0x98>
    155c:	00058513          	mv	a0,a1
    1560:	fd1ff06f          	j	1530 <__getf2+0x98>
    1564:	02068c63          	beqz	a3,159c <__getf2+0x104>
    1568:	f8050ee3          	beqz	a0,1504 <__getf2+0x6c>
    156c:	f8b81ce3          	bne	a6,a1,1504 <__getf2+0x6c>
    1570:	f8d54ae3          	blt	a0,a3,1504 <__getf2+0x6c>
    1574:	04a6d863          	bge	a3,a0,15c4 <__getf2+0x12c>
    1578:	fddff06f          	j	1554 <__getf2+0xbc>
    157c:	01136733          	or	a4,t1,a7
    1580:	01c76733          	or	a4,a4,t3
    1584:	00c76733          	or	a4,a4,a2
    1588:	fe0712e3          	bnez	a4,156c <__getf2+0xd4>
    158c:	fff00513          	li	a0,-1
    1590:	fa0800e3          	beqz	a6,1530 <__getf2+0x98>
    1594:	00080513          	mv	a0,a6
    1598:	f99ff06f          	j	1530 <__getf2+0x98>
    159c:	01136733          	or	a4,t1,a7
    15a0:	01c76733          	or	a4,a4,t3
    15a4:	00c76733          	or	a4,a4,a2
    15a8:	fe0510e3          	bnez	a0,1588 <__getf2+0xf0>
    15ac:	01f7e6b3          	or	a3,a5,t6
    15b0:	01d6e6b3          	or	a3,a3,t4
    15b4:	01e6e6b3          	or	a3,a3,t5
    15b8:	02068a63          	beqz	a3,15ec <__getf2+0x154>
    15bc:	fc0708e3          	beqz	a4,158c <__getf2+0xf4>
    15c0:	f4b812e3          	bne	a6,a1,1504 <__getf2+0x6c>
    15c4:	f4cf60e3          	bltu	t5,a2,1504 <__getf2+0x6c>
    15c8:	f9e616e3          	bne	a2,t5,1554 <__getf2+0xbc>
    15cc:	f3ceece3          	bltu	t4,t3,1504 <__getf2+0x6c>
    15d0:	f9de12e3          	bne	t3,t4,1554 <__getf2+0xbc>
    15d4:	f26fe8e3          	bltu	t6,t1,1504 <__getf2+0x6c>
    15d8:	f7f31ee3          	bne	t1,t6,1554 <__getf2+0xbc>
    15dc:	f317e4e3          	bltu	a5,a7,1504 <__getf2+0x6c>
    15e0:	00000513          	li	a0,0
    15e4:	f6f8e8e3          	bltu	a7,a5,1554 <__getf2+0xbc>
    15e8:	f49ff06f          	j	1530 <__getf2+0x98>
    15ec:	f40702e3          	beqz	a4,1530 <__getf2+0x98>
    15f0:	f15ff06f          	j	1504 <__getf2+0x6c>
    15f4:	ffe00513          	li	a0,-2
    15f8:	f39ff06f          	j	1530 <__getf2+0x98>

000015fc <__letf2>:
    15fc:	00052883          	lw	a7,0(a0)
    1600:	00452303          	lw	t1,4(a0)
    1604:	00852e03          	lw	t3,8(a0)
    1608:	00c52503          	lw	a0,12(a0)
    160c:	00c5a803          	lw	a6,12(a1)
    1610:	00008737          	lui	a4,0x8
    1614:	01055693          	srl	a3,a0,0x10
    1618:	fff70713          	add	a4,a4,-1 # 7fff <_vfprintf_r+0x28bb>
    161c:	01051613          	sll	a2,a0,0x10
    1620:	01081f13          	sll	t5,a6,0x10
    1624:	0005a783          	lw	a5,0(a1)
    1628:	0045af83          	lw	t6,4(a1)
    162c:	0085ae83          	lw	t4,8(a1)
    1630:	00e6f6b3          	and	a3,a3,a4
    1634:	01f55593          	srl	a1,a0,0x1f
    1638:	01085513          	srl	a0,a6,0x10
    163c:	ff010113          	add	sp,sp,-16
    1640:	01065613          	srl	a2,a2,0x10
    1644:	010f5f13          	srl	t5,t5,0x10
    1648:	00e57533          	and	a0,a0,a4
    164c:	01f85813          	srl	a6,a6,0x1f
    1650:	04e69663          	bne	a3,a4,169c <__letf2+0xa0>
    1654:	011368b3          	or	a7,t1,a7
    1658:	01c8e8b3          	or	a7,a7,t3
    165c:	00c8e8b3          	or	a7,a7,a2
    1660:	0e089c63          	bnez	a7,1758 <__letf2+0x15c>
    1664:	00d50a63          	beq	a0,a3,1678 <__letf2+0x7c>
    1668:	00100513          	li	a0,1
    166c:	02058463          	beqz	a1,1694 <__letf2+0x98>
    1670:	fff00513          	li	a0,-1
    1674:	0200006f          	j	1694 <__letf2+0x98>
    1678:	01f7e7b3          	or	a5,a5,t6
    167c:	01d7e7b3          	or	a5,a5,t4
    1680:	01e7e7b3          	or	a5,a5,t5
    1684:	00200513          	li	a0,2
    1688:	00079663          	bnez	a5,1694 <__letf2+0x98>
    168c:	00000513          	li	a0,0
    1690:	fcb81ce3          	bne	a6,a1,1668 <__letf2+0x6c>
    1694:	01010113          	add	sp,sp,16
    1698:	00008067          	ret
    169c:	02e51663          	bne	a0,a4,16c8 <__letf2+0xcc>
    16a0:	01f7e733          	or	a4,a5,t6
    16a4:	01d76733          	or	a4,a4,t4
    16a8:	01e76733          	or	a4,a4,t5
    16ac:	0a071663          	bnez	a4,1758 <__letf2+0x15c>
    16b0:	02068863          	beqz	a3,16e0 <__letf2+0xe4>
    16b4:	fab81ae3          	bne	a6,a1,1668 <__letf2+0x6c>
    16b8:	fff00513          	li	a0,-1
    16bc:	fc058ce3          	beqz	a1,1694 <__letf2+0x98>
    16c0:	00058513          	mv	a0,a1
    16c4:	fd1ff06f          	j	1694 <__letf2+0x98>
    16c8:	02068c63          	beqz	a3,1700 <__letf2+0x104>
    16cc:	f8050ee3          	beqz	a0,1668 <__letf2+0x6c>
    16d0:	f8b81ce3          	bne	a6,a1,1668 <__letf2+0x6c>
    16d4:	f8d54ae3          	blt	a0,a3,1668 <__letf2+0x6c>
    16d8:	04a6d863          	bge	a3,a0,1728 <__letf2+0x12c>
    16dc:	fddff06f          	j	16b8 <__letf2+0xbc>
    16e0:	01136733          	or	a4,t1,a7
    16e4:	01c76733          	or	a4,a4,t3
    16e8:	00c76733          	or	a4,a4,a2
    16ec:	fe0712e3          	bnez	a4,16d0 <__letf2+0xd4>
    16f0:	fff00513          	li	a0,-1
    16f4:	fa0800e3          	beqz	a6,1694 <__letf2+0x98>
    16f8:	00080513          	mv	a0,a6
    16fc:	f99ff06f          	j	1694 <__letf2+0x98>
    1700:	01136733          	or	a4,t1,a7
    1704:	01c76733          	or	a4,a4,t3
    1708:	00c76733          	or	a4,a4,a2
    170c:	fe0510e3          	bnez	a0,16ec <__letf2+0xf0>
    1710:	01f7e6b3          	or	a3,a5,t6
    1714:	01d6e6b3          	or	a3,a3,t4
    1718:	01e6e6b3          	or	a3,a3,t5
    171c:	02068a63          	beqz	a3,1750 <__letf2+0x154>
    1720:	fc0708e3          	beqz	a4,16f0 <__letf2+0xf4>
    1724:	f4b812e3          	bne	a6,a1,1668 <__letf2+0x6c>
    1728:	f4cf60e3          	bltu	t5,a2,1668 <__letf2+0x6c>
    172c:	f9e616e3          	bne	a2,t5,16b8 <__letf2+0xbc>
    1730:	f3ceece3          	bltu	t4,t3,1668 <__letf2+0x6c>
    1734:	f9de12e3          	bne	t3,t4,16b8 <__letf2+0xbc>
    1738:	f26fe8e3          	bltu	t6,t1,1668 <__letf2+0x6c>
    173c:	f7f31ee3          	bne	t1,t6,16b8 <__letf2+0xbc>
    1740:	f317e4e3          	bltu	a5,a7,1668 <__letf2+0x6c>
    1744:	00000513          	li	a0,0
    1748:	f6f8e8e3          	bltu	a7,a5,16b8 <__letf2+0xbc>
    174c:	f49ff06f          	j	1694 <__letf2+0x98>
    1750:	f40702e3          	beqz	a4,1694 <__letf2+0x98>
    1754:	f15ff06f          	j	1668 <__letf2+0x6c>
    1758:	00200513          	li	a0,2
    175c:	f39ff06f          	j	1694 <__letf2+0x98>

00001760 <__multf3>:
    1760:	f5010113          	add	sp,sp,-176
    1764:	09312e23          	sw	s3,156(sp)
    1768:	00c5a983          	lw	s3,12(a1)
    176c:	0005a783          	lw	a5,0(a1)
    1770:	0085a683          	lw	a3,8(a1)
    1774:	0a812423          	sw	s0,168(sp)
    1778:	00050413          	mv	s0,a0
    177c:	0045a503          	lw	a0,4(a1)
    1780:	01099713          	sll	a4,s3,0x10
    1784:	0b212023          	sw	s2,160(sp)
    1788:	09412c23          	sw	s4,152(sp)
    178c:	00062903          	lw	s2,0(a2)
    1790:	00c62a03          	lw	s4,12(a2)
    1794:	09512a23          	sw	s5,148(sp)
    1798:	09612823          	sw	s6,144(sp)
    179c:	00862a83          	lw	s5,8(a2)
    17a0:	00462b03          	lw	s6,4(a2)
    17a4:	00008637          	lui	a2,0x8
    17a8:	0a912223          	sw	s1,164(sp)
    17ac:	01075713          	srl	a4,a4,0x10
    17b0:	0109d493          	srl	s1,s3,0x10
    17b4:	fff60613          	add	a2,a2,-1 # 7fff <_vfprintf_r+0x28bb>
    17b8:	05312e23          	sw	s3,92(sp)
    17bc:	0a112623          	sw	ra,172(sp)
    17c0:	09712623          	sw	s7,140(sp)
    17c4:	09812423          	sw	s8,136(sp)
    17c8:	09912223          	sw	s9,132(sp)
    17cc:	09a12023          	sw	s10,128(sp)
    17d0:	07b12e23          	sw	s11,124(sp)
    17d4:	04f12823          	sw	a5,80(sp)
    17d8:	04a12a23          	sw	a0,84(sp)
    17dc:	04d12c23          	sw	a3,88(sp)
    17e0:	02f12023          	sw	a5,32(sp)
    17e4:	02a12223          	sw	a0,36(sp)
    17e8:	02d12423          	sw	a3,40(sp)
    17ec:	02e12623          	sw	a4,44(sp)
    17f0:	00c4f4b3          	and	s1,s1,a2
    17f4:	01f9d993          	srl	s3,s3,0x1f
    17f8:	1c0484e3          	beqz	s1,21c0 <__multf3+0xa60>
    17fc:	30c486e3          	beq	s1,a2,2308 <__multf3+0xba8>
    1800:	000107b7          	lui	a5,0x10
    1804:	00f76733          	or	a4,a4,a5
    1808:	02e12623          	sw	a4,44(sp)
    180c:	02010613          	add	a2,sp,32
    1810:	02c10793          	add	a5,sp,44
    1814:	0007a703          	lw	a4,0(a5) # 10000 <_svfprintf_r+0x1990>
    1818:	ffc7a683          	lw	a3,-4(a5)
    181c:	ffc78793          	add	a5,a5,-4
    1820:	00371713          	sll	a4,a4,0x3
    1824:	01d6d693          	srl	a3,a3,0x1d
    1828:	00d76733          	or	a4,a4,a3
    182c:	00e7a223          	sw	a4,4(a5)
    1830:	fef612e3          	bne	a2,a5,1814 <__multf3+0xb4>
    1834:	02012783          	lw	a5,32(sp)
    1838:	00379793          	sll	a5,a5,0x3
    183c:	02f12023          	sw	a5,32(sp)
    1840:	ffffc7b7          	lui	a5,0xffffc
    1844:	00178793          	add	a5,a5,1 # ffffc001 <_end+0xfffe2031>
    1848:	00f484b3          	add	s1,s1,a5
    184c:	00000b93          	li	s7,0
    1850:	010a1513          	sll	a0,s4,0x10
    1854:	00008737          	lui	a4,0x8
    1858:	010a5793          	srl	a5,s4,0x10
    185c:	01055513          	srl	a0,a0,0x10
    1860:	fff70713          	add	a4,a4,-1 # 7fff <_vfprintf_r+0x28bb>
    1864:	05412e23          	sw	s4,92(sp)
    1868:	05212823          	sw	s2,80(sp)
    186c:	05612a23          	sw	s6,84(sp)
    1870:	05512c23          	sw	s5,88(sp)
    1874:	03212823          	sw	s2,48(sp)
    1878:	03612a23          	sw	s6,52(sp)
    187c:	03512c23          	sw	s5,56(sp)
    1880:	02a12e23          	sw	a0,60(sp)
    1884:	00e7f7b3          	and	a5,a5,a4
    1888:	01fa5a13          	srl	s4,s4,0x1f
    188c:	2a0782e3          	beqz	a5,2330 <__multf3+0xbd0>
    1890:	3ee784e3          	beq	a5,a4,2478 <__multf3+0xd18>
    1894:	00010737          	lui	a4,0x10
    1898:	00e56533          	or	a0,a0,a4
    189c:	02a12e23          	sw	a0,60(sp)
    18a0:	03010593          	add	a1,sp,48
    18a4:	03c10713          	add	a4,sp,60
    18a8:	00072683          	lw	a3,0(a4) # 10000 <_svfprintf_r+0x1990>
    18ac:	ffc72603          	lw	a2,-4(a4)
    18b0:	ffc70713          	add	a4,a4,-4
    18b4:	00369693          	sll	a3,a3,0x3
    18b8:	01d65613          	srl	a2,a2,0x1d
    18bc:	00c6e6b3          	or	a3,a3,a2
    18c0:	00d72223          	sw	a3,4(a4)
    18c4:	fee592e3          	bne	a1,a4,18a8 <__multf3+0x148>
    18c8:	03012703          	lw	a4,48(sp)
    18cc:	00371713          	sll	a4,a4,0x3
    18d0:	02e12823          	sw	a4,48(sp)
    18d4:	ffffc737          	lui	a4,0xffffc
    18d8:	00170713          	add	a4,a4,1 # ffffc001 <_end+0xfffe2031>
    18dc:	00e787b3          	add	a5,a5,a4
    18e0:	00000693          	li	a3,0
    18e4:	009787b3          	add	a5,a5,s1
    18e8:	00f12623          	sw	a5,12(sp)
    18ec:	00178793          	add	a5,a5,1
    18f0:	0149c733          	xor	a4,s3,s4
    18f4:	00f12423          	sw	a5,8(sp)
    18f8:	002b9793          	sll	a5,s7,0x2
    18fc:	00e12223          	sw	a4,4(sp)
    1900:	00d7e7b3          	or	a5,a5,a3
    1904:	00a00713          	li	a4,10
    1908:	3cf74ce3          	blt	a4,a5,24e0 <__multf3+0xd80>
    190c:	00200713          	li	a4,2
    1910:	38f748e3          	blt	a4,a5,24a0 <__multf3+0xd40>
    1914:	fff78793          	add	a5,a5,-1
    1918:	00100713          	li	a4,1
    191c:	42f774e3          	bgeu	a4,a5,2544 <__multf3+0xde4>
    1920:	02012883          	lw	a7,32(sp)
    1924:	03012f03          	lw	t5,48(sp)
    1928:	000105b7          	lui	a1,0x10
    192c:	fff58713          	add	a4,a1,-1 # ffff <_svfprintf_r+0x198f>
    1930:	0108d993          	srl	s3,a7,0x10
    1934:	010f5913          	srl	s2,t5,0x10
    1938:	00e8f8b3          	and	a7,a7,a4
    193c:	00ef7f33          	and	t5,t5,a4
    1940:	031f0633          	mul	a2,t5,a7
    1944:	03e98533          	mul	a0,s3,t5
    1948:	01065793          	srl	a5,a2,0x10
    194c:	031906b3          	mul	a3,s2,a7
    1950:	00a686b3          	add	a3,a3,a0
    1954:	00d787b3          	add	a5,a5,a3
    1958:	03298bb3          	mul	s7,s3,s2
    195c:	00a7f463          	bgeu	a5,a0,1964 <__multf3+0x204>
    1960:	00bb8bb3          	add	s7,s7,a1
    1964:	03412e83          	lw	t4,52(sp)
    1968:	0107d693          	srl	a3,a5,0x10
    196c:	00e7f7b3          	and	a5,a5,a4
    1970:	00e67633          	and	a2,a2,a4
    1974:	01079793          	sll	a5,a5,0x10
    1978:	00c787b3          	add	a5,a5,a2
    197c:	010ed393          	srl	t2,t4,0x10
    1980:	00eefeb3          	and	t4,t4,a4
    1984:	03d98633          	mul	a2,s3,t4
    1988:	00f12823          	sw	a5,16(sp)
    198c:	04f12823          	sw	a5,80(sp)
    1990:	03138733          	mul	a4,t2,a7
    1994:	031e87b3          	mul	a5,t4,a7
    1998:	00c70733          	add	a4,a4,a2
    199c:	0107d313          	srl	t1,a5,0x10
    19a0:	00e30333          	add	t1,t1,a4
    19a4:	02798b33          	mul	s6,s3,t2
    19a8:	00c37663          	bgeu	t1,a2,19b4 <__multf3+0x254>
    19ac:	00010737          	lui	a4,0x10
    19b0:	00eb0b33          	add	s6,s6,a4
    19b4:	02412803          	lw	a6,36(sp)
    19b8:	00010737          	lui	a4,0x10
    19bc:	fff70613          	add	a2,a4,-1 # ffff <_svfprintf_r+0x198f>
    19c0:	01035513          	srl	a0,t1,0x10
    19c4:	00c37333          	and	t1,t1,a2
    19c8:	00c7f7b3          	and	a5,a5,a2
    19cc:	01085493          	srl	s1,a6,0x10
    19d0:	01031313          	sll	t1,t1,0x10
    19d4:	00c87833          	and	a6,a6,a2
    19d8:	00f30333          	add	t1,t1,a5
    19dc:	03e48fb3          	mul	t6,s1,t5
    19e0:	006686b3          	add	a3,a3,t1
    19e4:	03e807b3          	mul	a5,a6,t5
    19e8:	03090e33          	mul	t3,s2,a6
    19ec:	0107d613          	srl	a2,a5,0x10
    19f0:	01fe0e33          	add	t3,t3,t6
    19f4:	01c60633          	add	a2,a2,t3
    19f8:	029905b3          	mul	a1,s2,s1
    19fc:	01f67463          	bgeu	a2,t6,1a04 <__multf3+0x2a4>
    1a00:	00e585b3          	add	a1,a1,a4
    1a04:	01065a93          	srl	s5,a2,0x10
    1a08:	00010737          	lui	a4,0x10
    1a0c:	00ba8ab3          	add	s5,s5,a1
    1a10:	fff70593          	add	a1,a4,-1 # ffff <_svfprintf_r+0x198f>
    1a14:	00b7f7b3          	and	a5,a5,a1
    1a18:	00b67633          	and	a2,a2,a1
    1a1c:	01061613          	sll	a2,a2,0x10
    1a20:	030e85b3          	mul	a1,t4,a6
    1a24:	00f60633          	add	a2,a2,a5
    1a28:	03d48fb3          	mul	t6,s1,t4
    1a2c:	0105d793          	srl	a5,a1,0x10
    1a30:	03038e33          	mul	t3,t2,a6
    1a34:	01fe0e33          	add	t3,t3,t6
    1a38:	01c787b3          	add	a5,a5,t3
    1a3c:	029382b3          	mul	t0,t2,s1
    1a40:	01f7f463          	bgeu	a5,t6,1a48 <__multf3+0x2e8>
    1a44:	00e282b3          	add	t0,t0,a4
    1a48:	0107d713          	srl	a4,a5,0x10
    1a4c:	00570733          	add	a4,a4,t0
    1a50:	00010a37          	lui	s4,0x10
    1a54:	00e12a23          	sw	a4,20(sp)
    1a58:	fffa0713          	add	a4,s4,-1 # ffff <_svfprintf_r+0x198f>
    1a5c:	03812e03          	lw	t3,56(sp)
    1a60:	00e7f7b3          	and	a5,a5,a4
    1a64:	00e5f5b3          	and	a1,a1,a4
    1a68:	01079793          	sll	a5,a5,0x10
    1a6c:	00b787b3          	add	a5,a5,a1
    1a70:	00f12c23          	sw	a5,24(sp)
    1a74:	010e5793          	srl	a5,t3,0x10
    1a78:	00ee7e33          	and	t3,t3,a4
    1a7c:	031e05b3          	mul	a1,t3,a7
    1a80:	03c98c33          	mul	s8,s3,t3
    1a84:	0105d713          	srl	a4,a1,0x10
    1a88:	031782b3          	mul	t0,a5,a7
    1a8c:	018282b3          	add	t0,t0,s8
    1a90:	00570733          	add	a4,a4,t0
    1a94:	02f98fb3          	mul	t6,s3,a5
    1a98:	01877463          	bgeu	a4,s8,1aa0 <__multf3+0x340>
    1a9c:	014f8fb3          	add	t6,t6,s4
    1aa0:	01075293          	srl	t0,a4,0x10
    1aa4:	01f28fb3          	add	t6,t0,t6
    1aa8:	00010cb7          	lui	s9,0x10
    1aac:	01f12e23          	sw	t6,28(sp)
    1ab0:	fffc8f93          	add	t6,s9,-1 # ffff <_svfprintf_r+0x198f>
    1ab4:	01f77733          	and	a4,a4,t6
    1ab8:	01f5f5b3          	and	a1,a1,t6
    1abc:	01071713          	sll	a4,a4,0x10
    1ac0:	00b70733          	add	a4,a4,a1
    1ac4:	02812583          	lw	a1,40(sp)
    1ac8:	0105d293          	srl	t0,a1,0x10
    1acc:	01f5f5b3          	and	a1,a1,t6
    1ad0:	03e58fb3          	mul	t6,a1,t5
    1ad4:	03e28d33          	mul	s10,t0,t5
    1ad8:	010fdd93          	srl	s11,t6,0x10
    1adc:	02b90a33          	mul	s4,s2,a1
    1ae0:	01aa0a33          	add	s4,s4,s10
    1ae4:	014d8a33          	add	s4,s11,s4
    1ae8:	02590c33          	mul	s8,s2,t0
    1aec:	01aa7463          	bgeu	s4,s10,1af4 <__multf3+0x394>
    1af0:	019c0c33          	add	s8,s8,s9
    1af4:	017686b3          	add	a3,a3,s7
    1af8:	0066b333          	sltu	t1,a3,t1
    1afc:	010a5d13          	srl	s10,s4,0x10
    1b00:	00650533          	add	a0,a0,t1
    1b04:	00010cb7          	lui	s9,0x10
    1b08:	01650533          	add	a0,a0,s6
    1b0c:	018d0d33          	add	s10,s10,s8
    1b10:	00c68633          	add	a2,a3,a2
    1b14:	fffc8c13          	add	s8,s9,-1 # ffff <_svfprintf_r+0x198f>
    1b18:	01550ab3          	add	s5,a0,s5
    1b1c:	018a7a33          	and	s4,s4,s8
    1b20:	00d636b3          	sltu	a3,a2,a3
    1b24:	00da86b3          	add	a3,s5,a3
    1b28:	010a1a13          	sll	s4,s4,0x10
    1b2c:	018fffb3          	and	t6,t6,s8
    1b30:	01fa0fb3          	add	t6,s4,t6
    1b34:	00aaba33          	sltu	s4,s5,a0
    1b38:	0156bab3          	sltu	s5,a3,s5
    1b3c:	015a6a33          	or	s4,s4,s5
    1b40:	00653533          	sltu	a0,a0,t1
    1b44:	00aa0533          	add	a0,s4,a0
    1b48:	01812303          	lw	t1,24(sp)
    1b4c:	01412a03          	lw	s4,20(sp)
    1b50:	04c12a23          	sw	a2,84(sp)
    1b54:	00668333          	add	t1,a3,t1
    1b58:	01450ab3          	add	s5,a0,s4
    1b5c:	01c12a03          	lw	s4,28(sp)
    1b60:	00d336b3          	sltu	a3,t1,a3
    1b64:	00da86b3          	add	a3,s5,a3
    1b68:	00e30733          	add	a4,t1,a4
    1b6c:	01468b33          	add	s6,a3,s4
    1b70:	00673333          	sltu	t1,a4,t1
    1b74:	006b0333          	add	t1,s6,t1
    1b78:	01f70fb3          	add	t6,a4,t6
    1b7c:	01a30d33          	add	s10,t1,s10
    1b80:	00efb733          	sltu	a4,t6,a4
    1b84:	00aab533          	sltu	a0,s5,a0
    1b88:	00ed0733          	add	a4,s10,a4
    1b8c:	0156bab3          	sltu	s5,a3,s5
    1b90:	00db36b3          	sltu	a3,s6,a3
    1b94:	01633b33          	sltu	s6,t1,s6
    1b98:	0166e6b3          	or	a3,a3,s6
    1b9c:	006d3a33          	sltu	s4,s10,t1
    1ba0:	01556ab3          	or	s5,a0,s5
    1ba4:	01a73d33          	sltu	s10,a4,s10
    1ba8:	00da8ab3          	add	s5,s5,a3
    1bac:	01aa6a33          	or	s4,s4,s10
    1bb0:	015a0a33          	add	s4,s4,s5
    1bb4:	03c12a83          	lw	s5,60(sp)
    1bb8:	05f12c23          	sw	t6,88(sp)
    1bbc:	010adb13          	srl	s6,s5,0x10
    1bc0:	018afab3          	and	s5,s5,s8
    1bc4:	031a86b3          	mul	a3,s5,a7
    1bc8:	03598533          	mul	a0,s3,s5
    1bcc:	031b08b3          	mul	a7,s6,a7
    1bd0:	00a88333          	add	t1,a7,a0
    1bd4:	0106d893          	srl	a7,a3,0x10
    1bd8:	006888b3          	add	a7,a7,t1
    1bdc:	036989b3          	mul	s3,s3,s6
    1be0:	00a8f463          	bgeu	a7,a0,1be8 <__multf3+0x488>
    1be4:	019989b3          	add	s3,s3,s9
    1be8:	02c12b83          	lw	s7,44(sp)
    1bec:	0108d513          	srl	a0,a7,0x10
    1bf0:	01350533          	add	a0,a0,s3
    1bf4:	00010c37          	lui	s8,0x10
    1bf8:	00a12a23          	sw	a0,20(sp)
    1bfc:	fffc0513          	add	a0,s8,-1 # ffff <_svfprintf_r+0x198f>
    1c00:	010bd993          	srl	s3,s7,0x10
    1c04:	00abfbb3          	and	s7,s7,a0
    1c08:	00a6f6b3          	and	a3,a3,a0
    1c0c:	00a8f8b3          	and	a7,a7,a0
    1c10:	03390333          	mul	t1,s2,s3
    1c14:	01089893          	sll	a7,a7,0x10
    1c18:	00d888b3          	add	a7,a7,a3
    1c1c:	03eb8533          	mul	a0,s7,t5
    1c20:	03790933          	mul	s2,s2,s7
    1c24:	01055693          	srl	a3,a0,0x10
    1c28:	03e98f33          	mul	t5,s3,t5
    1c2c:	01e90933          	add	s2,s2,t5
    1c30:	012686b3          	add	a3,a3,s2
    1c34:	01e6f463          	bgeu	a3,t5,1c3c <__multf3+0x4dc>
    1c38:	01830333          	add	t1,t1,s8
    1c3c:	0106df13          	srl	t5,a3,0x10
    1c40:	006f0333          	add	t1,t5,t1
    1c44:	00010cb7          	lui	s9,0x10
    1c48:	00612c23          	sw	t1,24(sp)
    1c4c:	fffc8313          	add	t1,s9,-1 # ffff <_svfprintf_r+0x198f>
    1c50:	00657533          	and	a0,a0,t1
    1c54:	0066f6b3          	and	a3,a3,t1
    1c58:	03c48f33          	mul	t5,s1,t3
    1c5c:	01069693          	sll	a3,a3,0x10
    1c60:	00a686b3          	add	a3,a3,a0
    1c64:	03c80333          	mul	t1,a6,t3
    1c68:	03078933          	mul	s2,a5,a6
    1c6c:	01035513          	srl	a0,t1,0x10
    1c70:	01e90933          	add	s2,s2,t5
    1c74:	01250533          	add	a0,a0,s2
    1c78:	02f48c33          	mul	s8,s1,a5
    1c7c:	01e57463          	bgeu	a0,t5,1c84 <__multf3+0x524>
    1c80:	019c0c33          	add	s8,s8,s9
    1c84:	00010d37          	lui	s10,0x10
    1c88:	fffd0f13          	add	t5,s10,-1 # ffff <_svfprintf_r+0x198f>
    1c8c:	01055913          	srl	s2,a0,0x10
    1c90:	01e57533          	and	a0,a0,t5
    1c94:	01e37333          	and	t1,t1,t5
    1c98:	01051513          	sll	a0,a0,0x10
    1c9c:	01890933          	add	s2,s2,s8
    1ca0:	02b38f33          	mul	t5,t2,a1
    1ca4:	00650533          	add	a0,a0,t1
    1ca8:	03d28c33          	mul	s8,t0,t4
    1cac:	02be8333          	mul	t1,t4,a1
    1cb0:	018f0f33          	add	t5,t5,s8
    1cb4:	01035d93          	srl	s11,t1,0x10
    1cb8:	01ed8f33          	add	t5,s11,t5
    1cbc:	02538cb3          	mul	s9,t2,t0
    1cc0:	018f7463          	bgeu	t5,s8,1cc8 <__multf3+0x568>
    1cc4:	01ac8cb3          	add	s9,s9,s10
    1cc8:	010f5c13          	srl	s8,t5,0x10
    1ccc:	019c0c33          	add	s8,s8,s9
    1cd0:	00010cb7          	lui	s9,0x10
    1cd4:	fffc8d13          	add	s10,s9,-1 # ffff <_svfprintf_r+0x198f>
    1cd8:	01af7f33          	and	t5,t5,s10
    1cdc:	010f1f13          	sll	t5,t5,0x10
    1ce0:	01a37333          	and	t1,t1,s10
    1ce4:	006f0333          	add	t1,t5,t1
    1ce8:	01412f03          	lw	t5,20(sp)
    1cec:	011708b3          	add	a7,a4,a7
    1cf0:	01812d03          	lw	s10,24(sp)
    1cf4:	01ea0f33          	add	t5,s4,t5
    1cf8:	00e8b733          	sltu	a4,a7,a4
    1cfc:	00ef0733          	add	a4,t5,a4
    1d00:	00d886b3          	add	a3,a7,a3
    1d04:	01a70d33          	add	s10,a4,s10
    1d08:	0116b8b3          	sltu	a7,a3,a7
    1d0c:	011d08b3          	add	a7,s10,a7
    1d10:	00a68533          	add	a0,a3,a0
    1d14:	01288933          	add	s2,a7,s2
    1d18:	00d536b3          	sltu	a3,a0,a3
    1d1c:	00d906b3          	add	a3,s2,a3
    1d20:	014f3a33          	sltu	s4,t5,s4
    1d24:	01e73f33          	sltu	t5,a4,t5
    1d28:	00ed3733          	sltu	a4,s10,a4
    1d2c:	01a8bd33          	sltu	s10,a7,s10
    1d30:	01ea6f33          	or	t5,s4,t5
    1d34:	011938b3          	sltu	a7,s2,a7
    1d38:	01a76733          	or	a4,a4,s10
    1d3c:	0126b933          	sltu	s2,a3,s2
    1d40:	01868c33          	add	s8,a3,s8
    1d44:	00ef0733          	add	a4,t5,a4
    1d48:	0128e8b3          	or	a7,a7,s2
    1d4c:	00e88933          	add	s2,a7,a4
    1d50:	03c28f33          	mul	t5,t0,t3
    1d54:	00dc38b3          	sltu	a7,s8,a3
    1d58:	00650333          	add	t1,a0,t1
    1d5c:	00a33533          	sltu	a0,t1,a0
    1d60:	00ac0533          	add	a0,s8,a0
    1d64:	01853c33          	sltu	s8,a0,s8
    1d68:	0188e8b3          	or	a7,a7,s8
    1d6c:	04612e23          	sw	t1,92(sp)
    1d70:	012888b3          	add	a7,a7,s2
    1d74:	02be06b3          	mul	a3,t3,a1
    1d78:	02b78a33          	mul	s4,a5,a1
    1d7c:	0106d713          	srl	a4,a3,0x10
    1d80:	01ea0a33          	add	s4,s4,t5
    1d84:	01470733          	add	a4,a4,s4
    1d88:	02578933          	mul	s2,a5,t0
    1d8c:	01e77463          	bgeu	a4,t5,1d94 <__multf3+0x634>
    1d90:	01990933          	add	s2,s2,s9
    1d94:	01075f13          	srl	t5,a4,0x10
    1d98:	012f0f33          	add	t5,t5,s2
    1d9c:	00010937          	lui	s2,0x10
    1da0:	fff90a13          	add	s4,s2,-1 # ffff <_svfprintf_r+0x198f>
    1da4:	01477733          	and	a4,a4,s4
    1da8:	0146f6b3          	and	a3,a3,s4
    1dac:	01071713          	sll	a4,a4,0x10
    1db0:	03548a33          	mul	s4,s1,s5
    1db4:	00d70733          	add	a4,a4,a3
    1db8:	030a86b3          	mul	a3,s5,a6
    1dbc:	030b0833          	mul	a6,s6,a6
    1dc0:	01480c33          	add	s8,a6,s4
    1dc4:	0106d813          	srl	a6,a3,0x10
    1dc8:	01880833          	add	a6,a6,s8
    1dcc:	036484b3          	mul	s1,s1,s6
    1dd0:	01487463          	bgeu	a6,s4,1dd8 <__multf3+0x678>
    1dd4:	012484b3          	add	s1,s1,s2
    1dd8:	01085913          	srl	s2,a6,0x10
    1ddc:	00010c37          	lui	s8,0x10
    1de0:	009904b3          	add	s1,s2,s1
    1de4:	fffc0913          	add	s2,s8,-1 # ffff <_svfprintf_r+0x198f>
    1de8:	0126f6b3          	and	a3,a3,s2
    1dec:	01287833          	and	a6,a6,s2
    1df0:	01081813          	sll	a6,a6,0x10
    1df4:	03db8a33          	mul	s4,s7,t4
    1df8:	00d80833          	add	a6,a6,a3
    1dfc:	03d98eb3          	mul	t4,s3,t4
    1e00:	010a5693          	srl	a3,s4,0x10
    1e04:	03338933          	mul	s2,t2,s3
    1e08:	037383b3          	mul	t2,t2,s7
    1e0c:	01d383b3          	add	t2,t2,t4
    1e10:	007686b3          	add	a3,a3,t2
    1e14:	01d6f463          	bgeu	a3,t4,1e1c <__multf3+0x6bc>
    1e18:	01890933          	add	s2,s2,s8
    1e1c:	0106de93          	srl	t4,a3,0x10
    1e20:	012e8eb3          	add	t4,t4,s2
    1e24:	00010937          	lui	s2,0x10
    1e28:	fff90393          	add	t2,s2,-1 # ffff <_svfprintf_r+0x198f>
    1e2c:	0076f6b3          	and	a3,a3,t2
    1e30:	007a7a33          	and	s4,s4,t2
    1e34:	01069693          	sll	a3,a3,0x10
    1e38:	02ba83b3          	mul	t2,s5,a1
    1e3c:	014686b3          	add	a3,a3,s4
    1e40:	02bb05b3          	mul	a1,s6,a1
    1e44:	03528a33          	mul	s4,t0,s5
    1e48:	01458c33          	add	s8,a1,s4
    1e4c:	0103d593          	srl	a1,t2,0x10
    1e50:	018585b3          	add	a1,a1,s8
    1e54:	036282b3          	mul	t0,t0,s6
    1e58:	0145f463          	bgeu	a1,s4,1e60 <__multf3+0x700>
    1e5c:	012282b3          	add	t0,t0,s2
    1e60:	0105d913          	srl	s2,a1,0x10
    1e64:	005902b3          	add	t0,s2,t0
    1e68:	00010937          	lui	s2,0x10
    1e6c:	fff90a13          	add	s4,s2,-1 # ffff <_svfprintf_r+0x198f>
    1e70:	0145f5b3          	and	a1,a1,s4
    1e74:	0143f3b3          	and	t2,t2,s4
    1e78:	01059593          	sll	a1,a1,0x10
    1e7c:	03378a33          	mul	s4,a5,s3
    1e80:	007585b3          	add	a1,a1,t2
    1e84:	037787b3          	mul	a5,a5,s7
    1e88:	03cb83b3          	mul	t2,s7,t3
    1e8c:	03c98e33          	mul	t3,s3,t3
    1e90:	0103dc13          	srl	s8,t2,0x10
    1e94:	01c787b3          	add	a5,a5,t3
    1e98:	00fc07b3          	add	a5,s8,a5
    1e9c:	01c7f463          	bgeu	a5,t3,1ea4 <__multf3+0x744>
    1ea0:	012a0a33          	add	s4,s4,s2
    1ea4:	00e50733          	add	a4,a0,a4
    1ea8:	0107de13          	srl	t3,a5,0x10
    1eac:	00010937          	lui	s2,0x10
    1eb0:	01e88f33          	add	t5,a7,t5
    1eb4:	014e0e33          	add	t3,t3,s4
    1eb8:	00a73533          	sltu	a0,a4,a0
    1ebc:	fff90a13          	add	s4,s2,-1 # ffff <_svfprintf_r+0x198f>
    1ec0:	00af0533          	add	a0,t5,a0
    1ec4:	01070833          	add	a6,a4,a6
    1ec8:	0147f7b3          	and	a5,a5,s4
    1ecc:	009504b3          	add	s1,a0,s1
    1ed0:	0143f3b3          	and	t2,t2,s4
    1ed4:	00e83733          	sltu	a4,a6,a4
    1ed8:	01079793          	sll	a5,a5,0x10
    1edc:	007787b3          	add	a5,a5,t2
    1ee0:	00e483b3          	add	t2,s1,a4
    1ee4:	011f38b3          	sltu	a7,t5,a7
    1ee8:	01e53f33          	sltu	t5,a0,t5
    1eec:	00a4b533          	sltu	a0,s1,a0
    1ef0:	0093b4b3          	sltu	s1,t2,s1
    1ef4:	00956533          	or	a0,a0,s1
    1ef8:	01e8e8b3          	or	a7,a7,t5
    1efc:	00a888b3          	add	a7,a7,a0
    1f00:	037a8533          	mul	a0,s5,s7
    1f04:	00d806b3          	add	a3,a6,a3
    1f08:	01d38eb3          	add	t4,t2,t4
    1f0c:	06d12023          	sw	a3,96(sp)
    1f10:	0106b6b3          	sltu	a3,a3,a6
    1f14:	00de8733          	add	a4,t4,a3
    1f18:	007eb3b3          	sltu	t2,t4,t2
    1f1c:	01d73eb3          	sltu	t4,a4,t4
    1f20:	01d3e3b3          	or	t2,t2,t4
    1f24:	00b705b3          	add	a1,a4,a1
    1f28:	03598ab3          	mul	s5,s3,s5
    1f2c:	011383b3          	add	t2,t2,a7
    1f30:	005382b3          	add	t0,t2,t0
    1f34:	00e5b733          	sltu	a4,a1,a4
    1f38:	00e28733          	add	a4,t0,a4
    1f3c:	00f587b3          	add	a5,a1,a5
    1f40:	01c70e33          	add	t3,a4,t3
    1f44:	06f12223          	sw	a5,100(sp)
    1f48:	00b7b7b3          	sltu	a5,a5,a1
    1f4c:	00fe07b3          	add	a5,t3,a5
    1f50:	033b09b3          	mul	s3,s6,s3
    1f54:	01055693          	srl	a3,a0,0x10
    1f58:	0072b3b3          	sltu	t2,t0,t2
    1f5c:	005732b3          	sltu	t0,a4,t0
    1f60:	00ee3733          	sltu	a4,t3,a4
    1f64:	01c7be33          	sltu	t3,a5,t3
    1f68:	0053e3b3          	or	t2,t2,t0
    1f6c:	01c76733          	or	a4,a4,t3
    1f70:	037b0b33          	mul	s6,s6,s7
    1f74:	015b0b33          	add	s6,s6,s5
    1f78:	016686b3          	add	a3,a3,s6
    1f7c:	0156f463          	bgeu	a3,s5,1f84 <__multf3+0x824>
    1f80:	012989b3          	add	s3,s3,s2
    1f84:	00010837          	lui	a6,0x10
    1f88:	fff80813          	add	a6,a6,-1 # ffff <_svfprintf_r+0x198f>
    1f8c:	0106d593          	srl	a1,a3,0x10
    1f90:	0106f6b3          	and	a3,a3,a6
    1f94:	01069693          	sll	a3,a3,0x10
    1f98:	01057533          	and	a0,a0,a6
    1f9c:	00a686b3          	add	a3,a3,a0
    1fa0:	00d786b3          	add	a3,a5,a3
    1fa4:	007585b3          	add	a1,a1,t2
    1fa8:	00f6b7b3          	sltu	a5,a3,a5
    1fac:	00e58733          	add	a4,a1,a4
    1fb0:	00e787b3          	add	a5,a5,a4
    1fb4:	013787b3          	add	a5,a5,s3
    1fb8:	06f12623          	sw	a5,108(sp)
    1fbc:	01012783          	lw	a5,16(sp)
    1fc0:	00d31313          	sll	t1,t1,0xd
    1fc4:	06d12423          	sw	a3,104(sp)
    1fc8:	00c7e7b3          	or	a5,a5,a2
    1fcc:	00ffefb3          	or	t6,t6,a5
    1fd0:	01f36333          	or	t1,t1,t6
    1fd4:	05010793          	add	a5,sp,80
    1fd8:	06010613          	add	a2,sp,96
    1fdc:	00c7a703          	lw	a4,12(a5)
    1fe0:	0107a683          	lw	a3,16(a5)
    1fe4:	00478793          	add	a5,a5,4
    1fe8:	01375713          	srl	a4,a4,0x13
    1fec:	00d69693          	sll	a3,a3,0xd
    1ff0:	00d76733          	or	a4,a4,a3
    1ff4:	fee7ae23          	sw	a4,-4(a5)
    1ff8:	fef612e3          	bne	a2,a5,1fdc <__multf3+0x87c>
    1ffc:	05812703          	lw	a4,88(sp)
    2000:	05012783          	lw	a5,80(sp)
    2004:	00603333          	snez	t1,t1
    2008:	04e12423          	sw	a4,72(sp)
    200c:	05412703          	lw	a4,84(sp)
    2010:	00f36333          	or	t1,t1,a5
    2014:	05c12783          	lw	a5,92(sp)
    2018:	04e12223          	sw	a4,68(sp)
    201c:	00100737          	lui	a4,0x100
    2020:	04f12623          	sw	a5,76(sp)
    2024:	04612023          	sw	t1,64(sp)
    2028:	00e7f7b3          	and	a5,a5,a4
    202c:	52078e63          	beqz	a5,2568 <__multf3+0xe08>
    2030:	01f31313          	sll	t1,t1,0x1f
    2034:	04010793          	add	a5,sp,64
    2038:	04c10613          	add	a2,sp,76
    203c:	0007a703          	lw	a4,0(a5)
    2040:	0047a683          	lw	a3,4(a5)
    2044:	00478793          	add	a5,a5,4
    2048:	00175713          	srl	a4,a4,0x1
    204c:	01f69693          	sll	a3,a3,0x1f
    2050:	00d76733          	or	a4,a4,a3
    2054:	fee7ae23          	sw	a4,-4(a5)
    2058:	fef612e3          	bne	a2,a5,203c <__multf3+0x8dc>
    205c:	04c12783          	lw	a5,76(sp)
    2060:	00603333          	snez	t1,t1
    2064:	0017d793          	srl	a5,a5,0x1
    2068:	04f12623          	sw	a5,76(sp)
    206c:	04012783          	lw	a5,64(sp)
    2070:	0067e7b3          	or	a5,a5,t1
    2074:	04f12023          	sw	a5,64(sp)
    2078:	00812703          	lw	a4,8(sp)
    207c:	000047b7          	lui	a5,0x4
    2080:	fff78793          	add	a5,a5,-1 # 3fff <__extenddftf2+0x14b>
    2084:	00f707b3          	add	a5,a4,a5
    2088:	50f05263          	blez	a5,258c <__multf3+0xe2c>
    208c:	04012703          	lw	a4,64(sp)
    2090:	00777693          	and	a3,a4,7
    2094:	04068463          	beqz	a3,20dc <__multf3+0x97c>
    2098:	00f77693          	and	a3,a4,15
    209c:	00400613          	li	a2,4
    20a0:	02c68e63          	beq	a3,a2,20dc <__multf3+0x97c>
    20a4:	00470713          	add	a4,a4,4 # 100004 <_end+0xe6034>
    20a8:	00473693          	sltiu	a3,a4,4
    20ac:	04e12023          	sw	a4,64(sp)
    20b0:	04412703          	lw	a4,68(sp)
    20b4:	00e68733          	add	a4,a3,a4
    20b8:	04e12223          	sw	a4,68(sp)
    20bc:	00d73733          	sltu	a4,a4,a3
    20c0:	04812683          	lw	a3,72(sp)
    20c4:	00e68733          	add	a4,a3,a4
    20c8:	04e12423          	sw	a4,72(sp)
    20cc:	00d73733          	sltu	a4,a4,a3
    20d0:	04c12683          	lw	a3,76(sp)
    20d4:	00d70733          	add	a4,a4,a3
    20d8:	04e12623          	sw	a4,76(sp)
    20dc:	04c12703          	lw	a4,76(sp)
    20e0:	001006b7          	lui	a3,0x100
    20e4:	00d776b3          	and	a3,a4,a3
    20e8:	02068063          	beqz	a3,2108 <__multf3+0x9a8>
    20ec:	fff007b7          	lui	a5,0xfff00
    20f0:	fff78793          	add	a5,a5,-1 # ffefffff <_end+0xffee602f>
    20f4:	00f77733          	and	a4,a4,a5
    20f8:	04e12623          	sw	a4,76(sp)
    20fc:	00812703          	lw	a4,8(sp)
    2100:	000047b7          	lui	a5,0x4
    2104:	00f707b3          	add	a5,a4,a5
    2108:	04010713          	add	a4,sp,64
    210c:	04c10593          	add	a1,sp,76
    2110:	00072683          	lw	a3,0(a4)
    2114:	00472603          	lw	a2,4(a4)
    2118:	00470713          	add	a4,a4,4
    211c:	0036d693          	srl	a3,a3,0x3
    2120:	01d61613          	sll	a2,a2,0x1d
    2124:	00c6e6b3          	or	a3,a3,a2
    2128:	fed72e23          	sw	a3,-4(a4)
    212c:	feb712e3          	bne	a4,a1,2110 <__multf3+0x9b0>
    2130:	000086b7          	lui	a3,0x8
    2134:	ffe68613          	add	a2,a3,-2 # 7ffe <_vfprintf_r+0x28ba>
    2138:	04c12703          	lw	a4,76(sp)
    213c:	42f64c63          	blt	a2,a5,2574 <__multf3+0xe14>
    2140:	00375713          	srl	a4,a4,0x3
    2144:	04e12623          	sw	a4,76(sp)
    2148:	04c12703          	lw	a4,76(sp)
    214c:	0ac12083          	lw	ra,172(sp)
    2150:	00040513          	mv	a0,s0
    2154:	04e11e23          	sh	a4,92(sp)
    2158:	00412703          	lw	a4,4(sp)
    215c:	0a412483          	lw	s1,164(sp)
    2160:	0a012903          	lw	s2,160(sp)
    2164:	00f71713          	sll	a4,a4,0xf
    2168:	00f767b3          	or	a5,a4,a5
    216c:	04f11f23          	sh	a5,94(sp)
    2170:	04012783          	lw	a5,64(sp)
    2174:	09c12983          	lw	s3,156(sp)
    2178:	09812a03          	lw	s4,152(sp)
    217c:	00f42023          	sw	a5,0(s0) # 80000 <_end+0x66030>
    2180:	04412783          	lw	a5,68(sp)
    2184:	09412a83          	lw	s5,148(sp)
    2188:	09012b03          	lw	s6,144(sp)
    218c:	00f42223          	sw	a5,4(s0)
    2190:	04812783          	lw	a5,72(sp)
    2194:	08c12b83          	lw	s7,140(sp)
    2198:	08812c03          	lw	s8,136(sp)
    219c:	00f42423          	sw	a5,8(s0)
    21a0:	05c12783          	lw	a5,92(sp)
    21a4:	08412c83          	lw	s9,132(sp)
    21a8:	08012d03          	lw	s10,128(sp)
    21ac:	00f42623          	sw	a5,12(s0)
    21b0:	0a812403          	lw	s0,168(sp)
    21b4:	07c12d83          	lw	s11,124(sp)
    21b8:	0b010113          	add	sp,sp,176
    21bc:	00008067          	ret
    21c0:	00a7e633          	or	a2,a5,a0
    21c4:	00d66633          	or	a2,a2,a3
    21c8:	00e66633          	or	a2,a2,a4
    21cc:	14060c63          	beqz	a2,2324 <__multf3+0xbc4>
    21d0:	04070e63          	beqz	a4,222c <__multf3+0xacc>
    21d4:	00070513          	mv	a0,a4
    21d8:	240020ef          	jal	4418 <__clzsi2>
    21dc:	ff450693          	add	a3,a0,-12
    21e0:	02000613          	li	a2,32
    21e4:	40d60633          	sub	a2,a2,a3
    21e8:	00000793          	li	a5,0
    21ec:	ffc00593          	li	a1,-4
    21f0:	02b785b3          	mul	a1,a5,a1
    21f4:	02010313          	add	t1,sp,32
    21f8:	00c58713          	add	a4,a1,12
    21fc:	00e30733          	add	a4,t1,a4
    2200:	40b005b3          	neg	a1,a1
    2204:	0ee31063          	bne	t1,a4,22e4 <__multf3+0xb84>
    2208:	fff78713          	add	a4,a5,-1 # 3fff <__extenddftf2+0x14b>
    220c:	00279793          	sll	a5,a5,0x2
    2210:	02010613          	add	a2,sp,32
    2214:	05078793          	add	a5,a5,80
    2218:	00c787b3          	add	a5,a5,a2
    221c:	02012603          	lw	a2,32(sp)
    2220:	00d616b3          	sll	a3,a2,a3
    2224:	fad7a823          	sw	a3,-80(a5)
    2228:	07c0006f          	j	22a4 <__multf3+0xb44>
    222c:	02068663          	beqz	a3,2258 <__multf3+0xaf8>
    2230:	00068513          	mv	a0,a3
    2234:	1e4020ef          	jal	4418 <__clzsi2>
    2238:	02050513          	add	a0,a0,32
    223c:	ff450693          	add	a3,a0,-12
    2240:	4056d793          	sra	a5,a3,0x5
    2244:	01f6f693          	and	a3,a3,31
    2248:	02068863          	beqz	a3,2278 <__multf3+0xb18>
    224c:	02000613          	li	a2,32
    2250:	40d60633          	sub	a2,a2,a3
    2254:	f99ff06f          	j	21ec <__multf3+0xa8c>
    2258:	00050863          	beqz	a0,2268 <__multf3+0xb08>
    225c:	1bc020ef          	jal	4418 <__clzsi2>
    2260:	04050513          	add	a0,a0,64
    2264:	fd9ff06f          	j	223c <__multf3+0xadc>
    2268:	00078513          	mv	a0,a5
    226c:	1ac020ef          	jal	4418 <__clzsi2>
    2270:	06050513          	add	a0,a0,96
    2274:	fc9ff06f          	j	223c <__multf3+0xadc>
    2278:	ffc00613          	li	a2,-4
    227c:	02c78633          	mul	a2,a5,a2
    2280:	02c10713          	add	a4,sp,44
    2284:	00300693          	li	a3,3
    2288:	00c705b3          	add	a1,a4,a2
    228c:	0005a583          	lw	a1,0(a1)
    2290:	fff68693          	add	a3,a3,-1
    2294:	ffc70713          	add	a4,a4,-4
    2298:	00b72223          	sw	a1,4(a4)
    229c:	fef6d6e3          	bge	a3,a5,2288 <__multf3+0xb28>
    22a0:	fff78713          	add	a4,a5,-1
    22a4:	00170793          	add	a5,a4,1
    22a8:	00279793          	sll	a5,a5,0x2
    22ac:	00800693          	li	a3,8
    22b0:	02010713          	add	a4,sp,32
    22b4:	00d7ea63          	bltu	a5,a3,22c8 <__multf3+0xb68>
    22b8:	02012023          	sw	zero,32(sp)
    22bc:	00072223          	sw	zero,4(a4)
    22c0:	ff878793          	add	a5,a5,-8
    22c4:	02810713          	add	a4,sp,40
    22c8:	00400693          	li	a3,4
    22cc:	00d7e463          	bltu	a5,a3,22d4 <__multf3+0xb74>
    22d0:	00072023          	sw	zero,0(a4)
    22d4:	ffffc4b7          	lui	s1,0xffffc
    22d8:	01148493          	add	s1,s1,17 # ffffc011 <_end+0xfffe2041>
    22dc:	40a484b3          	sub	s1,s1,a0
    22e0:	d6cff06f          	j	184c <__multf3+0xec>
    22e4:	00072803          	lw	a6,0(a4)
    22e8:	ffc72883          	lw	a7,-4(a4)
    22ec:	00b70e33          	add	t3,a4,a1
    22f0:	00d81833          	sll	a6,a6,a3
    22f4:	00c8d8b3          	srl	a7,a7,a2
    22f8:	01186833          	or	a6,a6,a7
    22fc:	010e2023          	sw	a6,0(t3)
    2300:	ffc70713          	add	a4,a4,-4
    2304:	f01ff06f          	j	2204 <__multf3+0xaa4>
    2308:	00a7e7b3          	or	a5,a5,a0
    230c:	00d7e7b3          	or	a5,a5,a3
    2310:	00e7e7b3          	or	a5,a5,a4
    2314:	00200b93          	li	s7,2
    2318:	d2078c63          	beqz	a5,1850 <__multf3+0xf0>
    231c:	00300b93          	li	s7,3
    2320:	d30ff06f          	j	1850 <__multf3+0xf0>
    2324:	00000493          	li	s1,0
    2328:	00100b93          	li	s7,1
    232c:	d24ff06f          	j	1850 <__multf3+0xf0>
    2330:	016967b3          	or	a5,s2,s6
    2334:	0157e7b3          	or	a5,a5,s5
    2338:	00a7e7b3          	or	a5,a5,a0
    233c:	14078c63          	beqz	a5,2494 <__multf3+0xd34>
    2340:	04050c63          	beqz	a0,2398 <__multf3+0xc38>
    2344:	0d4020ef          	jal	4418 <__clzsi2>
    2348:	ff450693          	add	a3,a0,-12
    234c:	02000593          	li	a1,32
    2350:	40d585b3          	sub	a1,a1,a3
    2354:	00000793          	li	a5,0
    2358:	ffc00613          	li	a2,-4
    235c:	02c78633          	mul	a2,a5,a2
    2360:	03010313          	add	t1,sp,48
    2364:	00c60713          	add	a4,a2,12
    2368:	00e30733          	add	a4,t1,a4
    236c:	40c00633          	neg	a2,a2
    2370:	0ee31263          	bne	t1,a4,2454 <__multf3+0xcf4>
    2374:	fff78713          	add	a4,a5,-1
    2378:	00279793          	sll	a5,a5,0x2
    237c:	02010613          	add	a2,sp,32
    2380:	05078793          	add	a5,a5,80
    2384:	00c787b3          	add	a5,a5,a2
    2388:	03012603          	lw	a2,48(sp)
    238c:	00d616b3          	sll	a3,a2,a3
    2390:	fcd7a023          	sw	a3,-64(a5)
    2394:	0800006f          	j	2414 <__multf3+0xcb4>
    2398:	020a8663          	beqz	s5,23c4 <__multf3+0xc64>
    239c:	000a8513          	mv	a0,s5
    23a0:	078020ef          	jal	4418 <__clzsi2>
    23a4:	02050513          	add	a0,a0,32
    23a8:	ff450693          	add	a3,a0,-12
    23ac:	4056d793          	sra	a5,a3,0x5
    23b0:	01f6f693          	and	a3,a3,31
    23b4:	02068a63          	beqz	a3,23e8 <__multf3+0xc88>
    23b8:	02000593          	li	a1,32
    23bc:	40d585b3          	sub	a1,a1,a3
    23c0:	f99ff06f          	j	2358 <__multf3+0xbf8>
    23c4:	000b0a63          	beqz	s6,23d8 <__multf3+0xc78>
    23c8:	000b0513          	mv	a0,s6
    23cc:	04c020ef          	jal	4418 <__clzsi2>
    23d0:	04050513          	add	a0,a0,64
    23d4:	fd5ff06f          	j	23a8 <__multf3+0xc48>
    23d8:	00090513          	mv	a0,s2
    23dc:	03c020ef          	jal	4418 <__clzsi2>
    23e0:	06050513          	add	a0,a0,96
    23e4:	fc5ff06f          	j	23a8 <__multf3+0xc48>
    23e8:	ffc00613          	li	a2,-4
    23ec:	02c78633          	mul	a2,a5,a2
    23f0:	03c10713          	add	a4,sp,60
    23f4:	00300693          	li	a3,3
    23f8:	00c705b3          	add	a1,a4,a2
    23fc:	0005a583          	lw	a1,0(a1)
    2400:	fff68693          	add	a3,a3,-1
    2404:	ffc70713          	add	a4,a4,-4
    2408:	00b72223          	sw	a1,4(a4)
    240c:	fef6d6e3          	bge	a3,a5,23f8 <__multf3+0xc98>
    2410:	fff78713          	add	a4,a5,-1
    2414:	00170793          	add	a5,a4,1
    2418:	00279793          	sll	a5,a5,0x2
    241c:	00800693          	li	a3,8
    2420:	03010713          	add	a4,sp,48
    2424:	00d7ea63          	bltu	a5,a3,2438 <__multf3+0xcd8>
    2428:	02012823          	sw	zero,48(sp)
    242c:	00072223          	sw	zero,4(a4)
    2430:	ff878793          	add	a5,a5,-8
    2434:	03810713          	add	a4,sp,56
    2438:	00400693          	li	a3,4
    243c:	00d7e463          	bltu	a5,a3,2444 <__multf3+0xce4>
    2440:	00072023          	sw	zero,0(a4)
    2444:	ffffc7b7          	lui	a5,0xffffc
    2448:	01178793          	add	a5,a5,17 # ffffc011 <_end+0xfffe2041>
    244c:	40a787b3          	sub	a5,a5,a0
    2450:	c90ff06f          	j	18e0 <__multf3+0x180>
    2454:	00072803          	lw	a6,0(a4)
    2458:	ffc72883          	lw	a7,-4(a4)
    245c:	00c70e33          	add	t3,a4,a2
    2460:	00d81833          	sll	a6,a6,a3
    2464:	00b8d8b3          	srl	a7,a7,a1
    2468:	01186833          	or	a6,a6,a7
    246c:	010e2023          	sw	a6,0(t3)
    2470:	ffc70713          	add	a4,a4,-4
    2474:	efdff06f          	j	2370 <__multf3+0xc10>
    2478:	01696933          	or	s2,s2,s6
    247c:	01596933          	or	s2,s2,s5
    2480:	00a96933          	or	s2,s2,a0
    2484:	00200693          	li	a3,2
    2488:	c4090e63          	beqz	s2,18e4 <__multf3+0x184>
    248c:	00300693          	li	a3,3
    2490:	c54ff06f          	j	18e4 <__multf3+0x184>
    2494:	00000793          	li	a5,0
    2498:	00100693          	li	a3,1
    249c:	c48ff06f          	j	18e4 <__multf3+0x184>
    24a0:	00100713          	li	a4,1
    24a4:	00f717b3          	sll	a5,a4,a5
    24a8:	5307f713          	and	a4,a5,1328
    24ac:	04071463          	bnez	a4,24f4 <__multf3+0xd94>
    24b0:	0887f713          	and	a4,a5,136
    24b4:	08071663          	bnez	a4,2540 <__multf3+0xde0>
    24b8:	2407f793          	and	a5,a5,576
    24bc:	c6078263          	beqz	a5,1920 <__multf3+0x1c0>
    24c0:	000087b7          	lui	a5,0x8
    24c4:	04f12623          	sw	a5,76(sp)
    24c8:	04012423          	sw	zero,72(sp)
    24cc:	04012223          	sw	zero,68(sp)
    24d0:	04012023          	sw	zero,64(sp)
    24d4:	fff78793          	add	a5,a5,-1 # 7fff <_vfprintf_r+0x28bb>
    24d8:	00012223          	sw	zero,4(sp)
    24dc:	c6dff06f          	j	2148 <__multf3+0x9e8>
    24e0:	00f00713          	li	a4,15
    24e4:	fce78ee3          	beq	a5,a4,24c0 <__multf3+0xd60>
    24e8:	00b00713          	li	a4,11
    24ec:	04e78a63          	beq	a5,a4,2540 <__multf3+0xde0>
    24f0:	01312223          	sw	s3,4(sp)
    24f4:	02012783          	lw	a5,32(sp)
    24f8:	04f12023          	sw	a5,64(sp)
    24fc:	02412783          	lw	a5,36(sp)
    2500:	04f12223          	sw	a5,68(sp)
    2504:	02812783          	lw	a5,40(sp)
    2508:	04f12423          	sw	a5,72(sp)
    250c:	02c12783          	lw	a5,44(sp)
    2510:	04f12623          	sw	a5,76(sp)
    2514:	00200793          	li	a5,2
    2518:	28fb8263          	beq	s7,a5,279c <__multf3+0x103c>
    251c:	00300793          	li	a5,3
    2520:	fafb80e3          	beq	s7,a5,24c0 <__multf3+0xd60>
    2524:	00100793          	li	a5,1
    2528:	b4fb98e3          	bne	s7,a5,2078 <__multf3+0x918>
    252c:	04012623          	sw	zero,76(sp)
    2530:	04012423          	sw	zero,72(sp)
    2534:	04012223          	sw	zero,68(sp)
    2538:	04012023          	sw	zero,64(sp)
    253c:	2340006f          	j	2770 <__multf3+0x1010>
    2540:	01412223          	sw	s4,4(sp)
    2544:	03012783          	lw	a5,48(sp)
    2548:	00068b93          	mv	s7,a3
    254c:	04f12023          	sw	a5,64(sp)
    2550:	03412783          	lw	a5,52(sp)
    2554:	04f12223          	sw	a5,68(sp)
    2558:	03812783          	lw	a5,56(sp)
    255c:	04f12423          	sw	a5,72(sp)
    2560:	03c12783          	lw	a5,60(sp)
    2564:	fadff06f          	j	2510 <__multf3+0xdb0>
    2568:	00c12783          	lw	a5,12(sp)
    256c:	00f12423          	sw	a5,8(sp)
    2570:	b09ff06f          	j	2078 <__multf3+0x918>
    2574:	04012623          	sw	zero,76(sp)
    2578:	04012423          	sw	zero,72(sp)
    257c:	04012223          	sw	zero,68(sp)
    2580:	04012023          	sw	zero,64(sp)
    2584:	fff68793          	add	a5,a3,-1
    2588:	bc1ff06f          	j	2148 <__multf3+0x9e8>
    258c:	00100693          	li	a3,1
    2590:	00078863          	beqz	a5,25a0 <__multf3+0xe40>
    2594:	40f686b3          	sub	a3,a3,a5
    2598:	07400793          	li	a5,116
    259c:	1cd7ce63          	blt	a5,a3,2778 <__multf3+0x1018>
    25a0:	04010513          	add	a0,sp,64
    25a4:	4056d713          	sra	a4,a3,0x5
    25a8:	00050593          	mv	a1,a0
    25ac:	01f6f693          	and	a3,a3,31
    25b0:	00000793          	li	a5,0
    25b4:	00000613          	li	a2,0
    25b8:	02e61e63          	bne	a2,a4,25f4 <__multf3+0xe94>
    25bc:	00300613          	li	a2,3
    25c0:	40e60633          	sub	a2,a2,a4
    25c4:	00271593          	sll	a1,a4,0x2
    25c8:	04069063          	bnez	a3,2608 <__multf3+0xea8>
    25cc:	00050813          	mv	a6,a0
    25d0:	00b808b3          	add	a7,a6,a1
    25d4:	0008a883          	lw	a7,0(a7)
    25d8:	00168693          	add	a3,a3,1
    25dc:	00480813          	add	a6,a6,4
    25e0:	ff182e23          	sw	a7,-4(a6)
    25e4:	fed656e3          	bge	a2,a3,25d0 <__multf3+0xe70>
    25e8:	00400693          	li	a3,4
    25ec:	40e68733          	sub	a4,a3,a4
    25f0:	06c0006f          	j	265c <__multf3+0xefc>
    25f4:	0005a803          	lw	a6,0(a1)
    25f8:	00160613          	add	a2,a2,1
    25fc:	00458593          	add	a1,a1,4
    2600:	0107e7b3          	or	a5,a5,a6
    2604:	fb5ff06f          	j	25b8 <__multf3+0xe58>
    2608:	05058813          	add	a6,a1,80
    260c:	02010893          	add	a7,sp,32
    2610:	01180833          	add	a6,a6,a7
    2614:	fd082803          	lw	a6,-48(a6)
    2618:	02000313          	li	t1,32
    261c:	40d30333          	sub	t1,t1,a3
    2620:	00681833          	sll	a6,a6,t1
    2624:	0107e7b3          	or	a5,a5,a6
    2628:	00000e13          	li	t3,0
    262c:	00b50833          	add	a6,a0,a1
    2630:	40b005b3          	neg	a1,a1
    2634:	0ece4263          	blt	t3,a2,2718 <__multf3+0xfb8>
    2638:	00400593          	li	a1,4
    263c:	00261613          	sll	a2,a2,0x2
    2640:	40e58733          	sub	a4,a1,a4
    2644:	05060613          	add	a2,a2,80
    2648:	02010593          	add	a1,sp,32
    264c:	00b60633          	add	a2,a2,a1
    2650:	04c12583          	lw	a1,76(sp)
    2654:	00d5d6b3          	srl	a3,a1,a3
    2658:	fcd62823          	sw	a3,-48(a2)
    265c:	00400693          	li	a3,4
    2660:	40e686b3          	sub	a3,a3,a4
    2664:	00269693          	sll	a3,a3,0x2
    2668:	00271713          	sll	a4,a4,0x2
    266c:	00800613          	li	a2,8
    2670:	00e50733          	add	a4,a0,a4
    2674:	00c6ea63          	bltu	a3,a2,2688 <__multf3+0xf28>
    2678:	00072023          	sw	zero,0(a4)
    267c:	00072223          	sw	zero,4(a4)
    2680:	ff868693          	add	a3,a3,-8
    2684:	00870713          	add	a4,a4,8
    2688:	00400613          	li	a2,4
    268c:	00c6e463          	bltu	a3,a2,2694 <__multf3+0xf34>
    2690:	00072023          	sw	zero,0(a4)
    2694:	04012703          	lw	a4,64(sp)
    2698:	00f037b3          	snez	a5,a5
    269c:	00e7e7b3          	or	a5,a5,a4
    26a0:	04f12023          	sw	a5,64(sp)
    26a4:	0077f713          	and	a4,a5,7
    26a8:	04070463          	beqz	a4,26f0 <__multf3+0xf90>
    26ac:	00f7f713          	and	a4,a5,15
    26b0:	00400693          	li	a3,4
    26b4:	02d70e63          	beq	a4,a3,26f0 <__multf3+0xf90>
    26b8:	04412703          	lw	a4,68(sp)
    26bc:	00478793          	add	a5,a5,4
    26c0:	04f12023          	sw	a5,64(sp)
    26c4:	0047b793          	sltiu	a5,a5,4
    26c8:	00f707b3          	add	a5,a4,a5
    26cc:	04f12223          	sw	a5,68(sp)
    26d0:	00e7b7b3          	sltu	a5,a5,a4
    26d4:	04812703          	lw	a4,72(sp)
    26d8:	00f707b3          	add	a5,a4,a5
    26dc:	04f12423          	sw	a5,72(sp)
    26e0:	00e7b7b3          	sltu	a5,a5,a4
    26e4:	04c12703          	lw	a4,76(sp)
    26e8:	00e787b3          	add	a5,a5,a4
    26ec:	04f12623          	sw	a5,76(sp)
    26f0:	04c12703          	lw	a4,76(sp)
    26f4:	000807b7          	lui	a5,0x80
    26f8:	00e7f7b3          	and	a5,a5,a4
    26fc:	04078263          	beqz	a5,2740 <__multf3+0xfe0>
    2700:	04012623          	sw	zero,76(sp)
    2704:	04012423          	sw	zero,72(sp)
    2708:	04012223          	sw	zero,68(sp)
    270c:	04012023          	sw	zero,64(sp)
    2710:	00100793          	li	a5,1
    2714:	a35ff06f          	j	2148 <__multf3+0x9e8>
    2718:	00082883          	lw	a7,0(a6)
    271c:	00482e83          	lw	t4,4(a6)
    2720:	00b80f33          	add	t5,a6,a1
    2724:	00d8d8b3          	srl	a7,a7,a3
    2728:	006e9eb3          	sll	t4,t4,t1
    272c:	01d8e8b3          	or	a7,a7,t4
    2730:	011f2023          	sw	a7,0(t5)
    2734:	001e0e13          	add	t3,t3,1
    2738:	00480813          	add	a6,a6,4
    273c:	ef9ff06f          	j	2634 <__multf3+0xed4>
    2740:	00c50693          	add	a3,a0,12
    2744:	00052783          	lw	a5,0(a0)
    2748:	00452703          	lw	a4,4(a0)
    274c:	00450513          	add	a0,a0,4
    2750:	0037d793          	srl	a5,a5,0x3
    2754:	01d71713          	sll	a4,a4,0x1d
    2758:	00e7e7b3          	or	a5,a5,a4
    275c:	fef52e23          	sw	a5,-4(a0)
    2760:	fea692e3          	bne	a3,a0,2744 <__multf3+0xfe4>
    2764:	04c12783          	lw	a5,76(sp)
    2768:	0037d793          	srl	a5,a5,0x3
    276c:	04f12623          	sw	a5,76(sp)
    2770:	00000793          	li	a5,0
    2774:	9d5ff06f          	j	2148 <__multf3+0x9e8>
    2778:	04412703          	lw	a4,68(sp)
    277c:	04012783          	lw	a5,64(sp)
    2780:	00e7e7b3          	or	a5,a5,a4
    2784:	04812703          	lw	a4,72(sp)
    2788:	00e7e7b3          	or	a5,a5,a4
    278c:	04c12703          	lw	a4,76(sp)
    2790:	00e7e7b3          	or	a5,a5,a4
    2794:	fc078ee3          	beqz	a5,2770 <__multf3+0x1010>
    2798:	d95ff06f          	j	252c <__multf3+0xdcc>
    279c:	000087b7          	lui	a5,0x8
    27a0:	04012623          	sw	zero,76(sp)
    27a4:	04012423          	sw	zero,72(sp)
    27a8:	04012223          	sw	zero,68(sp)
    27ac:	04012023          	sw	zero,64(sp)
    27b0:	fff78793          	add	a5,a5,-1 # 7fff <_vfprintf_r+0x28bb>
    27b4:	995ff06f          	j	2148 <__multf3+0x9e8>

000027b8 <__subtf3>:
    27b8:	f9010113          	add	sp,sp,-112
    27bc:	0085a783          	lw	a5,8(a1)
    27c0:	05512a23          	sw	s5,84(sp)
    27c4:	00c5aa83          	lw	s5,12(a1)
    27c8:	0045a703          	lw	a4,4(a1)
    27cc:	05412c23          	sw	s4,88(sp)
    27d0:	00050a13          	mv	s4,a0
    27d4:	0005a503          	lw	a0,0(a1)
    27d8:	05312e23          	sw	s3,92(sp)
    27dc:	02f12c23          	sw	a5,56(sp)
    27e0:	00f12c23          	sw	a5,24(sp)
    27e4:	00062883          	lw	a7,0(a2)
    27e8:	010a9793          	sll	a5,s5,0x10
    27ec:	00462803          	lw	a6,4(a2)
    27f0:	00862683          	lw	a3,8(a2)
    27f4:	00c62983          	lw	s3,12(a2)
    27f8:	06912223          	sw	s1,100(sp)
    27fc:	0107d793          	srl	a5,a5,0x10
    2800:	001a9493          	sll	s1,s5,0x1
    2804:	02a12823          	sw	a0,48(sp)
    2808:	03512e23          	sw	s5,60(sp)
    280c:	00a12823          	sw	a0,16(sp)
    2810:	06112623          	sw	ra,108(sp)
    2814:	06812423          	sw	s0,104(sp)
    2818:	07212023          	sw	s2,96(sp)
    281c:	05612823          	sw	s6,80(sp)
    2820:	05712623          	sw	s7,76(sp)
    2824:	05812423          	sw	s8,72(sp)
    2828:	02e12a23          	sw	a4,52(sp)
    282c:	00e12a23          	sw	a4,20(sp)
    2830:	00f12e23          	sw	a5,28(sp)
    2834:	0114d493          	srl	s1,s1,0x11
    2838:	01fada93          	srl	s5,s5,0x1f
    283c:	01010513          	add	a0,sp,16
    2840:	01c10593          	add	a1,sp,28
    2844:	0005a783          	lw	a5,0(a1)
    2848:	ffc5a703          	lw	a4,-4(a1)
    284c:	ffc58593          	add	a1,a1,-4
    2850:	00379793          	sll	a5,a5,0x3
    2854:	01d75713          	srl	a4,a4,0x1d
    2858:	00e7e7b3          	or	a5,a5,a4
    285c:	00f5a223          	sw	a5,4(a1)
    2860:	feb512e3          	bne	a0,a1,2844 <__subtf3+0x8c>
    2864:	01012783          	lw	a5,16(sp)
    2868:	01099713          	sll	a4,s3,0x10
    286c:	00199b93          	sll	s7,s3,0x1
    2870:	00379793          	sll	a5,a5,0x3
    2874:	01075713          	srl	a4,a4,0x10
    2878:	03112823          	sw	a7,48(sp)
    287c:	03012a23          	sw	a6,52(sp)
    2880:	03312e23          	sw	s3,60(sp)
    2884:	03112023          	sw	a7,32(sp)
    2888:	03012223          	sw	a6,36(sp)
    288c:	00f12823          	sw	a5,16(sp)
    2890:	02d12c23          	sw	a3,56(sp)
    2894:	02d12423          	sw	a3,40(sp)
    2898:	02e12623          	sw	a4,44(sp)
    289c:	011bdb93          	srl	s7,s7,0x11
    28a0:	01f9d993          	srl	s3,s3,0x1f
    28a4:	02010813          	add	a6,sp,32
    28a8:	02c10893          	add	a7,sp,44
    28ac:	0008a703          	lw	a4,0(a7)
    28b0:	ffc8a683          	lw	a3,-4(a7)
    28b4:	ffc88893          	add	a7,a7,-4
    28b8:	00371713          	sll	a4,a4,0x3
    28bc:	01d6d693          	srl	a3,a3,0x1d
    28c0:	00d76733          	or	a4,a4,a3
    28c4:	00e8a223          	sw	a4,4(a7)
    28c8:	ff1812e3          	bne	a6,a7,28ac <__subtf3+0xf4>
    28cc:	02012403          	lw	s0,32(sp)
    28d0:	00008e37          	lui	t3,0x8
    28d4:	fffe0e13          	add	t3,t3,-1 # 7fff <_vfprintf_r+0x28bb>
    28d8:	00341413          	sll	s0,s0,0x3
    28dc:	02812023          	sw	s0,32(sp)
    28e0:	41748333          	sub	t1,s1,s7
    28e4:	07cb9e63          	bne	s7,t3,2960 <__subtf3+0x1a8>
    28e8:	02812683          	lw	a3,40(sp)
    28ec:	02412703          	lw	a4,36(sp)
    28f0:	00030e93          	mv	t4,t1
    28f4:	00d76733          	or	a4,a4,a3
    28f8:	02c12683          	lw	a3,44(sp)
    28fc:	00d76733          	or	a4,a4,a3
    2900:	00876733          	or	a4,a4,s0
    2904:	04070a63          	beqz	a4,2958 <__subtf3+0x1a0>
    2908:	333a98e3          	bne	s5,s3,3438 <__subtf3+0xc80>
    290c:	02412903          	lw	s2,36(sp)
    2910:	02812983          	lw	s3,40(sp)
    2914:	02c12b03          	lw	s6,44(sp)
    2918:	6c030263          	beqz	t1,2fdc <__subtf3+0x824>
    291c:	409b8833          	sub	a6,s7,s1
    2920:	50049e63          	bnez	s1,2e3c <__subtf3+0x684>
    2924:	01412683          	lw	a3,20(sp)
    2928:	01812703          	lw	a4,24(sp)
    292c:	01c12883          	lw	a7,28(sp)
    2930:	00e6e633          	or	a2,a3,a4
    2934:	01166633          	or	a2,a2,a7
    2938:	00f66633          	or	a2,a2,a5
    293c:	48061463          	bnez	a2,2dc4 <__subtf3+0x60c>
    2940:	02812823          	sw	s0,48(sp)
    2944:	03212a23          	sw	s2,52(sp)
    2948:	03312c23          	sw	s3,56(sp)
    294c:	03612e23          	sw	s6,60(sp)
    2950:	00080493          	mv	s1,a6
    2954:	0f00006f          	j	2a44 <__subtf3+0x28c>
    2958:	0019c993          	xor	s3,s3,1
    295c:	fadff06f          	j	2908 <__subtf3+0x150>
    2960:	0019c993          	xor	s3,s3,1
    2964:	00030e93          	mv	t4,t1
    2968:	073a90e3          	bne	s5,s3,31c8 <__subtf3+0xa10>
    296c:	fa6050e3          	blez	t1,290c <__subtf3+0x154>
    2970:	01412903          	lw	s2,20(sp)
    2974:	01812983          	lw	s3,24(sp)
    2978:	01c12b03          	lw	s6,28(sp)
    297c:	0a0b9a63          	bnez	s7,2a30 <__subtf3+0x278>
    2980:	02412683          	lw	a3,36(sp)
    2984:	02812703          	lw	a4,40(sp)
    2988:	02c12583          	lw	a1,44(sp)
    298c:	00e6e633          	or	a2,a3,a4
    2990:	00b66633          	or	a2,a2,a1
    2994:	00866633          	or	a2,a2,s0
    2998:	00061e63          	bnez	a2,29b4 <__subtf3+0x1fc>
    299c:	02f12823          	sw	a5,48(sp)
    29a0:	03212a23          	sw	s2,52(sp)
    29a4:	03312c23          	sw	s3,56(sp)
    29a8:	03612e23          	sw	s6,60(sp)
    29ac:	00030493          	mv	s1,t1
    29b0:	0940006f          	j	2a44 <__subtf3+0x28c>
    29b4:	fff30613          	add	a2,t1,-1
    29b8:	04061863          	bnez	a2,2a08 <__subtf3+0x250>
    29bc:	00878433          	add	s0,a5,s0
    29c0:	01268933          	add	s2,a3,s2
    29c4:	02812823          	sw	s0,48(sp)
    29c8:	00f43433          	sltu	s0,s0,a5
    29cc:	00890433          	add	s0,s2,s0
    29d0:	02812a23          	sw	s0,52(sp)
    29d4:	00d936b3          	sltu	a3,s2,a3
    29d8:	01243433          	sltu	s0,s0,s2
    29dc:	013709b3          	add	s3,a4,s3
    29e0:	0086e6b3          	or	a3,a3,s0
    29e4:	00d986b3          	add	a3,s3,a3
    29e8:	02d12c23          	sw	a3,56(sp)
    29ec:	00e9b7b3          	sltu	a5,s3,a4
    29f0:	0136b6b3          	sltu	a3,a3,s3
    29f4:	00d7e7b3          	or	a5,a5,a3
    29f8:	016585b3          	add	a1,a1,s6
    29fc:	00b787b3          	add	a5,a5,a1
    2a00:	00100493          	li	s1,1
    2a04:	3080006f          	j	2d0c <__subtf3+0x554>
    2a08:	01c30463          	beq	t1,t3,2a10 <__subtf3+0x258>
    2a0c:	2080106f          	j	3c14 <__subtf3+0x145c>
    2a10:	02f12823          	sw	a5,48(sp)
    2a14:	4100006f          	j	2e24 <__subtf3+0x66c>
    2a18:	00040793          	mv	a5,s0
    2a1c:	ff5ff06f          	j	2a10 <__subtf3+0x258>
    2a20:	00068913          	mv	s2,a3
    2a24:	00070993          	mv	s3,a4
    2a28:	00060b13          	mv	s6,a2
    2a2c:	fe5ff06f          	j	2a10 <__subtf3+0x258>
    2a30:	17c49c63          	bne	s1,t3,2ba8 <__subtf3+0x3f0>
    2a34:	02f12823          	sw	a5,48(sp)
    2a38:	03212a23          	sw	s2,52(sp)
    2a3c:	03312c23          	sw	s3,56(sp)
    2a40:	03612e23          	sw	s6,60(sp)
    2a44:	03012783          	lw	a5,48(sp)
    2a48:	0077f713          	and	a4,a5,7
    2a4c:	04070463          	beqz	a4,2a94 <__subtf3+0x2dc>
    2a50:	00f7f713          	and	a4,a5,15
    2a54:	00400693          	li	a3,4
    2a58:	02d70e63          	beq	a4,a3,2a94 <__subtf3+0x2dc>
    2a5c:	03412703          	lw	a4,52(sp)
    2a60:	00478793          	add	a5,a5,4
    2a64:	02f12823          	sw	a5,48(sp)
    2a68:	0047b793          	sltiu	a5,a5,4
    2a6c:	00f707b3          	add	a5,a4,a5
    2a70:	02f12a23          	sw	a5,52(sp)
    2a74:	00e7b7b3          	sltu	a5,a5,a4
    2a78:	03812703          	lw	a4,56(sp)
    2a7c:	00f707b3          	add	a5,a4,a5
    2a80:	02f12c23          	sw	a5,56(sp)
    2a84:	00e7b7b3          	sltu	a5,a5,a4
    2a88:	03c12703          	lw	a4,60(sp)
    2a8c:	00e787b3          	add	a5,a5,a4
    2a90:	02f12e23          	sw	a5,60(sp)
    2a94:	03c12783          	lw	a5,60(sp)
    2a98:	00080737          	lui	a4,0x80
    2a9c:	00e7f733          	and	a4,a5,a4
    2aa0:	02070463          	beqz	a4,2ac8 <__subtf3+0x310>
    2aa4:	00008737          	lui	a4,0x8
    2aa8:	00148493          	add	s1,s1,1
    2aac:	fff70713          	add	a4,a4,-1 # 7fff <_vfprintf_r+0x28bb>
    2ab0:	00e49463          	bne	s1,a4,2ab8 <__subtf3+0x300>
    2ab4:	14c0106f          	j	3c00 <__subtf3+0x1448>
    2ab8:	fff80737          	lui	a4,0xfff80
    2abc:	fff70713          	add	a4,a4,-1 # fff7ffff <_end+0xfff6602f>
    2ac0:	00e7f7b3          	and	a5,a5,a4
    2ac4:	02f12e23          	sw	a5,60(sp)
    2ac8:	03010793          	add	a5,sp,48
    2acc:	03c10613          	add	a2,sp,60
    2ad0:	0007a703          	lw	a4,0(a5)
    2ad4:	0047a683          	lw	a3,4(a5)
    2ad8:	00478793          	add	a5,a5,4
    2adc:	00375713          	srl	a4,a4,0x3
    2ae0:	01d69693          	sll	a3,a3,0x1d
    2ae4:	00d76733          	or	a4,a4,a3
    2ae8:	fee7ae23          	sw	a4,-4(a5)
    2aec:	fef612e3          	bne	a2,a5,2ad0 <__subtf3+0x318>
    2af0:	03c12703          	lw	a4,60(sp)
    2af4:	000086b7          	lui	a3,0x8
    2af8:	fff68793          	add	a5,a3,-1 # 7fff <_vfprintf_r+0x28bb>
    2afc:	00375713          	srl	a4,a4,0x3
    2b00:	02e12e23          	sw	a4,60(sp)
    2b04:	02f49a63          	bne	s1,a5,2b38 <__subtf3+0x380>
    2b08:	03412603          	lw	a2,52(sp)
    2b0c:	03012783          	lw	a5,48(sp)
    2b10:	00c7e7b3          	or	a5,a5,a2
    2b14:	03812603          	lw	a2,56(sp)
    2b18:	00c7e7b3          	or	a5,a5,a2
    2b1c:	00e7e7b3          	or	a5,a5,a4
    2b20:	00078c63          	beqz	a5,2b38 <__subtf3+0x380>
    2b24:	02d12e23          	sw	a3,60(sp)
    2b28:	02012c23          	sw	zero,56(sp)
    2b2c:	02012a23          	sw	zero,52(sp)
    2b30:	02012823          	sw	zero,48(sp)
    2b34:	00000a93          	li	s5,0
    2b38:	03c12783          	lw	a5,60(sp)
    2b3c:	01149493          	sll	s1,s1,0x11
    2b40:	0114d493          	srl	s1,s1,0x11
    2b44:	00f11623          	sh	a5,12(sp)
    2b48:	03012783          	lw	a5,48(sp)
    2b4c:	00fa9a93          	sll	s5,s5,0xf
    2b50:	009aeab3          	or	s5,s5,s1
    2b54:	00fa2023          	sw	a5,0(s4)
    2b58:	03412783          	lw	a5,52(sp)
    2b5c:	01511723          	sh	s5,14(sp)
    2b60:	06c12083          	lw	ra,108(sp)
    2b64:	00fa2223          	sw	a5,4(s4)
    2b68:	03812783          	lw	a5,56(sp)
    2b6c:	06812403          	lw	s0,104(sp)
    2b70:	06412483          	lw	s1,100(sp)
    2b74:	00fa2423          	sw	a5,8(s4)
    2b78:	00c12783          	lw	a5,12(sp)
    2b7c:	06012903          	lw	s2,96(sp)
    2b80:	05c12983          	lw	s3,92(sp)
    2b84:	00fa2623          	sw	a5,12(s4)
    2b88:	05412a83          	lw	s5,84(sp)
    2b8c:	05012b03          	lw	s6,80(sp)
    2b90:	04c12b83          	lw	s7,76(sp)
    2b94:	04812c03          	lw	s8,72(sp)
    2b98:	000a0513          	mv	a0,s4
    2b9c:	05812a03          	lw	s4,88(sp)
    2ba0:	07010113          	add	sp,sp,112
    2ba4:	00008067          	ret
    2ba8:	02c12703          	lw	a4,44(sp)
    2bac:	000806b7          	lui	a3,0x80
    2bb0:	00d76733          	or	a4,a4,a3
    2bb4:	02e12623          	sw	a4,44(sp)
    2bb8:	07400713          	li	a4,116
    2bbc:	00675463          	bge	a4,t1,2bc4 <__subtf3+0x40c>
    2bc0:	0600106f          	j	3c20 <__subtf3+0x1468>
    2bc4:	00030613          	mv	a2,t1
    2bc8:	40565693          	sra	a3,a2,0x5
    2bcc:	00088513          	mv	a0,a7
    2bd0:	01f67613          	and	a2,a2,31
    2bd4:	00000713          	li	a4,0
    2bd8:	00000593          	li	a1,0
    2bdc:	02d59c63          	bne	a1,a3,2c14 <__subtf3+0x45c>
    2be0:	00300593          	li	a1,3
    2be4:	40d585b3          	sub	a1,a1,a3
    2be8:	00269513          	sll	a0,a3,0x2
    2bec:	02061e63          	bnez	a2,2c28 <__subtf3+0x470>
    2bf0:	00a88333          	add	t1,a7,a0
    2bf4:	00032303          	lw	t1,0(t1)
    2bf8:	00160613          	add	a2,a2,1
    2bfc:	00488893          	add	a7,a7,4
    2c00:	fe68ae23          	sw	t1,-4(a7)
    2c04:	fec5d6e3          	bge	a1,a2,2bf0 <__subtf3+0x438>
    2c08:	00400613          	li	a2,4
    2c0c:	40d606b3          	sub	a3,a2,a3
    2c10:	0640006f          	j	2c74 <__subtf3+0x4bc>
    2c14:	00052303          	lw	t1,0(a0)
    2c18:	00158593          	add	a1,a1,1
    2c1c:	00450513          	add	a0,a0,4
    2c20:	00676733          	or	a4,a4,t1
    2c24:	fb9ff06f          	j	2bdc <__subtf3+0x424>
    2c28:	04050893          	add	a7,a0,64
    2c2c:	002888b3          	add	a7,a7,sp
    2c30:	fe08a883          	lw	a7,-32(a7)
    2c34:	02000e13          	li	t3,32
    2c38:	40ce0e33          	sub	t3,t3,a2
    2c3c:	01c898b3          	sll	a7,a7,t3
    2c40:	01176733          	or	a4,a4,a7
    2c44:	00000e93          	li	t4,0
    2c48:	00a808b3          	add	a7,a6,a0
    2c4c:	40a00533          	neg	a0,a0
    2c50:	14bec663          	blt	t4,a1,2d9c <__subtf3+0x5e4>
    2c54:	00400513          	li	a0,4
    2c58:	40d506b3          	sub	a3,a0,a3
    2c5c:	02c12503          	lw	a0,44(sp)
    2c60:	00259593          	sll	a1,a1,0x2
    2c64:	04058593          	add	a1,a1,64
    2c68:	002585b3          	add	a1,a1,sp
    2c6c:	00c55633          	srl	a2,a0,a2
    2c70:	fec5a023          	sw	a2,-32(a1)
    2c74:	00400613          	li	a2,4
    2c78:	40d60633          	sub	a2,a2,a3
    2c7c:	00261613          	sll	a2,a2,0x2
    2c80:	00269693          	sll	a3,a3,0x2
    2c84:	00800593          	li	a1,8
    2c88:	00d806b3          	add	a3,a6,a3
    2c8c:	00b66a63          	bltu	a2,a1,2ca0 <__subtf3+0x4e8>
    2c90:	0006a023          	sw	zero,0(a3) # 80000 <_end+0x66030>
    2c94:	0006a223          	sw	zero,4(a3)
    2c98:	ff860613          	add	a2,a2,-8
    2c9c:	00868693          	add	a3,a3,8
    2ca0:	00400593          	li	a1,4
    2ca4:	00b66463          	bltu	a2,a1,2cac <__subtf3+0x4f4>
    2ca8:	0006a023          	sw	zero,0(a3)
    2cac:	02012683          	lw	a3,32(sp)
    2cb0:	00e03733          	snez	a4,a4
    2cb4:	00d76733          	or	a4,a4,a3
    2cb8:	02412683          	lw	a3,36(sp)
    2cbc:	02e12023          	sw	a4,32(sp)
    2cc0:	00e78733          	add	a4,a5,a4
    2cc4:	01268933          	add	s2,a3,s2
    2cc8:	02e12823          	sw	a4,48(sp)
    2ccc:	00f73733          	sltu	a4,a4,a5
    2cd0:	02812783          	lw	a5,40(sp)
    2cd4:	00e90733          	add	a4,s2,a4
    2cd8:	02e12a23          	sw	a4,52(sp)
    2cdc:	00d936b3          	sltu	a3,s2,a3
    2ce0:	01273733          	sltu	a4,a4,s2
    2ce4:	013789b3          	add	s3,a5,s3
    2ce8:	00e6e733          	or	a4,a3,a4
    2cec:	00e98733          	add	a4,s3,a4
    2cf0:	02e12c23          	sw	a4,56(sp)
    2cf4:	00f9b7b3          	sltu	a5,s3,a5
    2cf8:	01373733          	sltu	a4,a4,s3
    2cfc:	00e7e7b3          	or	a5,a5,a4
    2d00:	02c12703          	lw	a4,44(sp)
    2d04:	00eb0733          	add	a4,s6,a4
    2d08:	00e787b3          	add	a5,a5,a4
    2d0c:	00080737          	lui	a4,0x80
    2d10:	02f12e23          	sw	a5,60(sp)
    2d14:	00e7f733          	and	a4,a5,a4
    2d18:	d20706e3          	beqz	a4,2a44 <__subtf3+0x28c>
    2d1c:	fff80737          	lui	a4,0xfff80
    2d20:	fff70713          	add	a4,a4,-1 # fff7ffff <_end+0xfff6602f>
    2d24:	00e7f7b3          	and	a5,a5,a4
    2d28:	02f12e23          	sw	a5,60(sp)
    2d2c:	03012783          	lw	a5,48(sp)
    2d30:	00148493          	add	s1,s1,1
    2d34:	03c10593          	add	a1,sp,60
    2d38:	01f79713          	sll	a4,a5,0x1f
    2d3c:	03010793          	add	a5,sp,48
    2d40:	0007a683          	lw	a3,0(a5)
    2d44:	0047a603          	lw	a2,4(a5)
    2d48:	00478793          	add	a5,a5,4
    2d4c:	0016d693          	srl	a3,a3,0x1
    2d50:	01f61613          	sll	a2,a2,0x1f
    2d54:	00c6e6b3          	or	a3,a3,a2
    2d58:	fed7ae23          	sw	a3,-4(a5)
    2d5c:	fef592e3          	bne	a1,a5,2d40 <__subtf3+0x588>
    2d60:	03c12783          	lw	a5,60(sp)
    2d64:	0017d793          	srl	a5,a5,0x1
    2d68:	02f12e23          	sw	a5,60(sp)
    2d6c:	00e037b3          	snez	a5,a4
    2d70:	03012703          	lw	a4,48(sp)
    2d74:	00f767b3          	or	a5,a4,a5
    2d78:	02f12823          	sw	a5,48(sp)
    2d7c:	000087b7          	lui	a5,0x8
    2d80:	fff78793          	add	a5,a5,-1 # 7fff <_vfprintf_r+0x28bb>
    2d84:	ccf490e3          	bne	s1,a5,2a44 <__subtf3+0x28c>
    2d88:	02012e23          	sw	zero,60(sp)
    2d8c:	02012c23          	sw	zero,56(sp)
    2d90:	02012a23          	sw	zero,52(sp)
    2d94:	02012823          	sw	zero,48(sp)
    2d98:	cadff06f          	j	2a44 <__subtf3+0x28c>
    2d9c:	0008a303          	lw	t1,0(a7)
    2da0:	0048af03          	lw	t5,4(a7)
    2da4:	00a88fb3          	add	t6,a7,a0
    2da8:	00c35333          	srl	t1,t1,a2
    2dac:	01cf1f33          	sll	t5,t5,t3
    2db0:	01e36333          	or	t1,t1,t5
    2db4:	006fa023          	sw	t1,0(t6)
    2db8:	001e8e93          	add	t4,t4,1
    2dbc:	00488893          	add	a7,a7,4
    2dc0:	e91ff06f          	j	2c50 <__subtf3+0x498>
    2dc4:	fff80613          	add	a2,a6,-1
    2dc8:	04061663          	bnez	a2,2e14 <__subtf3+0x65c>
    2dcc:	00878433          	add	s0,a5,s0
    2dd0:	01268933          	add	s2,a3,s2
    2dd4:	02812823          	sw	s0,48(sp)
    2dd8:	00f43433          	sltu	s0,s0,a5
    2ddc:	00890433          	add	s0,s2,s0
    2de0:	02812a23          	sw	s0,52(sp)
    2de4:	00d936b3          	sltu	a3,s2,a3
    2de8:	01243433          	sltu	s0,s0,s2
    2dec:	013709b3          	add	s3,a4,s3
    2df0:	0086e6b3          	or	a3,a3,s0
    2df4:	00d986b3          	add	a3,s3,a3
    2df8:	02d12c23          	sw	a3,56(sp)
    2dfc:	00e9b7b3          	sltu	a5,s3,a4
    2e00:	0136b6b3          	sltu	a3,a3,s3
    2e04:	00d7e7b3          	or	a5,a5,a3
    2e08:	016888b3          	add	a7,a7,s6
    2e0c:	011787b3          	add	a5,a5,a7
    2e10:	bf1ff06f          	j	2a00 <__subtf3+0x248>
    2e14:	000087b7          	lui	a5,0x8
    2e18:	fff78793          	add	a5,a5,-1 # 7fff <_vfprintf_r+0x28bb>
    2e1c:	60f81ce3          	bne	a6,a5,3c34 <__subtf3+0x147c>
    2e20:	02812823          	sw	s0,48(sp)
    2e24:	03212a23          	sw	s2,52(sp)
    2e28:	03312c23          	sw	s3,56(sp)
    2e2c:	03612e23          	sw	s6,60(sp)
    2e30:	38c0006f          	j	31bc <__subtf3+0xa04>
    2e34:	00078413          	mv	s0,a5
    2e38:	fe9ff06f          	j	2e20 <__subtf3+0x668>
    2e3c:	000087b7          	lui	a5,0x8
    2e40:	fff78793          	add	a5,a5,-1 # 7fff <_vfprintf_r+0x28bb>
    2e44:	fcfb8ee3          	beq	s7,a5,2e20 <__subtf3+0x668>
    2e48:	01c12783          	lw	a5,28(sp)
    2e4c:	00080737          	lui	a4,0x80
    2e50:	00e7e7b3          	or	a5,a5,a4
    2e54:	00f12e23          	sw	a5,28(sp)
    2e58:	07400793          	li	a5,116
    2e5c:	5f07c0e3          	blt	a5,a6,3c3c <__subtf3+0x1484>
    2e60:	00080613          	mv	a2,a6
    2e64:	02000713          	li	a4,32
    2e68:	02e64733          	div	a4,a2,a4
    2e6c:	00058693          	mv	a3,a1
    2e70:	00000493          	li	s1,0
    2e74:	00000793          	li	a5,0
    2e78:	02e7ce63          	blt	a5,a4,2eb4 <__subtf3+0x6fc>
    2e7c:	00300793          	li	a5,3
    2e80:	01f67893          	and	a7,a2,31
    2e84:	40e787b3          	sub	a5,a5,a4
    2e88:	00271813          	sll	a6,a4,0x2
    2e8c:	02089e63          	bnez	a7,2ec8 <__subtf3+0x710>
    2e90:	010586b3          	add	a3,a1,a6
    2e94:	0006a683          	lw	a3,0(a3)
    2e98:	00188893          	add	a7,a7,1
    2e9c:	00458593          	add	a1,a1,4
    2ea0:	fed5ae23          	sw	a3,-4(a1)
    2ea4:	ff17d6e3          	bge	a5,a7,2e90 <__subtf3+0x6d8>
    2ea8:	00400793          	li	a5,4
    2eac:	40e78733          	sub	a4,a5,a4
    2eb0:	0780006f          	j	2f28 <__subtf3+0x770>
    2eb4:	0006a803          	lw	a6,0(a3)
    2eb8:	00178793          	add	a5,a5,1
    2ebc:	00468693          	add	a3,a3,4
    2ec0:	0104e4b3          	or	s1,s1,a6
    2ec4:	fb5ff06f          	j	2e78 <__subtf3+0x6c0>
    2ec8:	02000693          	li	a3,32
    2ecc:	02d66633          	rem	a2,a2,a3
    2ed0:	40c68633          	sub	a2,a3,a2
    2ed4:	00070693          	mv	a3,a4
    2ed8:	00075463          	bgez	a4,2ee0 <__subtf3+0x728>
    2edc:	00000693          	li	a3,0
    2ee0:	00269693          	sll	a3,a3,0x2
    2ee4:	04068693          	add	a3,a3,64
    2ee8:	002686b3          	add	a3,a3,sp
    2eec:	fd06a683          	lw	a3,-48(a3)
    2ef0:	00000313          	li	t1,0
    2ef4:	00c696b3          	sll	a3,a3,a2
    2ef8:	00d4e4b3          	or	s1,s1,a3
    2efc:	010506b3          	add	a3,a0,a6
    2f00:	41000833          	neg	a6,a6
    2f04:	0af34863          	blt	t1,a5,2fb4 <__subtf3+0x7fc>
    2f08:	00400693          	li	a3,4
    2f0c:	40e68733          	sub	a4,a3,a4
    2f10:	01c12683          	lw	a3,28(sp)
    2f14:	00279793          	sll	a5,a5,0x2
    2f18:	04078793          	add	a5,a5,64
    2f1c:	002787b3          	add	a5,a5,sp
    2f20:	0116d6b3          	srl	a3,a3,a7
    2f24:	fcd7a823          	sw	a3,-48(a5)
    2f28:	00400793          	li	a5,4
    2f2c:	00000613          	li	a2,0
    2f30:	00e7c663          	blt	a5,a4,2f3c <__subtf3+0x784>
    2f34:	40e787b3          	sub	a5,a5,a4
    2f38:	00279613          	sll	a2,a5,0x2
    2f3c:	00271713          	sll	a4,a4,0x2
    2f40:	00e50533          	add	a0,a0,a4
    2f44:	00000593          	li	a1,0
    2f48:	d60fd0ef          	jal	4a8 <memset>
    2f4c:	01012703          	lw	a4,16(sp)
    2f50:	009037b3          	snez	a5,s1
    2f54:	00e7e7b3          	or	a5,a5,a4
    2f58:	01412683          	lw	a3,20(sp)
    2f5c:	00f12823          	sw	a5,16(sp)
    2f60:	00f407b3          	add	a5,s0,a5
    2f64:	01268933          	add	s2,a3,s2
    2f68:	02f12823          	sw	a5,48(sp)
    2f6c:	0087b7b3          	sltu	a5,a5,s0
    2f70:	00f90733          	add	a4,s2,a5
    2f74:	01812783          	lw	a5,24(sp)
    2f78:	02e12a23          	sw	a4,52(sp)
    2f7c:	00d936b3          	sltu	a3,s2,a3
    2f80:	01273733          	sltu	a4,a4,s2
    2f84:	013789b3          	add	s3,a5,s3
    2f88:	00e6e733          	or	a4,a3,a4
    2f8c:	00e98733          	add	a4,s3,a4
    2f90:	02e12c23          	sw	a4,56(sp)
    2f94:	00f9b7b3          	sltu	a5,s3,a5
    2f98:	01373733          	sltu	a4,a4,s3
    2f9c:	00e7e7b3          	or	a5,a5,a4
    2fa0:	01c12703          	lw	a4,28(sp)
    2fa4:	000b8493          	mv	s1,s7
    2fa8:	00eb0733          	add	a4,s6,a4
    2fac:	00e787b3          	add	a5,a5,a4
    2fb0:	d5dff06f          	j	2d0c <__subtf3+0x554>
    2fb4:	0006a583          	lw	a1,0(a3)
    2fb8:	0046ae03          	lw	t3,4(a3)
    2fbc:	01068eb3          	add	t4,a3,a6
    2fc0:	0115d5b3          	srl	a1,a1,a7
    2fc4:	00ce1e33          	sll	t3,t3,a2
    2fc8:	01c5e5b3          	or	a1,a1,t3
    2fcc:	00bea023          	sw	a1,0(t4)
    2fd0:	00130313          	add	t1,t1,1
    2fd4:	00468693          	add	a3,a3,4
    2fd8:	f2dff06f          	j	2f04 <__subtf3+0x74c>
    2fdc:	00008337          	lui	t1,0x8
    2fe0:	00148813          	add	a6,s1,1
    2fe4:	ffe30893          	add	a7,t1,-2 # 7ffe <_vfprintf_r+0x28ba>
    2fe8:	011878b3          	and	a7,a6,a7
    2fec:	01412683          	lw	a3,20(sp)
    2ff0:	01812703          	lw	a4,24(sp)
    2ff4:	01c12603          	lw	a2,28(sp)
    2ff8:	03010593          	add	a1,sp,48
    2ffc:	03c10513          	add	a0,sp,60
    3000:	12089263          	bnez	a7,3124 <__subtf3+0x96c>
    3004:	00e6e833          	or	a6,a3,a4
    3008:	00c86833          	or	a6,a6,a2
    300c:	00f86833          	or	a6,a6,a5
    3010:	0a049a63          	bnez	s1,30c4 <__subtf3+0x90c>
    3014:	00081e63          	bnez	a6,3030 <__subtf3+0x878>
    3018:	02812823          	sw	s0,48(sp)
    301c:	03212a23          	sw	s2,52(sp)
    3020:	03312c23          	sw	s3,56(sp)
    3024:	03612e23          	sw	s6,60(sp)
    3028:	00000493          	li	s1,0
    302c:	a19ff06f          	j	2a44 <__subtf3+0x28c>
    3030:	013965b3          	or	a1,s2,s3
    3034:	0165e5b3          	or	a1,a1,s6
    3038:	0085e5b3          	or	a1,a1,s0
    303c:	00059c63          	bnez	a1,3054 <__subtf3+0x89c>
    3040:	02f12823          	sw	a5,48(sp)
    3044:	02d12a23          	sw	a3,52(sp)
    3048:	02e12c23          	sw	a4,56(sp)
    304c:	02c12e23          	sw	a2,60(sp)
    3050:	9f5ff06f          	j	2a44 <__subtf3+0x28c>
    3054:	00878433          	add	s0,a5,s0
    3058:	01268933          	add	s2,a3,s2
    305c:	02812823          	sw	s0,48(sp)
    3060:	00f43433          	sltu	s0,s0,a5
    3064:	00890433          	add	s0,s2,s0
    3068:	02812a23          	sw	s0,52(sp)
    306c:	00d936b3          	sltu	a3,s2,a3
    3070:	01243433          	sltu	s0,s0,s2
    3074:	013709b3          	add	s3,a4,s3
    3078:	0086e6b3          	or	a3,a3,s0
    307c:	00d986b3          	add	a3,s3,a3
    3080:	00e9b7b3          	sltu	a5,s3,a4
    3084:	02d12c23          	sw	a3,56(sp)
    3088:	0136b6b3          	sltu	a3,a3,s3
    308c:	00d7e7b3          	or	a5,a5,a3
    3090:	01660633          	add	a2,a2,s6
    3094:	00c787b3          	add	a5,a5,a2
    3098:	00080737          	lui	a4,0x80
    309c:	00e7f733          	and	a4,a5,a4
    30a0:	00071663          	bnez	a4,30ac <__subtf3+0x8f4>
    30a4:	02f12e23          	sw	a5,60(sp)
    30a8:	f81ff06f          	j	3028 <__subtf3+0x870>
    30ac:	fff80737          	lui	a4,0xfff80
    30b0:	fff70713          	add	a4,a4,-1 # fff7ffff <_end+0xfff6602f>
    30b4:	00e7f7b3          	and	a5,a5,a4
    30b8:	02f12e23          	sw	a5,60(sp)
    30bc:	00100493          	li	s1,1
    30c0:	985ff06f          	j	2a44 <__subtf3+0x28c>
    30c4:	94080ae3          	beqz	a6,2a18 <__subtf3+0x260>
    30c8:	01396933          	or	s2,s2,s3
    30cc:	01696933          	or	s2,s2,s6
    30d0:	00896933          	or	s2,s2,s0
    30d4:	940906e3          	beqz	s2,2a20 <__subtf3+0x268>
    30d8:	02612e23          	sw	t1,60(sp)
    30dc:	02012c23          	sw	zero,56(sp)
    30e0:	02012a23          	sw	zero,52(sp)
    30e4:	02012823          	sw	zero,48(sp)
    30e8:	00050793          	mv	a5,a0
    30ec:	0007a703          	lw	a4,0(a5)
    30f0:	ffc7a683          	lw	a3,-4(a5)
    30f4:	ffc78793          	add	a5,a5,-4
    30f8:	00371713          	sll	a4,a4,0x3
    30fc:	01d6d693          	srl	a3,a3,0x1d
    3100:	00d76733          	or	a4,a4,a3
    3104:	00e7a223          	sw	a4,4(a5)
    3108:	fef592e3          	bne	a1,a5,30ec <__subtf3+0x934>
    310c:	03012783          	lw	a5,48(sp)
    3110:	000084b7          	lui	s1,0x8
    3114:	fff48493          	add	s1,s1,-1 # 7fff <_vfprintf_r+0x28bb>
    3118:	00379793          	sll	a5,a5,0x3
    311c:	02f12823          	sw	a5,48(sp)
    3120:	5f00006f          	j	3710 <__subtf3+0xf58>
    3124:	00878433          	add	s0,a5,s0
    3128:	01268933          	add	s2,a3,s2
    312c:	02812823          	sw	s0,48(sp)
    3130:	00f43433          	sltu	s0,s0,a5
    3134:	00890433          	add	s0,s2,s0
    3138:	02812a23          	sw	s0,52(sp)
    313c:	00d937b3          	sltu	a5,s2,a3
    3140:	01243433          	sltu	s0,s0,s2
    3144:	013709b3          	add	s3,a4,s3
    3148:	0087e7b3          	or	a5,a5,s0
    314c:	00f987b3          	add	a5,s3,a5
    3150:	02f12c23          	sw	a5,56(sp)
    3154:	00e9b733          	sltu	a4,s3,a4
    3158:	0137b7b3          	sltu	a5,a5,s3
    315c:	00f767b3          	or	a5,a4,a5
    3160:	01660633          	add	a2,a2,s6
    3164:	00c787b3          	add	a5,a5,a2
    3168:	02f12e23          	sw	a5,60(sp)
    316c:	00058793          	mv	a5,a1
    3170:	0007a703          	lw	a4,0(a5)
    3174:	0047a683          	lw	a3,4(a5)
    3178:	00478793          	add	a5,a5,4
    317c:	00175713          	srl	a4,a4,0x1
    3180:	01f69693          	sll	a3,a3,0x1f
    3184:	00d76733          	or	a4,a4,a3
    3188:	fee7ae23          	sw	a4,-4(a5)
    318c:	fef512e3          	bne	a0,a5,3170 <__subtf3+0x9b8>
    3190:	00008737          	lui	a4,0x8
    3194:	fff70713          	add	a4,a4,-1 # 7fff <_vfprintf_r+0x28bb>
    3198:	03c12783          	lw	a5,60(sp)
    319c:	00e80863          	beq	a6,a4,31ac <__subtf3+0x9f4>
    31a0:	0017d793          	srl	a5,a5,0x1
    31a4:	02f12e23          	sw	a5,60(sp)
    31a8:	fa8ff06f          	j	2950 <__subtf3+0x198>
    31ac:	02012e23          	sw	zero,60(sp)
    31b0:	02012c23          	sw	zero,56(sp)
    31b4:	02012a23          	sw	zero,52(sp)
    31b8:	02012823          	sw	zero,48(sp)
    31bc:	000084b7          	lui	s1,0x8
    31c0:	fff48493          	add	s1,s1,-1 # 7fff <_vfprintf_r+0x28bb>
    31c4:	881ff06f          	j	2a44 <__subtf3+0x28c>
    31c8:	26605863          	blez	t1,3438 <__subtf3+0xc80>
    31cc:	01412903          	lw	s2,20(sp)
    31d0:	01812983          	lw	s3,24(sp)
    31d4:	01c12b03          	lw	s6,28(sp)
    31d8:	080b9e63          	bnez	s7,3274 <__subtf3+0xabc>
    31dc:	02412f03          	lw	t5,36(sp)
    31e0:	02812e83          	lw	t4,40(sp)
    31e4:	02c12683          	lw	a3,44(sp)
    31e8:	01df6733          	or	a4,t5,t4
    31ec:	00d76733          	or	a4,a4,a3
    31f0:	00876733          	or	a4,a4,s0
    31f4:	fa070463          	beqz	a4,299c <__subtf3+0x1e4>
    31f8:	fff30513          	add	a0,t1,-1
    31fc:	04051c63          	bnez	a0,3254 <__subtf3+0xa9c>
    3200:	41e90633          	sub	a2,s2,t5
    3204:	40878733          	sub	a4,a5,s0
    3208:	00c938b3          	sltu	a7,s2,a2
    320c:	00e7b5b3          	sltu	a1,a5,a4
    3210:	40b60633          	sub	a2,a2,a1
    3214:	00088313          	mv	t1,a7
    3218:	41d985b3          	sub	a1,s3,t4
    321c:	01d9b833          	sltu	a6,s3,t4
    3220:	00e7fc63          	bgeu	a5,a4,3238 <__subtf3+0xa80>
    3224:	012f1a63          	bne	t5,s2,3238 <__subtf3+0xa80>
    3228:	fff58593          	add	a1,a1,-1
    322c:	413e8eb3          	sub	t4,t4,s3
    3230:	001eb513          	seqz	a0,t4
    3234:	00c0006f          	j	3240 <__subtf3+0xa88>
    3238:	406585b3          	sub	a1,a1,t1
    323c:	fe0898e3          	bnez	a7,322c <__subtf3+0xa74>
    3240:	40db07b3          	sub	a5,s6,a3
    3244:	010566b3          	or	a3,a0,a6
    3248:	40d787b3          	sub	a5,a5,a3
    324c:	00100493          	li	s1,1
    3250:	1bc0006f          	j	340c <__subtf3+0xc54>
    3254:	fbc30e63          	beq	t1,t3,2a10 <__subtf3+0x258>
    3258:	07400713          	li	a4,116
    325c:	02a75c63          	bge	a4,a0,3294 <__subtf3+0xadc>
    3260:	02012623          	sw	zero,44(sp)
    3264:	02012423          	sw	zero,40(sp)
    3268:	02012223          	sw	zero,36(sp)
    326c:	00100713          	li	a4,1
    3270:	1140006f          	j	3384 <__subtf3+0xbcc>
    3274:	bdc480e3          	beq	s1,t3,2e34 <__subtf3+0x67c>
    3278:	02c12703          	lw	a4,44(sp)
    327c:	000806b7          	lui	a3,0x80
    3280:	00d76733          	or	a4,a4,a3
    3284:	02e12623          	sw	a4,44(sp)
    3288:	07400713          	li	a4,116
    328c:	fc674ae3          	blt	a4,t1,3260 <__subtf3+0xaa8>
    3290:	00030513          	mv	a0,t1
    3294:	40555693          	sra	a3,a0,0x5
    3298:	00088593          	mv	a1,a7
    329c:	01f57513          	and	a0,a0,31
    32a0:	00000713          	li	a4,0
    32a4:	00000613          	li	a2,0
    32a8:	02d61c63          	bne	a2,a3,32e0 <__subtf3+0xb28>
    32ac:	00300613          	li	a2,3
    32b0:	40d60633          	sub	a2,a2,a3
    32b4:	00269593          	sll	a1,a3,0x2
    32b8:	02051e63          	bnez	a0,32f4 <__subtf3+0xb3c>
    32bc:	00b88333          	add	t1,a7,a1
    32c0:	00032303          	lw	t1,0(t1)
    32c4:	00150513          	add	a0,a0,1
    32c8:	00488893          	add	a7,a7,4
    32cc:	fe68ae23          	sw	t1,-4(a7)
    32d0:	fea656e3          	bge	a2,a0,32bc <__subtf3+0xb04>
    32d4:	00400613          	li	a2,4
    32d8:	40d606b3          	sub	a3,a2,a3
    32dc:	0640006f          	j	3340 <__subtf3+0xb88>
    32e0:	0005a303          	lw	t1,0(a1)
    32e4:	00160613          	add	a2,a2,1
    32e8:	00458593          	add	a1,a1,4
    32ec:	00676733          	or	a4,a4,t1
    32f0:	fb9ff06f          	j	32a8 <__subtf3+0xaf0>
    32f4:	04058893          	add	a7,a1,64
    32f8:	002888b3          	add	a7,a7,sp
    32fc:	fe08a883          	lw	a7,-32(a7)
    3300:	02000e13          	li	t3,32
    3304:	40ae0e33          	sub	t3,t3,a0
    3308:	01c898b3          	sll	a7,a7,t3
    330c:	01176733          	or	a4,a4,a7
    3310:	00000e93          	li	t4,0
    3314:	00b808b3          	add	a7,a6,a1
    3318:	40b005b3          	neg	a1,a1
    331c:	0acec663          	blt	t4,a2,33c8 <__subtf3+0xc10>
    3320:	00400593          	li	a1,4
    3324:	40d586b3          	sub	a3,a1,a3
    3328:	02c12583          	lw	a1,44(sp)
    332c:	00261613          	sll	a2,a2,0x2
    3330:	04060613          	add	a2,a2,64
    3334:	00260633          	add	a2,a2,sp
    3338:	00a5d5b3          	srl	a1,a1,a0
    333c:	feb62023          	sw	a1,-32(a2)
    3340:	00400613          	li	a2,4
    3344:	40d60633          	sub	a2,a2,a3
    3348:	00261613          	sll	a2,a2,0x2
    334c:	00269693          	sll	a3,a3,0x2
    3350:	00800593          	li	a1,8
    3354:	00d806b3          	add	a3,a6,a3
    3358:	00b66a63          	bltu	a2,a1,336c <__subtf3+0xbb4>
    335c:	0006a023          	sw	zero,0(a3) # 80000 <_end+0x66030>
    3360:	0006a223          	sw	zero,4(a3)
    3364:	ff860613          	add	a2,a2,-8
    3368:	00868693          	add	a3,a3,8
    336c:	00400593          	li	a1,4
    3370:	00b66463          	bltu	a2,a1,3378 <__subtf3+0xbc0>
    3374:	0006a023          	sw	zero,0(a3)
    3378:	02012683          	lw	a3,32(sp)
    337c:	00e03733          	snez	a4,a4
    3380:	00d76733          	or	a4,a4,a3
    3384:	02412503          	lw	a0,36(sp)
    3388:	02e12023          	sw	a4,32(sp)
    338c:	40e78733          	sub	a4,a5,a4
    3390:	40a90633          	sub	a2,s2,a0
    3394:	00e7b6b3          	sltu	a3,a5,a4
    3398:	00c938b3          	sltu	a7,s2,a2
    339c:	40d60633          	sub	a2,a2,a3
    33a0:	02812683          	lw	a3,40(sp)
    33a4:	00088313          	mv	t1,a7
    33a8:	40d985b3          	sub	a1,s3,a3
    33ac:	00d9b833          	sltu	a6,s3,a3
    33b0:	04e7f063          	bgeu	a5,a4,33f0 <__subtf3+0xc38>
    33b4:	03251e63          	bne	a0,s2,33f0 <__subtf3+0xc38>
    33b8:	fff58593          	add	a1,a1,-1
    33bc:	413686b3          	sub	a3,a3,s3
    33c0:	0016b513          	seqz	a0,a3
    33c4:	0380006f          	j	33fc <__subtf3+0xc44>
    33c8:	0008a303          	lw	t1,0(a7)
    33cc:	0048af03          	lw	t5,4(a7)
    33d0:	00b88fb3          	add	t6,a7,a1
    33d4:	00a35333          	srl	t1,t1,a0
    33d8:	01cf1f33          	sll	t5,t5,t3
    33dc:	01e36333          	or	t1,t1,t5
    33e0:	006fa023          	sw	t1,0(t6)
    33e4:	001e8e93          	add	t4,t4,1
    33e8:	00488893          	add	a7,a7,4
    33ec:	f31ff06f          	j	331c <__subtf3+0xb64>
    33f0:	406585b3          	sub	a1,a1,t1
    33f4:	00000513          	li	a0,0
    33f8:	fc0892e3          	bnez	a7,33bc <__subtf3+0xc04>
    33fc:	02c12783          	lw	a5,44(sp)
    3400:	01056533          	or	a0,a0,a6
    3404:	40fb07b3          	sub	a5,s6,a5
    3408:	40a787b3          	sub	a5,a5,a0
    340c:	02e12823          	sw	a4,48(sp)
    3410:	00080737          	lui	a4,0x80
    3414:	02f12e23          	sw	a5,60(sp)
    3418:	02b12c23          	sw	a1,56(sp)
    341c:	02c12a23          	sw	a2,52(sp)
    3420:	00e7f6b3          	and	a3,a5,a4
    3424:	e2068063          	beqz	a3,2a44 <__subtf3+0x28c>
    3428:	fff70713          	add	a4,a4,-1 # 7ffff <_end+0x6602f>
    342c:	00e7f7b3          	and	a5,a5,a4
    3430:	02f12e23          	sw	a5,60(sp)
    3434:	54c0006f          	j	3980 <__subtf3+0x11c8>
    3438:	02412903          	lw	s2,36(sp)
    343c:	02812c03          	lw	s8,40(sp)
    3440:	02c12b03          	lw	s6,44(sp)
    3444:	26030a63          	beqz	t1,36b8 <__subtf3+0xf00>
    3448:	409b8733          	sub	a4,s7,s1
    344c:	0a049e63          	bnez	s1,3508 <__subtf3+0xd50>
    3450:	01412303          	lw	t1,20(sp)
    3454:	01812883          	lw	a7,24(sp)
    3458:	01c12683          	lw	a3,28(sp)
    345c:	01136633          	or	a2,t1,a7
    3460:	00d66633          	or	a2,a2,a3
    3464:	00f66633          	or	a2,a2,a5
    3468:	02061063          	bnez	a2,3488 <__subtf3+0xcd0>
    346c:	02812823          	sw	s0,48(sp)
    3470:	03212a23          	sw	s2,52(sp)
    3474:	03812c23          	sw	s8,56(sp)
    3478:	03612e23          	sw	s6,60(sp)
    347c:	00070493          	mv	s1,a4
    3480:	00098a93          	mv	s5,s3
    3484:	dc0ff06f          	j	2a44 <__subtf3+0x28c>
    3488:	fff70813          	add	a6,a4,-1
    348c:	04081c63          	bnez	a6,34e4 <__subtf3+0xd2c>
    3490:	40f40733          	sub	a4,s0,a5
    3494:	40690633          	sub	a2,s2,t1
    3498:	00c937b3          	sltu	a5,s2,a2
    349c:	00e435b3          	sltu	a1,s0,a4
    34a0:	40b60633          	sub	a2,a2,a1
    34a4:	00078e13          	mv	t3,a5
    34a8:	411c05b3          	sub	a1,s8,a7
    34ac:	011c3533          	sltu	a0,s8,a7
    34b0:	00e47c63          	bgeu	s0,a4,34c8 <__subtf3+0xd10>
    34b4:	01231a63          	bne	t1,s2,34c8 <__subtf3+0xd10>
    34b8:	fff58593          	add	a1,a1,-1
    34bc:	418888b3          	sub	a7,a7,s8
    34c0:	0018b813          	seqz	a6,a7
    34c4:	00c0006f          	j	34d0 <__subtf3+0xd18>
    34c8:	41c585b3          	sub	a1,a1,t3
    34cc:	fe0798e3          	bnez	a5,34bc <__subtf3+0xd04>
    34d0:	40db07b3          	sub	a5,s6,a3
    34d4:	00a866b3          	or	a3,a6,a0
    34d8:	40d787b3          	sub	a5,a5,a3
    34dc:	00098a93          	mv	s5,s3
    34e0:	d6dff06f          	j	324c <__subtf3+0xa94>
    34e4:	000087b7          	lui	a5,0x8
    34e8:	fff78793          	add	a5,a5,-1 # 7fff <_vfprintf_r+0x28bb>
    34ec:	76f71263          	bne	a4,a5,3c50 <__subtf3+0x1498>
    34f0:	02812823          	sw	s0,48(sp)
    34f4:	03212a23          	sw	s2,52(sp)
    34f8:	03812c23          	sw	s8,56(sp)
    34fc:	03612e23          	sw	s6,60(sp)
    3500:	00098a93          	mv	s5,s3
    3504:	cb9ff06f          	j	31bc <__subtf3+0xa04>
    3508:	000087b7          	lui	a5,0x8
    350c:	fff78793          	add	a5,a5,-1 # 7fff <_vfprintf_r+0x28bb>
    3510:	fefb80e3          	beq	s7,a5,34f0 <__subtf3+0xd38>
    3514:	01c12783          	lw	a5,28(sp)
    3518:	000806b7          	lui	a3,0x80
    351c:	00d7e7b3          	or	a5,a5,a3
    3520:	00f12e23          	sw	a5,28(sp)
    3524:	07400793          	li	a5,116
    3528:	72e7c863          	blt	a5,a4,3c58 <__subtf3+0x14a0>
    352c:	00070813          	mv	a6,a4
    3530:	02000793          	li	a5,32
    3534:	02f847b3          	div	a5,a6,a5
    3538:	00058693          	mv	a3,a1
    353c:	00000493          	li	s1,0
    3540:	00000713          	li	a4,0
    3544:	02f74e63          	blt	a4,a5,3580 <__subtf3+0xdc8>
    3548:	00300693          	li	a3,3
    354c:	01f87893          	and	a7,a6,31
    3550:	40f686b3          	sub	a3,a3,a5
    3554:	00279613          	sll	a2,a5,0x2
    3558:	02089e63          	bnez	a7,3594 <__subtf3+0xddc>
    355c:	00c58733          	add	a4,a1,a2
    3560:	00072703          	lw	a4,0(a4)
    3564:	00188893          	add	a7,a7,1
    3568:	00458593          	add	a1,a1,4
    356c:	fee5ae23          	sw	a4,-4(a1)
    3570:	ff16d6e3          	bge	a3,a7,355c <__subtf3+0xda4>
    3574:	00400713          	li	a4,4
    3578:	40f707b3          	sub	a5,a4,a5
    357c:	0780006f          	j	35f4 <__subtf3+0xe3c>
    3580:	0006a603          	lw	a2,0(a3) # 80000 <_end+0x66030>
    3584:	00170713          	add	a4,a4,1
    3588:	00468693          	add	a3,a3,4
    358c:	00c4e4b3          	or	s1,s1,a2
    3590:	fb5ff06f          	j	3544 <__subtf3+0xd8c>
    3594:	02000713          	li	a4,32
    3598:	02e86833          	rem	a6,a6,a4
    359c:	41070833          	sub	a6,a4,a6
    35a0:	00078713          	mv	a4,a5
    35a4:	0007d463          	bgez	a5,35ac <__subtf3+0xdf4>
    35a8:	00000713          	li	a4,0
    35ac:	00271713          	sll	a4,a4,0x2
    35b0:	04070713          	add	a4,a4,64
    35b4:	00270733          	add	a4,a4,sp
    35b8:	fd072703          	lw	a4,-48(a4)
    35bc:	00000313          	li	t1,0
    35c0:	01071733          	sll	a4,a4,a6
    35c4:	00e4e4b3          	or	s1,s1,a4
    35c8:	00c50733          	add	a4,a0,a2
    35cc:	40c00633          	neg	a2,a2
    35d0:	08d34c63          	blt	t1,a3,3668 <__subtf3+0xeb0>
    35d4:	00400713          	li	a4,4
    35d8:	00269693          	sll	a3,a3,0x2
    35dc:	40f707b3          	sub	a5,a4,a5
    35e0:	04068713          	add	a4,a3,64
    35e4:	002706b3          	add	a3,a4,sp
    35e8:	01c12703          	lw	a4,28(sp)
    35ec:	01175733          	srl	a4,a4,a7
    35f0:	fce6a823          	sw	a4,-48(a3)
    35f4:	00400713          	li	a4,4
    35f8:	00000613          	li	a2,0
    35fc:	00f74663          	blt	a4,a5,3608 <__subtf3+0xe50>
    3600:	40f70733          	sub	a4,a4,a5
    3604:	00271613          	sll	a2,a4,0x2
    3608:	00279793          	sll	a5,a5,0x2
    360c:	00f50533          	add	a0,a0,a5
    3610:	00000593          	li	a1,0
    3614:	e95fc0ef          	jal	4a8 <memset>
    3618:	01012783          	lw	a5,16(sp)
    361c:	00903733          	snez	a4,s1
    3620:	00f76733          	or	a4,a4,a5
    3624:	01412683          	lw	a3,20(sp)
    3628:	00e12823          	sw	a4,16(sp)
    362c:	40e40733          	sub	a4,s0,a4
    3630:	40d90633          	sub	a2,s2,a3
    3634:	00e437b3          	sltu	a5,s0,a4
    3638:	00c93833          	sltu	a6,s2,a2
    363c:	40f60633          	sub	a2,a2,a5
    3640:	01812783          	lw	a5,24(sp)
    3644:	00080893          	mv	a7,a6
    3648:	40fc05b3          	sub	a1,s8,a5
    364c:	00fc3533          	sltu	a0,s8,a5
    3650:	04e47063          	bgeu	s0,a4,3690 <__subtf3+0xed8>
    3654:	03269e63          	bne	a3,s2,3690 <__subtf3+0xed8>
    3658:	fff58593          	add	a1,a1,-1
    365c:	418787b3          	sub	a5,a5,s8
    3660:	0017b693          	seqz	a3,a5
    3664:	0380006f          	j	369c <__subtf3+0xee4>
    3668:	00072583          	lw	a1,0(a4)
    366c:	00472e03          	lw	t3,4(a4)
    3670:	00c70eb3          	add	t4,a4,a2
    3674:	0115d5b3          	srl	a1,a1,a7
    3678:	010e1e33          	sll	t3,t3,a6
    367c:	01c5e5b3          	or	a1,a1,t3
    3680:	00bea023          	sw	a1,0(t4)
    3684:	00130313          	add	t1,t1,1
    3688:	00470713          	add	a4,a4,4
    368c:	f45ff06f          	j	35d0 <__subtf3+0xe18>
    3690:	411585b3          	sub	a1,a1,a7
    3694:	00000693          	li	a3,0
    3698:	fc0812e3          	bnez	a6,365c <__subtf3+0xea4>
    369c:	01c12783          	lw	a5,28(sp)
    36a0:	00a6e6b3          	or	a3,a3,a0
    36a4:	000b8493          	mv	s1,s7
    36a8:	40fb07b3          	sub	a5,s6,a5
    36ac:	40d787b3          	sub	a5,a5,a3
    36b0:	00098a93          	mv	s5,s3
    36b4:	d59ff06f          	j	340c <__subtf3+0xc54>
    36b8:	00008837          	lui	a6,0x8
    36bc:	00148613          	add	a2,s1,1
    36c0:	ffe80593          	add	a1,a6,-2 # 7ffe <_vfprintf_r+0x28ba>
    36c4:	00b67633          	and	a2,a2,a1
    36c8:	01412503          	lw	a0,20(sp)
    36cc:	01812703          	lw	a4,24(sp)
    36d0:	01c12683          	lw	a3,28(sp)
    36d4:	1e061463          	bnez	a2,38bc <__subtf3+0x1104>
    36d8:	01896633          	or	a2,s2,s8
    36dc:	00e565b3          	or	a1,a0,a4
    36e0:	01666633          	or	a2,a2,s6
    36e4:	00d5e5b3          	or	a1,a1,a3
    36e8:	00866633          	or	a2,a2,s0
    36ec:	00f5e5b3          	or	a1,a1,a5
    36f0:	10049e63          	bnez	s1,380c <__subtf3+0x1054>
    36f4:	02059263          	bnez	a1,3718 <__subtf3+0xf60>
    36f8:	02812823          	sw	s0,48(sp)
    36fc:	03212a23          	sw	s2,52(sp)
    3700:	03812c23          	sw	s8,56(sp)
    3704:	03612e23          	sw	s6,60(sp)
    3708:	d6061ce3          	bnez	a2,3480 <__subtf3+0xcc8>
    370c:	00000493          	li	s1,0
    3710:	00000a93          	li	s5,0
    3714:	b30ff06f          	j	2a44 <__subtf3+0x28c>
    3718:	00061c63          	bnez	a2,3730 <__subtf3+0xf78>
    371c:	02f12823          	sw	a5,48(sp)
    3720:	02a12a23          	sw	a0,52(sp)
    3724:	02e12c23          	sw	a4,56(sp)
    3728:	02d12e23          	sw	a3,60(sp)
    372c:	8fdff06f          	j	3028 <__subtf3+0x870>
    3730:	412505b3          	sub	a1,a0,s2
    3734:	40878633          	sub	a2,a5,s0
    3738:	00b53f33          	sltu	t5,a0,a1
    373c:	00c7b833          	sltu	a6,a5,a2
    3740:	000f0893          	mv	a7,t5
    3744:	41058833          	sub	a6,a1,a6
    3748:	41870e33          	sub	t3,a4,s8
    374c:	01873eb3          	sltu	t4,a4,s8
    3750:	00c7fa63          	bgeu	a5,a2,3764 <__subtf3+0xfac>
    3754:	01251863          	bne	a0,s2,3764 <__subtf3+0xfac>
    3758:	fffe0893          	add	a7,t3,-1
    375c:	001e3313          	seqz	t1,t3
    3760:	0100006f          	j	3770 <__subtf3+0xfb8>
    3764:	411e08b3          	sub	a7,t3,a7
    3768:	00000313          	li	t1,0
    376c:	fe0f18e3          	bnez	t5,375c <__subtf3+0xfa4>
    3770:	01d36333          	or	t1,t1,t4
    3774:	416685b3          	sub	a1,a3,s6
    3778:	406585b3          	sub	a1,a1,t1
    377c:	00080337          	lui	t1,0x80
    3780:	02b12e23          	sw	a1,60(sp)
    3784:	03112c23          	sw	a7,56(sp)
    3788:	03012a23          	sw	a6,52(sp)
    378c:	02c12823          	sw	a2,48(sp)
    3790:	0065f333          	and	t1,a1,t1
    3794:	06030263          	beqz	t1,37f8 <__subtf3+0x1040>
    3798:	40a90633          	sub	a2,s2,a0
    379c:	40f407b3          	sub	a5,s0,a5
    37a0:	00c93833          	sltu	a6,s2,a2
    37a4:	00f435b3          	sltu	a1,s0,a5
    37a8:	40b60633          	sub	a2,a2,a1
    37ac:	00080893          	mv	a7,a6
    37b0:	40ec05b3          	sub	a1,s8,a4
    37b4:	00ec3733          	sltu	a4,s8,a4
    37b8:	00f47a63          	bgeu	s0,a5,37cc <__subtf3+0x1014>
    37bc:	01251863          	bne	a0,s2,37cc <__subtf3+0x1014>
    37c0:	fff58593          	add	a1,a1,-1
    37c4:	001e3513          	seqz	a0,t3
    37c8:	0100006f          	j	37d8 <__subtf3+0x1020>
    37cc:	411585b3          	sub	a1,a1,a7
    37d0:	00000513          	li	a0,0
    37d4:	fe0818e3          	bnez	a6,37c4 <__subtf3+0x100c>
    37d8:	40db06b3          	sub	a3,s6,a3
    37dc:	00e56533          	or	a0,a0,a4
    37e0:	40a686b3          	sub	a3,a3,a0
    37e4:	02d12e23          	sw	a3,60(sp)
    37e8:	02b12c23          	sw	a1,56(sp)
    37ec:	02c12a23          	sw	a2,52(sp)
    37f0:	02f12823          	sw	a5,48(sp)
    37f4:	c8dff06f          	j	3480 <__subtf3+0xcc8>
    37f8:	01066633          	or	a2,a2,a6
    37fc:	01166633          	or	a2,a2,a7
    3800:	00b66633          	or	a2,a2,a1
    3804:	f00604e3          	beqz	a2,370c <__subtf3+0xf54>
    3808:	821ff06f          	j	3028 <__subtf3+0x870>
    380c:	03010893          	add	a7,sp,48
    3810:	04059e63          	bnez	a1,386c <__subtf3+0x10b4>
    3814:	02061e63          	bnez	a2,3850 <__subtf3+0x1098>
    3818:	03012e23          	sw	a6,60(sp)
    381c:	02012c23          	sw	zero,56(sp)
    3820:	02012a23          	sw	zero,52(sp)
    3824:	02012823          	sw	zero,48(sp)
    3828:	03c10793          	add	a5,sp,60
    382c:	0007a703          	lw	a4,0(a5)
    3830:	ffc7a683          	lw	a3,-4(a5)
    3834:	ffc78793          	add	a5,a5,-4
    3838:	00371713          	sll	a4,a4,0x3
    383c:	01d6d693          	srl	a3,a3,0x1d
    3840:	00d76733          	or	a4,a4,a3
    3844:	00e7a223          	sw	a4,4(a5)
    3848:	fef892e3          	bne	a7,a5,382c <__subtf3+0x1074>
    384c:	8c1ff06f          	j	310c <__subtf3+0x954>
    3850:	02812823          	sw	s0,48(sp)
    3854:	03212a23          	sw	s2,52(sp)
    3858:	03812c23          	sw	s8,56(sp)
    385c:	03612e23          	sw	s6,60(sp)
    3860:	00098a93          	mv	s5,s3
    3864:	fff80493          	add	s1,a6,-1
    3868:	9dcff06f          	j	2a44 <__subtf3+0x28c>
    386c:	00061c63          	bnez	a2,3884 <__subtf3+0x10cc>
    3870:	02f12823          	sw	a5,48(sp)
    3874:	02a12a23          	sw	a0,52(sp)
    3878:	02e12c23          	sw	a4,56(sp)
    387c:	02d12e23          	sw	a3,60(sp)
    3880:	fe5ff06f          	j	3864 <__subtf3+0x10ac>
    3884:	03012e23          	sw	a6,60(sp)
    3888:	02012c23          	sw	zero,56(sp)
    388c:	02012a23          	sw	zero,52(sp)
    3890:	02012823          	sw	zero,48(sp)
    3894:	03c10793          	add	a5,sp,60
    3898:	0007a703          	lw	a4,0(a5)
    389c:	ffc7a683          	lw	a3,-4(a5)
    38a0:	ffc78793          	add	a5,a5,-4
    38a4:	00371713          	sll	a4,a4,0x3
    38a8:	01d6d693          	srl	a3,a3,0x1d
    38ac:	00d76733          	or	a4,a4,a3
    38b0:	00e7a223          	sw	a4,4(a5)
    38b4:	fef892e3          	bne	a7,a5,3898 <__subtf3+0x10e0>
    38b8:	855ff06f          	j	310c <__subtf3+0x954>
    38bc:	412505b3          	sub	a1,a0,s2
    38c0:	40878633          	sub	a2,a5,s0
    38c4:	00b53fb3          	sltu	t6,a0,a1
    38c8:	00c7b833          	sltu	a6,a5,a2
    38cc:	000f8893          	mv	a7,t6
    38d0:	41058833          	sub	a6,a1,a6
    38d4:	41870333          	sub	t1,a4,s8
    38d8:	01873f33          	sltu	t5,a4,s8
    38dc:	00c7fa63          	bgeu	a5,a2,38f0 <__subtf3+0x1138>
    38e0:	01251863          	bne	a0,s2,38f0 <__subtf3+0x1138>
    38e4:	fff30893          	add	a7,t1,-1 # 7ffff <_end+0x6602f>
    38e8:	00133e13          	seqz	t3,t1
    38ec:	0100006f          	j	38fc <__subtf3+0x1144>
    38f0:	411308b3          	sub	a7,t1,a7
    38f4:	00000e13          	li	t3,0
    38f8:	fe0f98e3          	bnez	t6,38e8 <__subtf3+0x1130>
    38fc:	01ee6e33          	or	t3,t3,t5
    3900:	416685b3          	sub	a1,a3,s6
    3904:	41c585b3          	sub	a1,a1,t3
    3908:	00080e37          	lui	t3,0x80
    390c:	02b12e23          	sw	a1,60(sp)
    3910:	03112c23          	sw	a7,56(sp)
    3914:	03012a23          	sw	a6,52(sp)
    3918:	02c12823          	sw	a2,48(sp)
    391c:	01c5fe33          	and	t3,a1,t3
    3920:	140e0863          	beqz	t3,3a70 <__subtf3+0x12b8>
    3924:	40a90633          	sub	a2,s2,a0
    3928:	40f407b3          	sub	a5,s0,a5
    392c:	00c93833          	sltu	a6,s2,a2
    3930:	00f435b3          	sltu	a1,s0,a5
    3934:	40b60633          	sub	a2,a2,a1
    3938:	00080893          	mv	a7,a6
    393c:	40ec05b3          	sub	a1,s8,a4
    3940:	00ec3733          	sltu	a4,s8,a4
    3944:	00f47a63          	bgeu	s0,a5,3958 <__subtf3+0x11a0>
    3948:	01251863          	bne	a0,s2,3958 <__subtf3+0x11a0>
    394c:	fff58593          	add	a1,a1,-1
    3950:	00133e93          	seqz	t4,t1
    3954:	00c0006f          	j	3960 <__subtf3+0x11a8>
    3958:	411585b3          	sub	a1,a1,a7
    395c:	fe081ae3          	bnez	a6,3950 <__subtf3+0x1198>
    3960:	40db06b3          	sub	a3,s6,a3
    3964:	00eeeeb3          	or	t4,t4,a4
    3968:	41d68733          	sub	a4,a3,t4
    396c:	02e12e23          	sw	a4,60(sp)
    3970:	02b12c23          	sw	a1,56(sp)
    3974:	02c12a23          	sw	a2,52(sp)
    3978:	02f12823          	sw	a5,48(sp)
    397c:	00098a93          	mv	s5,s3
    3980:	03c12503          	lw	a0,60(sp)
    3984:	10050063          	beqz	a0,3a84 <__subtf3+0x12cc>
    3988:	291000ef          	jal	4418 <__clzsi2>
    398c:	ff450513          	add	a0,a0,-12
    3990:	02000713          	li	a4,32
    3994:	01f57813          	and	a6,a0,31
    3998:	02e547b3          	div	a5,a0,a4
    399c:	12080063          	beqz	a6,3abc <__subtf3+0x1304>
    39a0:	03010313          	add	t1,sp,48
    39a4:	02e566b3          	rem	a3,a0,a4
    39a8:	40d70633          	sub	a2,a4,a3
    39ac:	ffc00693          	li	a3,-4
    39b0:	02d786b3          	mul	a3,a5,a3
    39b4:	00c68713          	add	a4,a3,12
    39b8:	00e30733          	add	a4,t1,a4
    39bc:	40d006b3          	neg	a3,a3
    39c0:	12e31663          	bne	t1,a4,3aec <__subtf3+0x1334>
    39c4:	03012683          	lw	a3,48(sp)
    39c8:	fff78713          	add	a4,a5,-1
    39cc:	00279793          	sll	a5,a5,0x2
    39d0:	04078793          	add	a5,a5,64
    39d4:	002787b3          	add	a5,a5,sp
    39d8:	010696b3          	sll	a3,a3,a6
    39dc:	fed7a823          	sw	a3,-16(a5)
    39e0:	00170713          	add	a4,a4,1
    39e4:	03010793          	add	a5,sp,48
    39e8:	00271713          	sll	a4,a4,0x2
    39ec:	00800693          	li	a3,8
    39f0:	00078893          	mv	a7,a5
    39f4:	00d76a63          	bltu	a4,a3,3a08 <__subtf3+0x1250>
    39f8:	02012823          	sw	zero,48(sp)
    39fc:	0007a223          	sw	zero,4(a5)
    3a00:	ff870713          	add	a4,a4,-8
    3a04:	03810793          	add	a5,sp,56
    3a08:	00400693          	li	a3,4
    3a0c:	00d76463          	bltu	a4,a3,3a14 <__subtf3+0x125c>
    3a10:	0007a023          	sw	zero,0(a5)
    3a14:	1c954863          	blt	a0,s1,3be4 <__subtf3+0x142c>
    3a18:	40950533          	sub	a0,a0,s1
    3a1c:	00150513          	add	a0,a0,1
    3a20:	40555713          	sra	a4,a0,0x5
    3a24:	01f57793          	and	a5,a0,31
    3a28:	00088593          	mv	a1,a7
    3a2c:	00088613          	mv	a2,a7
    3a30:	00000313          	li	t1,0
    3a34:	00000693          	li	a3,0
    3a38:	0ce69c63          	bne	a3,a4,3b10 <__subtf3+0x1358>
    3a3c:	00300693          	li	a3,3
    3a40:	40e686b3          	sub	a3,a3,a4
    3a44:	00271613          	sll	a2,a4,0x2
    3a48:	0c079e63          	bnez	a5,3b24 <__subtf3+0x136c>
    3a4c:	00c58533          	add	a0,a1,a2
    3a50:	00052503          	lw	a0,0(a0)
    3a54:	00178793          	add	a5,a5,1
    3a58:	00458593          	add	a1,a1,4
    3a5c:	fea5ae23          	sw	a0,-4(a1)
    3a60:	fef6d6e3          	bge	a3,a5,3a4c <__subtf3+0x1294>
    3a64:	00400793          	li	a5,4
    3a68:	40e78733          	sub	a4,a5,a4
    3a6c:	1040006f          	j	3b70 <__subtf3+0x13b8>
    3a70:	01066633          	or	a2,a2,a6
    3a74:	01166633          	or	a2,a2,a7
    3a78:	00b66633          	or	a2,a2,a1
    3a7c:	c80608e3          	beqz	a2,370c <__subtf3+0xf54>
    3a80:	f01ff06f          	j	3980 <__subtf3+0x11c8>
    3a84:	03812503          	lw	a0,56(sp)
    3a88:	00050863          	beqz	a0,3a98 <__subtf3+0x12e0>
    3a8c:	18d000ef          	jal	4418 <__clzsi2>
    3a90:	02050513          	add	a0,a0,32
    3a94:	ef9ff06f          	j	398c <__subtf3+0x11d4>
    3a98:	03412503          	lw	a0,52(sp)
    3a9c:	00050863          	beqz	a0,3aac <__subtf3+0x12f4>
    3aa0:	179000ef          	jal	4418 <__clzsi2>
    3aa4:	04050513          	add	a0,a0,64
    3aa8:	ee5ff06f          	j	398c <__subtf3+0x11d4>
    3aac:	03012503          	lw	a0,48(sp)
    3ab0:	169000ef          	jal	4418 <__clzsi2>
    3ab4:	06050513          	add	a0,a0,96
    3ab8:	ed5ff06f          	j	398c <__subtf3+0x11d4>
    3abc:	ffc00613          	li	a2,-4
    3ac0:	02c78633          	mul	a2,a5,a2
    3ac4:	03c10713          	add	a4,sp,60
    3ac8:	00300693          	li	a3,3
    3acc:	00c705b3          	add	a1,a4,a2
    3ad0:	0005a583          	lw	a1,0(a1)
    3ad4:	fff68693          	add	a3,a3,-1
    3ad8:	ffc70713          	add	a4,a4,-4
    3adc:	00b72223          	sw	a1,4(a4)
    3ae0:	fef6d6e3          	bge	a3,a5,3acc <__subtf3+0x1314>
    3ae4:	fff78713          	add	a4,a5,-1
    3ae8:	ef9ff06f          	j	39e0 <__subtf3+0x1228>
    3aec:	00072583          	lw	a1,0(a4)
    3af0:	ffc72883          	lw	a7,-4(a4)
    3af4:	00d70e33          	add	t3,a4,a3
    3af8:	010595b3          	sll	a1,a1,a6
    3afc:	00c8d8b3          	srl	a7,a7,a2
    3b00:	0115e5b3          	or	a1,a1,a7
    3b04:	00be2023          	sw	a1,0(t3) # 80000 <_end+0x66030>
    3b08:	ffc70713          	add	a4,a4,-4
    3b0c:	eb5ff06f          	j	39c0 <__subtf3+0x1208>
    3b10:	00062503          	lw	a0,0(a2)
    3b14:	00168693          	add	a3,a3,1
    3b18:	00460613          	add	a2,a2,4
    3b1c:	00a36333          	or	t1,t1,a0
    3b20:	f19ff06f          	j	3a38 <__subtf3+0x1280>
    3b24:	04060593          	add	a1,a2,64
    3b28:	002585b3          	add	a1,a1,sp
    3b2c:	ff05a583          	lw	a1,-16(a1)
    3b30:	02000813          	li	a6,32
    3b34:	40f80833          	sub	a6,a6,a5
    3b38:	010595b3          	sll	a1,a1,a6
    3b3c:	00b36333          	or	t1,t1,a1
    3b40:	00000e13          	li	t3,0
    3b44:	00c885b3          	add	a1,a7,a2
    3b48:	40c00633          	neg	a2,a2
    3b4c:	06de4863          	blt	t3,a3,3bbc <__subtf3+0x1404>
    3b50:	00400613          	li	a2,4
    3b54:	40e60733          	sub	a4,a2,a4
    3b58:	03c12603          	lw	a2,60(sp)
    3b5c:	00269693          	sll	a3,a3,0x2
    3b60:	04068693          	add	a3,a3,64
    3b64:	002686b3          	add	a3,a3,sp
    3b68:	00f657b3          	srl	a5,a2,a5
    3b6c:	fef6a823          	sw	a5,-16(a3)
    3b70:	00400693          	li	a3,4
    3b74:	40e686b3          	sub	a3,a3,a4
    3b78:	00271713          	sll	a4,a4,0x2
    3b7c:	00e887b3          	add	a5,a7,a4
    3b80:	00269713          	sll	a4,a3,0x2
    3b84:	00800693          	li	a3,8
    3b88:	00d76a63          	bltu	a4,a3,3b9c <__subtf3+0x13e4>
    3b8c:	0007a023          	sw	zero,0(a5)
    3b90:	0007a223          	sw	zero,4(a5)
    3b94:	ff870713          	add	a4,a4,-8
    3b98:	00878793          	add	a5,a5,8
    3b9c:	00400693          	li	a3,4
    3ba0:	00d76463          	bltu	a4,a3,3ba8 <__subtf3+0x13f0>
    3ba4:	0007a023          	sw	zero,0(a5)
    3ba8:	03012703          	lw	a4,48(sp)
    3bac:	006037b3          	snez	a5,t1
    3bb0:	00f767b3          	or	a5,a4,a5
    3bb4:	02f12823          	sw	a5,48(sp)
    3bb8:	c70ff06f          	j	3028 <__subtf3+0x870>
    3bbc:	0005a503          	lw	a0,0(a1)
    3bc0:	0045ae83          	lw	t4,4(a1)
    3bc4:	00c58f33          	add	t5,a1,a2
    3bc8:	00f55533          	srl	a0,a0,a5
    3bcc:	010e9eb3          	sll	t4,t4,a6
    3bd0:	01d56533          	or	a0,a0,t4
    3bd4:	00af2023          	sw	a0,0(t5)
    3bd8:	001e0e13          	add	t3,t3,1
    3bdc:	00458593          	add	a1,a1,4
    3be0:	f6dff06f          	j	3b4c <__subtf3+0x1394>
    3be4:	03c12783          	lw	a5,60(sp)
    3be8:	fff80737          	lui	a4,0xfff80
    3bec:	fff70713          	add	a4,a4,-1 # fff7ffff <_end+0xfff6602f>
    3bf0:	00e7f7b3          	and	a5,a5,a4
    3bf4:	40a484b3          	sub	s1,s1,a0
    3bf8:	02f12e23          	sw	a5,60(sp)
    3bfc:	e49fe06f          	j	2a44 <__subtf3+0x28c>
    3c00:	02012e23          	sw	zero,60(sp)
    3c04:	02012c23          	sw	zero,56(sp)
    3c08:	02012a23          	sw	zero,52(sp)
    3c0c:	02012823          	sw	zero,48(sp)
    3c10:	eb9fe06f          	j	2ac8 <__subtf3+0x310>
    3c14:	07400713          	li	a4,116
    3c18:	00c74463          	blt	a4,a2,3c20 <__subtf3+0x1468>
    3c1c:	fadfe06f          	j	2bc8 <__subtf3+0x410>
    3c20:	02012623          	sw	zero,44(sp)
    3c24:	02012423          	sw	zero,40(sp)
    3c28:	02012223          	sw	zero,36(sp)
    3c2c:	00100713          	li	a4,1
    3c30:	888ff06f          	j	2cb8 <__subtf3+0x500>
    3c34:	07400793          	li	a5,116
    3c38:	a2c7d663          	bge	a5,a2,2e64 <__subtf3+0x6ac>
    3c3c:	00012e23          	sw	zero,28(sp)
    3c40:	00012c23          	sw	zero,24(sp)
    3c44:	00012a23          	sw	zero,20(sp)
    3c48:	00100793          	li	a5,1
    3c4c:	b0cff06f          	j	2f58 <__subtf3+0x7a0>
    3c50:	07400793          	li	a5,116
    3c54:	8d07dee3          	bge	a5,a6,3530 <__subtf3+0xd78>
    3c58:	00012e23          	sw	zero,28(sp)
    3c5c:	00012c23          	sw	zero,24(sp)
    3c60:	00012a23          	sw	zero,20(sp)
    3c64:	00100713          	li	a4,1
    3c68:	9bdff06f          	j	3624 <__subtf3+0xe6c>

00003c6c <__fixtfsi>:
    3c6c:	00052783          	lw	a5,0(a0)
    3c70:	00452603          	lw	a2,4(a0)
    3c74:	00c52703          	lw	a4,12(a0)
    3c78:	00852683          	lw	a3,8(a0)
    3c7c:	fe010113          	add	sp,sp,-32
    3c80:	00f12023          	sw	a5,0(sp)
    3c84:	00c12223          	sw	a2,4(sp)
    3c88:	00f12823          	sw	a5,16(sp)
    3c8c:	00171613          	sll	a2,a4,0x1
    3c90:	000047b7          	lui	a5,0x4
    3c94:	00d12423          	sw	a3,8(sp)
    3c98:	00e12623          	sw	a4,12(sp)
    3c9c:	00d12c23          	sw	a3,24(sp)
    3ca0:	01165613          	srl	a2,a2,0x11
    3ca4:	ffe78593          	add	a1,a5,-2 # 3ffe <__extenddftf2+0x14a>
    3ca8:	00000513          	li	a0,0
    3cac:	00c5de63          	bge	a1,a2,3cc8 <__fixtfsi+0x5c>
    3cb0:	01d78593          	add	a1,a5,29
    3cb4:	01f75813          	srl	a6,a4,0x1f
    3cb8:	00c5dc63          	bge	a1,a2,3cd0 <__fixtfsi+0x64>
    3cbc:	80000537          	lui	a0,0x80000
    3cc0:	fff54513          	not	a0,a0
    3cc4:	00a80533          	add	a0,a6,a0
    3cc8:	02010113          	add	sp,sp,32
    3ccc:	00008067          	ret
    3cd0:	01071713          	sll	a4,a4,0x10
    3cd4:	000105b7          	lui	a1,0x10
    3cd8:	01075713          	srl	a4,a4,0x10
    3cdc:	06f78793          	add	a5,a5,111
    3ce0:	00b76733          	or	a4,a4,a1
    3ce4:	40c787b3          	sub	a5,a5,a2
    3ce8:	4057d613          	sra	a2,a5,0x5
    3cec:	02000593          	li	a1,32
    3cf0:	01f7f793          	and	a5,a5,31
    3cf4:	00e12e23          	sw	a4,28(sp)
    3cf8:	40f585b3          	sub	a1,a1,a5
    3cfc:	04079a63          	bnez	a5,3d50 <__fixtfsi+0xe4>
    3d00:	00261613          	sll	a2,a2,0x2
    3d04:	02060793          	add	a5,a2,32
    3d08:	00278633          	add	a2,a5,sp
    3d0c:	ff062783          	lw	a5,-16(a2)
    3d10:	00f12823          	sw	a5,16(sp)
    3d14:	01012503          	lw	a0,16(sp)
    3d18:	fa0808e3          	beqz	a6,3cc8 <__fixtfsi+0x5c>
    3d1c:	40a00533          	neg	a0,a0
    3d20:	fa9ff06f          	j	3cc8 <__fixtfsi+0x5c>
    3d24:	00f6d6b3          	srl	a3,a3,a5
    3d28:	00b715b3          	sll	a1,a4,a1
    3d2c:	00b6e6b3          	or	a3,a3,a1
    3d30:	00d12823          	sw	a3,16(sp)
    3d34:	00100693          	li	a3,1
    3d38:	00269693          	sll	a3,a3,0x2
    3d3c:	02068693          	add	a3,a3,32
    3d40:	002686b3          	add	a3,a3,sp
    3d44:	00f75733          	srl	a4,a4,a5
    3d48:	fee6a823          	sw	a4,-16(a3)
    3d4c:	fc9ff06f          	j	3d14 <__fixtfsi+0xa8>
    3d50:	00200513          	li	a0,2
    3d54:	fca608e3          	beq	a2,a0,3d24 <__fixtfsi+0xb8>
    3d58:	00000693          	li	a3,0
    3d5c:	fddff06f          	j	3d38 <__fixtfsi+0xcc>

00003d60 <__floatsitf>:
    3d60:	fd010113          	add	sp,sp,-48
    3d64:	02912223          	sw	s1,36(sp)
    3d68:	02112623          	sw	ra,44(sp)
    3d6c:	02812423          	sw	s0,40(sp)
    3d70:	03212023          	sw	s2,32(sp)
    3d74:	00050493          	mv	s1,a0
    3d78:	12058263          	beqz	a1,3e9c <__floatsitf+0x13c>
    3d7c:	41f5d793          	sra	a5,a1,0x1f
    3d80:	00b7c433          	xor	s0,a5,a1
    3d84:	40f40433          	sub	s0,s0,a5
    3d88:	00040513          	mv	a0,s0
    3d8c:	01f5d913          	srl	s2,a1,0x1f
    3d90:	688000ef          	jal	4418 <__clzsi2>
    3d94:	05150793          	add	a5,a0,81 # 80000051 <_end+0x7ffe6081>
    3d98:	00004637          	lui	a2,0x4
    3d9c:	01e60613          	add	a2,a2,30 # 401e <__extenddftf2+0x16a>
    3da0:	4057d713          	sra	a4,a5,0x5
    3da4:	00812823          	sw	s0,16(sp)
    3da8:	00012a23          	sw	zero,20(sp)
    3dac:	00012c23          	sw	zero,24(sp)
    3db0:	00012e23          	sw	zero,28(sp)
    3db4:	01f7f793          	and	a5,a5,31
    3db8:	40a60633          	sub	a2,a2,a0
    3dbc:	02078c63          	beqz	a5,3df4 <__floatsitf+0x94>
    3dc0:	00200693          	li	a3,2
    3dc4:	0cd71863          	bne	a4,a3,3e94 <__floatsitf+0x134>
    3dc8:	02000693          	li	a3,32
    3dcc:	40f686b3          	sub	a3,a3,a5
    3dd0:	00d456b3          	srl	a3,s0,a3
    3dd4:	00d12e23          	sw	a3,28(sp)
    3dd8:	fff70693          	add	a3,a4,-1
    3ddc:	00271713          	sll	a4,a4,0x2
    3de0:	02070713          	add	a4,a4,32
    3de4:	00270733          	add	a4,a4,sp
    3de8:	00f41433          	sll	s0,s0,a5
    3dec:	fe872823          	sw	s0,-16(a4)
    3df0:	0340006f          	j	3e24 <__floatsitf+0xc4>
    3df4:	00300793          	li	a5,3
    3df8:	40e787b3          	sub	a5,a5,a4
    3dfc:	00279793          	sll	a5,a5,0x2
    3e00:	02078793          	add	a5,a5,32
    3e04:	002787b3          	add	a5,a5,sp
    3e08:	ff07a783          	lw	a5,-16(a5)
    3e0c:	00200693          	li	a3,2
    3e10:	00f12e23          	sw	a5,28(sp)
    3e14:	00200793          	li	a5,2
    3e18:	00f71663          	bne	a4,a5,3e24 <__floatsitf+0xc4>
    3e1c:	00812c23          	sw	s0,24(sp)
    3e20:	00100693          	li	a3,1
    3e24:	00269693          	sll	a3,a3,0x2
    3e28:	00012823          	sw	zero,16(sp)
    3e2c:	00012a23          	sw	zero,20(sp)
    3e30:	ffc68693          	add	a3,a3,-4
    3e34:	00400793          	li	a5,4
    3e38:	00f6e463          	bltu	a3,a5,3e40 <__floatsitf+0xe0>
    3e3c:	00012c23          	sw	zero,24(sp)
    3e40:	00090593          	mv	a1,s2
    3e44:	01c12783          	lw	a5,28(sp)
    3e48:	00f59413          	sll	s0,a1,0xf
    3e4c:	00c46433          	or	s0,s0,a2
    3e50:	00f11623          	sh	a5,12(sp)
    3e54:	01012783          	lw	a5,16(sp)
    3e58:	00811723          	sh	s0,14(sp)
    3e5c:	02c12083          	lw	ra,44(sp)
    3e60:	00f4a023          	sw	a5,0(s1)
    3e64:	01412783          	lw	a5,20(sp)
    3e68:	02812403          	lw	s0,40(sp)
    3e6c:	02012903          	lw	s2,32(sp)
    3e70:	00f4a223          	sw	a5,4(s1)
    3e74:	01812783          	lw	a5,24(sp)
    3e78:	00048513          	mv	a0,s1
    3e7c:	00f4a423          	sw	a5,8(s1)
    3e80:	00c12783          	lw	a5,12(sp)
    3e84:	00f4a623          	sw	a5,12(s1)
    3e88:	02412483          	lw	s1,36(sp)
    3e8c:	03010113          	add	sp,sp,48
    3e90:	00008067          	ret
    3e94:	00300713          	li	a4,3
    3e98:	f41ff06f          	j	3dd8 <__floatsitf+0x78>
    3e9c:	00012e23          	sw	zero,28(sp)
    3ea0:	00012c23          	sw	zero,24(sp)
    3ea4:	00012a23          	sw	zero,20(sp)
    3ea8:	00012823          	sw	zero,16(sp)
    3eac:	00000613          	li	a2,0
    3eb0:	f95ff06f          	j	3e44 <__floatsitf+0xe4>

00003eb4 <__extenddftf2>:
    3eb4:	01465713          	srl	a4,a2,0x14
    3eb8:	00c61793          	sll	a5,a2,0xc
    3ebc:	7ff77713          	and	a4,a4,2047
    3ec0:	fd010113          	add	sp,sp,-48
    3ec4:	00c7d793          	srl	a5,a5,0xc
    3ec8:	00170693          	add	a3,a4,1
    3ecc:	02812423          	sw	s0,40(sp)
    3ed0:	02912223          	sw	s1,36(sp)
    3ed4:	03212023          	sw	s2,32(sp)
    3ed8:	02112623          	sw	ra,44(sp)
    3edc:	00b12823          	sw	a1,16(sp)
    3ee0:	00f12a23          	sw	a5,20(sp)
    3ee4:	00012e23          	sw	zero,28(sp)
    3ee8:	00012c23          	sw	zero,24(sp)
    3eec:	7fe6f693          	and	a3,a3,2046
    3ef0:	00050913          	mv	s2,a0
    3ef4:	00058413          	mv	s0,a1
    3ef8:	01f65493          	srl	s1,a2,0x1f
    3efc:	08068263          	beqz	a3,3f80 <__extenddftf2+0xcc>
    3f00:	000046b7          	lui	a3,0x4
    3f04:	c0068693          	add	a3,a3,-1024 # 3c00 <__subtf3+0x1448>
    3f08:	00d70733          	add	a4,a4,a3
    3f0c:	0047d693          	srl	a3,a5,0x4
    3f10:	00d12e23          	sw	a3,28(sp)
    3f14:	01c79793          	sll	a5,a5,0x1c
    3f18:	0045d693          	srl	a3,a1,0x4
    3f1c:	00d7e7b3          	or	a5,a5,a3
    3f20:	01c59413          	sll	s0,a1,0x1c
    3f24:	00f12c23          	sw	a5,24(sp)
    3f28:	00812a23          	sw	s0,20(sp)
    3f2c:	00012823          	sw	zero,16(sp)
    3f30:	01c12783          	lw	a5,28(sp)
    3f34:	00f49493          	sll	s1,s1,0xf
    3f38:	00e4e4b3          	or	s1,s1,a4
    3f3c:	00f11623          	sh	a5,12(sp)
    3f40:	01012783          	lw	a5,16(sp)
    3f44:	00911723          	sh	s1,14(sp)
    3f48:	02c12083          	lw	ra,44(sp)
    3f4c:	00f92023          	sw	a5,0(s2)
    3f50:	01412783          	lw	a5,20(sp)
    3f54:	02812403          	lw	s0,40(sp)
    3f58:	02412483          	lw	s1,36(sp)
    3f5c:	00f92223          	sw	a5,4(s2)
    3f60:	01812783          	lw	a5,24(sp)
    3f64:	00090513          	mv	a0,s2
    3f68:	00f92423          	sw	a5,8(s2)
    3f6c:	00c12783          	lw	a5,12(sp)
    3f70:	00f92623          	sw	a5,12(s2)
    3f74:	02012903          	lw	s2,32(sp)
    3f78:	03010113          	add	sp,sp,48
    3f7c:	00008067          	ret
    3f80:	00b7e533          	or	a0,a5,a1
    3f84:	10071063          	bnez	a4,4084 <__extenddftf2+0x1d0>
    3f88:	fa0504e3          	beqz	a0,3f30 <__extenddftf2+0x7c>
    3f8c:	04078e63          	beqz	a5,3fe8 <__extenddftf2+0x134>
    3f90:	00078513          	mv	a0,a5
    3f94:	484000ef          	jal	4418 <__clzsi2>
    3f98:	03150693          	add	a3,a0,49
    3f9c:	4056d793          	sra	a5,a3,0x5
    3fa0:	01f6f693          	and	a3,a3,31
    3fa4:	04068863          	beqz	a3,3ff4 <__extenddftf2+0x140>
    3fa8:	ffc00613          	li	a2,-4
    3fac:	02c78633          	mul	a2,a5,a2
    3fb0:	02000813          	li	a6,32
    3fb4:	01010313          	add	t1,sp,16
    3fb8:	40d80833          	sub	a6,a6,a3
    3fbc:	00c60713          	add	a4,a2,12
    3fc0:	00e30733          	add	a4,t1,a4
    3fc4:	40c00633          	neg	a2,a2
    3fc8:	08e31c63          	bne	t1,a4,4060 <__extenddftf2+0x1ac>
    3fcc:	fff78713          	add	a4,a5,-1
    3fd0:	00279793          	sll	a5,a5,0x2
    3fd4:	02078793          	add	a5,a5,32
    3fd8:	002787b3          	add	a5,a5,sp
    3fdc:	00d416b3          	sll	a3,s0,a3
    3fe0:	fed7a823          	sw	a3,-16(a5)
    3fe4:	03c0006f          	j	4020 <__extenddftf2+0x16c>
    3fe8:	430000ef          	jal	4418 <__clzsi2>
    3fec:	02050513          	add	a0,a0,32
    3ff0:	fa9ff06f          	j	3f98 <__extenddftf2+0xe4>
    3ff4:	ffc00613          	li	a2,-4
    3ff8:	02c78633          	mul	a2,a5,a2
    3ffc:	01c10713          	add	a4,sp,28
    4000:	00300693          	li	a3,3
    4004:	00c705b3          	add	a1,a4,a2
    4008:	0005a583          	lw	a1,0(a1) # 10000 <_svfprintf_r+0x1990>
    400c:	fff68693          	add	a3,a3,-1
    4010:	ffc70713          	add	a4,a4,-4
    4014:	00b72223          	sw	a1,4(a4)
    4018:	fef6d6e3          	bge	a3,a5,4004 <__extenddftf2+0x150>
    401c:	fff78713          	add	a4,a5,-1
    4020:	00170793          	add	a5,a4,1
    4024:	00279793          	sll	a5,a5,0x2
    4028:	00800693          	li	a3,8
    402c:	01010713          	add	a4,sp,16
    4030:	00d7ea63          	bltu	a5,a3,4044 <__extenddftf2+0x190>
    4034:	00012823          	sw	zero,16(sp)
    4038:	00072223          	sw	zero,4(a4)
    403c:	ff878793          	add	a5,a5,-8
    4040:	01810713          	add	a4,sp,24
    4044:	00400693          	li	a3,4
    4048:	00d7e463          	bltu	a5,a3,4050 <__extenddftf2+0x19c>
    404c:	00072023          	sw	zero,0(a4)
    4050:	00004737          	lui	a4,0x4
    4054:	c0c70713          	add	a4,a4,-1012 # 3c0c <__subtf3+0x1454>
    4058:	40a70733          	sub	a4,a4,a0
    405c:	ed5ff06f          	j	3f30 <__extenddftf2+0x7c>
    4060:	00072583          	lw	a1,0(a4)
    4064:	ffc72883          	lw	a7,-4(a4)
    4068:	00c70e33          	add	t3,a4,a2
    406c:	00d595b3          	sll	a1,a1,a3
    4070:	0108d8b3          	srl	a7,a7,a6
    4074:	0115e5b3          	or	a1,a1,a7
    4078:	00be2023          	sw	a1,0(t3)
    407c:	ffc70713          	add	a4,a4,-4
    4080:	f49ff06f          	j	3fc8 <__extenddftf2+0x114>
    4084:	02050863          	beqz	a0,40b4 <__extenddftf2+0x200>
    4088:	01c79713          	sll	a4,a5,0x1c
    408c:	0045d693          	srl	a3,a1,0x4
    4090:	00d76733          	or	a4,a4,a3
    4094:	00e12c23          	sw	a4,24(sp)
    4098:	0047d793          	srl	a5,a5,0x4
    409c:	00008737          	lui	a4,0x8
    40a0:	01c59413          	sll	s0,a1,0x1c
    40a4:	00e7e7b3          	or	a5,a5,a4
    40a8:	00812a23          	sw	s0,20(sp)
    40ac:	00012823          	sw	zero,16(sp)
    40b0:	00f12e23          	sw	a5,28(sp)
    40b4:	00008737          	lui	a4,0x8
    40b8:	fff70713          	add	a4,a4,-1 # 7fff <_vfprintf_r+0x28bb>
    40bc:	e75ff06f          	j	3f30 <__extenddftf2+0x7c>

000040c0 <__trunctfdf2>:
    40c0:	00c52583          	lw	a1,12(a0)
    40c4:	00852783          	lw	a5,8(a0)
    40c8:	00052683          	lw	a3,0(a0)
    40cc:	fe010113          	add	sp,sp,-32
    40d0:	00452703          	lw	a4,4(a0)
    40d4:	00f12423          	sw	a5,8(sp)
    40d8:	00f12c23          	sw	a5,24(sp)
    40dc:	01059793          	sll	a5,a1,0x10
    40e0:	0107d793          	srl	a5,a5,0x10
    40e4:	00d12023          	sw	a3,0(sp)
    40e8:	00d12823          	sw	a3,16(sp)
    40ec:	01010613          	add	a2,sp,16
    40f0:	00159693          	sll	a3,a1,0x1
    40f4:	00b12623          	sw	a1,12(sp)
    40f8:	00f12e23          	sw	a5,28(sp)
    40fc:	00e12223          	sw	a4,4(sp)
    4100:	00e12a23          	sw	a4,20(sp)
    4104:	0116d693          	srl	a3,a3,0x11
    4108:	01f5d593          	srl	a1,a1,0x1f
    410c:	01c10793          	add	a5,sp,28
    4110:	00060893          	mv	a7,a2
    4114:	0007a703          	lw	a4,0(a5)
    4118:	ffc7a503          	lw	a0,-4(a5)
    411c:	ffc78793          	add	a5,a5,-4
    4120:	00371713          	sll	a4,a4,0x3
    4124:	01d55513          	srl	a0,a0,0x1d
    4128:	00a76733          	or	a4,a4,a0
    412c:	00e7a223          	sw	a4,4(a5)
    4130:	fef612e3          	bne	a2,a5,4114 <__trunctfdf2+0x54>
    4134:	01012503          	lw	a0,16(sp)
    4138:	00008737          	lui	a4,0x8
    413c:	00168793          	add	a5,a3,1
    4140:	00351513          	sll	a0,a0,0x3
    4144:	ffe70713          	add	a4,a4,-2 # 7ffe <_vfprintf_r+0x28ba>
    4148:	00a12823          	sw	a0,16(sp)
    414c:	00e7f7b3          	and	a5,a5,a4
    4150:	22078063          	beqz	a5,4370 <__trunctfdf2+0x2b0>
    4154:	ffffc7b7          	lui	a5,0xffffc
    4158:	40078793          	add	a5,a5,1024 # ffffc400 <_end+0xfffe2430>
    415c:	00f686b3          	add	a3,a3,a5
    4160:	7fe00793          	li	a5,2046
    4164:	28d7cc63          	blt	a5,a3,43fc <__trunctfdf2+0x33c>
    4168:	0cd05863          	blez	a3,4238 <__trunctfdf2+0x178>
    416c:	01812603          	lw	a2,24(sp)
    4170:	01c12783          	lw	a5,28(sp)
    4174:	01412703          	lw	a4,20(sp)
    4178:	01c65813          	srl	a6,a2,0x1c
    417c:	00479793          	sll	a5,a5,0x4
    4180:	0107e7b3          	or	a5,a5,a6
    4184:	00f12a23          	sw	a5,20(sp)
    4188:	00471793          	sll	a5,a4,0x4
    418c:	00a7e7b3          	or	a5,a5,a0
    4190:	01c75713          	srl	a4,a4,0x1c
    4194:	00461613          	sll	a2,a2,0x4
    4198:	00f037b3          	snez	a5,a5
    419c:	00c76733          	or	a4,a4,a2
    41a0:	00e7e7b3          	or	a5,a5,a4
    41a4:	01412703          	lw	a4,20(sp)
    41a8:	0077f613          	and	a2,a5,7
    41ac:	02060063          	beqz	a2,41cc <__trunctfdf2+0x10c>
    41b0:	00f7f613          	and	a2,a5,15
    41b4:	00400513          	li	a0,4
    41b8:	00a60a63          	beq	a2,a0,41cc <__trunctfdf2+0x10c>
    41bc:	00478613          	add	a2,a5,4
    41c0:	00f63533          	sltu	a0,a2,a5
    41c4:	00a70733          	add	a4,a4,a0
    41c8:	00060793          	mv	a5,a2
    41cc:	00800637          	lui	a2,0x800
    41d0:	00c77633          	and	a2,a4,a2
    41d4:	1e060a63          	beqz	a2,43c8 <__trunctfdf2+0x308>
    41d8:	ff800537          	lui	a0,0xff800
    41dc:	fff50513          	add	a0,a0,-1 # ff7fffff <_end+0xff7e602f>
    41e0:	00168693          	add	a3,a3,1
    41e4:	7ff00813          	li	a6,2047
    41e8:	00a77533          	and	a0,a4,a0
    41ec:	00000613          	li	a2,0
    41f0:	00000713          	li	a4,0
    41f4:	01068a63          	beq	a3,a6,4208 <__trunctfdf2+0x148>
    41f8:	0037d793          	srl	a5,a5,0x3
    41fc:	01d51613          	sll	a2,a0,0x1d
    4200:	00f66633          	or	a2,a2,a5
    4204:	00355713          	srl	a4,a0,0x3
    4208:	7ff007b7          	lui	a5,0x7ff00
    420c:	01469693          	sll	a3,a3,0x14
    4210:	00c71713          	sll	a4,a4,0xc
    4214:	00f6f6b3          	and	a3,a3,a5
    4218:	00c75713          	srl	a4,a4,0xc
    421c:	01f59593          	sll	a1,a1,0x1f
    4220:	00e6e6b3          	or	a3,a3,a4
    4224:	00b6e7b3          	or	a5,a3,a1
    4228:	00060513          	mv	a0,a2
    422c:	00078593          	mv	a1,a5
    4230:	02010113          	add	sp,sp,32
    4234:	00008067          	ret
    4238:	fcc00793          	li	a5,-52
    423c:	18f6c063          	blt	a3,a5,43bc <__trunctfdf2+0x2fc>
    4240:	01c12783          	lw	a5,28(sp)
    4244:	00080737          	lui	a4,0x80
    4248:	00060813          	mv	a6,a2
    424c:	00f76eb3          	or	t4,a4,a5
    4250:	03d00793          	li	a5,61
    4254:	40d787b3          	sub	a5,a5,a3
    4258:	4057d693          	sra	a3,a5,0x5
    425c:	01f7f713          	and	a4,a5,31
    4260:	01d12e23          	sw	t4,28(sp)
    4264:	00000513          	li	a0,0
    4268:	00000793          	li	a5,0
    426c:	00082303          	lw	t1,0(a6)
    4270:	00150513          	add	a0,a0,1
    4274:	00480813          	add	a6,a6,4
    4278:	0067e7b3          	or	a5,a5,t1
    427c:	fea698e3          	bne	a3,a0,426c <__trunctfdf2+0x1ac>
    4280:	00300513          	li	a0,3
    4284:	40d50533          	sub	a0,a0,a3
    4288:	00269813          	sll	a6,a3,0x2
    428c:	02071463          	bnez	a4,42b4 <__trunctfdf2+0x1f4>
    4290:	01088333          	add	t1,a7,a6
    4294:	00032303          	lw	t1,0(t1)
    4298:	00170713          	add	a4,a4,1 # 80001 <_end+0x66031>
    429c:	00488893          	add	a7,a7,4
    42a0:	fe68ae23          	sw	t1,-4(a7)
    42a4:	fee556e3          	bge	a0,a4,4290 <__trunctfdf2+0x1d0>
    42a8:	00400713          	li	a4,4
    42ac:	40d706b3          	sub	a3,a4,a3
    42b0:	04c0006f          	j	42fc <__trunctfdf2+0x23c>
    42b4:	02080893          	add	a7,a6,32
    42b8:	002888b3          	add	a7,a7,sp
    42bc:	ff08a883          	lw	a7,-16(a7)
    42c0:	02000e13          	li	t3,32
    42c4:	40ee0e33          	sub	t3,t3,a4
    42c8:	01c898b3          	sll	a7,a7,t3
    42cc:	0117e7b3          	or	a5,a5,a7
    42d0:	00000f13          	li	t5,0
    42d4:	010608b3          	add	a7,a2,a6
    42d8:	41000833          	neg	a6,a6
    42dc:	06af4663          	blt	t5,a0,4348 <__trunctfdf2+0x288>
    42e0:	00251513          	sll	a0,a0,0x2
    42e4:	02050513          	add	a0,a0,32
    42e8:	00400813          	li	a6,4
    42ec:	00250533          	add	a0,a0,sp
    42f0:	00eed733          	srl	a4,t4,a4
    42f4:	40d806b3          	sub	a3,a6,a3
    42f8:	fee52823          	sw	a4,-16(a0)
    42fc:	00400513          	li	a0,4
    4300:	40d50533          	sub	a0,a0,a3
    4304:	00269693          	sll	a3,a3,0x2
    4308:	00d60733          	add	a4,a2,a3
    430c:	00251693          	sll	a3,a0,0x2
    4310:	00800613          	li	a2,8
    4314:	00c6ea63          	bltu	a3,a2,4328 <__trunctfdf2+0x268>
    4318:	00072023          	sw	zero,0(a4)
    431c:	00072223          	sw	zero,4(a4)
    4320:	ff868693          	add	a3,a3,-8
    4324:	00870713          	add	a4,a4,8
    4328:	00400613          	li	a2,4
    432c:	00c6e463          	bltu	a3,a2,4334 <__trunctfdf2+0x274>
    4330:	00072023          	sw	zero,0(a4)
    4334:	01012703          	lw	a4,16(sp)
    4338:	00f037b3          	snez	a5,a5
    433c:	00000693          	li	a3,0
    4340:	00e7e7b3          	or	a5,a5,a4
    4344:	e61ff06f          	j	41a4 <__trunctfdf2+0xe4>
    4348:	0008a303          	lw	t1,0(a7)
    434c:	0048af83          	lw	t6,4(a7)
    4350:	010882b3          	add	t0,a7,a6
    4354:	00e35333          	srl	t1,t1,a4
    4358:	01cf9fb3          	sll	t6,t6,t3
    435c:	01f36333          	or	t1,t1,t6
    4360:	0062a023          	sw	t1,0(t0) # 55c <memset+0xb4>
    4364:	001f0f13          	add	t5,t5,1
    4368:	00488893          	add	a7,a7,4
    436c:	f71ff06f          	j	42dc <__trunctfdf2+0x21c>
    4370:	08068863          	beqz	a3,4400 <__trunctfdf2+0x340>
    4374:	01412783          	lw	a5,20(sp)
    4378:	01812703          	lw	a4,24(sp)
    437c:	01c12683          	lw	a3,28(sp)
    4380:	00f76633          	or	a2,a4,a5
    4384:	00d66633          	or	a2,a2,a3
    4388:	00a66633          	or	a2,a2,a0
    438c:	08060063          	beqz	a2,440c <__trunctfdf2+0x34c>
    4390:	00471613          	sll	a2,a4,0x4
    4394:	00469693          	sll	a3,a3,0x4
    4398:	01c7d793          	srl	a5,a5,0x1c
    439c:	01c75713          	srl	a4,a4,0x1c
    43a0:	00d76733          	or	a4,a4,a3
    43a4:	00c7e7b3          	or	a5,a5,a2
    43a8:	004006b7          	lui	a3,0x400
    43ac:	00d76733          	or	a4,a4,a3
    43b0:	ff87f793          	and	a5,a5,-8
    43b4:	7ff00693          	li	a3,2047
    43b8:	df1ff06f          	j	41a8 <__trunctfdf2+0xe8>
    43bc:	00000693          	li	a3,0
    43c0:	00500793          	li	a5,5
    43c4:	00000713          	li	a4,0
    43c8:	0037d793          	srl	a5,a5,0x3
    43cc:	01d71613          	sll	a2,a4,0x1d
    43d0:	00f66633          	or	a2,a2,a5
    43d4:	7ff00793          	li	a5,2047
    43d8:	00375713          	srl	a4,a4,0x3
    43dc:	e2f696e3          	bne	a3,a5,4208 <__trunctfdf2+0x148>
    43e0:	00e66633          	or	a2,a2,a4
    43e4:	00000713          	li	a4,0
    43e8:	e20600e3          	beqz	a2,4208 <__trunctfdf2+0x148>
    43ec:	00080737          	lui	a4,0x80
    43f0:	00000613          	li	a2,0
    43f4:	00000593          	li	a1,0
    43f8:	e11ff06f          	j	4208 <__trunctfdf2+0x148>
    43fc:	7ff00693          	li	a3,2047
    4400:	00000713          	li	a4,0
    4404:	00000613          	li	a2,0
    4408:	e01ff06f          	j	4208 <__trunctfdf2+0x148>
    440c:	00000713          	li	a4,0
    4410:	7ff00693          	li	a3,2047
    4414:	df5ff06f          	j	4208 <__trunctfdf2+0x148>

00004418 <__clzsi2>:
    4418:	000107b7          	lui	a5,0x10
    441c:	02f57a63          	bgeu	a0,a5,4450 <__clzsi2+0x38>
    4420:	10053793          	sltiu	a5,a0,256
    4424:	0017c793          	xor	a5,a5,1
    4428:	00379793          	sll	a5,a5,0x3
    442c:	00016737          	lui	a4,0x16
    4430:	02000693          	li	a3,32
    4434:	40f686b3          	sub	a3,a3,a5
    4438:	00f55533          	srl	a0,a0,a5
    443c:	c8470793          	add	a5,a4,-892 # 15c84 <__clz_tab>
    4440:	00a787b3          	add	a5,a5,a0
    4444:	0007c503          	lbu	a0,0(a5) # 10000 <_svfprintf_r+0x1990>
    4448:	40a68533          	sub	a0,a3,a0
    444c:	00008067          	ret
    4450:	01000737          	lui	a4,0x1000
    4454:	01000793          	li	a5,16
    4458:	fce56ae3          	bltu	a0,a4,442c <__clzsi2+0x14>
    445c:	01800793          	li	a5,24
    4460:	fcdff06f          	j	442c <__clzsi2+0x14>

00004464 <exit>:
    4464:	ff010113          	add	sp,sp,-16
    4468:	00000593          	li	a1,0
    446c:	00812423          	sw	s0,8(sp)
    4470:	00112623          	sw	ra,12(sp)
    4474:	00050413          	mv	s0,a0
    4478:	66d030ef          	jal	82e4 <__call_exitprocs>
    447c:	8181a503          	lw	a0,-2024(gp) # 17750 <_global_impure_ptr>
    4480:	03c52783          	lw	a5,60(a0)
    4484:	00078463          	beqz	a5,448c <exit+0x28>
    4488:	000780e7          	jalr	a5
    448c:	00040513          	mv	a0,s0
    4490:	814fc0ef          	jal	4a4 <_exit>

00004494 <main>:
    4494:	f5010113          	add	sp,sp,-176
    4498:	03000513          	li	a0,48
    449c:	0a112623          	sw	ra,172(sp)
    44a0:	0a812423          	sw	s0,168(sp)
    44a4:	09612823          	sw	s6,144(sp)
    44a8:	09812423          	sw	s8,136(sp)
    44ac:	0a912223          	sw	s1,164(sp)
    44b0:	0b212023          	sw	s2,160(sp)
    44b4:	09312e23          	sw	s3,156(sp)
    44b8:	09412c23          	sw	s4,152(sp)
    44bc:	09512a23          	sw	s5,148(sp)
    44c0:	09712623          	sw	s7,140(sp)
    44c4:	09912223          	sw	s9,132(sp)
    44c8:	09a12023          	sw	s10,128(sp)
    44cc:	07b12e23          	sw	s11,124(sp)
    44d0:	061000ef          	jal	4d30 <malloc>
    44d4:	00050413          	mv	s0,a0
    44d8:	03000513          	li	a0,48
    44dc:	8481ae23          	sw	s0,-1956(gp) # 17794 <Next_Ptr_Glob>
    44e0:	051000ef          	jal	4d30 <malloc>
    44e4:	000157b7          	lui	a5,0x15
    44e8:	00015737          	lui	a4,0x15
    44ec:	92078793          	add	a5,a5,-1760 # 14920 <_getpid_r+0x4>
    44f0:	e7c70713          	add	a4,a4,-388 # 14e7c <_getpid_r+0x560>
    44f4:	0007a383          	lw	t2,0(a5)
    44f8:	0047af03          	lw	t5,4(a5)
    44fc:	0087ae83          	lw	t4,8(a5)
    4500:	00c7ae03          	lw	t3,12(a5)
    4504:	0107a303          	lw	t1,16(a5)
    4508:	00072283          	lw	t0,0(a4)
    450c:	00472f83          	lw	t6,4(a4)
    4510:	0147a883          	lw	a7,20(a5)
    4514:	0187a803          	lw	a6,24(a5)
    4518:	01c7d583          	lhu	a1,28(a5)
    451c:	01e7c603          	lbu	a2,30(a5)
    4520:	00852023          	sw	s0,0(a0)
    4524:	00050793          	mv	a5,a0
    4528:	00052223          	sw	zero,4(a0)
    452c:	00872683          	lw	a3,8(a4)
    4530:	00200513          	li	a0,2
    4534:	00a7a423          	sw	a0,8(a5)
    4538:	02800513          	li	a0,40
    453c:	0077a823          	sw	t2,16(a5)
    4540:	01e7aa23          	sw	t5,20(a5)
    4544:	01d7ac23          	sw	t4,24(a5)
    4548:	01c7ae23          	sw	t3,28(a5)
    454c:	0267a023          	sw	t1,32(a5)
    4550:	02512823          	sw	t0,48(sp)
    4554:	03f12a23          	sw	t6,52(sp)
    4558:	00a7a623          	sw	a0,12(a5)
    455c:	0317a223          	sw	a7,36(a5)
    4560:	0307a423          	sw	a6,40(a5)
    4564:	02b79623          	sh	a1,44(a5)
    4568:	02c78723          	sb	a2,46(a5)
    456c:	86f1a023          	sw	a5,-1952(gp) # 17798 <Ptr_Glob>
    4570:	00c72883          	lw	a7,12(a4)
    4574:	01072803          	lw	a6,16(a4)
    4578:	01472583          	lw	a1,20(a4)
    457c:	01872603          	lw	a2,24(a4)
    4580:	02d12c23          	sw	a3,56(sp)
    4584:	01e74783          	lbu	a5,30(a4)
    4588:	01c75683          	lhu	a3,28(a4)
    458c:	00018c37          	lui	s8,0x18
    4590:	898c0713          	add	a4,s8,-1896 # 17898 <Arr_2_Glob>
    4594:	04f10723          	sb	a5,78(sp)
    4598:	00a00513          	li	a0,10
    459c:	00a00793          	li	a5,10
    45a0:	64f72e23          	sw	a5,1628(a4)
    45a4:	03112e23          	sw	a7,60(sp)
    45a8:	05012023          	sw	a6,64(sp)
    45ac:	04b12223          	sw	a1,68(sp)
    45b0:	04c12423          	sw	a2,72(sp)
    45b4:	04d11623          	sh	a3,76(sp)
    45b8:	7b5000ef          	jal	556c <putchar>
    45bc:	00015537          	lui	a0,0x15
    45c0:	94050513          	add	a0,a0,-1728 # 14940 <_getpid_r+0x24>
    45c4:	08c010ef          	jal	5650 <puts>
    45c8:	00a00513          	li	a0,10
    45cc:	7a1000ef          	jal	556c <putchar>
    45d0:	84c1a783          	lw	a5,-1972(gp) # 17784 <Reg>
    45d4:	68078463          	beqz	a5,4c5c <main+0x7c8>
    45d8:	00015537          	lui	a0,0x15
    45dc:	97050513          	add	a0,a0,-1680 # 14970 <_getpid_r+0x54>
    45e0:	070010ef          	jal	5650 <puts>
    45e4:	00a00513          	li	a0,10
    45e8:	785000ef          	jal	556c <putchar>
    45ec:	00015537          	lui	a0,0x15
    45f0:	9cc50513          	add	a0,a0,-1588 # 149cc <_getpid_r+0xb0>
    45f4:	725000ef          	jal	5518 <printf>
    45f8:	00a00513          	li	a0,10
    45fc:	771000ef          	jal	556c <putchar>
    4600:	00015537          	lui	a0,0x15
    4604:	06400593          	li	a1,100
    4608:	a0450513          	add	a0,a0,-1532 # 14a04 <_getpid_r+0xe8>
    460c:	70d000ef          	jal	5518 <printf>
    4610:	00000513          	li	a0,0
    4614:	dd9fb0ef          	jal	3ec <time>
    4618:	00050793          	mv	a5,a0
    461c:	00000513          	li	a0,0
    4620:	84f1a423          	sw	a5,-1976(gp) # 17780 <Begin_Time>
    4624:	dd1fb0ef          	jal	3f4 <insn>
    4628:	000157b7          	lui	a5,0x15
    462c:	e9c78793          	add	a5,a5,-356 # 14e9c <_getpid_r+0x580>
    4630:	0047a703          	lw	a4,4(a5)
    4634:	0007ad83          	lw	s11,0(a5)
    4638:	00015837          	lui	a6,0x15
    463c:	00e12023          	sw	a4,0(sp)
    4640:	0087a703          	lw	a4,8(a5)
    4644:	00100493          	li	s1,1
    4648:	00e12223          	sw	a4,4(sp)
    464c:	00c7a703          	lw	a4,12(a5)
    4650:	00e12423          	sw	a4,8(sp)
    4654:	0107a703          	lw	a4,16(a5)
    4658:	00e12623          	sw	a4,12(sp)
    465c:	0147a703          	lw	a4,20(a5)
    4660:	ebc80c93          	add	s9,a6,-324 # 14ebc <_getpid_r+0x5a0>
    4664:	00e12823          	sw	a4,16(sp)
    4668:	0187a703          	lw	a4,24(a5)
    466c:	00e12a23          	sw	a4,20(sp)
    4670:	01c7d703          	lhu	a4,28(a5)
    4674:	01e7c783          	lbu	a5,30(a5)
    4678:	00e12c23          	sw	a4,24(sp)
    467c:	00f12e23          	sw	a5,28(sp)
    4680:	82a1ae23          	sw	a0,-1988(gp) # 17774 <Begin_Insn>
    4684:	04100713          	li	a4,65
    4688:	84e188a3          	sb	a4,-1967(gp) # 17789 <Ch_1_Glob>
    468c:	04200713          	li	a4,66
    4690:	84e18823          	sb	a4,-1968(gp) # 17788 <Ch_2_Glob>
    4694:	00012703          	lw	a4,0(sp)
    4698:	00100793          	li	a5,1
    469c:	05010593          	add	a1,sp,80
    46a0:	04e12a23          	sw	a4,84(sp)
    46a4:	00412703          	lw	a4,4(sp)
    46a8:	03010513          	add	a0,sp,48
    46ac:	84f1aa23          	sw	a5,-1964(gp) # 1778c <Bool_Glob>
    46b0:	04e12c23          	sw	a4,88(sp)
    46b4:	00812703          	lw	a4,8(sp)
    46b8:	02f12623          	sw	a5,44(sp)
    46bc:	05b12823          	sw	s11,80(sp)
    46c0:	04e12e23          	sw	a4,92(sp)
    46c4:	00c12703          	lw	a4,12(sp)
    46c8:	06e12023          	sw	a4,96(sp)
    46cc:	01012703          	lw	a4,16(sp)
    46d0:	06e12223          	sw	a4,100(sp)
    46d4:	01412703          	lw	a4,20(sp)
    46d8:	06e12423          	sw	a4,104(sp)
    46dc:	01812703          	lw	a4,24(sp)
    46e0:	06e11623          	sh	a4,108(sp)
    46e4:	01c12703          	lw	a4,28(sp)
    46e8:	06e10723          	sb	a4,110(sp)
    46ec:	c9dfb0ef          	jal	388 <Func_2>
    46f0:	00153793          	seqz	a5,a0
    46f4:	02810613          	add	a2,sp,40
    46f8:	00300593          	li	a1,3
    46fc:	84f1aa23          	sw	a5,-1964(gp) # 1778c <Bool_Glob>
    4700:	00200513          	li	a0,2
    4704:	00700793          	li	a5,7
    4708:	02f12423          	sw	a5,40(sp)
    470c:	be9fb0ef          	jal	2f4 <Proc_7>
    4710:	02812683          	lw	a3,40(sp)
    4714:	00300613          	li	a2,3
    4718:	898c0593          	add	a1,s8,-1896
    471c:	89818513          	add	a0,gp,-1896 # 177d0 <Arr_1_Glob>
    4720:	be5fb0ef          	jal	304 <Proc_8>
    4724:	8601a503          	lw	a0,-1952(gp) # 17798 <Ptr_Glob>
    4728:	98dfb0ef          	jal	b4 <Proc_1>
    472c:	8501c703          	lbu	a4,-1968(gp) # 17788 <Ch_2_Glob>
    4730:	04000793          	li	a5,64
    4734:	52e7f063          	bgeu	a5,a4,4c54 <main+0x7c0>
    4738:	04100d13          	li	s10,65
    473c:	00300913          	li	s2,3
    4740:	000d0513          	mv	a0,s10
    4744:	04300593          	li	a1,67
    4748:	c21fb0ef          	jal	368 <Func_1>
    474c:	02c12783          	lw	a5,44(sp)
    4750:	001d0713          	add	a4,s10,1
    4754:	48f50863          	beq	a0,a5,4be4 <main+0x750>
    4758:	8501c783          	lbu	a5,-1968(gp) # 17788 <Ch_2_Glob>
    475c:	0ff77d13          	zext.b	s10,a4
    4760:	ffa7f0e3          	bgeu	a5,s10,4740 <main+0x2ac>
    4764:	00191793          	sll	a5,s2,0x1
    4768:	012787b3          	add	a5,a5,s2
    476c:	02812303          	lw	t1,40(sp)
    4770:	8511c603          	lbu	a2,-1967(gp) # 17789 <Ch_1_Glob>
    4774:	04100693          	li	a3,65
    4778:	0267c8b3          	div	a7,a5,t1
    477c:	00088713          	mv	a4,a7
    4780:	00d61863          	bne	a2,a3,4790 <main+0x2fc>
    4784:	8581a683          	lw	a3,-1960(gp) # 17790 <Int_Glob>
    4788:	00988713          	add	a4,a7,9
    478c:	40d70733          	sub	a4,a4,a3
    4790:	00148493          	add	s1,s1,1
    4794:	06500693          	li	a3,101
    4798:	eed496e3          	bne	s1,a3,4684 <main+0x1f0>
    479c:	00000513          	li	a0,0
    47a0:	00612623          	sw	t1,12(sp)
    47a4:	01112423          	sw	a7,8(sp)
    47a8:	00e12223          	sw	a4,4(sp)
    47ac:	00f12023          	sw	a5,0(sp)
    47b0:	c3dfb0ef          	jal	3ec <time>
    47b4:	00050613          	mv	a2,a0
    47b8:	00000513          	li	a0,0
    47bc:	84c1a223          	sw	a2,-1980(gp) # 1777c <End_Time>
    47c0:	c35fb0ef          	jal	3f4 <insn>
    47c4:	00050613          	mv	a2,a0
    47c8:	00015537          	lui	a0,0x15
    47cc:	a3450513          	add	a0,a0,-1484 # 14a34 <_getpid_r+0x118>
    47d0:	82c1ac23          	sw	a2,-1992(gp) # 17770 <End_Insn>
    47d4:	67d000ef          	jal	5650 <puts>
    47d8:	00a00513          	li	a0,10
    47dc:	591000ef          	jal	556c <putchar>
    47e0:	00015537          	lui	a0,0x15
    47e4:	a4450513          	add	a0,a0,-1468 # 14a44 <_getpid_r+0x128>
    47e8:	669000ef          	jal	5650 <puts>
    47ec:	00a00513          	li	a0,10
    47f0:	57d000ef          	jal	556c <putchar>
    47f4:	8581a583          	lw	a1,-1960(gp) # 17790 <Int_Glob>
    47f8:	00015537          	lui	a0,0x15
    47fc:	a7c50513          	add	a0,a0,-1412 # 14a7c <_getpid_r+0x160>
    4800:	000154b7          	lui	s1,0x15
    4804:	515000ef          	jal	5518 <printf>
    4808:	00500593          	li	a1,5
    480c:	a9848513          	add	a0,s1,-1384 # 14a98 <_getpid_r+0x17c>
    4810:	509000ef          	jal	5518 <printf>
    4814:	8541a583          	lw	a1,-1964(gp) # 1778c <Bool_Glob>
    4818:	00015537          	lui	a0,0x15
    481c:	ab450513          	add	a0,a0,-1356 # 14ab4 <_getpid_r+0x198>
    4820:	4f9000ef          	jal	5518 <printf>
    4824:	00100593          	li	a1,1
    4828:	a9848513          	add	a0,s1,-1384
    482c:	4ed000ef          	jal	5518 <printf>
    4830:	8511c583          	lbu	a1,-1967(gp) # 17789 <Ch_1_Glob>
    4834:	00015537          	lui	a0,0x15
    4838:	ad050513          	add	a0,a0,-1328 # 14ad0 <_getpid_r+0x1b4>
    483c:	4dd000ef          	jal	5518 <printf>
    4840:	00015937          	lui	s2,0x15
    4844:	04100593          	li	a1,65
    4848:	aec90513          	add	a0,s2,-1300 # 14aec <_getpid_r+0x1d0>
    484c:	4cd000ef          	jal	5518 <printf>
    4850:	8501c583          	lbu	a1,-1968(gp) # 17788 <Ch_2_Glob>
    4854:	00015537          	lui	a0,0x15
    4858:	b0850513          	add	a0,a0,-1272 # 14b08 <_getpid_r+0x1ec>
    485c:	4bd000ef          	jal	5518 <printf>
    4860:	04200593          	li	a1,66
    4864:	aec90513          	add	a0,s2,-1300
    4868:	4b1000ef          	jal	5518 <printf>
    486c:	89818b93          	add	s7,gp,-1896 # 177d0 <Arr_1_Glob>
    4870:	020ba583          	lw	a1,32(s7)
    4874:	00015537          	lui	a0,0x15
    4878:	b2450513          	add	a0,a0,-1244 # 14b24 <_getpid_r+0x208>
    487c:	49d000ef          	jal	5518 <printf>
    4880:	00700593          	li	a1,7
    4884:	a9848513          	add	a0,s1,-1384
    4888:	491000ef          	jal	5518 <printf>
    488c:	000187b7          	lui	a5,0x18
    4890:	89878793          	add	a5,a5,-1896 # 17898 <Arr_2_Glob>
    4894:	65c7a583          	lw	a1,1628(a5)
    4898:	00015537          	lui	a0,0x15
    489c:	b4050513          	add	a0,a0,-1216 # 14b40 <_getpid_r+0x224>
    48a0:	479000ef          	jal	5518 <printf>
    48a4:	00015537          	lui	a0,0x15
    48a8:	b5c50513          	add	a0,a0,-1188 # 14b5c <_getpid_r+0x240>
    48ac:	5a5000ef          	jal	5650 <puts>
    48b0:	00015537          	lui	a0,0x15
    48b4:	b8850513          	add	a0,a0,-1144 # 14b88 <_getpid_r+0x26c>
    48b8:	599000ef          	jal	5650 <puts>
    48bc:	8601a583          	lw	a1,-1952(gp) # 17798 <Ptr_Glob>
    48c0:	00015637          	lui	a2,0x15
    48c4:	b9460513          	add	a0,a2,-1132 # 14b94 <_getpid_r+0x278>
    48c8:	0005a583          	lw	a1,0(a1)
    48cc:	00015c37          	lui	s8,0x15
    48d0:	00015bb7          	lui	s7,0x15
    48d4:	445000ef          	jal	5518 <printf>
    48d8:	00015537          	lui	a0,0x15
    48dc:	bb050513          	add	a0,a0,-1104 # 14bb0 <_getpid_r+0x294>
    48e0:	571000ef          	jal	5650 <puts>
    48e4:	8601a583          	lw	a1,-1952(gp) # 17798 <Ptr_Glob>
    48e8:	be0c0513          	add	a0,s8,-1056 # 14be0 <_getpid_r+0x2c4>
    48ec:	00015ab7          	lui	s5,0x15
    48f0:	0045a583          	lw	a1,4(a1)
    48f4:	00015a37          	lui	s4,0x15
    48f8:	000159b7          	lui	s3,0x15
    48fc:	41d000ef          	jal	5518 <printf>
    4900:	00000593          	li	a1,0
    4904:	a9848513          	add	a0,s1,-1384
    4908:	411000ef          	jal	5518 <printf>
    490c:	8601a583          	lw	a1,-1952(gp) # 17798 <Ptr_Glob>
    4910:	bfcb8513          	add	a0,s7,-1028 # 14bfc <_getpid_r+0x2e0>
    4914:	0085a583          	lw	a1,8(a1)
    4918:	3e800d13          	li	s10,1000
    491c:	3fd000ef          	jal	5518 <printf>
    4920:	00200593          	li	a1,2
    4924:	a9848513          	add	a0,s1,-1384
    4928:	3f1000ef          	jal	5518 <printf>
    492c:	8601a583          	lw	a1,-1952(gp) # 17798 <Ptr_Glob>
    4930:	c18a8513          	add	a0,s5,-1000 # 14c18 <_getpid_r+0x2fc>
    4934:	00a00c93          	li	s9,10
    4938:	00c5a583          	lw	a1,12(a1)
    493c:	3dd000ef          	jal	5518 <printf>
    4940:	01100593          	li	a1,17
    4944:	a9848513          	add	a0,s1,-1384
    4948:	3d1000ef          	jal	5518 <printf>
    494c:	8601a583          	lw	a1,-1952(gp) # 17798 <Ptr_Glob>
    4950:	c34a0513          	add	a0,s4,-972 # 14c34 <_getpid_r+0x318>
    4954:	01058593          	add	a1,a1,16
    4958:	3c1000ef          	jal	5518 <printf>
    495c:	c5098513          	add	a0,s3,-944 # 14c50 <_getpid_r+0x334>
    4960:	4f1000ef          	jal	5650 <puts>
    4964:	00015537          	lui	a0,0x15
    4968:	c8450513          	add	a0,a0,-892 # 14c84 <_getpid_r+0x368>
    496c:	4e5000ef          	jal	5650 <puts>
    4970:	85c1a583          	lw	a1,-1956(gp) # 17794 <Next_Ptr_Glob>
    4974:	00015637          	lui	a2,0x15
    4978:	b9460513          	add	a0,a2,-1132 # 14b94 <_getpid_r+0x278>
    497c:	0005a583          	lw	a1,0(a1)
    4980:	399000ef          	jal	5518 <printf>
    4984:	00015537          	lui	a0,0x15
    4988:	c9450513          	add	a0,a0,-876 # 14c94 <_getpid_r+0x378>
    498c:	4c5000ef          	jal	5650 <puts>
    4990:	85c1a603          	lw	a2,-1956(gp) # 17794 <Next_Ptr_Glob>
    4994:	be0c0513          	add	a0,s8,-1056
    4998:	00462583          	lw	a1,4(a2)
    499c:	37d000ef          	jal	5518 <printf>
    49a0:	00000593          	li	a1,0
    49a4:	a9848513          	add	a0,s1,-1384
    49a8:	371000ef          	jal	5518 <printf>
    49ac:	85c1a603          	lw	a2,-1956(gp) # 17794 <Next_Ptr_Glob>
    49b0:	bfcb8513          	add	a0,s7,-1028
    49b4:	00862583          	lw	a1,8(a2)
    49b8:	361000ef          	jal	5518 <printf>
    49bc:	00100593          	li	a1,1
    49c0:	a9848513          	add	a0,s1,-1384
    49c4:	355000ef          	jal	5518 <printf>
    49c8:	85c1a603          	lw	a2,-1956(gp) # 17794 <Next_Ptr_Glob>
    49cc:	c18a8513          	add	a0,s5,-1000
    49d0:	00c62583          	lw	a1,12(a2)
    49d4:	345000ef          	jal	5518 <printf>
    49d8:	01200593          	li	a1,18
    49dc:	a9848513          	add	a0,s1,-1384
    49e0:	339000ef          	jal	5518 <printf>
    49e4:	85c1a583          	lw	a1,-1956(gp) # 17794 <Next_Ptr_Glob>
    49e8:	c34a0513          	add	a0,s4,-972
    49ec:	01058593          	add	a1,a1,16
    49f0:	329000ef          	jal	5518 <printf>
    49f4:	c5098513          	add	a0,s3,-944
    49f8:	459000ef          	jal	5650 <puts>
    49fc:	00412703          	lw	a4,4(sp)
    4a00:	00015537          	lui	a0,0x15
    4a04:	cd450513          	add	a0,a0,-812 # 14cd4 <_getpid_r+0x3b8>
    4a08:	00070593          	mv	a1,a4
    4a0c:	30d000ef          	jal	5518 <printf>
    4a10:	00500593          	li	a1,5
    4a14:	a9848513          	add	a0,s1,-1384
    4a18:	301000ef          	jal	5518 <printf>
    4a1c:	00c12303          	lw	t1,12(sp)
    4a20:	00012783          	lw	a5,0(sp)
    4a24:	00812883          	lw	a7,8(sp)
    4a28:	00015537          	lui	a0,0x15
    4a2c:	406787b3          	sub	a5,a5,t1
    4a30:	00379593          	sll	a1,a5,0x3
    4a34:	40f585b3          	sub	a1,a1,a5
    4a38:	411585b3          	sub	a1,a1,a7
    4a3c:	cf050513          	add	a0,a0,-784 # 14cf0 <_getpid_r+0x3d4>
    4a40:	2d9000ef          	jal	5518 <printf>
    4a44:	00d00593          	li	a1,13
    4a48:	a9848513          	add	a0,s1,-1384
    4a4c:	2cd000ef          	jal	5518 <printf>
    4a50:	02812583          	lw	a1,40(sp)
    4a54:	00015537          	lui	a0,0x15
    4a58:	d0c50513          	add	a0,a0,-756 # 14d0c <_getpid_r+0x3f0>
    4a5c:	2bd000ef          	jal	5518 <printf>
    4a60:	00700593          	li	a1,7
    4a64:	a9848513          	add	a0,s1,-1384
    4a68:	2b1000ef          	jal	5518 <printf>
    4a6c:	02c12583          	lw	a1,44(sp)
    4a70:	00015537          	lui	a0,0x15
    4a74:	d2850513          	add	a0,a0,-728 # 14d28 <_getpid_r+0x40c>
    4a78:	2a1000ef          	jal	5518 <printf>
    4a7c:	00100593          	li	a1,1
    4a80:	a9848513          	add	a0,s1,-1384
    4a84:	295000ef          	jal	5518 <printf>
    4a88:	00015537          	lui	a0,0x15
    4a8c:	03010593          	add	a1,sp,48
    4a90:	d4450513          	add	a0,a0,-700 # 14d44 <_getpid_r+0x428>
    4a94:	285000ef          	jal	5518 <printf>
    4a98:	00015537          	lui	a0,0x15
    4a9c:	d6050513          	add	a0,a0,-672 # 14d60 <_getpid_r+0x444>
    4aa0:	3b1000ef          	jal	5650 <puts>
    4aa4:	00015537          	lui	a0,0x15
    4aa8:	05010593          	add	a1,sp,80
    4aac:	d9450513          	add	a0,a0,-620 # 14d94 <_getpid_r+0x478>
    4ab0:	269000ef          	jal	5518 <printf>
    4ab4:	00015537          	lui	a0,0x15
    4ab8:	db050513          	add	a0,a0,-592 # 14db0 <_getpid_r+0x494>
    4abc:	395000ef          	jal	5650 <puts>
    4ac0:	00a00513          	li	a0,10
    4ac4:	2a9000ef          	jal	556c <putchar>
    4ac8:	8441a703          	lw	a4,-1980(gp) # 1777c <End_Time>
    4acc:	8481a603          	lw	a2,-1976(gp) # 17780 <Begin_Time>
    4ad0:	83c1a683          	lw	a3,-1988(gp) # 17774 <Begin_Insn>
    4ad4:	8381a783          	lw	a5,-1992(gp) # 17770 <End_Insn>
    4ad8:	00015537          	lui	a0,0x15
    4adc:	40c70733          	sub	a4,a4,a2
    4ae0:	40d787b3          	sub	a5,a5,a3
    4ae4:	06400593          	li	a1,100
    4ae8:	de450513          	add	a0,a0,-540 # 14de4 <_getpid_r+0x4c8>
    4aec:	84e1a023          	sw	a4,-1984(gp) # 17778 <User_Time>
    4af0:	82f1aa23          	sw	a5,-1996(gp) # 1776c <User_Insn>
    4af4:	225000ef          	jal	5518 <printf>
    4af8:	8341a603          	lw	a2,-1996(gp) # 1776c <User_Insn>
    4afc:	8401a583          	lw	a1,-1984(gp) # 17778 <User_Time>
    4b00:	00015537          	lui	a0,0x15
    4b04:	df850513          	add	a0,a0,-520 # 14df8 <_getpid_r+0x4dc>
    4b08:	211000ef          	jal	5518 <printf>
    4b0c:	8401a583          	lw	a1,-1984(gp) # 17778 <User_Time>
    4b10:	8341a783          	lw	a5,-1996(gp) # 1776c <User_Insn>
    4b14:	06400613          	li	a2,100
    4b18:	02bd05b3          	mul	a1,s10,a1
    4b1c:	00015537          	lui	a0,0x15
    4b20:	e1850513          	add	a0,a0,-488 # 14e18 <_getpid_r+0x4fc>
    4b24:	02f5c5b3          	div	a1,a1,a5
    4b28:	0395c6b3          	div	a3,a1,s9
    4b2c:	02c5c633          	div	a2,a1,a2
    4b30:	0395e733          	rem	a4,a1,s9
    4b34:	0396e6b3          	rem	a3,a3,s9
    4b38:	03966633          	rem	a2,a2,s9
    4b3c:	03a5c5b3          	div	a1,a1,s10
    4b40:	1d9000ef          	jal	5518 <printf>
    4b44:	8401a703          	lw	a4,-1984(gp) # 17778 <User_Time>
    4b48:	05f5e7b7          	lui	a5,0x5f5e
    4b4c:	10078793          	add	a5,a5,256 # 5f5e100 <_end+0x5f44130>
    4b50:	02e7c433          	div	s0,a5,a4
    4b54:	00015537          	lui	a0,0x15
    4b58:	e3c50513          	add	a0,a0,-452 # 14e3c <_getpid_r+0x520>
    4b5c:	00040593          	mv	a1,s0
    4b60:	03a40433          	mul	s0,s0,s10
    4b64:	1b5000ef          	jal	5518 <printf>
    4b68:	6dd00713          	li	a4,1757
    4b6c:	0002b637          	lui	a2,0x2b
    4b70:	e5460613          	add	a2,a2,-428 # 2ae54 <_end+0x10e84>
    4b74:	001ad5b7          	lui	a1,0x1ad
    4b78:	f4858593          	add	a1,a1,-184 # 1acf48 <_end+0x192f78>
    4b7c:	00015537          	lui	a0,0x15
    4b80:	e6050513          	add	a0,a0,-416 # 14e60 <_getpid_r+0x544>
    4b84:	02e44733          	div	a4,s0,a4
    4b88:	02c44633          	div	a2,s0,a2
    4b8c:	039746b3          	div	a3,a4,s9
    4b90:	03966633          	rem	a2,a2,s9
    4b94:	03976733          	rem	a4,a4,s9
    4b98:	0396e6b3          	rem	a3,a3,s9
    4b9c:	02b445b3          	div	a1,s0,a1
    4ba0:	179000ef          	jal	5518 <printf>
    4ba4:	0ac12083          	lw	ra,172(sp)
    4ba8:	0a812403          	lw	s0,168(sp)
    4bac:	0a412483          	lw	s1,164(sp)
    4bb0:	0a012903          	lw	s2,160(sp)
    4bb4:	09c12983          	lw	s3,156(sp)
    4bb8:	09812a03          	lw	s4,152(sp)
    4bbc:	09412a83          	lw	s5,148(sp)
    4bc0:	09012b03          	lw	s6,144(sp)
    4bc4:	08c12b83          	lw	s7,140(sp)
    4bc8:	08812c03          	lw	s8,136(sp)
    4bcc:	08412c83          	lw	s9,132(sp)
    4bd0:	08012d03          	lw	s10,128(sp)
    4bd4:	07c12d83          	lw	s11,124(sp)
    4bd8:	00000513          	li	a0,0
    4bdc:	0b010113          	add	sp,sp,176
    4be0:	00008067          	ret
    4be4:	02c10593          	add	a1,sp,44
    4be8:	00000513          	li	a0,0
    4bec:	eb8fb0ef          	jal	2a4 <Proc_6>
    4bf0:	000cae03          	lw	t3,0(s9)
    4bf4:	004ca303          	lw	t1,4(s9)
    4bf8:	008ca883          	lw	a7,8(s9)
    4bfc:	00cca803          	lw	a6,12(s9)
    4c00:	010ca503          	lw	a0,16(s9)
    4c04:	014ca583          	lw	a1,20(s9)
    4c08:	018ca603          	lw	a2,24(s9)
    4c0c:	01ccd703          	lhu	a4,28(s9)
    4c10:	01ecc783          	lbu	a5,30(s9)
    4c14:	8501c683          	lbu	a3,-1968(gp) # 17788 <Ch_2_Glob>
    4c18:	001d0d13          	add	s10,s10,1
    4c1c:	05c12823          	sw	t3,80(sp)
    4c20:	04612a23          	sw	t1,84(sp)
    4c24:	05112c23          	sw	a7,88(sp)
    4c28:	05012e23          	sw	a6,92(sp)
    4c2c:	06a12023          	sw	a0,96(sp)
    4c30:	06b12223          	sw	a1,100(sp)
    4c34:	06c12423          	sw	a2,104(sp)
    4c38:	06e11623          	sh	a4,108(sp)
    4c3c:	06f10723          	sb	a5,110(sp)
    4c40:	8491ac23          	sw	s1,-1960(gp) # 17790 <Int_Glob>
    4c44:	0ffd7d13          	zext.b	s10,s10
    4c48:	00048913          	mv	s2,s1
    4c4c:	afa6fae3          	bgeu	a3,s10,4740 <main+0x2ac>
    4c50:	b15ff06f          	j	4764 <main+0x2d0>
    4c54:	00900793          	li	a5,9
    4c58:	b15ff06f          	j	476c <main+0x2d8>
    4c5c:	00015537          	lui	a0,0x15
    4c60:	99c50513          	add	a0,a0,-1636 # 1499c <_getpid_r+0x80>
    4c64:	1ed000ef          	jal	5650 <puts>
    4c68:	00a00513          	li	a0,10
    4c6c:	101000ef          	jal	556c <putchar>
    4c70:	97dff06f          	j	45ec <main+0x158>

00004c74 <register_fini>:
    4c74:	00000793          	li	a5,0
    4c78:	00078863          	beqz	a5,4c88 <register_fini+0x14>
    4c7c:	00009537          	lui	a0,0x9
    4c80:	ac850513          	add	a0,a0,-1336 # 8ac8 <__libc_fini_array>
    4c84:	7800306f          	j	8404 <atexit>
    4c88:	00008067          	ret

00004c8c <__errno>:
    4c8c:	8201a503          	lw	a0,-2016(gp) # 17758 <_impure_ptr>
    4c90:	00008067          	ret

00004c94 <__libc_init_array>:
    4c94:	ff010113          	add	sp,sp,-16
    4c98:	00812423          	sw	s0,8(sp)
    4c9c:	000177b7          	lui	a5,0x17
    4ca0:	00017437          	lui	s0,0x17
    4ca4:	01212023          	sw	s2,0(sp)
    4ca8:	d8878793          	add	a5,a5,-632 # 16d88 <__init_array_start>
    4cac:	d8840713          	add	a4,s0,-632 # 16d88 <__init_array_start>
    4cb0:	00112623          	sw	ra,12(sp)
    4cb4:	00912223          	sw	s1,4(sp)
    4cb8:	40e78933          	sub	s2,a5,a4
    4cbc:	02e78263          	beq	a5,a4,4ce0 <__libc_init_array+0x4c>
    4cc0:	40295913          	sra	s2,s2,0x2
    4cc4:	d8840413          	add	s0,s0,-632
    4cc8:	00000493          	li	s1,0
    4ccc:	00042783          	lw	a5,0(s0)
    4cd0:	00148493          	add	s1,s1,1
    4cd4:	00440413          	add	s0,s0,4
    4cd8:	000780e7          	jalr	a5
    4cdc:	ff24e8e3          	bltu	s1,s2,4ccc <__libc_init_array+0x38>
    4ce0:	00017437          	lui	s0,0x17
    4ce4:	000177b7          	lui	a5,0x17
    4ce8:	d9078793          	add	a5,a5,-624 # 16d90 <__do_global_dtors_aux_fini_array_entry>
    4cec:	d8840713          	add	a4,s0,-632 # 16d88 <__init_array_start>
    4cf0:	40e78933          	sub	s2,a5,a4
    4cf4:	40295913          	sra	s2,s2,0x2
    4cf8:	02e78063          	beq	a5,a4,4d18 <__libc_init_array+0x84>
    4cfc:	d8840413          	add	s0,s0,-632
    4d00:	00000493          	li	s1,0
    4d04:	00042783          	lw	a5,0(s0)
    4d08:	00148493          	add	s1,s1,1
    4d0c:	00440413          	add	s0,s0,4
    4d10:	000780e7          	jalr	a5
    4d14:	ff24e8e3          	bltu	s1,s2,4d04 <__libc_init_array+0x70>
    4d18:	00c12083          	lw	ra,12(sp)
    4d1c:	00812403          	lw	s0,8(sp)
    4d20:	00412483          	lw	s1,4(sp)
    4d24:	00012903          	lw	s2,0(sp)
    4d28:	01010113          	add	sp,sp,16
    4d2c:	00008067          	ret

00004d30 <malloc>:
    4d30:	00050593          	mv	a1,a0
    4d34:	8201a503          	lw	a0,-2016(gp) # 17758 <_impure_ptr>
    4d38:	0100006f          	j	4d48 <_malloc_r>

00004d3c <free>:
    4d3c:	00050593          	mv	a1,a0
    4d40:	8201a503          	lw	a0,-2016(gp) # 17758 <_impure_ptr>
    4d44:	71d0306f          	j	8c60 <_free_r>

00004d48 <_malloc_r>:
    4d48:	fd010113          	add	sp,sp,-48
    4d4c:	01312e23          	sw	s3,28(sp)
    4d50:	02112623          	sw	ra,44(sp)
    4d54:	02812423          	sw	s0,40(sp)
    4d58:	02912223          	sw	s1,36(sp)
    4d5c:	03212023          	sw	s2,32(sp)
    4d60:	01412c23          	sw	s4,24(sp)
    4d64:	01512a23          	sw	s5,20(sp)
    4d68:	01612823          	sw	s6,16(sp)
    4d6c:	01712623          	sw	s7,12(sp)
    4d70:	01812423          	sw	s8,8(sp)
    4d74:	01912223          	sw	s9,4(sp)
    4d78:	00b58793          	add	a5,a1,11
    4d7c:	01600713          	li	a4,22
    4d80:	00050993          	mv	s3,a0
    4d84:	08f76e63          	bltu	a4,a5,4e20 <_malloc_r+0xd8>
    4d88:	01000793          	li	a5,16
    4d8c:	22b7e063          	bltu	a5,a1,4fac <_malloc_r+0x264>
    4d90:	740000ef          	jal	54d0 <__malloc_lock>
    4d94:	01000493          	li	s1,16
    4d98:	01800793          	li	a5,24
    4d9c:	00200593          	li	a1,2
    4da0:	00017937          	lui	s2,0x17
    4da4:	1c090913          	add	s2,s2,448 # 171c0 <__malloc_av_>
    4da8:	00f907b3          	add	a5,s2,a5
    4dac:	0047a403          	lw	s0,4(a5)
    4db0:	ff878713          	add	a4,a5,-8
    4db4:	30e40663          	beq	s0,a4,50c0 <_malloc_r+0x378>
    4db8:	00442783          	lw	a5,4(s0)
    4dbc:	00c42683          	lw	a3,12(s0)
    4dc0:	00842603          	lw	a2,8(s0)
    4dc4:	ffc7f793          	and	a5,a5,-4
    4dc8:	00f407b3          	add	a5,s0,a5
    4dcc:	0047a703          	lw	a4,4(a5)
    4dd0:	00d62623          	sw	a3,12(a2)
    4dd4:	00c6a423          	sw	a2,8(a3) # 400008 <_end+0x3e6038>
    4dd8:	00176713          	or	a4,a4,1
    4ddc:	00098513          	mv	a0,s3
    4de0:	00e7a223          	sw	a4,4(a5)
    4de4:	6f0000ef          	jal	54d4 <__malloc_unlock>
    4de8:	00840513          	add	a0,s0,8
    4dec:	02c12083          	lw	ra,44(sp)
    4df0:	02812403          	lw	s0,40(sp)
    4df4:	02412483          	lw	s1,36(sp)
    4df8:	02012903          	lw	s2,32(sp)
    4dfc:	01c12983          	lw	s3,28(sp)
    4e00:	01812a03          	lw	s4,24(sp)
    4e04:	01412a83          	lw	s5,20(sp)
    4e08:	01012b03          	lw	s6,16(sp)
    4e0c:	00c12b83          	lw	s7,12(sp)
    4e10:	00812c03          	lw	s8,8(sp)
    4e14:	00412c83          	lw	s9,4(sp)
    4e18:	03010113          	add	sp,sp,48
    4e1c:	00008067          	ret
    4e20:	ff87f493          	and	s1,a5,-8
    4e24:	1807c463          	bltz	a5,4fac <_malloc_r+0x264>
    4e28:	18b4e263          	bltu	s1,a1,4fac <_malloc_r+0x264>
    4e2c:	6a4000ef          	jal	54d0 <__malloc_lock>
    4e30:	1f700793          	li	a5,503
    4e34:	3a97f063          	bgeu	a5,s1,51d4 <_malloc_r+0x48c>
    4e38:	0094d793          	srl	a5,s1,0x9
    4e3c:	18078063          	beqz	a5,4fbc <_malloc_r+0x274>
    4e40:	00400713          	li	a4,4
    4e44:	2ef76663          	bltu	a4,a5,5130 <_malloc_r+0x3e8>
    4e48:	0064d793          	srl	a5,s1,0x6
    4e4c:	03978593          	add	a1,a5,57
    4e50:	03878513          	add	a0,a5,56
    4e54:	00359693          	sll	a3,a1,0x3
    4e58:	00017937          	lui	s2,0x17
    4e5c:	1c090913          	add	s2,s2,448 # 171c0 <__malloc_av_>
    4e60:	00d906b3          	add	a3,s2,a3
    4e64:	0046a403          	lw	s0,4(a3)
    4e68:	ff868693          	add	a3,a3,-8
    4e6c:	02868663          	beq	a3,s0,4e98 <_malloc_r+0x150>
    4e70:	00f00613          	li	a2,15
    4e74:	0100006f          	j	4e84 <_malloc_r+0x13c>
    4e78:	22075e63          	bgez	a4,50b4 <_malloc_r+0x36c>
    4e7c:	00c42403          	lw	s0,12(s0)
    4e80:	00868c63          	beq	a3,s0,4e98 <_malloc_r+0x150>
    4e84:	00442783          	lw	a5,4(s0)
    4e88:	ffc7f793          	and	a5,a5,-4
    4e8c:	40978733          	sub	a4,a5,s1
    4e90:	fee654e3          	bge	a2,a4,4e78 <_malloc_r+0x130>
    4e94:	00050593          	mv	a1,a0
    4e98:	01092403          	lw	s0,16(s2)
    4e9c:	00017837          	lui	a6,0x17
    4ea0:	1c880813          	add	a6,a6,456 # 171c8 <__malloc_av_+0x8>
    4ea4:	1f040063          	beq	s0,a6,5084 <_malloc_r+0x33c>
    4ea8:	00442783          	lw	a5,4(s0)
    4eac:	00f00693          	li	a3,15
    4eb0:	ffc7f793          	and	a5,a5,-4
    4eb4:	40978733          	sub	a4,a5,s1
    4eb8:	32e6c463          	blt	a3,a4,51e0 <_malloc_r+0x498>
    4ebc:	01092a23          	sw	a6,20(s2)
    4ec0:	01092823          	sw	a6,16(s2)
    4ec4:	2e075863          	bgez	a4,51b4 <_malloc_r+0x46c>
    4ec8:	1ff00713          	li	a4,511
    4ecc:	00492503          	lw	a0,4(s2)
    4ed0:	20f76063          	bltu	a4,a5,50d0 <_malloc_r+0x388>
    4ed4:	ff87f713          	and	a4,a5,-8
    4ed8:	00870713          	add	a4,a4,8
    4edc:	00e90733          	add	a4,s2,a4
    4ee0:	00072683          	lw	a3,0(a4)
    4ee4:	0057d613          	srl	a2,a5,0x5
    4ee8:	00100793          	li	a5,1
    4eec:	00c797b3          	sll	a5,a5,a2
    4ef0:	00f56533          	or	a0,a0,a5
    4ef4:	ff870793          	add	a5,a4,-8
    4ef8:	00f42623          	sw	a5,12(s0)
    4efc:	00d42423          	sw	a3,8(s0)
    4f00:	00a92223          	sw	a0,4(s2)
    4f04:	00872023          	sw	s0,0(a4)
    4f08:	0086a623          	sw	s0,12(a3)
    4f0c:	4025d793          	sra	a5,a1,0x2
    4f10:	00100613          	li	a2,1
    4f14:	00f61633          	sll	a2,a2,a5
    4f18:	0ac56a63          	bltu	a0,a2,4fcc <_malloc_r+0x284>
    4f1c:	00a677b3          	and	a5,a2,a0
    4f20:	02079463          	bnez	a5,4f48 <_malloc_r+0x200>
    4f24:	00161613          	sll	a2,a2,0x1
    4f28:	ffc5f593          	and	a1,a1,-4
    4f2c:	00a677b3          	and	a5,a2,a0
    4f30:	00458593          	add	a1,a1,4
    4f34:	00079a63          	bnez	a5,4f48 <_malloc_r+0x200>
    4f38:	00161613          	sll	a2,a2,0x1
    4f3c:	00a677b3          	and	a5,a2,a0
    4f40:	00458593          	add	a1,a1,4
    4f44:	fe078ae3          	beqz	a5,4f38 <_malloc_r+0x1f0>
    4f48:	00f00893          	li	a7,15
    4f4c:	00359313          	sll	t1,a1,0x3
    4f50:	00690333          	add	t1,s2,t1
    4f54:	00030513          	mv	a0,t1
    4f58:	00c52783          	lw	a5,12(a0)
    4f5c:	00058e13          	mv	t3,a1
    4f60:	1ef50a63          	beq	a0,a5,5154 <_malloc_r+0x40c>
    4f64:	0047a703          	lw	a4,4(a5)
    4f68:	00078413          	mv	s0,a5
    4f6c:	00c7a783          	lw	a5,12(a5)
    4f70:	ffc77713          	and	a4,a4,-4
    4f74:	409706b3          	sub	a3,a4,s1
    4f78:	1ed8ca63          	blt	a7,a3,516c <_malloc_r+0x424>
    4f7c:	fe06c2e3          	bltz	a3,4f60 <_malloc_r+0x218>
    4f80:	00e40733          	add	a4,s0,a4
    4f84:	00472683          	lw	a3,4(a4)
    4f88:	00842603          	lw	a2,8(s0)
    4f8c:	00098513          	mv	a0,s3
    4f90:	0016e693          	or	a3,a3,1
    4f94:	00d72223          	sw	a3,4(a4)
    4f98:	00f62623          	sw	a5,12(a2)
    4f9c:	00c7a423          	sw	a2,8(a5)
    4fa0:	534000ef          	jal	54d4 <__malloc_unlock>
    4fa4:	00840513          	add	a0,s0,8
    4fa8:	e45ff06f          	j	4dec <_malloc_r+0xa4>
    4fac:	00c00793          	li	a5,12
    4fb0:	00f9a023          	sw	a5,0(s3)
    4fb4:	00000513          	li	a0,0
    4fb8:	e35ff06f          	j	4dec <_malloc_r+0xa4>
    4fbc:	20000693          	li	a3,512
    4fc0:	04000593          	li	a1,64
    4fc4:	03f00513          	li	a0,63
    4fc8:	e91ff06f          	j	4e58 <_malloc_r+0x110>
    4fcc:	00892403          	lw	s0,8(s2)
    4fd0:	00442783          	lw	a5,4(s0)
    4fd4:	ffc7fb13          	and	s6,a5,-4
    4fd8:	009b6863          	bltu	s6,s1,4fe8 <_malloc_r+0x2a0>
    4fdc:	409b0733          	sub	a4,s6,s1
    4fe0:	00f00793          	li	a5,15
    4fe4:	0ae7c463          	blt	a5,a4,508c <_malloc_r+0x344>
    4fe8:	8701aa83          	lw	s5,-1936(gp) # 177a8 <__malloc_top_pad>
    4fec:	8241a703          	lw	a4,-2012(gp) # 1775c <__malloc_sbrk_base>
    4ff0:	fff00793          	li	a5,-1
    4ff4:	01640a33          	add	s4,s0,s6
    4ff8:	01548ab3          	add	s5,s1,s5
    4ffc:	3af70863          	beq	a4,a5,53ac <_malloc_r+0x664>
    5000:	000017b7          	lui	a5,0x1
    5004:	00f78793          	add	a5,a5,15 # 100f <__muldf3+0x247>
    5008:	00fa8ab3          	add	s5,s5,a5
    500c:	fffff7b7          	lui	a5,0xfffff
    5010:	00fafab3          	and	s5,s5,a5
    5014:	000a8593          	mv	a1,s5
    5018:	00098513          	mv	a0,s3
    501c:	640000ef          	jal	565c <_sbrk_r>
    5020:	fff00793          	li	a5,-1
    5024:	00050b93          	mv	s7,a0
    5028:	20f50663          	beq	a0,a5,5234 <_malloc_r+0x4ec>
    502c:	21456263          	bltu	a0,s4,5230 <_malloc_r+0x4e8>
    5030:	0001ac37          	lui	s8,0x1a
    5034:	fa8c0c13          	add	s8,s8,-88 # 19fa8 <__malloc_current_mallinfo>
    5038:	000c2583          	lw	a1,0(s8)
    503c:	00ba85b3          	add	a1,s5,a1
    5040:	00bc2023          	sw	a1,0(s8)
    5044:	00058713          	mv	a4,a1
    5048:	28aa1863          	bne	s4,a0,52d8 <_malloc_r+0x590>
    504c:	01451793          	sll	a5,a0,0x14
    5050:	28079463          	bnez	a5,52d8 <_malloc_r+0x590>
    5054:	00892b83          	lw	s7,8(s2)
    5058:	015b07b3          	add	a5,s6,s5
    505c:	0017e793          	or	a5,a5,1
    5060:	00fba223          	sw	a5,4(s7)
    5064:	86c1a683          	lw	a3,-1940(gp) # 177a4 <__malloc_max_sbrked_mem>
    5068:	00b6f463          	bgeu	a3,a1,5070 <_malloc_r+0x328>
    506c:	86b1a623          	sw	a1,-1940(gp) # 177a4 <__malloc_max_sbrked_mem>
    5070:	8681a683          	lw	a3,-1944(gp) # 177a0 <__malloc_max_total_mem>
    5074:	00b6f463          	bgeu	a3,a1,507c <_malloc_r+0x334>
    5078:	86b1a423          	sw	a1,-1944(gp) # 177a0 <__malloc_max_total_mem>
    507c:	000b8413          	mv	s0,s7
    5080:	1bc0006f          	j	523c <_malloc_r+0x4f4>
    5084:	00492503          	lw	a0,4(s2)
    5088:	e85ff06f          	j	4f0c <_malloc_r+0x1c4>
    508c:	0014e793          	or	a5,s1,1
    5090:	00f42223          	sw	a5,4(s0)
    5094:	009404b3          	add	s1,s0,s1
    5098:	00992423          	sw	s1,8(s2)
    509c:	00176713          	or	a4,a4,1
    50a0:	00098513          	mv	a0,s3
    50a4:	00e4a223          	sw	a4,4(s1)
    50a8:	42c000ef          	jal	54d4 <__malloc_unlock>
    50ac:	00840513          	add	a0,s0,8
    50b0:	d3dff06f          	j	4dec <_malloc_r+0xa4>
    50b4:	00c42683          	lw	a3,12(s0)
    50b8:	00842603          	lw	a2,8(s0)
    50bc:	d0dff06f          	j	4dc8 <_malloc_r+0x80>
    50c0:	00c7a403          	lw	s0,12(a5) # fffff00c <_end+0xfffe503c>
    50c4:	00258593          	add	a1,a1,2
    50c8:	dc8788e3          	beq	a5,s0,4e98 <_malloc_r+0x150>
    50cc:	cedff06f          	j	4db8 <_malloc_r+0x70>
    50d0:	0097d713          	srl	a4,a5,0x9
    50d4:	00400693          	li	a3,4
    50d8:	14e6f263          	bgeu	a3,a4,521c <_malloc_r+0x4d4>
    50dc:	01400693          	li	a3,20
    50e0:	30e6ec63          	bltu	a3,a4,53f8 <_malloc_r+0x6b0>
    50e4:	05c70613          	add	a2,a4,92
    50e8:	05b70693          	add	a3,a4,91
    50ec:	00361613          	sll	a2,a2,0x3
    50f0:	00c90633          	add	a2,s2,a2
    50f4:	00062703          	lw	a4,0(a2)
    50f8:	ff860613          	add	a2,a2,-8
    50fc:	00e61863          	bne	a2,a4,510c <_malloc_r+0x3c4>
    5100:	2b40006f          	j	53b4 <_malloc_r+0x66c>
    5104:	00872703          	lw	a4,8(a4)
    5108:	00e60863          	beq	a2,a4,5118 <_malloc_r+0x3d0>
    510c:	00472683          	lw	a3,4(a4)
    5110:	ffc6f693          	and	a3,a3,-4
    5114:	fed7e8e3          	bltu	a5,a3,5104 <_malloc_r+0x3bc>
    5118:	00c72603          	lw	a2,12(a4)
    511c:	00c42623          	sw	a2,12(s0)
    5120:	00e42423          	sw	a4,8(s0)
    5124:	00862423          	sw	s0,8(a2)
    5128:	00872623          	sw	s0,12(a4)
    512c:	de1ff06f          	j	4f0c <_malloc_r+0x1c4>
    5130:	01400713          	li	a4,20
    5134:	12f77663          	bgeu	a4,a5,5260 <_malloc_r+0x518>
    5138:	05400713          	li	a4,84
    513c:	2cf76c63          	bltu	a4,a5,5414 <_malloc_r+0x6cc>
    5140:	00c4d793          	srl	a5,s1,0xc
    5144:	06f78593          	add	a1,a5,111
    5148:	06e78513          	add	a0,a5,110
    514c:	00359693          	sll	a3,a1,0x3
    5150:	d09ff06f          	j	4e58 <_malloc_r+0x110>
    5154:	001e0e13          	add	t3,t3,1
    5158:	003e7793          	and	a5,t3,3
    515c:	00850513          	add	a0,a0,8
    5160:	10078e63          	beqz	a5,527c <_malloc_r+0x534>
    5164:	00c52783          	lw	a5,12(a0)
    5168:	df9ff06f          	j	4f60 <_malloc_r+0x218>
    516c:	00842603          	lw	a2,8(s0)
    5170:	0014e593          	or	a1,s1,1
    5174:	00b42223          	sw	a1,4(s0)
    5178:	00f62623          	sw	a5,12(a2)
    517c:	00c7a423          	sw	a2,8(a5)
    5180:	009404b3          	add	s1,s0,s1
    5184:	00992a23          	sw	s1,20(s2)
    5188:	00992823          	sw	s1,16(s2)
    518c:	0016e793          	or	a5,a3,1
    5190:	0104a623          	sw	a6,12(s1)
    5194:	0104a423          	sw	a6,8(s1)
    5198:	00f4a223          	sw	a5,4(s1)
    519c:	00e40733          	add	a4,s0,a4
    51a0:	00098513          	mv	a0,s3
    51a4:	00d72023          	sw	a3,0(a4)
    51a8:	32c000ef          	jal	54d4 <__malloc_unlock>
    51ac:	00840513          	add	a0,s0,8
    51b0:	c3dff06f          	j	4dec <_malloc_r+0xa4>
    51b4:	00f407b3          	add	a5,s0,a5
    51b8:	0047a703          	lw	a4,4(a5)
    51bc:	00098513          	mv	a0,s3
    51c0:	00176713          	or	a4,a4,1
    51c4:	00e7a223          	sw	a4,4(a5)
    51c8:	30c000ef          	jal	54d4 <__malloc_unlock>
    51cc:	00840513          	add	a0,s0,8
    51d0:	c1dff06f          	j	4dec <_malloc_r+0xa4>
    51d4:	0034d593          	srl	a1,s1,0x3
    51d8:	00848793          	add	a5,s1,8
    51dc:	bc5ff06f          	j	4da0 <_malloc_r+0x58>
    51e0:	0014e693          	or	a3,s1,1
    51e4:	00d42223          	sw	a3,4(s0)
    51e8:	009404b3          	add	s1,s0,s1
    51ec:	00992a23          	sw	s1,20(s2)
    51f0:	00992823          	sw	s1,16(s2)
    51f4:	00176693          	or	a3,a4,1
    51f8:	0104a623          	sw	a6,12(s1)
    51fc:	0104a423          	sw	a6,8(s1)
    5200:	00d4a223          	sw	a3,4(s1)
    5204:	00f407b3          	add	a5,s0,a5
    5208:	00098513          	mv	a0,s3
    520c:	00e7a023          	sw	a4,0(a5)
    5210:	2c4000ef          	jal	54d4 <__malloc_unlock>
    5214:	00840513          	add	a0,s0,8
    5218:	bd5ff06f          	j	4dec <_malloc_r+0xa4>
    521c:	0067d713          	srl	a4,a5,0x6
    5220:	03970613          	add	a2,a4,57
    5224:	03870693          	add	a3,a4,56
    5228:	00361613          	sll	a2,a2,0x3
    522c:	ec5ff06f          	j	50f0 <_malloc_r+0x3a8>
    5230:	09240a63          	beq	s0,s2,52c4 <_malloc_r+0x57c>
    5234:	00892403          	lw	s0,8(s2)
    5238:	00442783          	lw	a5,4(s0)
    523c:	ffc7f793          	and	a5,a5,-4
    5240:	40978733          	sub	a4,a5,s1
    5244:	0097e663          	bltu	a5,s1,5250 <_malloc_r+0x508>
    5248:	00f00793          	li	a5,15
    524c:	e4e7c0e3          	blt	a5,a4,508c <_malloc_r+0x344>
    5250:	00098513          	mv	a0,s3
    5254:	280000ef          	jal	54d4 <__malloc_unlock>
    5258:	00000513          	li	a0,0
    525c:	b91ff06f          	j	4dec <_malloc_r+0xa4>
    5260:	05c78593          	add	a1,a5,92
    5264:	05b78513          	add	a0,a5,91
    5268:	00359693          	sll	a3,a1,0x3
    526c:	bedff06f          	j	4e58 <_malloc_r+0x110>
    5270:	00832783          	lw	a5,8(t1)
    5274:	fff58593          	add	a1,a1,-1
    5278:	24679863          	bne	a5,t1,54c8 <_malloc_r+0x780>
    527c:	0035f793          	and	a5,a1,3
    5280:	ff830313          	add	t1,t1,-8
    5284:	fe0796e3          	bnez	a5,5270 <_malloc_r+0x528>
    5288:	00492703          	lw	a4,4(s2)
    528c:	fff64793          	not	a5,a2
    5290:	00e7f7b3          	and	a5,a5,a4
    5294:	00f92223          	sw	a5,4(s2)
    5298:	00161613          	sll	a2,a2,0x1
    529c:	d2c7e8e3          	bltu	a5,a2,4fcc <_malloc_r+0x284>
    52a0:	d20606e3          	beqz	a2,4fcc <_malloc_r+0x284>
    52a4:	00f67733          	and	a4,a2,a5
    52a8:	00071a63          	bnez	a4,52bc <_malloc_r+0x574>
    52ac:	00161613          	sll	a2,a2,0x1
    52b0:	00f67733          	and	a4,a2,a5
    52b4:	004e0e13          	add	t3,t3,4
    52b8:	fe070ae3          	beqz	a4,52ac <_malloc_r+0x564>
    52bc:	000e0593          	mv	a1,t3
    52c0:	c8dff06f          	j	4f4c <_malloc_r+0x204>
    52c4:	0001ac37          	lui	s8,0x1a
    52c8:	fa8c0c13          	add	s8,s8,-88 # 19fa8 <__malloc_current_mallinfo>
    52cc:	000c2703          	lw	a4,0(s8)
    52d0:	00ea8733          	add	a4,s5,a4
    52d4:	00ec2023          	sw	a4,0(s8)
    52d8:	8241a683          	lw	a3,-2012(gp) # 1775c <__malloc_sbrk_base>
    52dc:	fff00793          	li	a5,-1
    52e0:	14f68863          	beq	a3,a5,5430 <_malloc_r+0x6e8>
    52e4:	414b87b3          	sub	a5,s7,s4
    52e8:	00e787b3          	add	a5,a5,a4
    52ec:	00fc2023          	sw	a5,0(s8)
    52f0:	007bfc93          	and	s9,s7,7
    52f4:	0c0c8c63          	beqz	s9,53cc <_malloc_r+0x684>
    52f8:	00001737          	lui	a4,0x1
    52fc:	419b8bb3          	sub	s7,s7,s9
    5300:	00870593          	add	a1,a4,8 # 1008 <__muldf3+0x240>
    5304:	008b8b93          	add	s7,s7,8
    5308:	419585b3          	sub	a1,a1,s9
    530c:	015b8ab3          	add	s5,s7,s5
    5310:	415585b3          	sub	a1,a1,s5
    5314:	fff70713          	add	a4,a4,-1
    5318:	00e5fa33          	and	s4,a1,a4
    531c:	000a0593          	mv	a1,s4
    5320:	00098513          	mv	a0,s3
    5324:	338000ef          	jal	565c <_sbrk_r>
    5328:	fff00793          	li	a5,-1
    532c:	14f50863          	beq	a0,a5,547c <_malloc_r+0x734>
    5330:	41750533          	sub	a0,a0,s7
    5334:	01450ab3          	add	s5,a0,s4
    5338:	000c2703          	lw	a4,0(s8)
    533c:	01792423          	sw	s7,8(s2)
    5340:	001ae793          	or	a5,s5,1
    5344:	00ea05b3          	add	a1,s4,a4
    5348:	00bc2023          	sw	a1,0(s8)
    534c:	00fba223          	sw	a5,4(s7)
    5350:	d1240ae3          	beq	s0,s2,5064 <_malloc_r+0x31c>
    5354:	00f00693          	li	a3,15
    5358:	0f66f063          	bgeu	a3,s6,5438 <_malloc_r+0x6f0>
    535c:	00442703          	lw	a4,4(s0)
    5360:	ff4b0793          	add	a5,s6,-12
    5364:	ff87f793          	and	a5,a5,-8
    5368:	00177713          	and	a4,a4,1
    536c:	00f76733          	or	a4,a4,a5
    5370:	00e42223          	sw	a4,4(s0)
    5374:	00500613          	li	a2,5
    5378:	00f40733          	add	a4,s0,a5
    537c:	00c72223          	sw	a2,4(a4)
    5380:	00c72423          	sw	a2,8(a4)
    5384:	00f6e663          	bltu	a3,a5,5390 <_malloc_r+0x648>
    5388:	004ba783          	lw	a5,4(s7)
    538c:	cd9ff06f          	j	5064 <_malloc_r+0x31c>
    5390:	00840593          	add	a1,s0,8
    5394:	00098513          	mv	a0,s3
    5398:	0c9030ef          	jal	8c60 <_free_r>
    539c:	00892b83          	lw	s7,8(s2)
    53a0:	000c2583          	lw	a1,0(s8)
    53a4:	004ba783          	lw	a5,4(s7)
    53a8:	cbdff06f          	j	5064 <_malloc_r+0x31c>
    53ac:	010a8a93          	add	s5,s5,16
    53b0:	c65ff06f          	j	5014 <_malloc_r+0x2cc>
    53b4:	4026d693          	sra	a3,a3,0x2
    53b8:	00100793          	li	a5,1
    53bc:	00d797b3          	sll	a5,a5,a3
    53c0:	00f56533          	or	a0,a0,a5
    53c4:	00a92223          	sw	a0,4(s2)
    53c8:	d55ff06f          	j	511c <_malloc_r+0x3d4>
    53cc:	015b85b3          	add	a1,s7,s5
    53d0:	40b005b3          	neg	a1,a1
    53d4:	01459593          	sll	a1,a1,0x14
    53d8:	0145da13          	srl	s4,a1,0x14
    53dc:	000a0593          	mv	a1,s4
    53e0:	00098513          	mv	a0,s3
    53e4:	278000ef          	jal	565c <_sbrk_r>
    53e8:	fff00793          	li	a5,-1
    53ec:	f4f512e3          	bne	a0,a5,5330 <_malloc_r+0x5e8>
    53f0:	00000a13          	li	s4,0
    53f4:	f45ff06f          	j	5338 <_malloc_r+0x5f0>
    53f8:	05400693          	li	a3,84
    53fc:	04e6e463          	bltu	a3,a4,5444 <_malloc_r+0x6fc>
    5400:	00c7d713          	srl	a4,a5,0xc
    5404:	06f70613          	add	a2,a4,111
    5408:	06e70693          	add	a3,a4,110
    540c:	00361613          	sll	a2,a2,0x3
    5410:	ce1ff06f          	j	50f0 <_malloc_r+0x3a8>
    5414:	15400713          	li	a4,340
    5418:	04f76463          	bltu	a4,a5,5460 <_malloc_r+0x718>
    541c:	00f4d793          	srl	a5,s1,0xf
    5420:	07878593          	add	a1,a5,120
    5424:	07778513          	add	a0,a5,119
    5428:	00359693          	sll	a3,a1,0x3
    542c:	a2dff06f          	j	4e58 <_malloc_r+0x110>
    5430:	8371a223          	sw	s7,-2012(gp) # 1775c <__malloc_sbrk_base>
    5434:	ebdff06f          	j	52f0 <_malloc_r+0x5a8>
    5438:	00100793          	li	a5,1
    543c:	00fba223          	sw	a5,4(s7)
    5440:	e11ff06f          	j	5250 <_malloc_r+0x508>
    5444:	15400693          	li	a3,340
    5448:	04e6e463          	bltu	a3,a4,5490 <_malloc_r+0x748>
    544c:	00f7d713          	srl	a4,a5,0xf
    5450:	07870613          	add	a2,a4,120
    5454:	07770693          	add	a3,a4,119
    5458:	00361613          	sll	a2,a2,0x3
    545c:	c95ff06f          	j	50f0 <_malloc_r+0x3a8>
    5460:	55400713          	li	a4,1364
    5464:	04f76463          	bltu	a4,a5,54ac <_malloc_r+0x764>
    5468:	0124d793          	srl	a5,s1,0x12
    546c:	07d78593          	add	a1,a5,125
    5470:	07c78513          	add	a0,a5,124
    5474:	00359693          	sll	a3,a1,0x3
    5478:	9e1ff06f          	j	4e58 <_malloc_r+0x110>
    547c:	ff8c8c93          	add	s9,s9,-8
    5480:	019a8ab3          	add	s5,s5,s9
    5484:	417a8ab3          	sub	s5,s5,s7
    5488:	00000a13          	li	s4,0
    548c:	eadff06f          	j	5338 <_malloc_r+0x5f0>
    5490:	55400693          	li	a3,1364
    5494:	02e6e463          	bltu	a3,a4,54bc <_malloc_r+0x774>
    5498:	0127d713          	srl	a4,a5,0x12
    549c:	07d70613          	add	a2,a4,125
    54a0:	07c70693          	add	a3,a4,124
    54a4:	00361613          	sll	a2,a2,0x3
    54a8:	c49ff06f          	j	50f0 <_malloc_r+0x3a8>
    54ac:	3f800693          	li	a3,1016
    54b0:	07f00593          	li	a1,127
    54b4:	07e00513          	li	a0,126
    54b8:	9a1ff06f          	j	4e58 <_malloc_r+0x110>
    54bc:	3f800613          	li	a2,1016
    54c0:	07e00693          	li	a3,126
    54c4:	c2dff06f          	j	50f0 <_malloc_r+0x3a8>
    54c8:	00492783          	lw	a5,4(s2)
    54cc:	dcdff06f          	j	5298 <_malloc_r+0x550>

000054d0 <__malloc_lock>:
    54d0:	00008067          	ret

000054d4 <__malloc_unlock>:
    54d4:	00008067          	ret

000054d8 <_printf_r>:
    54d8:	fc010113          	add	sp,sp,-64
    54dc:	02c12423          	sw	a2,40(sp)
    54e0:	02d12623          	sw	a3,44(sp)
    54e4:	02e12823          	sw	a4,48(sp)
    54e8:	02f12a23          	sw	a5,52(sp)
    54ec:	03012c23          	sw	a6,56(sp)
    54f0:	03112e23          	sw	a7,60(sp)
    54f4:	00058613          	mv	a2,a1
    54f8:	00852583          	lw	a1,8(a0)
    54fc:	02810693          	add	a3,sp,40
    5500:	00112e23          	sw	ra,28(sp)
    5504:	00d12623          	sw	a3,12(sp)
    5508:	23c000ef          	jal	5744 <_vfprintf_r>
    550c:	01c12083          	lw	ra,28(sp)
    5510:	04010113          	add	sp,sp,64
    5514:	00008067          	ret

00005518 <printf>:
    5518:	8201a303          	lw	t1,-2016(gp) # 17758 <_impure_ptr>
    551c:	fc010113          	add	sp,sp,-64
    5520:	02c12423          	sw	a2,40(sp)
    5524:	02d12623          	sw	a3,44(sp)
    5528:	02b12223          	sw	a1,36(sp)
    552c:	02e12823          	sw	a4,48(sp)
    5530:	02f12a23          	sw	a5,52(sp)
    5534:	03012c23          	sw	a6,56(sp)
    5538:	03112e23          	sw	a7,60(sp)
    553c:	00832583          	lw	a1,8(t1)
    5540:	02410693          	add	a3,sp,36
    5544:	00050613          	mv	a2,a0
    5548:	00030513          	mv	a0,t1
    554c:	00112e23          	sw	ra,28(sp)
    5550:	00d12623          	sw	a3,12(sp)
    5554:	1f0000ef          	jal	5744 <_vfprintf_r>
    5558:	01c12083          	lw	ra,28(sp)
    555c:	04010113          	add	sp,sp,64
    5560:	00008067          	ret

00005564 <_putchar_r>:
    5564:	00852603          	lw	a2,8(a0)
    5568:	4700806f          	j	d9d8 <_putc_r>

0000556c <putchar>:
    556c:	8201a783          	lw	a5,-2016(gp) # 17758 <_impure_ptr>
    5570:	00050593          	mv	a1,a0
    5574:	0087a603          	lw	a2,8(a5)
    5578:	00078513          	mv	a0,a5
    557c:	45c0806f          	j	d9d8 <_putc_r>

00005580 <_puts_r>:
    5580:	fc010113          	add	sp,sp,-64
    5584:	02812c23          	sw	s0,56(sp)
    5588:	00050413          	mv	s0,a0
    558c:	00058513          	mv	a0,a1
    5590:	02912a23          	sw	s1,52(sp)
    5594:	02112e23          	sw	ra,60(sp)
    5598:	00058493          	mv	s1,a1
    559c:	11c000ef          	jal	56b8 <strlen>
    55a0:	000157b7          	lui	a5,0x15
    55a4:	e7878793          	add	a5,a5,-392 # 14e78 <_getpid_r+0x55c>
    55a8:	02f12423          	sw	a5,40(sp)
    55ac:	00100793          	li	a5,1
    55b0:	02f12623          	sw	a5,44(sp)
    55b4:	03842703          	lw	a4,56(s0)
    55b8:	02010793          	add	a5,sp,32
    55bc:	00150693          	add	a3,a0,1
    55c0:	00f12a23          	sw	a5,20(sp)
    55c4:	00200793          	li	a5,2
    55c8:	02912023          	sw	s1,32(sp)
    55cc:	02a12223          	sw	a0,36(sp)
    55d0:	00d12e23          	sw	a3,28(sp)
    55d4:	00f12c23          	sw	a5,24(sp)
    55d8:	00842583          	lw	a1,8(s0)
    55dc:	06070063          	beqz	a4,563c <_puts_r+0xbc>
    55e0:	00c59783          	lh	a5,12(a1)
    55e4:	01279713          	sll	a4,a5,0x12
    55e8:	02074263          	bltz	a4,560c <_puts_r+0x8c>
    55ec:	0645a703          	lw	a4,100(a1)
    55f0:	000026b7          	lui	a3,0x2
    55f4:	00d7e7b3          	or	a5,a5,a3
    55f8:	ffffe6b7          	lui	a3,0xffffe
    55fc:	fff68693          	add	a3,a3,-1 # ffffdfff <_end+0xfffe402f>
    5600:	00d77733          	and	a4,a4,a3
    5604:	00f59623          	sh	a5,12(a1)
    5608:	06e5a223          	sw	a4,100(a1)
    560c:	01410613          	add	a2,sp,20
    5610:	00040513          	mv	a0,s0
    5614:	151030ef          	jal	8f64 <__sfvwrite_r>
    5618:	03c12083          	lw	ra,60(sp)
    561c:	03812403          	lw	s0,56(sp)
    5620:	00153513          	seqz	a0,a0
    5624:	40a00533          	neg	a0,a0
    5628:	00b57513          	and	a0,a0,11
    562c:	03412483          	lw	s1,52(sp)
    5630:	fff50513          	add	a0,a0,-1
    5634:	04010113          	add	sp,sp,64
    5638:	00008067          	ret
    563c:	00040513          	mv	a0,s0
    5640:	00b12623          	sw	a1,12(sp)
    5644:	444030ef          	jal	8a88 <__sinit>
    5648:	00c12583          	lw	a1,12(sp)
    564c:	f95ff06f          	j	55e0 <_puts_r+0x60>

00005650 <puts>:
    5650:	00050593          	mv	a1,a0
    5654:	8201a503          	lw	a0,-2016(gp) # 17758 <_impure_ptr>
    5658:	f29ff06f          	j	5580 <_puts_r>

0000565c <_sbrk_r>:
    565c:	ff010113          	add	sp,sp,-16
    5660:	00812423          	sw	s0,8(sp)
    5664:	00912223          	sw	s1,4(sp)
    5668:	00050413          	mv	s0,a0
    566c:	00058513          	mv	a0,a1
    5670:	00112623          	sw	ra,12(sp)
    5674:	8601aa23          	sw	zero,-1932(gp) # 177ac <errno>
    5678:	e05fa0ef          	jal	47c <_sbrk>
    567c:	fff00793          	li	a5,-1
    5680:	00f50c63          	beq	a0,a5,5698 <_sbrk_r+0x3c>
    5684:	00c12083          	lw	ra,12(sp)
    5688:	00812403          	lw	s0,8(sp)
    568c:	00412483          	lw	s1,4(sp)
    5690:	01010113          	add	sp,sp,16
    5694:	00008067          	ret
    5698:	8741a783          	lw	a5,-1932(gp) # 177ac <errno>
    569c:	fe0784e3          	beqz	a5,5684 <_sbrk_r+0x28>
    56a0:	00c12083          	lw	ra,12(sp)
    56a4:	00f42023          	sw	a5,0(s0)
    56a8:	00812403          	lw	s0,8(sp)
    56ac:	00412483          	lw	s1,4(sp)
    56b0:	01010113          	add	sp,sp,16
    56b4:	00008067          	ret

000056b8 <strlen>:
    56b8:	00357793          	and	a5,a0,3
    56bc:	00050713          	mv	a4,a0
    56c0:	04079c63          	bnez	a5,5718 <strlen+0x60>
    56c4:	7f7f86b7          	lui	a3,0x7f7f8
    56c8:	f7f68693          	add	a3,a3,-129 # 7f7f7f7f <_end+0x7f7ddfaf>
    56cc:	fff00593          	li	a1,-1
    56d0:	00072603          	lw	a2,0(a4)
    56d4:	00470713          	add	a4,a4,4
    56d8:	00d677b3          	and	a5,a2,a3
    56dc:	00d787b3          	add	a5,a5,a3
    56e0:	00c7e7b3          	or	a5,a5,a2
    56e4:	00d7e7b3          	or	a5,a5,a3
    56e8:	feb784e3          	beq	a5,a1,56d0 <strlen+0x18>
    56ec:	ffc74683          	lbu	a3,-4(a4)
    56f0:	40a707b3          	sub	a5,a4,a0
    56f4:	04068463          	beqz	a3,573c <strlen+0x84>
    56f8:	ffd74683          	lbu	a3,-3(a4)
    56fc:	02068c63          	beqz	a3,5734 <strlen+0x7c>
    5700:	ffe74503          	lbu	a0,-2(a4)
    5704:	00a03533          	snez	a0,a0
    5708:	00f50533          	add	a0,a0,a5
    570c:	ffe50513          	add	a0,a0,-2
    5710:	00008067          	ret
    5714:	fa0688e3          	beqz	a3,56c4 <strlen+0xc>
    5718:	00074783          	lbu	a5,0(a4)
    571c:	00170713          	add	a4,a4,1
    5720:	00377693          	and	a3,a4,3
    5724:	fe0798e3          	bnez	a5,5714 <strlen+0x5c>
    5728:	40a70733          	sub	a4,a4,a0
    572c:	fff70513          	add	a0,a4,-1
    5730:	00008067          	ret
    5734:	ffd78513          	add	a0,a5,-3
    5738:	00008067          	ret
    573c:	ffc78513          	add	a0,a5,-4
    5740:	00008067          	ret

00005744 <_vfprintf_r>:
    5744:	e1010113          	add	sp,sp,-496
    5748:	1e112623          	sw	ra,492(sp)
    574c:	1e812423          	sw	s0,488(sp)
    5750:	00b12423          	sw	a1,8(sp)
    5754:	00c12623          	sw	a2,12(sp)
    5758:	00d12c23          	sw	a3,24(sp)
    575c:	1e912223          	sw	s1,484(sp)
    5760:	1f212023          	sw	s2,480(sp)
    5764:	1d312e23          	sw	s3,476(sp)
    5768:	1d412c23          	sw	s4,472(sp)
    576c:	1d512a23          	sw	s5,468(sp)
    5770:	1d612823          	sw	s6,464(sp)
    5774:	1d712623          	sw	s7,460(sp)
    5778:	1d812423          	sw	s8,456(sp)
    577c:	1d912223          	sw	s9,452(sp)
    5780:	1da12023          	sw	s10,448(sp)
    5784:	1bb12e23          	sw	s11,444(sp)
    5788:	00050413          	mv	s0,a0
    578c:	02a12823          	sw	a0,48(sp)
    5790:	245060ef          	jal	c1d4 <_localeconv_r>
    5794:	00052703          	lw	a4,0(a0)
    5798:	00070513          	mv	a0,a4
    579c:	02e12c23          	sw	a4,56(sp)
    57a0:	f19ff0ef          	jal	56b8 <strlen>
    57a4:	02a12a23          	sw	a0,52(sp)
    57a8:	0e012823          	sw	zero,240(sp)
    57ac:	0e012a23          	sw	zero,244(sp)
    57b0:	0e012c23          	sw	zero,248(sp)
    57b4:	0e012e23          	sw	zero,252(sp)
    57b8:	00c12283          	lw	t0,12(sp)
    57bc:	00040663          	beqz	s0,57c8 <_vfprintf_r+0x84>
    57c0:	03842783          	lw	a5,56(s0)
    57c4:	040788e3          	beqz	a5,6014 <_vfprintf_r+0x8d0>
    57c8:	00812603          	lw	a2,8(sp)
    57cc:	00c61783          	lh	a5,12(a2)
    57d0:	01279713          	sll	a4,a5,0x12
    57d4:	02074663          	bltz	a4,5800 <_vfprintf_r+0xbc>
    57d8:	06462703          	lw	a4,100(a2)
    57dc:	000026b7          	lui	a3,0x2
    57e0:	00d7e7b3          	or	a5,a5,a3
    57e4:	ffffe6b7          	lui	a3,0xffffe
    57e8:	01079793          	sll	a5,a5,0x10
    57ec:	fff68693          	add	a3,a3,-1 # ffffdfff <_end+0xfffe402f>
    57f0:	4107d793          	sra	a5,a5,0x10
    57f4:	00d77733          	and	a4,a4,a3
    57f8:	00f61623          	sh	a5,12(a2)
    57fc:	06e62223          	sw	a4,100(a2)
    5800:	0087f713          	and	a4,a5,8
    5804:	2e070c63          	beqz	a4,5afc <_vfprintf_r+0x3b8>
    5808:	00812703          	lw	a4,8(sp)
    580c:	01072703          	lw	a4,16(a4)
    5810:	2e070663          	beqz	a4,5afc <_vfprintf_r+0x3b8>
    5814:	01a7f793          	and	a5,a5,26
    5818:	00a00713          	li	a4,10
    581c:	30e78863          	beq	a5,a4,5b2c <_vfprintf_r+0x3e8>
    5820:	000157b7          	lui	a5,0x15
    5824:	f4478793          	add	a5,a5,-188 # 14f44 <_getpid_r+0x628>
    5828:	00f12e23          	sw	a5,28(sp)
    582c:	000157b7          	lui	a5,0x15
    5830:	14878793          	add	a5,a5,328 # 15148 <zeroes.0>
    5834:	00028c13          	mv	s8,t0
    5838:	00f12623          	sw	a5,12(sp)
    583c:	000c4783          	lbu	a5,0(s8)
    5840:	10c10b13          	add	s6,sp,268
    5844:	0f612223          	sw	s6,228(sp)
    5848:	0e012623          	sw	zero,236(sp)
    584c:	0e012423          	sw	zero,232(sp)
    5850:	02012223          	sw	zero,36(sp)
    5854:	02012e23          	sw	zero,60(sp)
    5858:	04012223          	sw	zero,68(sp)
    585c:	04012023          	sw	zero,64(sp)
    5860:	04012623          	sw	zero,76(sp)
    5864:	04012423          	sw	zero,72(sp)
    5868:	00012823          	sw	zero,16(sp)
    586c:	03012983          	lw	s3,48(sp)
    5870:	000b0413          	mv	s0,s6
    5874:	22078463          	beqz	a5,5a9c <_vfprintf_r+0x358>
    5878:	000c0493          	mv	s1,s8
    587c:	02500713          	li	a4,37
    5880:	40e78c63          	beq	a5,a4,5c98 <_vfprintf_r+0x554>
    5884:	0014c783          	lbu	a5,1(s1)
    5888:	00148493          	add	s1,s1,1
    588c:	fe079ae3          	bnez	a5,5880 <_vfprintf_r+0x13c>
    5890:	41848933          	sub	s2,s1,s8
    5894:	21848463          	beq	s1,s8,5a9c <_vfprintf_r+0x358>
    5898:	0ec12703          	lw	a4,236(sp)
    589c:	0e812783          	lw	a5,232(sp)
    58a0:	01842023          	sw	s8,0(s0)
    58a4:	01270733          	add	a4,a4,s2
    58a8:	00178793          	add	a5,a5,1
    58ac:	01242223          	sw	s2,4(s0)
    58b0:	0ee12623          	sw	a4,236(sp)
    58b4:	0ef12423          	sw	a5,232(sp)
    58b8:	00700713          	li	a4,7
    58bc:	00840413          	add	s0,s0,8
    58c0:	3ef74463          	blt	a4,a5,5ca8 <_vfprintf_r+0x564>
    58c4:	01012703          	lw	a4,16(sp)
    58c8:	0004c783          	lbu	a5,0(s1)
    58cc:	01270733          	add	a4,a4,s2
    58d0:	00e12823          	sw	a4,16(sp)
    58d4:	1c078463          	beqz	a5,5a9c <_vfprintf_r+0x358>
    58d8:	0014c883          	lbu	a7,1(s1)
    58dc:	0c0103a3          	sb	zero,199(sp)
    58e0:	00148493          	add	s1,s1,1
    58e4:	fff00913          	li	s2,-1
    58e8:	00000a13          	li	s4,0
    58ec:	00000b93          	li	s7,0
    58f0:	05a00c93          	li	s9,90
    58f4:	00148493          	add	s1,s1,1
    58f8:	fe088793          	add	a5,a7,-32
    58fc:	04fce663          	bltu	s9,a5,5948 <_vfprintf_r+0x204>
    5900:	01c12703          	lw	a4,28(sp)
    5904:	00279793          	sll	a5,a5,0x2
    5908:	00e787b3          	add	a5,a5,a4
    590c:	0007a783          	lw	a5,0(a5)
    5910:	00078067          	jr	a5
    5914:	00000a13          	li	s4,0
    5918:	fd088793          	add	a5,a7,-48
    591c:	00900693          	li	a3,9
    5920:	0004c883          	lbu	a7,0(s1)
    5924:	002a1713          	sll	a4,s4,0x2
    5928:	01470a33          	add	s4,a4,s4
    592c:	001a1a13          	sll	s4,s4,0x1
    5930:	01478a33          	add	s4,a5,s4
    5934:	fd088793          	add	a5,a7,-48
    5938:	00148493          	add	s1,s1,1
    593c:	fef6f2e3          	bgeu	a3,a5,5920 <_vfprintf_r+0x1dc>
    5940:	fe088793          	add	a5,a7,-32
    5944:	fafcfee3          	bgeu	s9,a5,5900 <_vfprintf_r+0x1bc>
    5948:	14088a63          	beqz	a7,5a9c <_vfprintf_r+0x358>
    594c:	15110623          	sb	a7,332(sp)
    5950:	0c0103a3          	sb	zero,199(sp)
    5954:	00100c93          	li	s9,1
    5958:	00100d13          	li	s10,1
    595c:	14c10c13          	add	s8,sp,332
    5960:	00012a23          	sw	zero,20(sp)
    5964:	00000913          	li	s2,0
    5968:	02012623          	sw	zero,44(sp)
    596c:	02012423          	sw	zero,40(sp)
    5970:	02012023          	sw	zero,32(sp)
    5974:	002bff93          	and	t6,s7,2
    5978:	000f8463          	beqz	t6,5980 <_vfprintf_r+0x23c>
    597c:	002c8c93          	add	s9,s9,2
    5980:	084bfd93          	and	s11,s7,132
    5984:	000d9663          	bnez	s11,5990 <_vfprintf_r+0x24c>
    5988:	419a0733          	sub	a4,s4,s9
    598c:	46e04ee3          	bgtz	a4,6608 <_vfprintf_r+0xec4>
    5990:	0c714703          	lbu	a4,199(sp)
    5994:	02070c63          	beqz	a4,59cc <_vfprintf_r+0x288>
    5998:	0ec12603          	lw	a2,236(sp)
    599c:	0e812703          	lw	a4,232(sp)
    59a0:	0c710593          	add	a1,sp,199
    59a4:	00160613          	add	a2,a2,1
    59a8:	00b42023          	sw	a1,0(s0)
    59ac:	00170713          	add	a4,a4,1
    59b0:	00100593          	li	a1,1
    59b4:	00b42223          	sw	a1,4(s0)
    59b8:	0ec12623          	sw	a2,236(sp)
    59bc:	0ee12423          	sw	a4,232(sp)
    59c0:	00700613          	li	a2,7
    59c4:	00840413          	add	s0,s0,8
    59c8:	40e64263          	blt	a2,a4,5dcc <_vfprintf_r+0x688>
    59cc:	020f8c63          	beqz	t6,5a04 <_vfprintf_r+0x2c0>
    59d0:	0ec12603          	lw	a2,236(sp)
    59d4:	0e812703          	lw	a4,232(sp)
    59d8:	0c810793          	add	a5,sp,200
    59dc:	00260613          	add	a2,a2,2
    59e0:	00170713          	add	a4,a4,1
    59e4:	00200593          	li	a1,2
    59e8:	00f42023          	sw	a5,0(s0)
    59ec:	00b42223          	sw	a1,4(s0)
    59f0:	0ec12623          	sw	a2,236(sp)
    59f4:	0ee12423          	sw	a4,232(sp)
    59f8:	00700613          	li	a2,7
    59fc:	00840413          	add	s0,s0,8
    5a00:	50e646e3          	blt	a2,a4,670c <_vfprintf_r+0xfc8>
    5a04:	08000713          	li	a4,128
    5a08:	20ed80e3          	beq	s11,a4,6408 <_vfprintf_r+0xcc4>
    5a0c:	41a90933          	sub	s2,s2,s10
    5a10:	2f2042e3          	bgtz	s2,64f4 <_vfprintf_r+0xdb0>
    5a14:	100bf713          	and	a4,s7,256
    5a18:	04071ee3          	bnez	a4,6274 <_vfprintf_r+0xb30>
    5a1c:	0ec12703          	lw	a4,236(sp)
    5a20:	0e812603          	lw	a2,232(sp)
    5a24:	01842023          	sw	s8,0(s0)
    5a28:	00ed0733          	add	a4,s10,a4
    5a2c:	00160613          	add	a2,a2,1
    5a30:	01a42223          	sw	s10,4(s0)
    5a34:	0ee12623          	sw	a4,236(sp)
    5a38:	0ec12423          	sw	a2,232(sp)
    5a3c:	00700593          	li	a1,7
    5a40:	4ac5ce63          	blt	a1,a2,5efc <_vfprintf_r+0x7b8>
    5a44:	00840413          	add	s0,s0,8
    5a48:	004bf793          	and	a5,s7,4
    5a4c:	00078663          	beqz	a5,5a58 <_vfprintf_r+0x314>
    5a50:	419a0933          	sub	s2,s4,s9
    5a54:	4d204ee3          	bgtz	s2,6730 <_vfprintf_r+0xfec>
    5a58:	000a0313          	mv	t1,s4
    5a5c:	019a5463          	bge	s4,s9,5a64 <_vfprintf_r+0x320>
    5a60:	000c8313          	mv	t1,s9
    5a64:	01012783          	lw	a5,16(sp)
    5a68:	006787b3          	add	a5,a5,t1
    5a6c:	00f12823          	sw	a5,16(sp)
    5a70:	360712e3          	bnez	a4,65d4 <_vfprintf_r+0xe90>
    5a74:	01412783          	lw	a5,20(sp)
    5a78:	0e012423          	sw	zero,232(sp)
    5a7c:	00078863          	beqz	a5,5a8c <_vfprintf_r+0x348>
    5a80:	01412583          	lw	a1,20(sp)
    5a84:	00098513          	mv	a0,s3
    5a88:	1d8030ef          	jal	8c60 <_free_r>
    5a8c:	000b0413          	mv	s0,s6
    5a90:	00048c13          	mv	s8,s1
    5a94:	000c4783          	lbu	a5,0(s8)
    5a98:	de0790e3          	bnez	a5,5878 <_vfprintf_r+0x134>
    5a9c:	0ec12783          	lw	a5,236(sp)
    5aa0:	00078463          	beqz	a5,5aa8 <_vfprintf_r+0x364>
    5aa4:	3a10106f          	j	7644 <_vfprintf_r+0x1f00>
    5aa8:	00812783          	lw	a5,8(sp)
    5aac:	00c7d783          	lhu	a5,12(a5)
    5ab0:	0407f793          	and	a5,a5,64
    5ab4:	00078463          	beqz	a5,5abc <_vfprintf_r+0x378>
    5ab8:	3280206f          	j	7de0 <_vfprintf_r+0x269c>
    5abc:	1ec12083          	lw	ra,492(sp)
    5ac0:	1e812403          	lw	s0,488(sp)
    5ac4:	01012503          	lw	a0,16(sp)
    5ac8:	1e412483          	lw	s1,484(sp)
    5acc:	1e012903          	lw	s2,480(sp)
    5ad0:	1dc12983          	lw	s3,476(sp)
    5ad4:	1d812a03          	lw	s4,472(sp)
    5ad8:	1d412a83          	lw	s5,468(sp)
    5adc:	1d012b03          	lw	s6,464(sp)
    5ae0:	1cc12b83          	lw	s7,460(sp)
    5ae4:	1c812c03          	lw	s8,456(sp)
    5ae8:	1c412c83          	lw	s9,452(sp)
    5aec:	1c012d03          	lw	s10,448(sp)
    5af0:	1bc12d83          	lw	s11,444(sp)
    5af4:	1f010113          	add	sp,sp,496
    5af8:	00008067          	ret
    5afc:	00812583          	lw	a1,8(sp)
    5b00:	03012503          	lw	a0,48(sp)
    5b04:	00512623          	sw	t0,12(sp)
    5b08:	69c020ef          	jal	81a4 <__swsetup_r>
    5b0c:	00c12283          	lw	t0,12(sp)
    5b10:	00050463          	beqz	a0,5b18 <_vfprintf_r+0x3d4>
    5b14:	2cc0206f          	j	7de0 <_vfprintf_r+0x269c>
    5b18:	00812783          	lw	a5,8(sp)
    5b1c:	00a00713          	li	a4,10
    5b20:	00c79783          	lh	a5,12(a5)
    5b24:	01a7f793          	and	a5,a5,26
    5b28:	cee79ce3          	bne	a5,a4,5820 <_vfprintf_r+0xdc>
    5b2c:	00812783          	lw	a5,8(sp)
    5b30:	00e79783          	lh	a5,14(a5)
    5b34:	ce07c6e3          	bltz	a5,5820 <_vfprintf_r+0xdc>
    5b38:	01812683          	lw	a3,24(sp)
    5b3c:	00812583          	lw	a1,8(sp)
    5b40:	03012503          	lw	a0,48(sp)
    5b44:	00028613          	mv	a2,t0
    5b48:	590020ef          	jal	80d8 <__sbprintf>
    5b4c:	00a12823          	sw	a0,16(sp)
    5b50:	f6dff06f          	j	5abc <_vfprintf_r+0x378>
    5b54:	00098513          	mv	a0,s3
    5b58:	67c060ef          	jal	c1d4 <_localeconv_r>
    5b5c:	00452783          	lw	a5,4(a0)
    5b60:	00078513          	mv	a0,a5
    5b64:	04f12423          	sw	a5,72(sp)
    5b68:	b51ff0ef          	jal	56b8 <strlen>
    5b6c:	00050793          	mv	a5,a0
    5b70:	00098513          	mv	a0,s3
    5b74:	00078a93          	mv	s5,a5
    5b78:	04f12623          	sw	a5,76(sp)
    5b7c:	658060ef          	jal	c1d4 <_localeconv_r>
    5b80:	00852703          	lw	a4,8(a0)
    5b84:	04e12023          	sw	a4,64(sp)
    5b88:	000a8463          	beqz	s5,5b90 <_vfprintf_r+0x44c>
    5b8c:	7a50006f          	j	6b30 <_vfprintf_r+0x13ec>
    5b90:	0004c883          	lbu	a7,0(s1)
    5b94:	d61ff06f          	j	58f4 <_vfprintf_r+0x1b0>
    5b98:	0004c883          	lbu	a7,0(s1)
    5b9c:	020beb93          	or	s7,s7,32
    5ba0:	d55ff06f          	j	58f4 <_vfprintf_r+0x1b0>
    5ba4:	010beb93          	or	s7,s7,16
    5ba8:	020bf713          	and	a4,s7,32
    5bac:	3a070063          	beqz	a4,5f4c <_vfprintf_r+0x808>
    5bb0:	01812783          	lw	a5,24(sp)
    5bb4:	00778a93          	add	s5,a5,7
    5bb8:	ff8afa93          	and	s5,s5,-8
    5bbc:	004aa703          	lw	a4,4(s5)
    5bc0:	000aac83          	lw	s9,0(s5)
    5bc4:	008a8793          	add	a5,s5,8
    5bc8:	00f12c23          	sw	a5,24(sp)
    5bcc:	00070d13          	mv	s10,a4
    5bd0:	3a074863          	bltz	a4,5f80 <_vfprintf_r+0x83c>
    5bd4:	fff00713          	li	a4,-1
    5bd8:	000b8d93          	mv	s11,s7
    5bdc:	4ee90663          	beq	s2,a4,60c8 <_vfprintf_r+0x984>
    5be0:	01ace733          	or	a4,s9,s10
    5be4:	f7fbfd93          	and	s11,s7,-129
    5be8:	4e071063          	bnez	a4,60c8 <_vfprintf_r+0x984>
    5bec:	4e091463          	bnez	s2,60d4 <_vfprintf_r+0x990>
    5bf0:	00000d13          	li	s10,0
    5bf4:	000d8b93          	mv	s7,s11
    5bf8:	1b010c13          	add	s8,sp,432
    5bfc:	0c714703          	lbu	a4,199(sp)
    5c00:	000d0c93          	mv	s9,s10
    5c04:	012d5463          	bge	s10,s2,5c0c <_vfprintf_r+0x4c8>
    5c08:	00090c93          	mv	s9,s2
    5c0c:	00012a23          	sw	zero,20(sp)
    5c10:	02012623          	sw	zero,44(sp)
    5c14:	02012423          	sw	zero,40(sp)
    5c18:	02012023          	sw	zero,32(sp)
    5c1c:	d4070ce3          	beqz	a4,5974 <_vfprintf_r+0x230>
    5c20:	001c8c93          	add	s9,s9,1
    5c24:	d51ff06f          	j	5974 <_vfprintf_r+0x230>
    5c28:	010beb93          	or	s7,s7,16
    5c2c:	020bf713          	and	a4,s7,32
    5c30:	2e070663          	beqz	a4,5f1c <_vfprintf_r+0x7d8>
    5c34:	01812783          	lw	a5,24(sp)
    5c38:	00778a93          	add	s5,a5,7
    5c3c:	ff8afa93          	and	s5,s5,-8
    5c40:	000aac83          	lw	s9,0(s5)
    5c44:	004aad03          	lw	s10,4(s5)
    5c48:	008a8793          	add	a5,s5,8
    5c4c:	00f12c23          	sw	a5,24(sp)
    5c50:	bffbfd93          	and	s11,s7,-1025
    5c54:	00000693          	li	a3,0
    5c58:	00000793          	li	a5,0
    5c5c:	0cf103a3          	sb	a5,199(sp)
    5c60:	fff00793          	li	a5,-1
    5c64:	34f90263          	beq	s2,a5,5fa8 <_vfprintf_r+0x864>
    5c68:	01ace733          	or	a4,s9,s10
    5c6c:	f7fdfb93          	and	s7,s11,-129
    5c70:	180718e3          	bnez	a4,6600 <_vfprintf_r+0xebc>
    5c74:	72091c63          	bnez	s2,63ac <_vfprintf_r+0xc68>
    5c78:	600692e3          	bnez	a3,6a7c <_vfprintf_r+0x1338>
    5c7c:	001dfd13          	and	s10,s11,1
    5c80:	1b010c13          	add	s8,sp,432
    5c84:	f60d0ce3          	beqz	s10,5bfc <_vfprintf_r+0x4b8>
    5c88:	03000713          	li	a4,48
    5c8c:	1ae107a3          	sb	a4,431(sp)
    5c90:	1af10c13          	add	s8,sp,431
    5c94:	f69ff06f          	j	5bfc <_vfprintf_r+0x4b8>
    5c98:	41848933          	sub	s2,s1,s8
    5c9c:	bf849ee3          	bne	s1,s8,5898 <_vfprintf_r+0x154>
    5ca0:	0004c783          	lbu	a5,0(s1)
    5ca4:	c31ff06f          	j	58d4 <_vfprintf_r+0x190>
    5ca8:	00812583          	lw	a1,8(sp)
    5cac:	0e410613          	add	a2,sp,228
    5cb0:	00098513          	mv	a0,s3
    5cb4:	3c00b0ef          	jal	11074 <__sprint_r>
    5cb8:	de0518e3          	bnez	a0,5aa8 <_vfprintf_r+0x364>
    5cbc:	000b0413          	mv	s0,s6
    5cc0:	c05ff06f          	j	58c4 <_vfprintf_r+0x180>
    5cc4:	008bf713          	and	a4,s7,8
    5cc8:	60071ce3          	bnez	a4,6ae0 <_vfprintf_r+0x139c>
    5ccc:	01812783          	lw	a5,24(sp)
    5cd0:	0b010513          	add	a0,sp,176
    5cd4:	01112a23          	sw	a7,20(sp)
    5cd8:	00778a93          	add	s5,a5,7
    5cdc:	ff8afa93          	and	s5,s5,-8
    5ce0:	000aa583          	lw	a1,0(s5)
    5ce4:	004aa603          	lw	a2,4(s5)
    5ce8:	008a8793          	add	a5,s5,8
    5cec:	00f12c23          	sw	a5,24(sp)
    5cf0:	9c4fe0ef          	jal	3eb4 <__extenddftf2>
    5cf4:	0b012583          	lw	a1,176(sp)
    5cf8:	0b412603          	lw	a2,180(sp)
    5cfc:	0b812683          	lw	a3,184(sp)
    5d00:	0bc12703          	lw	a4,188(sp)
    5d04:	01412883          	lw	a7,20(sp)
    5d08:	0f010513          	add	a0,sp,240
    5d0c:	01112a23          	sw	a7,20(sp)
    5d10:	0ee12e23          	sw	a4,252(sp)
    5d14:	0eb12823          	sw	a1,240(sp)
    5d18:	0ec12a23          	sw	a2,244(sp)
    5d1c:	0ed12c23          	sw	a3,248(sp)
    5d20:	434060ef          	jal	c154 <_ldcheck>
    5d24:	0ca12623          	sw	a0,204(sp)
    5d28:	00200713          	li	a4,2
    5d2c:	01412883          	lw	a7,20(sp)
    5d30:	00e51463          	bne	a0,a4,5d38 <_vfprintf_r+0x5f4>
    5d34:	1d40106f          	j	6f08 <_vfprintf_r+0x17c4>
    5d38:	00100713          	li	a4,1
    5d3c:	00e51463          	bne	a0,a4,5d44 <_vfprintf_r+0x600>
    5d40:	3280106f          	j	7068 <_vfprintf_r+0x1924>
    5d44:	06100713          	li	a4,97
    5d48:	00e89463          	bne	a7,a4,5d50 <_vfprintf_r+0x60c>
    5d4c:	7410106f          	j	7c8c <_vfprintf_r+0x2548>
    5d50:	04100713          	li	a4,65
    5d54:	00e89463          	bne	a7,a4,5d5c <_vfprintf_r+0x618>
    5d58:	12d0106f          	j	7684 <_vfprintf_r+0x1f40>
    5d5c:	fff00713          	li	a4,-1
    5d60:	00e91463          	bne	s2,a4,5d68 <_vfprintf_r+0x624>
    5d64:	1d80206f          	j	7f3c <_vfprintf_r+0x27f8>
    5d68:	fdf8f713          	and	a4,a7,-33
    5d6c:	04700693          	li	a3,71
    5d70:	00d71463          	bne	a4,a3,5d78 <_vfprintf_r+0x634>
    5d74:	1b80206f          	j	7f2c <_vfprintf_r+0x27e8>
    5d78:	0fc12d83          	lw	s11,252(sp)
    5d7c:	100be793          	or	a5,s7,256
    5d80:	04f12e23          	sw	a5,92(sp)
    5d84:	03712623          	sw	s7,44(sp)
    5d88:	0f012f03          	lw	t5,240(sp)
    5d8c:	0f412e83          	lw	t4,244(sp)
    5d90:	0f812e03          	lw	t3,248(sp)
    5d94:	000dd463          	bgez	s11,5d9c <_vfprintf_r+0x658>
    5d98:	6a50106f          	j	7c3c <_vfprintf_r+0x24f8>
    5d9c:	06012023          	sw	zero,96(sp)
    5da0:	00012a23          	sw	zero,20(sp)
    5da4:	fbf88793          	add	a5,a7,-65
    5da8:	02500713          	li	a4,37
    5dac:	00f77463          	bgeu	a4,a5,5db4 <_vfprintf_r+0x670>
    5db0:	5dc0106f          	j	738c <_vfprintf_r+0x1c48>
    5db4:	00015737          	lui	a4,0x15
    5db8:	00279793          	sll	a5,a5,0x2
    5dbc:	0b070713          	add	a4,a4,176 # 150b0 <_getpid_r+0x794>
    5dc0:	00e787b3          	add	a5,a5,a4
    5dc4:	0007a783          	lw	a5,0(a5)
    5dc8:	00078067          	jr	a5
    5dcc:	00812583          	lw	a1,8(sp)
    5dd0:	0e410613          	add	a2,sp,228
    5dd4:	00098513          	mv	a0,s3
    5dd8:	05112a23          	sw	a7,84(sp)
    5ddc:	05f12823          	sw	t6,80(sp)
    5de0:	2940b0ef          	jal	11074 <__sprint_r>
    5de4:	000512e3          	bnez	a0,65e8 <_vfprintf_r+0xea4>
    5de8:	05412883          	lw	a7,84(sp)
    5dec:	05012f83          	lw	t6,80(sp)
    5df0:	000b0413          	mv	s0,s6
    5df4:	bd9ff06f          	j	59cc <_vfprintf_r+0x288>
    5df8:	02412783          	lw	a5,36(sp)
    5dfc:	00100593          	li	a1,1
    5e00:	00840d13          	add	s10,s0,8
    5e04:	36f5d4e3          	bge	a1,a5,696c <_vfprintf_r+0x1228>
    5e08:	0ec12703          	lw	a4,236(sp)
    5e0c:	0e812603          	lw	a2,232(sp)
    5e10:	00100593          	li	a1,1
    5e14:	00170713          	add	a4,a4,1
    5e18:	00160613          	add	a2,a2,1
    5e1c:	00b42223          	sw	a1,4(s0)
    5e20:	01842023          	sw	s8,0(s0)
    5e24:	0ee12623          	sw	a4,236(sp)
    5e28:	0ec12423          	sw	a2,232(sp)
    5e2c:	00700593          	li	a1,7
    5e30:	6ac5c6e3          	blt	a1,a2,6cdc <_vfprintf_r+0x1598>
    5e34:	03412783          	lw	a5,52(sp)
    5e38:	00160913          	add	s2,a2,1
    5e3c:	0f212423          	sw	s2,232(sp)
    5e40:	00e78db3          	add	s11,a5,a4
    5e44:	03812703          	lw	a4,56(sp)
    5e48:	00fd2223          	sw	a5,4(s10)
    5e4c:	0fb12623          	sw	s11,236(sp)
    5e50:	00ed2023          	sw	a4,0(s10)
    5e54:	00700713          	li	a4,7
    5e58:	008d0d13          	add	s10,s10,8
    5e5c:	6b2742e3          	blt	a4,s2,6d00 <_vfprintf_r+0x15bc>
    5e60:	0f012703          	lw	a4,240(sp)
    5e64:	0a010593          	add	a1,sp,160
    5e68:	0b010513          	add	a0,sp,176
    5e6c:	0ae12823          	sw	a4,176(sp)
    5e70:	0f412703          	lw	a4,244(sp)
    5e74:	0a012023          	sw	zero,160(sp)
    5e78:	0a012223          	sw	zero,164(sp)
    5e7c:	0ae12a23          	sw	a4,180(sp)
    5e80:	0f812703          	lw	a4,248(sp)
    5e84:	0a012423          	sw	zero,168(sp)
    5e88:	0a012623          	sw	zero,172(sp)
    5e8c:	0ae12c23          	sw	a4,184(sp)
    5e90:	0fc12703          	lw	a4,252(sp)
    5e94:	0ae12e23          	sw	a4,188(sp)
    5e98:	d2cfb0ef          	jal	13c4 <__eqtf2>
    5e9c:	02412783          	lw	a5,36(sp)
    5ea0:	fff78413          	add	s0,a5,-1
    5ea4:	30050ee3          	beqz	a0,69c0 <_vfprintf_r+0x127c>
    5ea8:	001c0293          	add	t0,s8,1
    5eac:	00190913          	add	s2,s2,1
    5eb0:	008d8db3          	add	s11,s11,s0
    5eb4:	005d2023          	sw	t0,0(s10)
    5eb8:	008d2223          	sw	s0,4(s10)
    5ebc:	0fb12623          	sw	s11,236(sp)
    5ec0:	0f212423          	sw	s2,232(sp)
    5ec4:	00700713          	li	a4,7
    5ec8:	008d0d13          	add	s10,s10,8
    5ecc:	2d2748e3          	blt	a4,s2,699c <_vfprintf_r+0x1258>
    5ed0:	04412783          	lw	a5,68(sp)
    5ed4:	0d410593          	add	a1,sp,212
    5ed8:	00190613          	add	a2,s2,1
    5edc:	01b78733          	add	a4,a5,s11
    5ee0:	00bd2023          	sw	a1,0(s10)
    5ee4:	00fd2223          	sw	a5,4(s10)
    5ee8:	0ee12623          	sw	a4,236(sp)
    5eec:	0ec12423          	sw	a2,232(sp)
    5ef0:	00700593          	li	a1,7
    5ef4:	008d0413          	add	s0,s10,8
    5ef8:	b4c5d8e3          	bge	a1,a2,5a48 <_vfprintf_r+0x304>
    5efc:	00812583          	lw	a1,8(sp)
    5f00:	0e410613          	add	a2,sp,228
    5f04:	00098513          	mv	a0,s3
    5f08:	16c0b0ef          	jal	11074 <__sprint_r>
    5f0c:	6c051e63          	bnez	a0,65e8 <_vfprintf_r+0xea4>
    5f10:	0ec12703          	lw	a4,236(sp)
    5f14:	000b0413          	mv	s0,s6
    5f18:	b31ff06f          	j	5a48 <_vfprintf_r+0x304>
    5f1c:	01812783          	lw	a5,24(sp)
    5f20:	010bf713          	and	a4,s7,16
    5f24:	0007ac83          	lw	s9,0(a5)
    5f28:	00478793          	add	a5,a5,4
    5f2c:	00f12c23          	sw	a5,24(sp)
    5f30:	38071ae3          	bnez	a4,6ac4 <_vfprintf_r+0x1380>
    5f34:	040bf713          	and	a4,s7,64
    5f38:	380702e3          	beqz	a4,6abc <_vfprintf_r+0x1378>
    5f3c:	010c9c93          	sll	s9,s9,0x10
    5f40:	010cdc93          	srl	s9,s9,0x10
    5f44:	00000d13          	li	s10,0
    5f48:	d09ff06f          	j	5c50 <_vfprintf_r+0x50c>
    5f4c:	01812783          	lw	a5,24(sp)
    5f50:	010bf713          	and	a4,s7,16
    5f54:	0007ac83          	lw	s9,0(a5)
    5f58:	00478793          	add	a5,a5,4
    5f5c:	00f12c23          	sw	a5,24(sp)
    5f60:	36071ae3          	bnez	a4,6ad4 <_vfprintf_r+0x1390>
    5f64:	040bf713          	and	a4,s7,64
    5f68:	360702e3          	beqz	a4,6acc <_vfprintf_r+0x1388>
    5f6c:	010c9c93          	sll	s9,s9,0x10
    5f70:	410cdc93          	sra	s9,s9,0x10
    5f74:	41fcdd13          	sra	s10,s9,0x1f
    5f78:	000d0713          	mv	a4,s10
    5f7c:	c4075ce3          	bgez	a4,5bd4 <_vfprintf_r+0x490>
    5f80:	02d00793          	li	a5,45
    5f84:	01903733          	snez	a4,s9
    5f88:	41a00d33          	neg	s10,s10
    5f8c:	0cf103a3          	sb	a5,199(sp)
    5f90:	fff00793          	li	a5,-1
    5f94:	40ed0d33          	sub	s10,s10,a4
    5f98:	41900cb3          	neg	s9,s9
    5f9c:	000b8d93          	mv	s11,s7
    5fa0:	00100693          	li	a3,1
    5fa4:	ccf912e3          	bne	s2,a5,5c68 <_vfprintf_r+0x524>
    5fa8:	00100793          	li	a5,1
    5fac:	10f68e63          	beq	a3,a5,60c8 <_vfprintf_r+0x984>
    5fb0:	00200793          	li	a5,2
    5fb4:	40f68863          	beq	a3,a5,63c4 <_vfprintf_r+0xc80>
    5fb8:	1b010c13          	add	s8,sp,432
    5fbc:	01dd1713          	sll	a4,s10,0x1d
    5fc0:	007cf793          	and	a5,s9,7
    5fc4:	003cdc93          	srl	s9,s9,0x3
    5fc8:	03078793          	add	a5,a5,48
    5fcc:	01976cb3          	or	s9,a4,s9
    5fd0:	003d5d13          	srl	s10,s10,0x3
    5fd4:	fefc0fa3          	sb	a5,-1(s8)
    5fd8:	01ace733          	or	a4,s9,s10
    5fdc:	000c0693          	mv	a3,s8
    5fe0:	fffc0c13          	add	s8,s8,-1
    5fe4:	fc071ce3          	bnez	a4,5fbc <_vfprintf_r+0x878>
    5fe8:	001df713          	and	a4,s11,1
    5fec:	40070663          	beqz	a4,63f8 <_vfprintf_r+0xcb4>
    5ff0:	03000713          	li	a4,48
    5ff4:	40e78263          	beq	a5,a4,63f8 <_vfprintf_r+0xcb4>
    5ff8:	ffe68693          	add	a3,a3,-2
    5ffc:	1b010793          	add	a5,sp,432
    6000:	feec0fa3          	sb	a4,-1(s8)
    6004:	40d78d33          	sub	s10,a5,a3
    6008:	000d8b93          	mv	s7,s11
    600c:	00068c13          	mv	s8,a3
    6010:	bedff06f          	j	5bfc <_vfprintf_r+0x4b8>
    6014:	03012503          	lw	a0,48(sp)
    6018:	271020ef          	jal	8a88 <__sinit>
    601c:	00c12283          	lw	t0,12(sp)
    6020:	fa8ff06f          	j	57c8 <_vfprintf_r+0x84>
    6024:	01812783          	lw	a5,24(sp)
    6028:	0c0103a3          	sb	zero,199(sp)
    602c:	00100c93          	li	s9,1
    6030:	0007a703          	lw	a4,0(a5)
    6034:	00478793          	add	a5,a5,4
    6038:	00f12c23          	sw	a5,24(sp)
    603c:	14e10623          	sb	a4,332(sp)
    6040:	00100d13          	li	s10,1
    6044:	14c10c13          	add	s8,sp,332
    6048:	919ff06f          	j	5960 <_vfprintf_r+0x21c>
    604c:	01812783          	lw	a5,24(sp)
    6050:	0c0103a3          	sb	zero,199(sp)
    6054:	0007ac03          	lw	s8,0(a5)
    6058:	00478a93          	add	s5,a5,4
    605c:	3a0c0ee3          	beqz	s8,6c18 <_vfprintf_r+0x14d4>
    6060:	fff00713          	li	a4,-1
    6064:	00e91463          	bne	s2,a4,606c <_vfprintf_r+0x928>
    6068:	7b90006f          	j	7020 <_vfprintf_r+0x18dc>
    606c:	00090613          	mv	a2,s2
    6070:	00000593          	li	a1,0
    6074:	000c0513          	mv	a0,s8
    6078:	01112c23          	sw	a7,24(sp)
    607c:	3d8060ef          	jal	c454 <memchr>
    6080:	00a12a23          	sw	a0,20(sp)
    6084:	01812883          	lw	a7,24(sp)
    6088:	00051463          	bnez	a0,6090 <_vfprintf_r+0x94c>
    608c:	43d0106f          	j	7cc8 <_vfprintf_r+0x2584>
    6090:	01412783          	lw	a5,20(sp)
    6094:	0c714703          	lbu	a4,199(sp)
    6098:	01512c23          	sw	s5,24(sp)
    609c:	41878d33          	sub	s10,a5,s8
    60a0:	fffd4693          	not	a3,s10
    60a4:	41f6d693          	sra	a3,a3,0x1f
    60a8:	00012a23          	sw	zero,20(sp)
    60ac:	02012623          	sw	zero,44(sp)
    60b0:	02012423          	sw	zero,40(sp)
    60b4:	02012023          	sw	zero,32(sp)
    60b8:	00dd7cb3          	and	s9,s10,a3
    60bc:	00000913          	li	s2,0
    60c0:	b60710e3          	bnez	a4,5c20 <_vfprintf_r+0x4dc>
    60c4:	8b1ff06f          	j	5974 <_vfprintf_r+0x230>
    60c8:	460d16e3          	bnez	s10,6d34 <_vfprintf_r+0x15f0>
    60cc:	00900793          	li	a5,9
    60d0:	4797e2e3          	bltu	a5,s9,6d34 <_vfprintf_r+0x15f0>
    60d4:	030c8c93          	add	s9,s9,48
    60d8:	1b9107a3          	sb	s9,431(sp)
    60dc:	000d8b93          	mv	s7,s11
    60e0:	00100d13          	li	s10,1
    60e4:	1af10c13          	add	s8,sp,431
    60e8:	b15ff06f          	j	5bfc <_vfprintf_r+0x4b8>
    60ec:	01812783          	lw	a5,24(sp)
    60f0:	0007aa03          	lw	s4,0(a5)
    60f4:	00478793          	add	a5,a5,4
    60f8:	1a0a50e3          	bgez	s4,6a98 <_vfprintf_r+0x1354>
    60fc:	41400a33          	neg	s4,s4
    6100:	00f12c23          	sw	a5,24(sp)
    6104:	0004c883          	lbu	a7,0(s1)
    6108:	004beb93          	or	s7,s7,4
    610c:	fe8ff06f          	j	58f4 <_vfprintf_r+0x1b0>
    6110:	02b00793          	li	a5,43
    6114:	0004c883          	lbu	a7,0(s1)
    6118:	0cf103a3          	sb	a5,199(sp)
    611c:	fd8ff06f          	j	58f4 <_vfprintf_r+0x1b0>
    6120:	0004c883          	lbu	a7,0(s1)
    6124:	080beb93          	or	s7,s7,128
    6128:	fccff06f          	j	58f4 <_vfprintf_r+0x1b0>
    612c:	0004c883          	lbu	a7,0(s1)
    6130:	02a00793          	li	a5,42
    6134:	00148713          	add	a4,s1,1
    6138:	00f89463          	bne	a7,a5,6140 <_vfprintf_r+0x9fc>
    613c:	7410106f          	j	807c <_vfprintf_r+0x2938>
    6140:	fd088793          	add	a5,a7,-48
    6144:	00900613          	li	a2,9
    6148:	00070493          	mv	s1,a4
    614c:	00000913          	li	s2,0
    6150:	00900693          	li	a3,9
    6154:	faf66263          	bltu	a2,a5,58f8 <_vfprintf_r+0x1b4>
    6158:	0004c883          	lbu	a7,0(s1)
    615c:	00291713          	sll	a4,s2,0x2
    6160:	01270933          	add	s2,a4,s2
    6164:	00191913          	sll	s2,s2,0x1
    6168:	00f90933          	add	s2,s2,a5
    616c:	fd088793          	add	a5,a7,-48
    6170:	00148493          	add	s1,s1,1
    6174:	fef6f2e3          	bgeu	a3,a5,6158 <_vfprintf_r+0xa14>
    6178:	f80ff06f          	j	58f8 <_vfprintf_r+0x1b4>
    617c:	0004c883          	lbu	a7,0(s1)
    6180:	001beb93          	or	s7,s7,1
    6184:	f70ff06f          	j	58f4 <_vfprintf_r+0x1b0>
    6188:	0c714783          	lbu	a5,199(sp)
    618c:	0004c883          	lbu	a7,0(s1)
    6190:	f6079263          	bnez	a5,58f4 <_vfprintf_r+0x1b0>
    6194:	02000793          	li	a5,32
    6198:	0cf103a3          	sb	a5,199(sp)
    619c:	f58ff06f          	j	58f4 <_vfprintf_r+0x1b0>
    61a0:	0004c883          	lbu	a7,0(s1)
    61a4:	008beb93          	or	s7,s7,8
    61a8:	f4cff06f          	j	58f4 <_vfprintf_r+0x1b0>
    61ac:	010bed93          	or	s11,s7,16
    61b0:	020df793          	and	a5,s11,32
    61b4:	08078ae3          	beqz	a5,6a48 <_vfprintf_r+0x1304>
    61b8:	01812783          	lw	a5,24(sp)
    61bc:	00100693          	li	a3,1
    61c0:	00778a93          	add	s5,a5,7
    61c4:	ff8afa93          	and	s5,s5,-8
    61c8:	008a8793          	add	a5,s5,8
    61cc:	000aac83          	lw	s9,0(s5)
    61d0:	004aad03          	lw	s10,4(s5)
    61d4:	00f12c23          	sw	a5,24(sp)
    61d8:	a81ff06f          	j	5c58 <_vfprintf_r+0x514>
    61dc:	01812703          	lw	a4,24(sp)
    61e0:	ffff87b7          	lui	a5,0xffff8
    61e4:	8307c793          	xor	a5,a5,-2000
    61e8:	0cf11423          	sh	a5,200(sp)
    61ec:	00470793          	add	a5,a4,4
    61f0:	00f12c23          	sw	a5,24(sp)
    61f4:	000157b7          	lui	a5,0x15
    61f8:	f1078793          	add	a5,a5,-240 # 14f10 <_getpid_r+0x5f4>
    61fc:	00072c83          	lw	s9,0(a4)
    6200:	00000d13          	li	s10,0
    6204:	002bed93          	or	s11,s7,2
    6208:	02f12e23          	sw	a5,60(sp)
    620c:	00200693          	li	a3,2
    6210:	07800893          	li	a7,120
    6214:	a45ff06f          	j	5c58 <_vfprintf_r+0x514>
    6218:	0004c883          	lbu	a7,0(s1)
    621c:	06c00793          	li	a5,108
    6220:	1ef884e3          	beq	a7,a5,6c08 <_vfprintf_r+0x14c4>
    6224:	010beb93          	or	s7,s7,16
    6228:	eccff06f          	j	58f4 <_vfprintf_r+0x1b0>
    622c:	0004c883          	lbu	a7,0(s1)
    6230:	06800793          	li	a5,104
    6234:	18f88ae3          	beq	a7,a5,6bc8 <_vfprintf_r+0x1484>
    6238:	040beb93          	or	s7,s7,64
    623c:	eb8ff06f          	j	58f4 <_vfprintf_r+0x1b0>
    6240:	020bf713          	and	a4,s7,32
    6244:	0c0700e3          	beqz	a4,6b04 <_vfprintf_r+0x13c0>
    6248:	01812783          	lw	a5,24(sp)
    624c:	01012683          	lw	a3,16(sp)
    6250:	0007a783          	lw	a5,0(a5)
    6254:	41f6d713          	sra	a4,a3,0x1f
    6258:	00d7a023          	sw	a3,0(a5)
    625c:	00e7a223          	sw	a4,4(a5)
    6260:	01812783          	lw	a5,24(sp)
    6264:	00048c13          	mv	s8,s1
    6268:	00478793          	add	a5,a5,4
    626c:	00f12c23          	sw	a5,24(sp)
    6270:	825ff06f          	j	5a94 <_vfprintf_r+0x350>
    6274:	06500713          	li	a4,101
    6278:	b91750e3          	bge	a4,a7,5df8 <_vfprintf_r+0x6b4>
    627c:	0f012703          	lw	a4,240(sp)
    6280:	0a010593          	add	a1,sp,160
    6284:	0b010513          	add	a0,sp,176
    6288:	0ae12823          	sw	a4,176(sp)
    628c:	0f412703          	lw	a4,244(sp)
    6290:	0a012023          	sw	zero,160(sp)
    6294:	0a012223          	sw	zero,164(sp)
    6298:	0ae12a23          	sw	a4,180(sp)
    629c:	0f812703          	lw	a4,248(sp)
    62a0:	0a012423          	sw	zero,168(sp)
    62a4:	0a012623          	sw	zero,172(sp)
    62a8:	0ae12c23          	sw	a4,184(sp)
    62ac:	0fc12703          	lw	a4,252(sp)
    62b0:	0ae12e23          	sw	a4,188(sp)
    62b4:	910fb0ef          	jal	13c4 <__eqtf2>
    62b8:	52051463          	bnez	a0,67e0 <_vfprintf_r+0x109c>
    62bc:	0ec12703          	lw	a4,236(sp)
    62c0:	0e812603          	lw	a2,232(sp)
    62c4:	000155b7          	lui	a1,0x15
    62c8:	f4058593          	add	a1,a1,-192 # 14f40 <_getpid_r+0x624>
    62cc:	00b42023          	sw	a1,0(s0)
    62d0:	00170713          	add	a4,a4,1
    62d4:	00100593          	li	a1,1
    62d8:	00160613          	add	a2,a2,1
    62dc:	00b42223          	sw	a1,4(s0)
    62e0:	0ee12623          	sw	a4,236(sp)
    62e4:	0ec12423          	sw	a2,232(sp)
    62e8:	00700593          	li	a1,7
    62ec:	00840413          	add	s0,s0,8
    62f0:	3cc5c8e3          	blt	a1,a2,6ec0 <_vfprintf_r+0x177c>
    62f4:	0cc12603          	lw	a2,204(sp)
    62f8:	02412783          	lw	a5,36(sp)
    62fc:	78f65663          	bge	a2,a5,6a88 <_vfprintf_r+0x1344>
    6300:	03412783          	lw	a5,52(sp)
    6304:	0e812603          	lw	a2,232(sp)
    6308:	03812683          	lw	a3,56(sp)
    630c:	00e78733          	add	a4,a5,a4
    6310:	00160613          	add	a2,a2,1
    6314:	00d42023          	sw	a3,0(s0)
    6318:	00f42223          	sw	a5,4(s0)
    631c:	0ee12623          	sw	a4,236(sp)
    6320:	0ec12423          	sw	a2,232(sp)
    6324:	00700593          	li	a1,7
    6328:	00840413          	add	s0,s0,8
    632c:	0ac5cee3          	blt	a1,a2,6be8 <_vfprintf_r+0x14a4>
    6330:	02412783          	lw	a5,36(sp)
    6334:	fff78913          	add	s2,a5,-1
    6338:	f1205863          	blez	s2,5a48 <_vfprintf_r+0x304>
    633c:	00015837          	lui	a6,0x15
    6340:	01000593          	li	a1,16
    6344:	0e812603          	lw	a2,232(sp)
    6348:	14880a93          	add	s5,a6,328 # 15148 <zeroes.0>
    634c:	3925dae3          	bge	a1,s2,6ee0 <_vfprintf_r+0x179c>
    6350:	00812c03          	lw	s8,8(sp)
    6354:	01000d13          	li	s10,16
    6358:	00700d93          	li	s11,7
    635c:	00c0006f          	j	6368 <_vfprintf_r+0xc24>
    6360:	ff090913          	add	s2,s2,-16
    6364:	372d5ee3          	bge	s10,s2,6ee0 <_vfprintf_r+0x179c>
    6368:	01070713          	add	a4,a4,16
    636c:	00160613          	add	a2,a2,1
    6370:	01542023          	sw	s5,0(s0)
    6374:	01a42223          	sw	s10,4(s0)
    6378:	0ee12623          	sw	a4,236(sp)
    637c:	0ec12423          	sw	a2,232(sp)
    6380:	00840413          	add	s0,s0,8
    6384:	fccddee3          	bge	s11,a2,6360 <_vfprintf_r+0xc1c>
    6388:	0e410613          	add	a2,sp,228
    638c:	000c0593          	mv	a1,s8
    6390:	00098513          	mv	a0,s3
    6394:	4e10a0ef          	jal	11074 <__sprint_r>
    6398:	24051863          	bnez	a0,65e8 <_vfprintf_r+0xea4>
    639c:	0ec12703          	lw	a4,236(sp)
    63a0:	0e812603          	lw	a2,232(sp)
    63a4:	000b0413          	mv	s0,s6
    63a8:	fb9ff06f          	j	6360 <_vfprintf_r+0xc1c>
    63ac:	00100713          	li	a4,1
    63b0:	00e69463          	bne	a3,a4,63b8 <_vfprintf_r+0xc74>
    63b4:	17d0106f          	j	7d30 <_vfprintf_r+0x25ec>
    63b8:	00200713          	li	a4,2
    63bc:	000b8d93          	mv	s11,s7
    63c0:	bee69ce3          	bne	a3,a4,5fb8 <_vfprintf_r+0x874>
    63c4:	03c12683          	lw	a3,60(sp)
    63c8:	1b010c13          	add	s8,sp,432
    63cc:	00fcf793          	and	a5,s9,15
    63d0:	00f687b3          	add	a5,a3,a5
    63d4:	0007c703          	lbu	a4,0(a5)
    63d8:	004cdc93          	srl	s9,s9,0x4
    63dc:	01cd1793          	sll	a5,s10,0x1c
    63e0:	0197ecb3          	or	s9,a5,s9
    63e4:	004d5d13          	srl	s10,s10,0x4
    63e8:	feec0fa3          	sb	a4,-1(s8)
    63ec:	01ace7b3          	or	a5,s9,s10
    63f0:	fffc0c13          	add	s8,s8,-1
    63f4:	fc079ce3          	bnez	a5,63cc <_vfprintf_r+0xc88>
    63f8:	1b010793          	add	a5,sp,432
    63fc:	41878d33          	sub	s10,a5,s8
    6400:	000d8b93          	mv	s7,s11
    6404:	ff8ff06f          	j	5bfc <_vfprintf_r+0x4b8>
    6408:	419a0db3          	sub	s11,s4,s9
    640c:	e1b05063          	blez	s11,5a0c <_vfprintf_r+0x2c8>
    6410:	00015837          	lui	a6,0x15
    6414:	01000513          	li	a0,16
    6418:	0ec12583          	lw	a1,236(sp)
    641c:	0e812603          	lw	a2,232(sp)
    6420:	14880a93          	add	s5,a6,328 # 15148 <zeroes.0>
    6424:	09b55463          	bge	a0,s11,64ac <_vfprintf_r+0xd68>
    6428:	00040793          	mv	a5,s0
    642c:	01000e93          	li	t4,16
    6430:	000a8413          	mv	s0,s5
    6434:	00700f13          	li	t5,7
    6438:	00090a93          	mv	s5,s2
    643c:	00088913          	mv	s2,a7
    6440:	00c0006f          	j	644c <_vfprintf_r+0xd08>
    6444:	ff0d8d93          	add	s11,s11,-16
    6448:	05beda63          	bge	t4,s11,649c <_vfprintf_r+0xd58>
    644c:	01058593          	add	a1,a1,16
    6450:	00160613          	add	a2,a2,1
    6454:	0087a023          	sw	s0,0(a5)
    6458:	01d7a223          	sw	t4,4(a5)
    645c:	0eb12623          	sw	a1,236(sp)
    6460:	0ec12423          	sw	a2,232(sp)
    6464:	00878793          	add	a5,a5,8
    6468:	fccf5ee3          	bge	t5,a2,6444 <_vfprintf_r+0xd00>
    646c:	00812583          	lw	a1,8(sp)
    6470:	0e410613          	add	a2,sp,228
    6474:	00098513          	mv	a0,s3
    6478:	3fd0a0ef          	jal	11074 <__sprint_r>
    647c:	16051663          	bnez	a0,65e8 <_vfprintf_r+0xea4>
    6480:	01000e93          	li	t4,16
    6484:	ff0d8d93          	add	s11,s11,-16
    6488:	0ec12583          	lw	a1,236(sp)
    648c:	0e812603          	lw	a2,232(sp)
    6490:	000b0793          	mv	a5,s6
    6494:	00700f13          	li	t5,7
    6498:	fbbecae3          	blt	t4,s11,644c <_vfprintf_r+0xd08>
    649c:	00090893          	mv	a7,s2
    64a0:	000a8913          	mv	s2,s5
    64a4:	00040a93          	mv	s5,s0
    64a8:	00078413          	mv	s0,a5
    64ac:	00bd85b3          	add	a1,s11,a1
    64b0:	00160613          	add	a2,a2,1
    64b4:	01542023          	sw	s5,0(s0)
    64b8:	01b42223          	sw	s11,4(s0)
    64bc:	0eb12623          	sw	a1,236(sp)
    64c0:	0ec12423          	sw	a2,232(sp)
    64c4:	00700713          	li	a4,7
    64c8:	00840413          	add	s0,s0,8
    64cc:	d4c75063          	bge	a4,a2,5a0c <_vfprintf_r+0x2c8>
    64d0:	00812583          	lw	a1,8(sp)
    64d4:	0e410613          	add	a2,sp,228
    64d8:	00098513          	mv	a0,s3
    64dc:	05112823          	sw	a7,80(sp)
    64e0:	3950a0ef          	jal	11074 <__sprint_r>
    64e4:	10051263          	bnez	a0,65e8 <_vfprintf_r+0xea4>
    64e8:	05012883          	lw	a7,80(sp)
    64ec:	000b0413          	mv	s0,s6
    64f0:	d1cff06f          	j	5a0c <_vfprintf_r+0x2c8>
    64f4:	00015837          	lui	a6,0x15
    64f8:	01000713          	li	a4,16
    64fc:	0ec12583          	lw	a1,236(sp)
    6500:	0e812603          	lw	a2,232(sp)
    6504:	14880a93          	add	s5,a6,328 # 15148 <zeroes.0>
    6508:	09275263          	bge	a4,s2,658c <_vfprintf_r+0xe48>
    650c:	00040793          	mv	a5,s0
    6510:	00c12a83          	lw	s5,12(sp)
    6514:	00090413          	mv	s0,s2
    6518:	01000713          	li	a4,16
    651c:	00700d93          	li	s11,7
    6520:	00088913          	mv	s2,a7
    6524:	00c0006f          	j	6530 <_vfprintf_r+0xdec>
    6528:	ff040413          	add	s0,s0,-16
    652c:	04875a63          	bge	a4,s0,6580 <_vfprintf_r+0xe3c>
    6530:	00c12683          	lw	a3,12(sp)
    6534:	01058593          	add	a1,a1,16
    6538:	00160613          	add	a2,a2,1
    653c:	00d7a023          	sw	a3,0(a5)
    6540:	00e7a223          	sw	a4,4(a5)
    6544:	0eb12623          	sw	a1,236(sp)
    6548:	0ec12423          	sw	a2,232(sp)
    654c:	00878793          	add	a5,a5,8
    6550:	fccddce3          	bge	s11,a2,6528 <_vfprintf_r+0xde4>
    6554:	00812583          	lw	a1,8(sp)
    6558:	0e410613          	add	a2,sp,228
    655c:	00098513          	mv	a0,s3
    6560:	3150a0ef          	jal	11074 <__sprint_r>
    6564:	08051263          	bnez	a0,65e8 <_vfprintf_r+0xea4>
    6568:	01000713          	li	a4,16
    656c:	ff040413          	add	s0,s0,-16
    6570:	0ec12583          	lw	a1,236(sp)
    6574:	0e812603          	lw	a2,232(sp)
    6578:	000b0793          	mv	a5,s6
    657c:	fa874ae3          	blt	a4,s0,6530 <_vfprintf_r+0xdec>
    6580:	00090893          	mv	a7,s2
    6584:	00040913          	mv	s2,s0
    6588:	00078413          	mv	s0,a5
    658c:	00b905b3          	add	a1,s2,a1
    6590:	00160613          	add	a2,a2,1
    6594:	01542023          	sw	s5,0(s0)
    6598:	01242223          	sw	s2,4(s0)
    659c:	0eb12623          	sw	a1,236(sp)
    65a0:	0ec12423          	sw	a2,232(sp)
    65a4:	00700713          	li	a4,7
    65a8:	00840413          	add	s0,s0,8
    65ac:	c6c75463          	bge	a4,a2,5a14 <_vfprintf_r+0x2d0>
    65b0:	00812583          	lw	a1,8(sp)
    65b4:	0e410613          	add	a2,sp,228
    65b8:	00098513          	mv	a0,s3
    65bc:	05112823          	sw	a7,80(sp)
    65c0:	2b50a0ef          	jal	11074 <__sprint_r>
    65c4:	02051263          	bnez	a0,65e8 <_vfprintf_r+0xea4>
    65c8:	05012883          	lw	a7,80(sp)
    65cc:	000b0413          	mv	s0,s6
    65d0:	c44ff06f          	j	5a14 <_vfprintf_r+0x2d0>
    65d4:	00812583          	lw	a1,8(sp)
    65d8:	0e410613          	add	a2,sp,228
    65dc:	00098513          	mv	a0,s3
    65e0:	2950a0ef          	jal	11074 <__sprint_r>
    65e4:	c8050863          	beqz	a0,5a74 <_vfprintf_r+0x330>
    65e8:	01412f03          	lw	t5,20(sp)
    65ec:	ca0f0e63          	beqz	t5,5aa8 <_vfprintf_r+0x364>
    65f0:	03012503          	lw	a0,48(sp)
    65f4:	000f0593          	mv	a1,t5
    65f8:	668020ef          	jal	8c60 <_free_r>
    65fc:	cacff06f          	j	5aa8 <_vfprintf_r+0x364>
    6600:	000b8d93          	mv	s11,s7
    6604:	9a5ff06f          	j	5fa8 <_vfprintf_r+0x864>
    6608:	00015837          	lui	a6,0x15
    660c:	01000513          	li	a0,16
    6610:	0ec12583          	lw	a1,236(sp)
    6614:	0e812603          	lw	a2,232(sp)
    6618:	15880a93          	add	s5,a6,344 # 15158 <blanks.1>
    661c:	0ae55063          	bge	a0,a4,66bc <_vfprintf_r+0xf78>
    6620:	04912a23          	sw	s1,84(sp)
    6624:	00040793          	mv	a5,s0
    6628:	000a8493          	mv	s1,s5
    662c:	01000e93          	li	t4,16
    6630:	00090a93          	mv	s5,s2
    6634:	00700393          	li	t2,7
    6638:	05f12823          	sw	t6,80(sp)
    663c:	00070413          	mv	s0,a4
    6640:	00088913          	mv	s2,a7
    6644:	00c0006f          	j	6650 <_vfprintf_r+0xf0c>
    6648:	ff040413          	add	s0,s0,-16
    664c:	048eda63          	bge	t4,s0,66a0 <_vfprintf_r+0xf5c>
    6650:	01058593          	add	a1,a1,16
    6654:	00160613          	add	a2,a2,1
    6658:	0097a023          	sw	s1,0(a5)
    665c:	01d7a223          	sw	t4,4(a5)
    6660:	0eb12623          	sw	a1,236(sp)
    6664:	0ec12423          	sw	a2,232(sp)
    6668:	00878793          	add	a5,a5,8
    666c:	fcc3dee3          	bge	t2,a2,6648 <_vfprintf_r+0xf04>
    6670:	00812583          	lw	a1,8(sp)
    6674:	0e410613          	add	a2,sp,228
    6678:	00098513          	mv	a0,s3
    667c:	1f90a0ef          	jal	11074 <__sprint_r>
    6680:	f60514e3          	bnez	a0,65e8 <_vfprintf_r+0xea4>
    6684:	01000e93          	li	t4,16
    6688:	ff040413          	add	s0,s0,-16
    668c:	0ec12583          	lw	a1,236(sp)
    6690:	0e812603          	lw	a2,232(sp)
    6694:	000b0793          	mv	a5,s6
    6698:	00700393          	li	t2,7
    669c:	fa8ecae3          	blt	t4,s0,6650 <_vfprintf_r+0xf0c>
    66a0:	00090893          	mv	a7,s2
    66a4:	05012f83          	lw	t6,80(sp)
    66a8:	000a8913          	mv	s2,s5
    66ac:	00048a93          	mv	s5,s1
    66b0:	05412483          	lw	s1,84(sp)
    66b4:	00040713          	mv	a4,s0
    66b8:	00078413          	mv	s0,a5
    66bc:	00b705b3          	add	a1,a4,a1
    66c0:	00160613          	add	a2,a2,1
    66c4:	00e42223          	sw	a4,4(s0)
    66c8:	01542023          	sw	s5,0(s0)
    66cc:	0eb12623          	sw	a1,236(sp)
    66d0:	0ec12423          	sw	a2,232(sp)
    66d4:	00700713          	li	a4,7
    66d8:	00840413          	add	s0,s0,8
    66dc:	aac75a63          	bge	a4,a2,5990 <_vfprintf_r+0x24c>
    66e0:	00812583          	lw	a1,8(sp)
    66e4:	0e410613          	add	a2,sp,228
    66e8:	00098513          	mv	a0,s3
    66ec:	05112a23          	sw	a7,84(sp)
    66f0:	05f12823          	sw	t6,80(sp)
    66f4:	1810a0ef          	jal	11074 <__sprint_r>
    66f8:	ee0518e3          	bnez	a0,65e8 <_vfprintf_r+0xea4>
    66fc:	05412883          	lw	a7,84(sp)
    6700:	05012f83          	lw	t6,80(sp)
    6704:	000b0413          	mv	s0,s6
    6708:	a88ff06f          	j	5990 <_vfprintf_r+0x24c>
    670c:	00812583          	lw	a1,8(sp)
    6710:	0e410613          	add	a2,sp,228
    6714:	00098513          	mv	a0,s3
    6718:	05112823          	sw	a7,80(sp)
    671c:	1590a0ef          	jal	11074 <__sprint_r>
    6720:	ec0514e3          	bnez	a0,65e8 <_vfprintf_r+0xea4>
    6724:	05012883          	lw	a7,80(sp)
    6728:	000b0413          	mv	s0,s6
    672c:	ad8ff06f          	j	5a04 <_vfprintf_r+0x2c0>
    6730:	00015837          	lui	a6,0x15
    6734:	01000613          	li	a2,16
    6738:	0e812783          	lw	a5,232(sp)
    673c:	15880a93          	add	s5,a6,344 # 15158 <blanks.1>
    6740:	07265263          	bge	a2,s2,67a4 <_vfprintf_r+0x1060>
    6744:	00812b83          	lw	s7,8(sp)
    6748:	01000d13          	li	s10,16
    674c:	00700d93          	li	s11,7
    6750:	00c0006f          	j	675c <_vfprintf_r+0x1018>
    6754:	ff090913          	add	s2,s2,-16
    6758:	052d5663          	bge	s10,s2,67a4 <_vfprintf_r+0x1060>
    675c:	01070713          	add	a4,a4,16
    6760:	00178793          	add	a5,a5,1
    6764:	01542023          	sw	s5,0(s0)
    6768:	01a42223          	sw	s10,4(s0)
    676c:	0ee12623          	sw	a4,236(sp)
    6770:	0ef12423          	sw	a5,232(sp)
    6774:	00840413          	add	s0,s0,8
    6778:	fcfddee3          	bge	s11,a5,6754 <_vfprintf_r+0x1010>
    677c:	0e410613          	add	a2,sp,228
    6780:	000b8593          	mv	a1,s7
    6784:	00098513          	mv	a0,s3
    6788:	0ed0a0ef          	jal	11074 <__sprint_r>
    678c:	e4051ee3          	bnez	a0,65e8 <_vfprintf_r+0xea4>
    6790:	ff090913          	add	s2,s2,-16
    6794:	0ec12703          	lw	a4,236(sp)
    6798:	0e812783          	lw	a5,232(sp)
    679c:	000b0413          	mv	s0,s6
    67a0:	fb2d4ee3          	blt	s10,s2,675c <_vfprintf_r+0x1018>
    67a4:	01270733          	add	a4,a4,s2
    67a8:	00178793          	add	a5,a5,1
    67ac:	01542023          	sw	s5,0(s0)
    67b0:	01242223          	sw	s2,4(s0)
    67b4:	0ee12623          	sw	a4,236(sp)
    67b8:	0ef12423          	sw	a5,232(sp)
    67bc:	00700613          	li	a2,7
    67c0:	a8f65c63          	bge	a2,a5,5a58 <_vfprintf_r+0x314>
    67c4:	00812583          	lw	a1,8(sp)
    67c8:	0e410613          	add	a2,sp,228
    67cc:	00098513          	mv	a0,s3
    67d0:	0a50a0ef          	jal	11074 <__sprint_r>
    67d4:	e0051ae3          	bnez	a0,65e8 <_vfprintf_r+0xea4>
    67d8:	0ec12703          	lw	a4,236(sp)
    67dc:	a7cff06f          	j	5a58 <_vfprintf_r+0x314>
    67e0:	0cc12503          	lw	a0,204(sp)
    67e4:	64a05c63          	blez	a0,6e3c <_vfprintf_r+0x16f8>
    67e8:	02412783          	lw	a5,36(sp)
    67ec:	00fc0733          	add	a4,s8,a5
    67f0:	04e12823          	sw	a4,80(sp)
    67f4:	02012703          	lw	a4,32(sp)
    67f8:	00070913          	mv	s2,a4
    67fc:	34e7cc63          	blt	a5,a4,6b54 <_vfprintf_r+0x1410>
    6800:	0ec12703          	lw	a4,236(sp)
    6804:	03205663          	blez	s2,6830 <_vfprintf_r+0x10ec>
    6808:	0e812603          	lw	a2,232(sp)
    680c:	01270733          	add	a4,a4,s2
    6810:	01842023          	sw	s8,0(s0)
    6814:	00160613          	add	a2,a2,1
    6818:	01242223          	sw	s2,4(s0)
    681c:	0ee12623          	sw	a4,236(sp)
    6820:	0ec12423          	sw	a2,232(sp)
    6824:	00700593          	li	a1,7
    6828:	00840413          	add	s0,s0,8
    682c:	58c5c4e3          	blt	a1,a2,75b4 <_vfprintf_r+0x1e70>
    6830:	fff94613          	not	a2,s2
    6834:	02012783          	lw	a5,32(sp)
    6838:	41f65613          	sra	a2,a2,0x1f
    683c:	00c97833          	and	a6,s2,a2
    6840:	41078933          	sub	s2,a5,a6
    6844:	3f204a63          	bgtz	s2,6c38 <_vfprintf_r+0x14f4>
    6848:	02012783          	lw	a5,32(sp)
    684c:	400bf613          	and	a2,s7,1024
    6850:	00fc0c33          	add	s8,s8,a5
    6854:	06061ce3          	bnez	a2,70cc <_vfprintf_r+0x1988>
    6858:	0cc12603          	lw	a2,204(sp)
    685c:	02412783          	lw	a5,36(sp)
    6860:	00f64663          	blt	a2,a5,686c <_vfprintf_r+0x1128>
    6864:	001bf593          	and	a1,s7,1
    6868:	56058ce3          	beqz	a1,75e0 <_vfprintf_r+0x1e9c>
    686c:	03412783          	lw	a5,52(sp)
    6870:	0e812583          	lw	a1,232(sp)
    6874:	03812683          	lw	a3,56(sp)
    6878:	00e78733          	add	a4,a5,a4
    687c:	00158593          	add	a1,a1,1
    6880:	00d42023          	sw	a3,0(s0)
    6884:	00f42223          	sw	a5,4(s0)
    6888:	0ee12623          	sw	a4,236(sp)
    688c:	0eb12423          	sw	a1,232(sp)
    6890:	00700513          	li	a0,7
    6894:	00840413          	add	s0,s0,8
    6898:	00b55463          	bge	a0,a1,68a0 <_vfprintf_r+0x115c>
    689c:	4040106f          	j	7ca0 <_vfprintf_r+0x255c>
    68a0:	02412783          	lw	a5,36(sp)
    68a4:	40c78633          	sub	a2,a5,a2
    68a8:	05012783          	lw	a5,80(sp)
    68ac:	41878933          	sub	s2,a5,s8
    68b0:	01265463          	bge	a2,s2,68b8 <_vfprintf_r+0x1174>
    68b4:	00060913          	mv	s2,a2
    68b8:	03205863          	blez	s2,68e8 <_vfprintf_r+0x11a4>
    68bc:	0e812583          	lw	a1,232(sp)
    68c0:	01270733          	add	a4,a4,s2
    68c4:	01842023          	sw	s8,0(s0)
    68c8:	00158593          	add	a1,a1,1
    68cc:	01242223          	sw	s2,4(s0)
    68d0:	0ee12623          	sw	a4,236(sp)
    68d4:	0eb12423          	sw	a1,232(sp)
    68d8:	00700513          	li	a0,7
    68dc:	00840413          	add	s0,s0,8
    68e0:	00b55463          	bge	a0,a1,68e8 <_vfprintf_r+0x11a4>
    68e4:	41c0106f          	j	7d00 <_vfprintf_r+0x25bc>
    68e8:	fff94593          	not	a1,s2
    68ec:	41f5d593          	sra	a1,a1,0x1f
    68f0:	00b97d33          	and	s10,s2,a1
    68f4:	41a60933          	sub	s2,a2,s10
    68f8:	95205863          	blez	s2,5a48 <_vfprintf_r+0x304>
    68fc:	00015837          	lui	a6,0x15
    6900:	01000593          	li	a1,16
    6904:	0e812603          	lw	a2,232(sp)
    6908:	14880a93          	add	s5,a6,328 # 15148 <zeroes.0>
    690c:	5d25da63          	bge	a1,s2,6ee0 <_vfprintf_r+0x179c>
    6910:	00812c03          	lw	s8,8(sp)
    6914:	01000d13          	li	s10,16
    6918:	00700d93          	li	s11,7
    691c:	00c0006f          	j	6928 <_vfprintf_r+0x11e4>
    6920:	ff090913          	add	s2,s2,-16
    6924:	5b2d5e63          	bge	s10,s2,6ee0 <_vfprintf_r+0x179c>
    6928:	01070713          	add	a4,a4,16
    692c:	00160613          	add	a2,a2,1
    6930:	01542023          	sw	s5,0(s0)
    6934:	01a42223          	sw	s10,4(s0)
    6938:	0ee12623          	sw	a4,236(sp)
    693c:	0ec12423          	sw	a2,232(sp)
    6940:	00840413          	add	s0,s0,8
    6944:	fccddee3          	bge	s11,a2,6920 <_vfprintf_r+0x11dc>
    6948:	0e410613          	add	a2,sp,228
    694c:	000c0593          	mv	a1,s8
    6950:	00098513          	mv	a0,s3
    6954:	7200a0ef          	jal	11074 <__sprint_r>
    6958:	c80518e3          	bnez	a0,65e8 <_vfprintf_r+0xea4>
    695c:	0ec12703          	lw	a4,236(sp)
    6960:	0e812603          	lw	a2,232(sp)
    6964:	000b0413          	mv	s0,s6
    6968:	fb9ff06f          	j	6920 <_vfprintf_r+0x11dc>
    696c:	001bf713          	and	a4,s7,1
    6970:	c8071c63          	bnez	a4,5e08 <_vfprintf_r+0x6c4>
    6974:	0ec12703          	lw	a4,236(sp)
    6978:	0e812603          	lw	a2,232(sp)
    697c:	01842023          	sw	s8,0(s0)
    6980:	00170d93          	add	s11,a4,1
    6984:	00160913          	add	s2,a2,1
    6988:	00b42223          	sw	a1,4(s0)
    698c:	0fb12623          	sw	s11,236(sp)
    6990:	0f212423          	sw	s2,232(sp)
    6994:	00700713          	li	a4,7
    6998:	d3275c63          	bge	a4,s2,5ed0 <_vfprintf_r+0x78c>
    699c:	00812583          	lw	a1,8(sp)
    69a0:	0e410613          	add	a2,sp,228
    69a4:	00098513          	mv	a0,s3
    69a8:	6cc0a0ef          	jal	11074 <__sprint_r>
    69ac:	c2051ee3          	bnez	a0,65e8 <_vfprintf_r+0xea4>
    69b0:	0ec12d83          	lw	s11,236(sp)
    69b4:	0e812903          	lw	s2,232(sp)
    69b8:	000b0d13          	mv	s10,s6
    69bc:	d14ff06f          	j	5ed0 <_vfprintf_r+0x78c>
    69c0:	02412783          	lw	a5,36(sp)
    69c4:	00100713          	li	a4,1
    69c8:	d0f75463          	bge	a4,a5,5ed0 <_vfprintf_r+0x78c>
    69cc:	00015837          	lui	a6,0x15
    69d0:	01100713          	li	a4,17
    69d4:	14880a93          	add	s5,a6,328 # 15148 <zeroes.0>
    69d8:	5cf75c63          	bge	a4,a5,6fb0 <_vfprintf_r+0x186c>
    69dc:	000a8793          	mv	a5,s5
    69e0:	01000713          	li	a4,16
    69e4:	000a0a93          	mv	s5,s4
    69e8:	00700c13          	li	s8,7
    69ec:	00048a13          	mv	s4,s1
    69f0:	00078493          	mv	s1,a5
    69f4:	00c0006f          	j	6a00 <_vfprintf_r+0x12bc>
    69f8:	ff040413          	add	s0,s0,-16
    69fc:	5a875263          	bge	a4,s0,6fa0 <_vfprintf_r+0x185c>
    6a00:	010d8d93          	add	s11,s11,16
    6a04:	00190913          	add	s2,s2,1
    6a08:	009d2023          	sw	s1,0(s10)
    6a0c:	00ed2223          	sw	a4,4(s10)
    6a10:	0fb12623          	sw	s11,236(sp)
    6a14:	0f212423          	sw	s2,232(sp)
    6a18:	008d0d13          	add	s10,s10,8
    6a1c:	fd2c5ee3          	bge	s8,s2,69f8 <_vfprintf_r+0x12b4>
    6a20:	00812583          	lw	a1,8(sp)
    6a24:	0e410613          	add	a2,sp,228
    6a28:	00098513          	mv	a0,s3
    6a2c:	6480a0ef          	jal	11074 <__sprint_r>
    6a30:	ba051ce3          	bnez	a0,65e8 <_vfprintf_r+0xea4>
    6a34:	0ec12d83          	lw	s11,236(sp)
    6a38:	0e812903          	lw	s2,232(sp)
    6a3c:	000b0d13          	mv	s10,s6
    6a40:	01000713          	li	a4,16
    6a44:	fb5ff06f          	j	69f8 <_vfprintf_r+0x12b4>
    6a48:	01812703          	lw	a4,24(sp)
    6a4c:	010df793          	and	a5,s11,16
    6a50:	00072c83          	lw	s9,0(a4)
    6a54:	00470713          	add	a4,a4,4
    6a58:	00e12c23          	sw	a4,24(sp)
    6a5c:	04079a63          	bnez	a5,6ab0 <_vfprintf_r+0x136c>
    6a60:	040df793          	and	a5,s11,64
    6a64:	04078063          	beqz	a5,6aa4 <_vfprintf_r+0x1360>
    6a68:	010c9c93          	sll	s9,s9,0x10
    6a6c:	010cdc93          	srl	s9,s9,0x10
    6a70:	00000d13          	li	s10,0
    6a74:	00100693          	li	a3,1
    6a78:	9e0ff06f          	j	5c58 <_vfprintf_r+0x514>
    6a7c:	00000d13          	li	s10,0
    6a80:	1b010c13          	add	s8,sp,432
    6a84:	978ff06f          	j	5bfc <_vfprintf_r+0x4b8>
    6a88:	001bf613          	and	a2,s7,1
    6a8c:	00061463          	bnez	a2,6a94 <_vfprintf_r+0x1350>
    6a90:	fb9fe06f          	j	5a48 <_vfprintf_r+0x304>
    6a94:	86dff06f          	j	6300 <_vfprintf_r+0xbbc>
    6a98:	0004c883          	lbu	a7,0(s1)
    6a9c:	00f12c23          	sw	a5,24(sp)
    6aa0:	e55fe06f          	j	58f4 <_vfprintf_r+0x1b0>
    6aa4:	200df793          	and	a5,s11,512
    6aa8:	00078463          	beqz	a5,6ab0 <_vfprintf_r+0x136c>
    6aac:	0ffcfc93          	zext.b	s9,s9
    6ab0:	00000d13          	li	s10,0
    6ab4:	00100693          	li	a3,1
    6ab8:	9a0ff06f          	j	5c58 <_vfprintf_r+0x514>
    6abc:	200bf713          	and	a4,s7,512
    6ac0:	360716e3          	bnez	a4,762c <_vfprintf_r+0x1ee8>
    6ac4:	00000d13          	li	s10,0
    6ac8:	988ff06f          	j	5c50 <_vfprintf_r+0x50c>
    6acc:	200bf713          	and	a4,s7,512
    6ad0:	340714e3          	bnez	a4,7618 <_vfprintf_r+0x1ed4>
    6ad4:	41fcdd13          	sra	s10,s9,0x1f
    6ad8:	000d0713          	mv	a4,s10
    6adc:	8f4ff06f          	j	5bd0 <_vfprintf_r+0x48c>
    6ae0:	01812783          	lw	a5,24(sp)
    6ae4:	0007a703          	lw	a4,0(a5)
    6ae8:	00478793          	add	a5,a5,4
    6aec:	00f12c23          	sw	a5,24(sp)
    6af0:	00072583          	lw	a1,0(a4)
    6af4:	00472603          	lw	a2,4(a4)
    6af8:	00872683          	lw	a3,8(a4)
    6afc:	00c72703          	lw	a4,12(a4)
    6b00:	a08ff06f          	j	5d08 <_vfprintf_r+0x5c4>
    6b04:	010bf713          	and	a4,s7,16
    6b08:	48071263          	bnez	a4,6f8c <_vfprintf_r+0x1848>
    6b0c:	040bf713          	and	a4,s7,64
    6b10:	2e0714e3          	bnez	a4,75f8 <_vfprintf_r+0x1eb4>
    6b14:	200bf793          	and	a5,s7,512
    6b18:	46078a63          	beqz	a5,6f8c <_vfprintf_r+0x1848>
    6b1c:	01812783          	lw	a5,24(sp)
    6b20:	01012703          	lw	a4,16(sp)
    6b24:	0007a783          	lw	a5,0(a5)
    6b28:	00e78023          	sb	a4,0(a5)
    6b2c:	f34ff06f          	j	6260 <_vfprintf_r+0xb1c>
    6b30:	04012783          	lw	a5,64(sp)
    6b34:	0004c883          	lbu	a7,0(s1)
    6b38:	00079463          	bnez	a5,6b40 <_vfprintf_r+0x13fc>
    6b3c:	db9fe06f          	j	58f4 <_vfprintf_r+0x1b0>
    6b40:	0007c783          	lbu	a5,0(a5)
    6b44:	00079463          	bnez	a5,6b4c <_vfprintf_r+0x1408>
    6b48:	dadfe06f          	j	58f4 <_vfprintf_r+0x1b0>
    6b4c:	400beb93          	or	s7,s7,1024
    6b50:	da5fe06f          	j	58f4 <_vfprintf_r+0x1b0>
    6b54:	00078913          	mv	s2,a5
    6b58:	0ec12703          	lw	a4,236(sp)
    6b5c:	cb2046e3          	bgtz	s2,6808 <_vfprintf_r+0x10c4>
    6b60:	cd1ff06f          	j	6830 <_vfprintf_r+0x10ec>
    6b64:	000b8d93          	mv	s11,s7
    6b68:	e48ff06f          	j	61b0 <_vfprintf_r+0xa6c>
    6b6c:	00015737          	lui	a4,0x15
    6b70:	f2470793          	add	a5,a4,-220 # 14f24 <_getpid_r+0x608>
    6b74:	02f12e23          	sw	a5,60(sp)
    6b78:	020bf713          	and	a4,s7,32
    6b7c:	12070863          	beqz	a4,6cac <_vfprintf_r+0x1568>
    6b80:	01812783          	lw	a5,24(sp)
    6b84:	00778a93          	add	s5,a5,7
    6b88:	ff8afa93          	and	s5,s5,-8
    6b8c:	000aac83          	lw	s9,0(s5)
    6b90:	004aad03          	lw	s10,4(s5)
    6b94:	008a8793          	add	a5,s5,8
    6b98:	00f12c23          	sw	a5,24(sp)
    6b9c:	001bf713          	and	a4,s7,1
    6ba0:	00070e63          	beqz	a4,6bbc <_vfprintf_r+0x1478>
    6ba4:	01ace733          	or	a4,s9,s10
    6ba8:	00070a63          	beqz	a4,6bbc <_vfprintf_r+0x1478>
    6bac:	03000713          	li	a4,48
    6bb0:	0ce10423          	sb	a4,200(sp)
    6bb4:	0d1104a3          	sb	a7,201(sp)
    6bb8:	002beb93          	or	s7,s7,2
    6bbc:	bffbfd93          	and	s11,s7,-1025
    6bc0:	00200693          	li	a3,2
    6bc4:	894ff06f          	j	5c58 <_vfprintf_r+0x514>
    6bc8:	0014c883          	lbu	a7,1(s1)
    6bcc:	200beb93          	or	s7,s7,512
    6bd0:	00148493          	add	s1,s1,1
    6bd4:	d21fe06f          	j	58f4 <_vfprintf_r+0x1b0>
    6bd8:	00015737          	lui	a4,0x15
    6bdc:	f1070793          	add	a5,a4,-240 # 14f10 <_getpid_r+0x5f4>
    6be0:	02f12e23          	sw	a5,60(sp)
    6be4:	f95ff06f          	j	6b78 <_vfprintf_r+0x1434>
    6be8:	00812583          	lw	a1,8(sp)
    6bec:	0e410613          	add	a2,sp,228
    6bf0:	00098513          	mv	a0,s3
    6bf4:	4800a0ef          	jal	11074 <__sprint_r>
    6bf8:	9e0518e3          	bnez	a0,65e8 <_vfprintf_r+0xea4>
    6bfc:	0ec12703          	lw	a4,236(sp)
    6c00:	000b0413          	mv	s0,s6
    6c04:	f2cff06f          	j	6330 <_vfprintf_r+0xbec>
    6c08:	0014c883          	lbu	a7,1(s1)
    6c0c:	020beb93          	or	s7,s7,32
    6c10:	00148493          	add	s1,s1,1
    6c14:	ce1fe06f          	j	58f4 <_vfprintf_r+0x1b0>
    6c18:	00600713          	li	a4,6
    6c1c:	00090d13          	mv	s10,s2
    6c20:	1b276ce3          	bltu	a4,s2,75d8 <_vfprintf_r+0x1e94>
    6c24:	000152b7          	lui	t0,0x15
    6c28:	000d0c93          	mv	s9,s10
    6c2c:	01512c23          	sw	s5,24(sp)
    6c30:	f3828c13          	add	s8,t0,-200 # 14f38 <_getpid_r+0x61c>
    6c34:	d2dfe06f          	j	5960 <_vfprintf_r+0x21c>
    6c38:	00015837          	lui	a6,0x15
    6c3c:	01000593          	li	a1,16
    6c40:	0e812603          	lw	a2,232(sp)
    6c44:	14880a93          	add	s5,a6,328 # 15148 <zeroes.0>
    6c48:	4525d063          	bge	a1,s2,7088 <_vfprintf_r+0x1944>
    6c4c:	00812d83          	lw	s11,8(sp)
    6c50:	01000e13          	li	t3,16
    6c54:	00700d13          	li	s10,7
    6c58:	00c0006f          	j	6c64 <_vfprintf_r+0x1520>
    6c5c:	ff090913          	add	s2,s2,-16
    6c60:	432e5463          	bge	t3,s2,7088 <_vfprintf_r+0x1944>
    6c64:	01070713          	add	a4,a4,16
    6c68:	00160613          	add	a2,a2,1
    6c6c:	01542023          	sw	s5,0(s0)
    6c70:	01c42223          	sw	t3,4(s0)
    6c74:	0ee12623          	sw	a4,236(sp)
    6c78:	0ec12423          	sw	a2,232(sp)
    6c7c:	00840413          	add	s0,s0,8
    6c80:	fccd5ee3          	bge	s10,a2,6c5c <_vfprintf_r+0x1518>
    6c84:	0e410613          	add	a2,sp,228
    6c88:	000d8593          	mv	a1,s11
    6c8c:	00098513          	mv	a0,s3
    6c90:	3e40a0ef          	jal	11074 <__sprint_r>
    6c94:	94051ae3          	bnez	a0,65e8 <_vfprintf_r+0xea4>
    6c98:	0ec12703          	lw	a4,236(sp)
    6c9c:	0e812603          	lw	a2,232(sp)
    6ca0:	000b0413          	mv	s0,s6
    6ca4:	01000e13          	li	t3,16
    6ca8:	fb5ff06f          	j	6c5c <_vfprintf_r+0x1518>
    6cac:	01812783          	lw	a5,24(sp)
    6cb0:	010bf713          	and	a4,s7,16
    6cb4:	0007ac83          	lw	s9,0(a5)
    6cb8:	00478793          	add	a5,a5,4
    6cbc:	00f12c23          	sw	a5,24(sp)
    6cc0:	06071663          	bnez	a4,6d2c <_vfprintf_r+0x15e8>
    6cc4:	040bf713          	and	a4,s7,64
    6cc8:	04070e63          	beqz	a4,6d24 <_vfprintf_r+0x15e0>
    6ccc:	010c9c93          	sll	s9,s9,0x10
    6cd0:	010cdc93          	srl	s9,s9,0x10
    6cd4:	00000d13          	li	s10,0
    6cd8:	ec5ff06f          	j	6b9c <_vfprintf_r+0x1458>
    6cdc:	00812583          	lw	a1,8(sp)
    6ce0:	0e410613          	add	a2,sp,228
    6ce4:	00098513          	mv	a0,s3
    6ce8:	38c0a0ef          	jal	11074 <__sprint_r>
    6cec:	8e051ee3          	bnez	a0,65e8 <_vfprintf_r+0xea4>
    6cf0:	0ec12703          	lw	a4,236(sp)
    6cf4:	0e812603          	lw	a2,232(sp)
    6cf8:	000b0d13          	mv	s10,s6
    6cfc:	938ff06f          	j	5e34 <_vfprintf_r+0x6f0>
    6d00:	00812583          	lw	a1,8(sp)
    6d04:	0e410613          	add	a2,sp,228
    6d08:	00098513          	mv	a0,s3
    6d0c:	3680a0ef          	jal	11074 <__sprint_r>
    6d10:	8c051ce3          	bnez	a0,65e8 <_vfprintf_r+0xea4>
    6d14:	0ec12d83          	lw	s11,236(sp)
    6d18:	0e812903          	lw	s2,232(sp)
    6d1c:	000b0d13          	mv	s10,s6
    6d20:	940ff06f          	j	5e60 <_vfprintf_r+0x71c>
    6d24:	200bf713          	and	a4,s7,512
    6d28:	0e0712e3          	bnez	a4,760c <_vfprintf_r+0x1ec8>
    6d2c:	00000d13          	li	s10,0
    6d30:	e6dff06f          	j	6b9c <_vfprintf_r+0x1458>
    6d34:	ccccde37          	lui	t3,0xccccd
    6d38:	04012703          	lw	a4,64(sp)
    6d3c:	400dfe93          	and	t4,s11,1024
    6d40:	00000593          	li	a1,0
    6d44:	1b010613          	add	a2,sp,432
    6d48:	00500813          	li	a6,5
    6d4c:	ccde0693          	add	a3,t3,-819 # cccccccd <_end+0xcccb2cfd>
    6d50:	ccce0b93          	add	s7,t3,-820
    6d54:	0ff00a93          	li	s5,255
    6d58:	0540006f          	j	6dac <_vfprintf_r+0x1668>
    6d5c:	019c37b3          	sltu	a5,s8,s9
    6d60:	00fc07b3          	add	a5,s8,a5
    6d64:	0307f7b3          	remu	a5,a5,a6
    6d68:	40fc87b3          	sub	a5,s9,a5
    6d6c:	00fcb633          	sltu	a2,s9,a5
    6d70:	40cd0633          	sub	a2,s10,a2
    6d74:	03778e33          	mul	t3,a5,s7
    6d78:	02d60633          	mul	a2,a2,a3
    6d7c:	02d7b533          	mulhu	a0,a5,a3
    6d80:	01c60633          	add	a2,a2,t3
    6d84:	02d787b3          	mul	a5,a5,a3
    6d88:	00a60633          	add	a2,a2,a0
    6d8c:	01f61513          	sll	a0,a2,0x1f
    6d90:	00165613          	srl	a2,a2,0x1
    6d94:	0017d793          	srl	a5,a5,0x1
    6d98:	00f567b3          	or	a5,a0,a5
    6d9c:	6e0d02e3          	beqz	s10,7c80 <_vfprintf_r+0x253c>
    6da0:	00060d13          	mv	s10,a2
    6da4:	00078c93          	mv	s9,a5
    6da8:	00030613          	mv	a2,t1
    6dac:	01ac8c33          	add	s8,s9,s10
    6db0:	019c37b3          	sltu	a5,s8,s9
    6db4:	00fc07b3          	add	a5,s8,a5
    6db8:	0307f7b3          	remu	a5,a5,a6
    6dbc:	fff60313          	add	t1,a2,-1
    6dc0:	00158593          	add	a1,a1,1
    6dc4:	40fc87b3          	sub	a5,s9,a5
    6dc8:	00fcb533          	sltu	a0,s9,a5
    6dcc:	40ad0533          	sub	a0,s10,a0
    6dd0:	02d7be33          	mulhu	t3,a5,a3
    6dd4:	02d50533          	mul	a0,a0,a3
    6dd8:	02d787b3          	mul	a5,a5,a3
    6ddc:	01c50533          	add	a0,a0,t3
    6de0:	01f51513          	sll	a0,a0,0x1f
    6de4:	0017d793          	srl	a5,a5,0x1
    6de8:	00f567b3          	or	a5,a0,a5
    6dec:	00279513          	sll	a0,a5,0x2
    6df0:	00f507b3          	add	a5,a0,a5
    6df4:	00179793          	sll	a5,a5,0x1
    6df8:	40fc87b3          	sub	a5,s9,a5
    6dfc:	03078793          	add	a5,a5,48
    6e00:	fef60fa3          	sb	a5,-1(a2)
    6e04:	f40e8ce3          	beqz	t4,6d5c <_vfprintf_r+0x1618>
    6e08:	00074783          	lbu	a5,0(a4)
    6e0c:	f4f598e3          	bne	a1,a5,6d5c <_vfprintf_r+0x1618>
    6e10:	f55586e3          	beq	a1,s5,6d5c <_vfprintf_r+0x1618>
    6e14:	4a0d1263          	bnez	s10,72b8 <_vfprintf_r+0x1b74>
    6e18:	00900793          	li	a5,9
    6e1c:	4997ee63          	bltu	a5,s9,72b8 <_vfprintf_r+0x1b74>
    6e20:	00030c13          	mv	s8,t1
    6e24:	1b010793          	add	a5,sp,432
    6e28:	02b12223          	sw	a1,36(sp)
    6e2c:	04e12023          	sw	a4,64(sp)
    6e30:	41878d33          	sub	s10,a5,s8
    6e34:	000d8b93          	mv	s7,s11
    6e38:	dc5fe06f          	j	5bfc <_vfprintf_r+0x4b8>
    6e3c:	0ec12703          	lw	a4,236(sp)
    6e40:	0e812603          	lw	a2,232(sp)
    6e44:	000155b7          	lui	a1,0x15
    6e48:	f4058593          	add	a1,a1,-192 # 14f40 <_getpid_r+0x624>
    6e4c:	00b42023          	sw	a1,0(s0)
    6e50:	00170713          	add	a4,a4,1
    6e54:	00100593          	li	a1,1
    6e58:	00160613          	add	a2,a2,1
    6e5c:	00b42223          	sw	a1,4(s0)
    6e60:	0ee12623          	sw	a4,236(sp)
    6e64:	0ec12423          	sw	a2,232(sp)
    6e68:	00700593          	li	a1,7
    6e6c:	00840413          	add	s0,s0,8
    6e70:	4ec5c663          	blt	a1,a2,735c <_vfprintf_r+0x1c18>
    6e74:	14051663          	bnez	a0,6fc0 <_vfprintf_r+0x187c>
    6e78:	02412783          	lw	a5,36(sp)
    6e7c:	001bf613          	and	a2,s7,1
    6e80:	00f66633          	or	a2,a2,a5
    6e84:	00061463          	bnez	a2,6e8c <_vfprintf_r+0x1748>
    6e88:	bc1fe06f          	j	5a48 <_vfprintf_r+0x304>
    6e8c:	03412783          	lw	a5,52(sp)
    6e90:	0e812603          	lw	a2,232(sp)
    6e94:	03812683          	lw	a3,56(sp)
    6e98:	00e78733          	add	a4,a5,a4
    6e9c:	00160613          	add	a2,a2,1
    6ea0:	00d42023          	sw	a3,0(s0)
    6ea4:	00f42223          	sw	a5,4(s0)
    6ea8:	0ee12623          	sw	a4,236(sp)
    6eac:	0ec12423          	sw	a2,232(sp)
    6eb0:	00700593          	li	a1,7
    6eb4:	7ac5c263          	blt	a1,a2,7658 <_vfprintf_r+0x1f14>
    6eb8:	00840413          	add	s0,s0,8
    6ebc:	1380006f          	j	6ff4 <_vfprintf_r+0x18b0>
    6ec0:	00812583          	lw	a1,8(sp)
    6ec4:	0e410613          	add	a2,sp,228
    6ec8:	00098513          	mv	a0,s3
    6ecc:	1a80a0ef          	jal	11074 <__sprint_r>
    6ed0:	f0051c63          	bnez	a0,65e8 <_vfprintf_r+0xea4>
    6ed4:	0ec12703          	lw	a4,236(sp)
    6ed8:	000b0413          	mv	s0,s6
    6edc:	c18ff06f          	j	62f4 <_vfprintf_r+0xbb0>
    6ee0:	01542023          	sw	s5,0(s0)
    6ee4:	01242223          	sw	s2,4(s0)
    6ee8:	01270733          	add	a4,a4,s2
    6eec:	00160613          	add	a2,a2,1
    6ef0:	0ee12623          	sw	a4,236(sp)
    6ef4:	0ec12423          	sw	a2,232(sp)
    6ef8:	00700593          	li	a1,7
    6efc:	00c5c463          	blt	a1,a2,6f04 <_vfprintf_r+0x17c0>
    6f00:	b45fe06f          	j	5a44 <_vfprintf_r+0x300>
    6f04:	ff9fe06f          	j	5efc <_vfprintf_r+0x7b8>
    6f08:	0f012703          	lw	a4,240(sp)
    6f0c:	0a010593          	add	a1,sp,160
    6f10:	0b010513          	add	a0,sp,176
    6f14:	0ae12823          	sw	a4,176(sp)
    6f18:	0f412703          	lw	a4,244(sp)
    6f1c:	0a012023          	sw	zero,160(sp)
    6f20:	0a012223          	sw	zero,164(sp)
    6f24:	0ae12a23          	sw	a4,180(sp)
    6f28:	0f812703          	lw	a4,248(sp)
    6f2c:	0a012423          	sw	zero,168(sp)
    6f30:	0a012623          	sw	zero,172(sp)
    6f34:	0ae12c23          	sw	a4,184(sp)
    6f38:	0fc12703          	lw	a4,252(sp)
    6f3c:	0ae12e23          	sw	a4,188(sp)
    6f40:	ebcfa0ef          	jal	15fc <__letf2>
    6f44:	01412883          	lw	a7,20(sp)
    6f48:	540546e3          	bltz	a0,7c94 <_vfprintf_r+0x2550>
    6f4c:	0c714703          	lbu	a4,199(sp)
    6f50:	04700693          	li	a3,71
    6f54:	4316d663          	bge	a3,a7,7380 <_vfprintf_r+0x1c3c>
    6f58:	000152b7          	lui	t0,0x15
    6f5c:	f0428c13          	add	s8,t0,-252 # 14f04 <_getpid_r+0x5e8>
    6f60:	00012a23          	sw	zero,20(sp)
    6f64:	02012623          	sw	zero,44(sp)
    6f68:	02012423          	sw	zero,40(sp)
    6f6c:	02012023          	sw	zero,32(sp)
    6f70:	f7fbfb93          	and	s7,s7,-129
    6f74:	00300c93          	li	s9,3
    6f78:	00300d13          	li	s10,3
    6f7c:	00000913          	li	s2,0
    6f80:	00070463          	beqz	a4,6f88 <_vfprintf_r+0x1844>
    6f84:	c9dfe06f          	j	5c20 <_vfprintf_r+0x4dc>
    6f88:	9edfe06f          	j	5974 <_vfprintf_r+0x230>
    6f8c:	01812783          	lw	a5,24(sp)
    6f90:	01012703          	lw	a4,16(sp)
    6f94:	0007a783          	lw	a5,0(a5)
    6f98:	00e7a023          	sw	a4,0(a5)
    6f9c:	ac4ff06f          	j	6260 <_vfprintf_r+0xb1c>
    6fa0:	00048793          	mv	a5,s1
    6fa4:	000a0493          	mv	s1,s4
    6fa8:	000a8a13          	mv	s4,s5
    6fac:	00078a93          	mv	s5,a5
    6fb0:	008d8db3          	add	s11,s11,s0
    6fb4:	00190913          	add	s2,s2,1
    6fb8:	015d2023          	sw	s5,0(s10)
    6fbc:	efdfe06f          	j	5eb8 <_vfprintf_r+0x774>
    6fc0:	03412783          	lw	a5,52(sp)
    6fc4:	0e812603          	lw	a2,232(sp)
    6fc8:	03812683          	lw	a3,56(sp)
    6fcc:	00e78733          	add	a4,a5,a4
    6fd0:	00160613          	add	a2,a2,1
    6fd4:	00d42023          	sw	a3,0(s0)
    6fd8:	00f42223          	sw	a5,4(s0)
    6fdc:	0ee12623          	sw	a4,236(sp)
    6fe0:	0ec12423          	sw	a2,232(sp)
    6fe4:	00700593          	li	a1,7
    6fe8:	00840413          	add	s0,s0,8
    6fec:	66c5c663          	blt	a1,a2,7658 <_vfprintf_r+0x1f14>
    6ff0:	580540e3          	bltz	a0,7d70 <_vfprintf_r+0x262c>
    6ff4:	02412783          	lw	a5,36(sp)
    6ff8:	00160613          	add	a2,a2,1
    6ffc:	01842023          	sw	s8,0(s0)
    7000:	00e78733          	add	a4,a5,a4
    7004:	00f42223          	sw	a5,4(s0)
    7008:	0ee12623          	sw	a4,236(sp)
    700c:	0ec12423          	sw	a2,232(sp)
    7010:	00700593          	li	a1,7
    7014:	00c5c463          	blt	a1,a2,701c <_vfprintf_r+0x18d8>
    7018:	a2dfe06f          	j	5a44 <_vfprintf_r+0x300>
    701c:	ee1fe06f          	j	5efc <_vfprintf_r+0x7b8>
    7020:	000c0513          	mv	a0,s8
    7024:	05112823          	sw	a7,80(sp)
    7028:	e90fe0ef          	jal	56b8 <strlen>
    702c:	0c714703          	lbu	a4,199(sp)
    7030:	fff54693          	not	a3,a0
    7034:	41f6d693          	sra	a3,a3,0x1f
    7038:	01512c23          	sw	s5,24(sp)
    703c:	00012a23          	sw	zero,20(sp)
    7040:	02012623          	sw	zero,44(sp)
    7044:	02012423          	sw	zero,40(sp)
    7048:	02012023          	sw	zero,32(sp)
    704c:	05012883          	lw	a7,80(sp)
    7050:	00050d13          	mv	s10,a0
    7054:	00d57cb3          	and	s9,a0,a3
    7058:	00000913          	li	s2,0
    705c:	00070463          	beqz	a4,7064 <_vfprintf_r+0x1920>
    7060:	bc1fe06f          	j	5c20 <_vfprintf_r+0x4dc>
    7064:	911fe06f          	j	5974 <_vfprintf_r+0x230>
    7068:	0fc12703          	lw	a4,252(sp)
    706c:	5c074663          	bltz	a4,7638 <_vfprintf_r+0x1ef4>
    7070:	0c714703          	lbu	a4,199(sp)
    7074:	04700693          	li	a3,71
    7078:	4716dee3          	bge	a3,a7,7cf4 <_vfprintf_r+0x25b0>
    707c:	000152b7          	lui	t0,0x15
    7080:	f0c28c13          	add	s8,t0,-244 # 14f0c <_getpid_r+0x5f0>
    7084:	eddff06f          	j	6f60 <_vfprintf_r+0x181c>
    7088:	00e90733          	add	a4,s2,a4
    708c:	00160613          	add	a2,a2,1
    7090:	01542023          	sw	s5,0(s0)
    7094:	01242223          	sw	s2,4(s0)
    7098:	0ee12623          	sw	a4,236(sp)
    709c:	0ec12423          	sw	a2,232(sp)
    70a0:	00700593          	li	a1,7
    70a4:	00840413          	add	s0,s0,8
    70a8:	fac5d063          	bge	a1,a2,6848 <_vfprintf_r+0x1104>
    70ac:	00812583          	lw	a1,8(sp)
    70b0:	0e410613          	add	a2,sp,228
    70b4:	00098513          	mv	a0,s3
    70b8:	7bd090ef          	jal	11074 <__sprint_r>
    70bc:	d2051663          	bnez	a0,65e8 <_vfprintf_r+0xea4>
    70c0:	0ec12703          	lw	a4,236(sp)
    70c4:	000b0413          	mv	s0,s6
    70c8:	f80ff06f          	j	6848 <_vfprintf_r+0x1104>
    70cc:	02812d03          	lw	s10,40(sp)
    70d0:	00015e37          	lui	t3,0x15
    70d4:	04912a23          	sw	s1,84(sp)
    70d8:	05712c23          	sw	s7,88(sp)
    70dc:	03912423          	sw	s9,40(sp)
    70e0:	05412e23          	sw	s4,92(sp)
    70e4:	00040613          	mv	a2,s0
    70e8:	04012b83          	lw	s7,64(sp)
    70ec:	02c12403          	lw	s0,44(sp)
    70f0:	04c12c83          	lw	s9,76(sp)
    70f4:	00812483          	lw	s1,8(sp)
    70f8:	00700913          	li	s2,7
    70fc:	01000d93          	li	s11,16
    7100:	148e0a93          	add	s5,t3,328 # 15148 <zeroes.0>
    7104:	080d0863          	beqz	s10,7194 <_vfprintf_r+0x1a50>
    7108:	16040063          	beqz	s0,7268 <_vfprintf_r+0x1b24>
    710c:	fff40413          	add	s0,s0,-1
    7110:	04812783          	lw	a5,72(sp)
    7114:	01970733          	add	a4,a4,s9
    7118:	01962223          	sw	s9,4(a2)
    711c:	00f62023          	sw	a5,0(a2)
    7120:	0e812783          	lw	a5,232(sp)
    7124:	0ee12623          	sw	a4,236(sp)
    7128:	00860613          	add	a2,a2,8
    712c:	00178793          	add	a5,a5,1
    7130:	0ef12423          	sw	a5,232(sp)
    7134:	14f94063          	blt	s2,a5,7274 <_vfprintf_r+0x1b30>
    7138:	05012783          	lw	a5,80(sp)
    713c:	000bc683          	lbu	a3,0(s7)
    7140:	41878a33          	sub	s4,a5,s8
    7144:	0146d463          	bge	a3,s4,714c <_vfprintf_r+0x1a08>
    7148:	00068a13          	mv	s4,a3
    714c:	03405663          	blez	s4,7178 <_vfprintf_r+0x1a34>
    7150:	0e812683          	lw	a3,232(sp)
    7154:	01470733          	add	a4,a4,s4
    7158:	01862023          	sw	s8,0(a2)
    715c:	00168693          	add	a3,a3,1
    7160:	01462223          	sw	s4,4(a2)
    7164:	0ee12623          	sw	a4,236(sp)
    7168:	0ed12423          	sw	a3,232(sp)
    716c:	12d94463          	blt	s2,a3,7294 <_vfprintf_r+0x1b50>
    7170:	000bc683          	lbu	a3,0(s7)
    7174:	00860613          	add	a2,a2,8
    7178:	fffa4593          	not	a1,s4
    717c:	41f5d593          	sra	a1,a1,0x1f
    7180:	00ba77b3          	and	a5,s4,a1
    7184:	40f68a33          	sub	s4,a3,a5
    7188:	03404c63          	bgtz	s4,71c0 <_vfprintf_r+0x1a7c>
    718c:	00dc0c33          	add	s8,s8,a3
    7190:	f60d1ce3          	bnez	s10,7108 <_vfprintf_r+0x19c4>
    7194:	f6041ce3          	bnez	s0,710c <_vfprintf_r+0x19c8>
    7198:	05012783          	lw	a5,80(sp)
    719c:	05712023          	sw	s7,64(sp)
    71a0:	05412483          	lw	s1,84(sp)
    71a4:	05812b83          	lw	s7,88(sp)
    71a8:	05c12a03          	lw	s4,92(sp)
    71ac:	02812c83          	lw	s9,40(sp)
    71b0:	00060413          	mv	s0,a2
    71b4:	eb87f263          	bgeu	a5,s8,6858 <_vfprintf_r+0x1114>
    71b8:	00078c13          	mv	s8,a5
    71bc:	e9cff06f          	j	6858 <_vfprintf_r+0x1114>
    71c0:	000155b7          	lui	a1,0x15
    71c4:	0e812683          	lw	a3,232(sp)
    71c8:	14858593          	add	a1,a1,328 # 15148 <zeroes.0>
    71cc:	074dd863          	bge	s11,s4,723c <_vfprintf_r+0x1af8>
    71d0:	02812023          	sw	s0,32(sp)
    71d4:	000a0413          	mv	s0,s4
    71d8:	000a8a13          	mv	s4,s5
    71dc:	00c0006f          	j	71e8 <_vfprintf_r+0x1aa4>
    71e0:	ff040413          	add	s0,s0,-16
    71e4:	048dd663          	bge	s11,s0,7230 <_vfprintf_r+0x1aec>
    71e8:	01070713          	add	a4,a4,16
    71ec:	00168693          	add	a3,a3,1
    71f0:	01562023          	sw	s5,0(a2)
    71f4:	01b62223          	sw	s11,4(a2)
    71f8:	0ee12623          	sw	a4,236(sp)
    71fc:	0ed12423          	sw	a3,232(sp)
    7200:	00860613          	add	a2,a2,8
    7204:	fcd95ee3          	bge	s2,a3,71e0 <_vfprintf_r+0x1a9c>
    7208:	0e410613          	add	a2,sp,228
    720c:	00048593          	mv	a1,s1
    7210:	00098513          	mv	a0,s3
    7214:	661090ef          	jal	11074 <__sprint_r>
    7218:	bc051863          	bnez	a0,65e8 <_vfprintf_r+0xea4>
    721c:	ff040413          	add	s0,s0,-16
    7220:	0ec12703          	lw	a4,236(sp)
    7224:	0e812683          	lw	a3,232(sp)
    7228:	000b0613          	mv	a2,s6
    722c:	fa8dcee3          	blt	s11,s0,71e8 <_vfprintf_r+0x1aa4>
    7230:	000a0593          	mv	a1,s4
    7234:	00040a13          	mv	s4,s0
    7238:	02012403          	lw	s0,32(sp)
    723c:	00ea0733          	add	a4,s4,a4
    7240:	00168693          	add	a3,a3,1
    7244:	00b62023          	sw	a1,0(a2)
    7248:	01462223          	sw	s4,4(a2)
    724c:	0ee12623          	sw	a4,236(sp)
    7250:	0ed12423          	sw	a3,232(sp)
    7254:	20d940e3          	blt	s2,a3,7c54 <_vfprintf_r+0x2510>
    7258:	000bc683          	lbu	a3,0(s7)
    725c:	00860613          	add	a2,a2,8
    7260:	00dc0c33          	add	s8,s8,a3
    7264:	f2dff06f          	j	7190 <_vfprintf_r+0x1a4c>
    7268:	fffb8b93          	add	s7,s7,-1
    726c:	fffd0d13          	add	s10,s10,-1
    7270:	ea1ff06f          	j	7110 <_vfprintf_r+0x19cc>
    7274:	0e410613          	add	a2,sp,228
    7278:	00048593          	mv	a1,s1
    727c:	00098513          	mv	a0,s3
    7280:	5f5090ef          	jal	11074 <__sprint_r>
    7284:	b6051263          	bnez	a0,65e8 <_vfprintf_r+0xea4>
    7288:	0ec12703          	lw	a4,236(sp)
    728c:	000b0613          	mv	a2,s6
    7290:	ea9ff06f          	j	7138 <_vfprintf_r+0x19f4>
    7294:	0e410613          	add	a2,sp,228
    7298:	00048593          	mv	a1,s1
    729c:	00098513          	mv	a0,s3
    72a0:	5d5090ef          	jal	11074 <__sprint_r>
    72a4:	b4051263          	bnez	a0,65e8 <_vfprintf_r+0xea4>
    72a8:	000bc683          	lbu	a3,0(s7)
    72ac:	0ec12703          	lw	a4,236(sp)
    72b0:	000b0613          	mv	a2,s6
    72b4:	ec5ff06f          	j	7178 <_vfprintf_r+0x1a34>
    72b8:	04c12783          	lw	a5,76(sp)
    72bc:	04812583          	lw	a1,72(sp)
    72c0:	03d12423          	sw	t4,40(sp)
    72c4:	40f30333          	sub	t1,t1,a5
    72c8:	00078613          	mv	a2,a5
    72cc:	00030513          	mv	a0,t1
    72d0:	03112223          	sw	a7,36(sp)
    72d4:	02e12023          	sw	a4,32(sp)
    72d8:	00612a23          	sw	t1,20(sp)
    72dc:	2e8070ef          	jal	e5c4 <strncpy>
    72e0:	019c37b3          	sltu	a5,s8,s9
    72e4:	00500613          	li	a2,5
    72e8:	00fc07b3          	add	a5,s8,a5
    72ec:	02c7f7b3          	remu	a5,a5,a2
    72f0:	02012703          	lw	a4,32(sp)
    72f4:	ccccd637          	lui	a2,0xccccd
    72f8:	ccd60e13          	add	t3,a2,-819 # cccccccd <_end+0xcccb2cfd>
    72fc:	ccc60513          	add	a0,a2,-820
    7300:	00174603          	lbu	a2,1(a4)
    7304:	01412303          	lw	t1,20(sp)
    7308:	02412883          	lw	a7,36(sp)
    730c:	00c03633          	snez	a2,a2
    7310:	00c70733          	add	a4,a4,a2
    7314:	02812e83          	lw	t4,40(sp)
    7318:	00000593          	li	a1,0
    731c:	00500813          	li	a6,5
    7320:	000e0693          	mv	a3,t3
    7324:	40fc87b3          	sub	a5,s9,a5
    7328:	00fcb633          	sltu	a2,s9,a5
    732c:	40cd0633          	sub	a2,s10,a2
    7330:	02a78533          	mul	a0,a5,a0
    7334:	03c60633          	mul	a2,a2,t3
    7338:	03c7bf33          	mulhu	t5,a5,t3
    733c:	00a60633          	add	a2,a2,a0
    7340:	03c78533          	mul	a0,a5,t3
    7344:	01e60633          	add	a2,a2,t5
    7348:	01f61793          	sll	a5,a2,0x1f
    734c:	00165613          	srl	a2,a2,0x1
    7350:	00155513          	srl	a0,a0,0x1
    7354:	00a7e7b3          	or	a5,a5,a0
    7358:	a49ff06f          	j	6da0 <_vfprintf_r+0x165c>
    735c:	00812583          	lw	a1,8(sp)
    7360:	0e410613          	add	a2,sp,228
    7364:	00098513          	mv	a0,s3
    7368:	50d090ef          	jal	11074 <__sprint_r>
    736c:	a6051e63          	bnez	a0,65e8 <_vfprintf_r+0xea4>
    7370:	0cc12503          	lw	a0,204(sp)
    7374:	0ec12703          	lw	a4,236(sp)
    7378:	000b0413          	mv	s0,s6
    737c:	af9ff06f          	j	6e74 <_vfprintf_r+0x1730>
    7380:	000152b7          	lui	t0,0x15
    7384:	f0028c13          	add	s8,t0,-256 # 14f00 <_getpid_r+0x5e4>
    7388:	bd9ff06f          	j	6f60 <_vfprintf_r+0x181c>
    738c:	00090693          	mv	a3,s2
    7390:	00200613          	li	a2,2
    7394:	0b010b93          	add	s7,sp,176
    7398:	0d010793          	add	a5,sp,208
    739c:	0dc10813          	add	a6,sp,220
    73a0:	0cc10713          	add	a4,sp,204
    73a4:	000b8593          	mv	a1,s7
    73a8:	00098513          	mv	a0,s3
    73ac:	05112a23          	sw	a7,84(sp)
    73b0:	04d12823          	sw	a3,80(sp)
    73b4:	0be12823          	sw	t5,176(sp)
    73b8:	03e12423          	sw	t5,40(sp)
    73bc:	0bd12a23          	sw	t4,180(sp)
    73c0:	03d12223          	sw	t4,36(sp)
    73c4:	0bc12c23          	sw	t3,184(sp)
    73c8:	03c12023          	sw	t3,32(sp)
    73cc:	0bb12e23          	sw	s11,188(sp)
    73d0:	25d030ef          	jal	ae2c <_ldtoa_r>
    73d4:	05412883          	lw	a7,84(sp)
    73d8:	06700793          	li	a5,103
    73dc:	02012e03          	lw	t3,32(sp)
    73e0:	02412e83          	lw	t4,36(sp)
    73e4:	02812f03          	lw	t5,40(sp)
    73e8:	05012683          	lw	a3,80(sp)
    73ec:	00050c13          	mv	s8,a0
    73f0:	7af88263          	beq	a7,a5,7b94 <_vfprintf_r+0x2450>
    73f4:	04700793          	li	a5,71
    73f8:	78f88e63          	beq	a7,a5,7b94 <_vfprintf_r+0x2450>
    73fc:	fdf8fa93          	and	s5,a7,-33
    7400:	04600613          	li	a2,70
    7404:	00d50cb3          	add	s9,a0,a3
    7408:	0a010d13          	add	s10,sp,160
    740c:	00ca9c63          	bne	s5,a2,7424 <_vfprintf_r+0x1ce0>
    7410:	00054583          	lbu	a1,0(a0)
    7414:	03000613          	li	a2,48
    7418:	5ec58863          	beq	a1,a2,7a08 <_vfprintf_r+0x22c4>
    741c:	0cc12683          	lw	a3,204(sp)
    7420:	00dc8cb3          	add	s9,s9,a3
    7424:	000b8513          	mv	a0,s7
    7428:	000d0593          	mv	a1,s10
    742c:	03112023          	sw	a7,32(sp)
    7430:	0be12823          	sw	t5,176(sp)
    7434:	0bd12a23          	sw	t4,180(sp)
    7438:	0bc12c23          	sw	t3,184(sp)
    743c:	0bb12e23          	sw	s11,188(sp)
    7440:	0a012023          	sw	zero,160(sp)
    7444:	0a012223          	sw	zero,164(sp)
    7448:	0a012423          	sw	zero,168(sp)
    744c:	0a012623          	sw	zero,172(sp)
    7450:	f75f90ef          	jal	13c4 <__eqtf2>
    7454:	02012883          	lw	a7,32(sp)
    7458:	000c8b93          	mv	s7,s9
    745c:	02050263          	beqz	a0,7480 <_vfprintf_r+0x1d3c>
    7460:	0dc12b83          	lw	s7,220(sp)
    7464:	019bfe63          	bgeu	s7,s9,7480 <_vfprintf_r+0x1d3c>
    7468:	03000613          	li	a2,48
    746c:	001b8793          	add	a5,s7,1
    7470:	0cf12e23          	sw	a5,220(sp)
    7474:	00cb8023          	sb	a2,0(s7)
    7478:	0dc12b83          	lw	s7,220(sp)
    747c:	ff9be8e3          	bltu	s7,s9,746c <_vfprintf_r+0x1d28>
    7480:	418b87b3          	sub	a5,s7,s8
    7484:	02f12223          	sw	a5,36(sp)
    7488:	0cc12683          	lw	a3,204(sp)
    748c:	04700793          	li	a5,71
    7490:	02d12023          	sw	a3,32(sp)
    7494:	70fa8e63          	beq	s5,a5,7bb0 <_vfprintf_r+0x246c>
    7498:	04600793          	li	a5,70
    749c:	14fa88e3          	beq	s5,a5,7dec <_vfprintf_r+0x26a8>
    74a0:	fff68793          	add	a5,a3,-1
    74a4:	0cf12623          	sw	a5,204(sp)
    74a8:	06100713          	li	a4,97
    74ac:	38e880e3          	beq	a7,a4,802c <_vfprintf_r+0x28e8>
    74b0:	04100613          	li	a2,65
    74b4:	05000713          	li	a4,80
    74b8:	70c89a63          	bne	a7,a2,7bcc <_vfprintf_r+0x2488>
    74bc:	00100613          	li	a2,1
    74c0:	0ce10a23          	sb	a4,212(sp)
    74c4:	02b00713          	li	a4,43
    74c8:	0007d863          	bgez	a5,74d8 <_vfprintf_r+0x1d94>
    74cc:	00100793          	li	a5,1
    74d0:	40d787b3          	sub	a5,a5,a3
    74d4:	02d00713          	li	a4,45
    74d8:	0ce10aa3          	sb	a4,213(sp)
    74dc:	00900713          	li	a4,9
    74e0:	18f756e3          	bge	a4,a5,7e6c <_vfprintf_r+0x2728>
    74e4:	0e310813          	add	a6,sp,227
    74e8:	00080613          	mv	a2,a6
    74ec:	00a00593          	li	a1,10
    74f0:	06300e13          	li	t3,99
    74f4:	02b7e733          	rem	a4,a5,a1
    74f8:	00060693          	mv	a3,a2
    74fc:	00078513          	mv	a0,a5
    7500:	fff60613          	add	a2,a2,-1
    7504:	03070713          	add	a4,a4,48
    7508:	fee68fa3          	sb	a4,-1(a3)
    750c:	02b7c7b3          	div	a5,a5,a1
    7510:	feae42e3          	blt	t3,a0,74f4 <_vfprintf_r+0x1db0>
    7514:	03078793          	add	a5,a5,48
    7518:	ffe68713          	add	a4,a3,-2
    751c:	fef60fa3          	sb	a5,-1(a2)
    7520:	31077ae3          	bgeu	a4,a6,8034 <_vfprintf_r+0x28f0>
    7524:	0d610793          	add	a5,sp,214
    7528:	00074603          	lbu	a2,0(a4)
    752c:	00170713          	add	a4,a4,1
    7530:	00178793          	add	a5,a5,1
    7534:	fec78fa3          	sb	a2,-1(a5)
    7538:	ff0718e3          	bne	a4,a6,7528 <_vfprintf_r+0x1de4>
    753c:	0e510793          	add	a5,sp,229
    7540:	0d610713          	add	a4,sp,214
    7544:	40d787b3          	sub	a5,a5,a3
    7548:	00f707b3          	add	a5,a4,a5
    754c:	0d410713          	add	a4,sp,212
    7550:	40e787b3          	sub	a5,a5,a4
    7554:	04f12223          	sw	a5,68(sp)
    7558:	04412683          	lw	a3,68(sp)
    755c:	02412703          	lw	a4,36(sp)
    7560:	00100793          	li	a5,1
    7564:	00e68d33          	add	s10,a3,a4
    7568:	1ae7dae3          	bge	a5,a4,7f1c <_vfprintf_r+0x27d8>
    756c:	03412783          	lw	a5,52(sp)
    7570:	00fd0d33          	add	s10,s10,a5
    7574:	02c12783          	lw	a5,44(sp)
    7578:	fffd4693          	not	a3,s10
    757c:	41f6d693          	sra	a3,a3,0x1f
    7580:	bff7f793          	and	a5,a5,-1025
    7584:	1007eb93          	or	s7,a5,256
    7588:	00dd7cb3          	and	s9,s10,a3
    758c:	02012623          	sw	zero,44(sp)
    7590:	02012423          	sw	zero,40(sp)
    7594:	02012023          	sw	zero,32(sp)
    7598:	06012783          	lw	a5,96(sp)
    759c:	62078e63          	beqz	a5,7bd8 <_vfprintf_r+0x2494>
    75a0:	02d00713          	li	a4,45
    75a4:	0ce103a3          	sb	a4,199(sp)
    75a8:	00000913          	li	s2,0
    75ac:	001c8c93          	add	s9,s9,1
    75b0:	bc4fe06f          	j	5974 <_vfprintf_r+0x230>
    75b4:	00812583          	lw	a1,8(sp)
    75b8:	0e410613          	add	a2,sp,228
    75bc:	00098513          	mv	a0,s3
    75c0:	2b5090ef          	jal	11074 <__sprint_r>
    75c4:	00050463          	beqz	a0,75cc <_vfprintf_r+0x1e88>
    75c8:	820ff06f          	j	65e8 <_vfprintf_r+0xea4>
    75cc:	0ec12703          	lw	a4,236(sp)
    75d0:	000b0413          	mv	s0,s6
    75d4:	a5cff06f          	j	6830 <_vfprintf_r+0x10ec>
    75d8:	00600d13          	li	s10,6
    75dc:	e48ff06f          	j	6c24 <_vfprintf_r+0x14e0>
    75e0:	40c78633          	sub	a2,a5,a2
    75e4:	05012783          	lw	a5,80(sp)
    75e8:	41878933          	sub	s2,a5,s8
    75ec:	af265e63          	bge	a2,s2,68e8 <_vfprintf_r+0x11a4>
    75f0:	00060913          	mv	s2,a2
    75f4:	af4ff06f          	j	68e8 <_vfprintf_r+0x11a4>
    75f8:	01812783          	lw	a5,24(sp)
    75fc:	01012703          	lw	a4,16(sp)
    7600:	0007a783          	lw	a5,0(a5)
    7604:	00e79023          	sh	a4,0(a5)
    7608:	c59fe06f          	j	6260 <_vfprintf_r+0xb1c>
    760c:	0ffcfc93          	zext.b	s9,s9
    7610:	00000d13          	li	s10,0
    7614:	d88ff06f          	j	6b9c <_vfprintf_r+0x1458>
    7618:	018c9c93          	sll	s9,s9,0x18
    761c:	418cdc93          	sra	s9,s9,0x18
    7620:	41fcdd13          	sra	s10,s9,0x1f
    7624:	000d0713          	mv	a4,s10
    7628:	da8fe06f          	j	5bd0 <_vfprintf_r+0x48c>
    762c:	0ffcfc93          	zext.b	s9,s9
    7630:	00000d13          	li	s10,0
    7634:	e1cfe06f          	j	5c50 <_vfprintf_r+0x50c>
    7638:	02d00713          	li	a4,45
    763c:	0ce103a3          	sb	a4,199(sp)
    7640:	a35ff06f          	j	7074 <_vfprintf_r+0x1930>
    7644:	00812583          	lw	a1,8(sp)
    7648:	03012503          	lw	a0,48(sp)
    764c:	0e410613          	add	a2,sp,228
    7650:	225090ef          	jal	11074 <__sprint_r>
    7654:	c54fe06f          	j	5aa8 <_vfprintf_r+0x364>
    7658:	00812583          	lw	a1,8(sp)
    765c:	0e410613          	add	a2,sp,228
    7660:	00098513          	mv	a0,s3
    7664:	211090ef          	jal	11074 <__sprint_r>
    7668:	00050463          	beqz	a0,7670 <_vfprintf_r+0x1f2c>
    766c:	f7dfe06f          	j	65e8 <_vfprintf_r+0xea4>
    7670:	0cc12503          	lw	a0,204(sp)
    7674:	0ec12703          	lw	a4,236(sp)
    7678:	0e812603          	lw	a2,232(sp)
    767c:	000b0413          	mv	s0,s6
    7680:	971ff06f          	j	6ff0 <_vfprintf_r+0x18ac>
    7684:	05800713          	li	a4,88
    7688:	03000693          	li	a3,48
    768c:	002be793          	or	a5,s7,2
    7690:	0ce104a3          	sb	a4,201(sp)
    7694:	0cd10423          	sb	a3,200(sp)
    7698:	06300713          	li	a4,99
    769c:	02f12623          	sw	a5,44(sp)
    76a0:	00012a23          	sw	zero,20(sp)
    76a4:	14c10c13          	add	s8,sp,332
    76a8:	052748e3          	blt	a4,s2,7ef8 <_vfprintf_r+0x27b4>
    76ac:	0fc12d83          	lw	s11,252(sp)
    76b0:	102be793          	or	a5,s7,258
    76b4:	04f12e23          	sw	a5,92(sp)
    76b8:	06012023          	sw	zero,96(sp)
    76bc:	0f012f03          	lw	t5,240(sp)
    76c0:	0f412e83          	lw	t4,244(sp)
    76c4:	0f812e03          	lw	t3,248(sp)
    76c8:	560dcc63          	bltz	s11,7c40 <_vfprintf_r+0x24fc>
    76cc:	06100793          	li	a5,97
    76d0:	00f88463          	beq	a7,a5,76d8 <_vfprintf_r+0x1f94>
    76d4:	ed0fe06f          	j	5da4 <_vfprintf_r+0x660>
    76d8:	0b010b93          	add	s7,sp,176
    76dc:	000b8513          	mv	a0,s7
    76e0:	07112223          	sw	a7,100(sp)
    76e4:	0be12823          	sw	t5,176(sp)
    76e8:	0bd12a23          	sw	t4,180(sp)
    76ec:	0bc12c23          	sw	t3,184(sp)
    76f0:	0bb12e23          	sw	s11,188(sp)
    76f4:	9cdfc0ef          	jal	40c0 <__trunctfdf2>
    76f8:	0cc10613          	add	a2,sp,204
    76fc:	321060ef          	jal	e21c <frexp>
    7700:	00058613          	mv	a2,a1
    7704:	00050593          	mv	a1,a0
    7708:	000b8513          	mv	a0,s7
    770c:	fa8fc0ef          	jal	3eb4 <__extenddftf2>
    7710:	09010793          	add	a5,sp,144
    7714:	00078593          	mv	a1,a5
    7718:	02f12023          	sw	a5,32(sp)
    771c:	0b012783          	lw	a5,176(sp)
    7720:	0a010d13          	add	s10,sp,160
    7724:	08010613          	add	a2,sp,128
    7728:	08f12823          	sw	a5,144(sp)
    772c:	0b412783          	lw	a5,180(sp)
    7730:	000d0513          	mv	a0,s10
    7734:	04c12a23          	sw	a2,84(sp)
    7738:	08f12a23          	sw	a5,148(sp)
    773c:	0b812783          	lw	a5,184(sp)
    7740:	08012023          	sw	zero,128(sp)
    7744:	08012223          	sw	zero,132(sp)
    7748:	08f12c23          	sw	a5,152(sp)
    774c:	0bc12783          	lw	a5,188(sp)
    7750:	08012423          	sw	zero,136(sp)
    7754:	08f12e23          	sw	a5,156(sp)
    7758:	3ffc07b7          	lui	a5,0x3ffc0
    775c:	08f12623          	sw	a5,140(sp)
    7760:	800fa0ef          	jal	1760 <__multf3>
    7764:	0a012703          	lw	a4,160(sp)
    7768:	0a412683          	lw	a3,164(sp)
    776c:	0a812803          	lw	a6,168(sp)
    7770:	0ac12e03          	lw	t3,172(sp)
    7774:	000d0593          	mv	a1,s10
    7778:	000b8513          	mv	a0,s7
    777c:	0ae12823          	sw	a4,176(sp)
    7780:	04e12c23          	sw	a4,88(sp)
    7784:	0ad12a23          	sw	a3,180(sp)
    7788:	04d12823          	sw	a3,80(sp)
    778c:	0b012c23          	sw	a6,184(sp)
    7790:	03012423          	sw	a6,40(sp)
    7794:	0bc12e23          	sw	t3,188(sp)
    7798:	03c12223          	sw	t3,36(sp)
    779c:	0a012023          	sw	zero,160(sp)
    77a0:	0a012223          	sw	zero,164(sp)
    77a4:	0a012423          	sw	zero,168(sp)
    77a8:	0a012623          	sw	zero,172(sp)
    77ac:	c19f90ef          	jal	13c4 <__eqtf2>
    77b0:	02412e03          	lw	t3,36(sp)
    77b4:	02812803          	lw	a6,40(sp)
    77b8:	05012683          	lw	a3,80(sp)
    77bc:	05812703          	lw	a4,88(sp)
    77c0:	06412883          	lw	a7,100(sp)
    77c4:	3a050a63          	beqz	a0,7b78 <_vfprintf_r+0x2434>
    77c8:	000157b7          	lui	a5,0x15
    77cc:	f1078393          	add	t2,a5,-240 # 14f10 <_getpid_r+0x5f4>
    77d0:	fff90c93          	add	s9,s2,-1
    77d4:	07212823          	sw	s2,112(sp)
    77d8:	06812a23          	sw	s0,116(sp)
    77dc:	000c0913          	mv	s2,s8
    77e0:	07312c23          	sw	s3,120(sp)
    77e4:	07812e23          	sw	s8,124(sp)
    77e8:	06912223          	sw	s1,100(sp)
    77ec:	07112423          	sw	a7,104(sp)
    77f0:	07412623          	sw	s4,108(sp)
    77f4:	04712823          	sw	t2,80(sp)
    77f8:	00070993          	mv	s3,a4
    77fc:	00068a93          	mv	s5,a3
    7800:	00080c13          	mv	s8,a6
    7804:	000e0413          	mv	s0,t3
    7808:	04c0006f          	j	7854 <_vfprintf_r+0x2110>
    780c:	000d0593          	mv	a1,s10
    7810:	000b8513          	mv	a0,s7
    7814:	02f12423          	sw	a5,40(sp)
    7818:	02c12223          	sw	a2,36(sp)
    781c:	0ac12c23          	sw	a2,184(sp)
    7820:	0af12e23          	sw	a5,188(sp)
    7824:	0a912823          	sw	s1,176(sp)
    7828:	0b412a23          	sw	s4,180(sp)
    782c:	0a012023          	sw	zero,160(sp)
    7830:	0a012223          	sw	zero,164(sp)
    7834:	0a012423          	sw	zero,168(sp)
    7838:	0a012623          	sw	zero,172(sp)
    783c:	b89f90ef          	jal	13c4 <__eqtf2>
    7840:	fffc8593          	add	a1,s9,-1
    7844:	000c0613          	mv	a2,s8
    7848:	00040793          	mv	a5,s0
    784c:	6e050c63          	beqz	a0,7f44 <_vfprintf_r+0x2800>
    7850:	00058c93          	mv	s9,a1
    7854:	02012603          	lw	a2,32(sp)
    7858:	400307b7          	lui	a5,0x40030
    785c:	000d0593          	mv	a1,s10
    7860:	000b8513          	mv	a0,s7
    7864:	08f12e23          	sw	a5,156(sp)
    7868:	0b312023          	sw	s3,160(sp)
    786c:	0b512223          	sw	s5,164(sp)
    7870:	0b812423          	sw	s8,168(sp)
    7874:	0a812623          	sw	s0,172(sp)
    7878:	08012823          	sw	zero,144(sp)
    787c:	08012a23          	sw	zero,148(sp)
    7880:	08012c23          	sw	zero,152(sp)
    7884:	eddf90ef          	jal	1760 <__multf3>
    7888:	000b8513          	mv	a0,s7
    788c:	be0fc0ef          	jal	3c6c <__fixtfsi>
    7890:	00050593          	mv	a1,a0
    7894:	00050d93          	mv	s11,a0
    7898:	000b8513          	mv	a0,s7
    789c:	0b012a03          	lw	s4,176(sp)
    78a0:	0b412983          	lw	s3,180(sp)
    78a4:	0b812483          	lw	s1,184(sp)
    78a8:	0bc12403          	lw	s0,188(sp)
    78ac:	cb4fc0ef          	jal	3d60 <__floatsitf>
    78b0:	0b012783          	lw	a5,176(sp)
    78b4:	05412603          	lw	a2,84(sp)
    78b8:	02012583          	lw	a1,32(sp)
    78bc:	08f12023          	sw	a5,128(sp)
    78c0:	0b412783          	lw	a5,180(sp)
    78c4:	000d0513          	mv	a0,s10
    78c8:	09412823          	sw	s4,144(sp)
    78cc:	08f12223          	sw	a5,132(sp)
    78d0:	0b812783          	lw	a5,184(sp)
    78d4:	09312a23          	sw	s3,148(sp)
    78d8:	08912c23          	sw	s1,152(sp)
    78dc:	08f12423          	sw	a5,136(sp)
    78e0:	0bc12783          	lw	a5,188(sp)
    78e4:	08812e23          	sw	s0,156(sp)
    78e8:	08f12623          	sw	a5,140(sp)
    78ec:	ecdfa0ef          	jal	27b8 <__subtf3>
    78f0:	05012783          	lw	a5,80(sp)
    78f4:	0a012483          	lw	s1,160(sp)
    78f8:	0a412a03          	lw	s4,164(sp)
    78fc:	01b787b3          	add	a5,a5,s11
    7900:	0007c703          	lbu	a4,0(a5) # 40030000 <_end+0x40016030>
    7904:	0a812603          	lw	a2,168(sp)
    7908:	0ac12783          	lw	a5,172(sp)
    790c:	05212c23          	sw	s2,88(sp)
    7910:	00e90023          	sb	a4,0(s2)
    7914:	fff00713          	li	a4,-1
    7918:	00190913          	add	s2,s2,1
    791c:	00048993          	mv	s3,s1
    7920:	000a0a93          	mv	s5,s4
    7924:	00060c13          	mv	s8,a2
    7928:	00078413          	mv	s0,a5
    792c:	eeec90e3          	bne	s9,a4,780c <_vfprintf_r+0x20c8>
    7930:	00090a93          	mv	s5,s2
    7934:	00048f13          	mv	t5,s1
    7938:	000a0e93          	mv	t4,s4
    793c:	06812883          	lw	a7,104(sp)
    7940:	07412403          	lw	s0,116(sp)
    7944:	07012903          	lw	s2,112(sp)
    7948:	05012383          	lw	t2,80(sp)
    794c:	07812983          	lw	s3,120(sp)
    7950:	07c12c03          	lw	s8,124(sp)
    7954:	06412483          	lw	s1,100(sp)
    7958:	06c12a03          	lw	s4,108(sp)
    795c:	fff00713          	li	a4,-1
    7960:	3ffe06b7          	lui	a3,0x3ffe0
    7964:	000d0593          	mv	a1,s10
    7968:	000b8513          	mv	a0,s7
    796c:	02712223          	sw	t2,36(sp)
    7970:	03112023          	sw	a7,32(sp)
    7974:	06e12423          	sw	a4,104(sp)
    7978:	0be12823          	sw	t5,176(sp)
    797c:	07e12223          	sw	t5,100(sp)
    7980:	0bd12a23          	sw	t4,180(sp)
    7984:	05d12a23          	sw	t4,84(sp)
    7988:	0ac12c23          	sw	a2,184(sp)
    798c:	04c12823          	sw	a2,80(sp)
    7990:	0af12e23          	sw	a5,188(sp)
    7994:	02f12423          	sw	a5,40(sp)
    7998:	0a012023          	sw	zero,160(sp)
    799c:	0a012223          	sw	zero,164(sp)
    79a0:	0a012423          	sw	zero,168(sp)
    79a4:	0ad12623          	sw	a3,172(sp)
    79a8:	af1f90ef          	jal	1498 <__getf2>
    79ac:	02012883          	lw	a7,32(sp)
    79b0:	02412383          	lw	t2,36(sp)
    79b4:	4ea04463          	bgtz	a0,7e9c <_vfprintf_r+0x2758>
    79b8:	000d0593          	mv	a1,s10
    79bc:	000b8513          	mv	a0,s7
    79c0:	a05f90ef          	jal	13c4 <__eqtf2>
    79c4:	02012883          	lw	a7,32(sp)
    79c8:	02412383          	lw	t2,36(sp)
    79cc:	06812703          	lw	a4,104(sp)
    79d0:	00051663          	bnez	a0,79dc <_vfprintf_r+0x2298>
    79d4:	001dfd93          	and	s11,s11,1
    79d8:	4c0d9263          	bnez	s11,7e9c <_vfprintf_r+0x2758>
    79dc:	00170b93          	add	s7,a4,1
    79e0:	017a8bb3          	add	s7,s5,s7
    79e4:	03000693          	li	a3,48
    79e8:	4e074e63          	bltz	a4,7ee4 <_vfprintf_r+0x27a0>
    79ec:	001a8a93          	add	s5,s5,1
    79f0:	feda8fa3          	sb	a3,-1(s5)
    79f4:	ff5b9ce3          	bne	s7,s5,79ec <_vfprintf_r+0x22a8>
    79f8:	418b87b3          	sub	a5,s7,s8
    79fc:	02f12223          	sw	a5,36(sp)
    7a00:	fdf8fa93          	and	s5,a7,-33
    7a04:	a85ff06f          	j	7488 <_vfprintf_r+0x1d44>
    7a08:	000d0593          	mv	a1,s10
    7a0c:	000b8513          	mv	a0,s7
    7a10:	05112823          	sw	a7,80(sp)
    7a14:	0be12823          	sw	t5,176(sp)
    7a18:	03e12423          	sw	t5,40(sp)
    7a1c:	0bd12a23          	sw	t4,180(sp)
    7a20:	03d12223          	sw	t4,36(sp)
    7a24:	0bc12c23          	sw	t3,184(sp)
    7a28:	03c12023          	sw	t3,32(sp)
    7a2c:	04d12a23          	sw	a3,84(sp)
    7a30:	0bb12e23          	sw	s11,188(sp)
    7a34:	0a012023          	sw	zero,160(sp)
    7a38:	0a012223          	sw	zero,164(sp)
    7a3c:	0a012423          	sw	zero,168(sp)
    7a40:	0a012623          	sw	zero,172(sp)
    7a44:	981f90ef          	jal	13c4 <__eqtf2>
    7a48:	02012e03          	lw	t3,32(sp)
    7a4c:	02412e83          	lw	t4,36(sp)
    7a50:	02812f03          	lw	t5,40(sp)
    7a54:	05012883          	lw	a7,80(sp)
    7a58:	9c0502e3          	beqz	a0,741c <_vfprintf_r+0x1cd8>
    7a5c:	05412683          	lw	a3,84(sp)
    7a60:	00100613          	li	a2,1
    7a64:	40d606b3          	sub	a3,a2,a3
    7a68:	0cd12623          	sw	a3,204(sp)
    7a6c:	9b5ff06f          	j	7420 <_vfprintf_r+0x1cdc>
    7a70:	00190693          	add	a3,s2,1
    7a74:	00200613          	li	a2,2
    7a78:	91dff06f          	j	7394 <_vfprintf_r+0x1c50>
    7a7c:	00090693          	mv	a3,s2
    7a80:	00300613          	li	a2,3
    7a84:	911ff06f          	j	7394 <_vfprintf_r+0x1c50>
    7a88:	0b010b93          	add	s7,sp,176
    7a8c:	000b8513          	mv	a0,s7
    7a90:	07112223          	sw	a7,100(sp)
    7a94:	0be12823          	sw	t5,176(sp)
    7a98:	0bd12a23          	sw	t4,180(sp)
    7a9c:	0bc12c23          	sw	t3,184(sp)
    7aa0:	0bb12e23          	sw	s11,188(sp)
    7aa4:	e1cfc0ef          	jal	40c0 <__trunctfdf2>
    7aa8:	0cc10613          	add	a2,sp,204
    7aac:	770060ef          	jal	e21c <frexp>
    7ab0:	00058613          	mv	a2,a1
    7ab4:	00050593          	mv	a1,a0
    7ab8:	000b8513          	mv	a0,s7
    7abc:	bf8fc0ef          	jal	3eb4 <__extenddftf2>
    7ac0:	09010793          	add	a5,sp,144
    7ac4:	00078593          	mv	a1,a5
    7ac8:	02f12023          	sw	a5,32(sp)
    7acc:	0b012783          	lw	a5,176(sp)
    7ad0:	0a010d13          	add	s10,sp,160
    7ad4:	08010613          	add	a2,sp,128
    7ad8:	08f12823          	sw	a5,144(sp)
    7adc:	0b412783          	lw	a5,180(sp)
    7ae0:	000d0513          	mv	a0,s10
    7ae4:	04c12a23          	sw	a2,84(sp)
    7ae8:	08f12a23          	sw	a5,148(sp)
    7aec:	0b812783          	lw	a5,184(sp)
    7af0:	08012023          	sw	zero,128(sp)
    7af4:	08012223          	sw	zero,132(sp)
    7af8:	08f12c23          	sw	a5,152(sp)
    7afc:	0bc12783          	lw	a5,188(sp)
    7b00:	08012423          	sw	zero,136(sp)
    7b04:	08f12e23          	sw	a5,156(sp)
    7b08:	3ffc07b7          	lui	a5,0x3ffc0
    7b0c:	08f12623          	sw	a5,140(sp)
    7b10:	c51f90ef          	jal	1760 <__multf3>
    7b14:	0a012703          	lw	a4,160(sp)
    7b18:	0a412683          	lw	a3,164(sp)
    7b1c:	0a812803          	lw	a6,168(sp)
    7b20:	0ac12e03          	lw	t3,172(sp)
    7b24:	000d0593          	mv	a1,s10
    7b28:	000b8513          	mv	a0,s7
    7b2c:	0ae12823          	sw	a4,176(sp)
    7b30:	04e12c23          	sw	a4,88(sp)
    7b34:	0ad12a23          	sw	a3,180(sp)
    7b38:	04d12823          	sw	a3,80(sp)
    7b3c:	0b012c23          	sw	a6,184(sp)
    7b40:	03012423          	sw	a6,40(sp)
    7b44:	0bc12e23          	sw	t3,188(sp)
    7b48:	03c12223          	sw	t3,36(sp)
    7b4c:	0a012023          	sw	zero,160(sp)
    7b50:	0a012223          	sw	zero,164(sp)
    7b54:	0a012423          	sw	zero,168(sp)
    7b58:	0a012623          	sw	zero,172(sp)
    7b5c:	869f90ef          	jal	13c4 <__eqtf2>
    7b60:	02412e03          	lw	t3,36(sp)
    7b64:	02812803          	lw	a6,40(sp)
    7b68:	05012683          	lw	a3,80(sp)
    7b6c:	05812703          	lw	a4,88(sp)
    7b70:	06412883          	lw	a7,100(sp)
    7b74:	00051a63          	bnez	a0,7b88 <_vfprintf_r+0x2444>
    7b78:	00100793          	li	a5,1
    7b7c:	0cf12623          	sw	a5,204(sp)
    7b80:	06100793          	li	a5,97
    7b84:	c4f882e3          	beq	a7,a5,77c8 <_vfprintf_r+0x2084>
    7b88:	000157b7          	lui	a5,0x15
    7b8c:	f2478393          	add	t2,a5,-220 # 14f24 <_getpid_r+0x608>
    7b90:	c41ff06f          	j	77d0 <_vfprintf_r+0x208c>
    7b94:	02c12783          	lw	a5,44(sp)
    7b98:	0017f793          	and	a5,a5,1
    7b9c:	2c079063          	bnez	a5,7e5c <_vfprintf_r+0x2718>
    7ba0:	0dc12b83          	lw	s7,220(sp)
    7ba4:	0cc12683          	lw	a3,204(sp)
    7ba8:	418b87b3          	sub	a5,s7,s8
    7bac:	02f12223          	sw	a5,36(sp)
    7bb0:	ffd00793          	li	a5,-3
    7bb4:	02d12023          	sw	a3,32(sp)
    7bb8:	00f6c463          	blt	a3,a5,7bc0 <_vfprintf_r+0x247c>
    7bbc:	02d95863          	bge	s2,a3,7bec <_vfprintf_r+0x24a8>
    7bc0:	fff68793          	add	a5,a3,-1 # 3ffdffff <_end+0x3ffc602f>
    7bc4:	ffe88893          	add	a7,a7,-2
    7bc8:	0cf12623          	sw	a5,204(sp)
    7bcc:	0ff8f713          	zext.b	a4,a7
    7bd0:	00000613          	li	a2,0
    7bd4:	8edff06f          	j	74c0 <_vfprintf_r+0x1d7c>
    7bd8:	0c714703          	lbu	a4,199(sp)
    7bdc:	00000913          	li	s2,0
    7be0:	00070463          	beqz	a4,7be8 <_vfprintf_r+0x24a4>
    7be4:	83cfe06f          	j	5c20 <_vfprintf_r+0x4dc>
    7be8:	d8dfd06f          	j	5974 <_vfprintf_r+0x230>
    7bec:	02412783          	lw	a5,36(sp)
    7bf0:	14f6c463          	blt	a3,a5,7d38 <_vfprintf_r+0x25f4>
    7bf4:	02c12783          	lw	a5,44(sp)
    7bf8:	00068d13          	mv	s10,a3
    7bfc:	0017f793          	and	a5,a5,1
    7c00:	00078663          	beqz	a5,7c0c <_vfprintf_r+0x24c8>
    7c04:	03412783          	lw	a5,52(sp)
    7c08:	00f68d33          	add	s10,a3,a5
    7c0c:	02c12783          	lw	a5,44(sp)
    7c10:	4007f793          	and	a5,a5,1024
    7c14:	00078463          	beqz	a5,7c1c <_vfprintf_r+0x24d8>
    7c18:	36d04063          	bgtz	a3,7f78 <_vfprintf_r+0x2834>
    7c1c:	fffd4693          	not	a3,s10
    7c20:	05c12b83          	lw	s7,92(sp)
    7c24:	41f6d693          	sra	a3,a3,0x1f
    7c28:	00dd7cb3          	and	s9,s10,a3
    7c2c:	06700893          	li	a7,103
    7c30:	02012623          	sw	zero,44(sp)
    7c34:	02012423          	sw	zero,40(sp)
    7c38:	961ff06f          	j	7598 <_vfprintf_r+0x1e54>
    7c3c:	00012a23          	sw	zero,20(sp)
    7c40:	800007b7          	lui	a5,0x80000
    7c44:	01b7cdb3          	xor	s11,a5,s11
    7c48:	02d00793          	li	a5,45
    7c4c:	06f12023          	sw	a5,96(sp)
    7c50:	a7dff06f          	j	76cc <_vfprintf_r+0x1f88>
    7c54:	0e410613          	add	a2,sp,228
    7c58:	00048593          	mv	a1,s1
    7c5c:	00098513          	mv	a0,s3
    7c60:	414090ef          	jal	11074 <__sprint_r>
    7c64:	00050463          	beqz	a0,7c6c <_vfprintf_r+0x2528>
    7c68:	981fe06f          	j	65e8 <_vfprintf_r+0xea4>
    7c6c:	000bc683          	lbu	a3,0(s7)
    7c70:	0ec12703          	lw	a4,236(sp)
    7c74:	000b0613          	mv	a2,s6
    7c78:	00dc0c33          	add	s8,s8,a3
    7c7c:	d14ff06f          	j	7190 <_vfprintf_r+0x1a4c>
    7c80:	00900513          	li	a0,9
    7c84:	91956e63          	bltu	a0,s9,6da0 <_vfprintf_r+0x165c>
    7c88:	998ff06f          	j	6e20 <_vfprintf_r+0x16dc>
    7c8c:	07800713          	li	a4,120
    7c90:	9f9ff06f          	j	7688 <_vfprintf_r+0x1f44>
    7c94:	02d00713          	li	a4,45
    7c98:	0ce103a3          	sb	a4,199(sp)
    7c9c:	ab4ff06f          	j	6f50 <_vfprintf_r+0x180c>
    7ca0:	00812583          	lw	a1,8(sp)
    7ca4:	0e410613          	add	a2,sp,228
    7ca8:	00098513          	mv	a0,s3
    7cac:	3c8090ef          	jal	11074 <__sprint_r>
    7cb0:	00050463          	beqz	a0,7cb8 <_vfprintf_r+0x2574>
    7cb4:	935fe06f          	j	65e8 <_vfprintf_r+0xea4>
    7cb8:	0cc12603          	lw	a2,204(sp)
    7cbc:	0ec12703          	lw	a4,236(sp)
    7cc0:	000b0413          	mv	s0,s6
    7cc4:	bddfe06f          	j	68a0 <_vfprintf_r+0x115c>
    7cc8:	0c714703          	lbu	a4,199(sp)
    7ccc:	01512c23          	sw	s5,24(sp)
    7cd0:	02012623          	sw	zero,44(sp)
    7cd4:	02012423          	sw	zero,40(sp)
    7cd8:	02012023          	sw	zero,32(sp)
    7cdc:	00090c93          	mv	s9,s2
    7ce0:	00090d13          	mv	s10,s2
    7ce4:	00000913          	li	s2,0
    7ce8:	00070463          	beqz	a4,7cf0 <_vfprintf_r+0x25ac>
    7cec:	f35fd06f          	j	5c20 <_vfprintf_r+0x4dc>
    7cf0:	c85fd06f          	j	5974 <_vfprintf_r+0x230>
    7cf4:	000152b7          	lui	t0,0x15
    7cf8:	f0828c13          	add	s8,t0,-248 # 14f08 <_getpid_r+0x5ec>
    7cfc:	a64ff06f          	j	6f60 <_vfprintf_r+0x181c>
    7d00:	00812583          	lw	a1,8(sp)
    7d04:	0e410613          	add	a2,sp,228
    7d08:	00098513          	mv	a0,s3
    7d0c:	368090ef          	jal	11074 <__sprint_r>
    7d10:	00050463          	beqz	a0,7d18 <_vfprintf_r+0x25d4>
    7d14:	8d5fe06f          	j	65e8 <_vfprintf_r+0xea4>
    7d18:	0cc12603          	lw	a2,204(sp)
    7d1c:	02412783          	lw	a5,36(sp)
    7d20:	0ec12703          	lw	a4,236(sp)
    7d24:	000b0413          	mv	s0,s6
    7d28:	40c78633          	sub	a2,a5,a2
    7d2c:	bbdfe06f          	j	68e8 <_vfprintf_r+0x11a4>
    7d30:	000b8d93          	mv	s11,s7
    7d34:	ba0fe06f          	j	60d4 <_vfprintf_r+0x990>
    7d38:	02412783          	lw	a5,36(sp)
    7d3c:	03412703          	lw	a4,52(sp)
    7d40:	06700893          	li	a7,103
    7d44:	00e78d33          	add	s10,a5,a4
    7d48:	02012783          	lw	a5,32(sp)
    7d4c:	2af05863          	blez	a5,7ffc <_vfprintf_r+0x28b8>
    7d50:	02c12783          	lw	a5,44(sp)
    7d54:	4007f793          	and	a5,a5,1024
    7d58:	22079263          	bnez	a5,7f7c <_vfprintf_r+0x2838>
    7d5c:	fffd4693          	not	a3,s10
    7d60:	41f6d693          	sra	a3,a3,0x1f
    7d64:	05c12b83          	lw	s7,92(sp)
    7d68:	00dd7cb3          	and	s9,s10,a3
    7d6c:	ec5ff06f          	j	7c30 <_vfprintf_r+0x24ec>
    7d70:	00015837          	lui	a6,0x15
    7d74:	ff000593          	li	a1,-16
    7d78:	40a00933          	neg	s2,a0
    7d7c:	14880a93          	add	s5,a6,328 # 15148 <zeroes.0>
    7d80:	01000d13          	li	s10,16
    7d84:	00700d93          	li	s11,7
    7d88:	00b54863          	blt	a0,a1,7d98 <_vfprintf_r+0x2654>
    7d8c:	0840006f          	j	7e10 <_vfprintf_r+0x26cc>
    7d90:	ff090913          	add	s2,s2,-16
    7d94:	072d5e63          	bge	s10,s2,7e10 <_vfprintf_r+0x26cc>
    7d98:	01070713          	add	a4,a4,16
    7d9c:	00160613          	add	a2,a2,1
    7da0:	01542023          	sw	s5,0(s0)
    7da4:	01a42223          	sw	s10,4(s0)
    7da8:	0ee12623          	sw	a4,236(sp)
    7dac:	0ec12423          	sw	a2,232(sp)
    7db0:	00840413          	add	s0,s0,8
    7db4:	fccddee3          	bge	s11,a2,7d90 <_vfprintf_r+0x264c>
    7db8:	00812583          	lw	a1,8(sp)
    7dbc:	0e410613          	add	a2,sp,228
    7dc0:	00098513          	mv	a0,s3
    7dc4:	2b0090ef          	jal	11074 <__sprint_r>
    7dc8:	00050463          	beqz	a0,7dd0 <_vfprintf_r+0x268c>
    7dcc:	81dfe06f          	j	65e8 <_vfprintf_r+0xea4>
    7dd0:	0ec12703          	lw	a4,236(sp)
    7dd4:	0e812603          	lw	a2,232(sp)
    7dd8:	000b0413          	mv	s0,s6
    7ddc:	fb5ff06f          	j	7d90 <_vfprintf_r+0x264c>
    7de0:	fff00793          	li	a5,-1
    7de4:	00f12823          	sw	a5,16(sp)
    7de8:	cd5fd06f          	j	5abc <_vfprintf_r+0x378>
    7dec:	02c12783          	lw	a5,44(sp)
    7df0:	02012703          	lw	a4,32(sp)
    7df4:	0017f793          	and	a5,a5,1
    7df8:	0127e7b3          	or	a5,a5,s2
    7dfc:	24e05263          	blez	a4,8040 <_vfprintf_r+0x28fc>
    7e00:	20079c63          	bnez	a5,8018 <_vfprintf_r+0x28d4>
    7e04:	02012d03          	lw	s10,32(sp)
    7e08:	06600893          	li	a7,102
    7e0c:	f45ff06f          	j	7d50 <_vfprintf_r+0x260c>
    7e10:	01270733          	add	a4,a4,s2
    7e14:	00160613          	add	a2,a2,1
    7e18:	01542023          	sw	s5,0(s0)
    7e1c:	01242223          	sw	s2,4(s0)
    7e20:	0ee12623          	sw	a4,236(sp)
    7e24:	0ec12423          	sw	a2,232(sp)
    7e28:	00700593          	li	a1,7
    7e2c:	00c5c463          	blt	a1,a2,7e34 <_vfprintf_r+0x26f0>
    7e30:	888ff06f          	j	6eb8 <_vfprintf_r+0x1774>
    7e34:	00812583          	lw	a1,8(sp)
    7e38:	0e410613          	add	a2,sp,228
    7e3c:	00098513          	mv	a0,s3
    7e40:	234090ef          	jal	11074 <__sprint_r>
    7e44:	00050463          	beqz	a0,7e4c <_vfprintf_r+0x2708>
    7e48:	fa0fe06f          	j	65e8 <_vfprintf_r+0xea4>
    7e4c:	0ec12703          	lw	a4,236(sp)
    7e50:	0e812603          	lw	a2,232(sp)
    7e54:	000b0413          	mv	s0,s6
    7e58:	99cff06f          	j	6ff4 <_vfprintf_r+0x18b0>
    7e5c:	00dc0cb3          	add	s9,s8,a3
    7e60:	04700a93          	li	s5,71
    7e64:	0a010d13          	add	s10,sp,160
    7e68:	dbcff06f          	j	7424 <_vfprintf_r+0x1ce0>
    7e6c:	0d610713          	add	a4,sp,214
    7e70:	00061863          	bnez	a2,7e80 <_vfprintf_r+0x273c>
    7e74:	03000713          	li	a4,48
    7e78:	0ce10b23          	sb	a4,214(sp)
    7e7c:	0d710713          	add	a4,sp,215
    7e80:	1b010693          	add	a3,sp,432
    7e84:	03078793          	add	a5,a5,48 # 80000030 <_end+0x7ffe6060>
    7e88:	40d706b3          	sub	a3,a4,a3
    7e8c:	00f70023          	sb	a5,0(a4)
    7e90:	0dd68793          	add	a5,a3,221
    7e94:	04f12223          	sw	a5,68(sp)
    7e98:	ec0ff06f          	j	7558 <_vfprintf_r+0x1e14>
    7e9c:	05812783          	lw	a5,88(sp)
    7ea0:	00f3c603          	lbu	a2,15(t2)
    7ea4:	000a8713          	mv	a4,s5
    7ea8:	0cf12e23          	sw	a5,220(sp)
    7eac:	fffac683          	lbu	a3,-1(s5)
    7eb0:	02c69063          	bne	a3,a2,7ed0 <_vfprintf_r+0x278c>
    7eb4:	03000593          	li	a1,48
    7eb8:	feb70fa3          	sb	a1,-1(a4)
    7ebc:	0dc12703          	lw	a4,220(sp)
    7ec0:	fff70793          	add	a5,a4,-1
    7ec4:	0cf12e23          	sw	a5,220(sp)
    7ec8:	fff74683          	lbu	a3,-1(a4)
    7ecc:	fed606e3          	beq	a2,a3,7eb8 <_vfprintf_r+0x2774>
    7ed0:	00168613          	add	a2,a3,1
    7ed4:	03900593          	li	a1,57
    7ed8:	0ff67613          	zext.b	a2,a2
    7edc:	00b68863          	beq	a3,a1,7eec <_vfprintf_r+0x27a8>
    7ee0:	fec70fa3          	sb	a2,-1(a4)
    7ee4:	000a8b93          	mv	s7,s5
    7ee8:	b11ff06f          	j	79f8 <_vfprintf_r+0x22b4>
    7eec:	00a3c603          	lbu	a2,10(t2)
    7ef0:	fec70fa3          	sb	a2,-1(a4)
    7ef4:	ff1ff06f          	j	7ee4 <_vfprintf_r+0x27a0>
    7ef8:	00190593          	add	a1,s2,1
    7efc:	00098513          	mv	a0,s3
    7f00:	01112a23          	sw	a7,20(sp)
    7f04:	e45fc0ef          	jal	4d48 <_malloc_r>
    7f08:	01412883          	lw	a7,20(sp)
    7f0c:	00050c13          	mv	s8,a0
    7f10:	18050863          	beqz	a0,80a0 <_vfprintf_r+0x295c>
    7f14:	00a12a23          	sw	a0,20(sp)
    7f18:	f94ff06f          	j	76ac <_vfprintf_r+0x1f68>
    7f1c:	02c12783          	lw	a5,44(sp)
    7f20:	0017f793          	and	a5,a5,1
    7f24:	e4078863          	beqz	a5,7574 <_vfprintf_r+0x1e30>
    7f28:	e44ff06f          	j	756c <_vfprintf_r+0x1e28>
    7f2c:	00090463          	beqz	s2,7f34 <_vfprintf_r+0x27f0>
    7f30:	e49fd06f          	j	5d78 <_vfprintf_r+0x634>
    7f34:	00100913          	li	s2,1
    7f38:	e41fd06f          	j	5d78 <_vfprintf_r+0x634>
    7f3c:	00600913          	li	s2,6
    7f40:	e39fd06f          	j	5d78 <_vfprintf_r+0x634>
    7f44:	00090a93          	mv	s5,s2
    7f48:	00048f13          	mv	t5,s1
    7f4c:	000a0e93          	mv	t4,s4
    7f50:	06812883          	lw	a7,104(sp)
    7f54:	07412403          	lw	s0,116(sp)
    7f58:	07012903          	lw	s2,112(sp)
    7f5c:	05012383          	lw	t2,80(sp)
    7f60:	07812983          	lw	s3,120(sp)
    7f64:	07c12c03          	lw	s8,124(sp)
    7f68:	06412483          	lw	s1,100(sp)
    7f6c:	06c12a03          	lw	s4,108(sp)
    7f70:	000c8713          	mv	a4,s9
    7f74:	9edff06f          	j	7960 <_vfprintf_r+0x221c>
    7f78:	06700893          	li	a7,103
    7f7c:	04012603          	lw	a2,64(sp)
    7f80:	0ff00713          	li	a4,255
    7f84:	00064783          	lbu	a5,0(a2)
    7f88:	12e78663          	beq	a5,a4,80b4 <_vfprintf_r+0x2970>
    7f8c:	02012683          	lw	a3,32(sp)
    7f90:	00000513          	li	a0,0
    7f94:	00000593          	li	a1,0
    7f98:	00d7de63          	bge	a5,a3,7fb4 <_vfprintf_r+0x2870>
    7f9c:	40f686b3          	sub	a3,a3,a5
    7fa0:	00164783          	lbu	a5,1(a2)
    7fa4:	04078663          	beqz	a5,7ff0 <_vfprintf_r+0x28ac>
    7fa8:	00158593          	add	a1,a1,1
    7fac:	00160613          	add	a2,a2,1
    7fb0:	fee794e3          	bne	a5,a4,7f98 <_vfprintf_r+0x2854>
    7fb4:	04c12023          	sw	a2,64(sp)
    7fb8:	02d12023          	sw	a3,32(sp)
    7fbc:	02b12423          	sw	a1,40(sp)
    7fc0:	02a12623          	sw	a0,44(sp)
    7fc4:	02c12783          	lw	a5,44(sp)
    7fc8:	02812703          	lw	a4,40(sp)
    7fcc:	05c12b83          	lw	s7,92(sp)
    7fd0:	00e78733          	add	a4,a5,a4
    7fd4:	04c12783          	lw	a5,76(sp)
    7fd8:	02f70733          	mul	a4,a4,a5
    7fdc:	01a70d33          	add	s10,a4,s10
    7fe0:	fffd4693          	not	a3,s10
    7fe4:	41f6d693          	sra	a3,a3,0x1f
    7fe8:	00dd7cb3          	and	s9,s10,a3
    7fec:	dacff06f          	j	7598 <_vfprintf_r+0x1e54>
    7ff0:	00064783          	lbu	a5,0(a2)
    7ff4:	00150513          	add	a0,a0,1
    7ff8:	fb9ff06f          	j	7fb0 <_vfprintf_r+0x286c>
    7ffc:	40fd0e33          	sub	t3,s10,a5
    8000:	001e0d13          	add	s10,t3,1
    8004:	fffd4693          	not	a3,s10
    8008:	41f6d693          	sra	a3,a3,0x1f
    800c:	05c12b83          	lw	s7,92(sp)
    8010:	00dd7cb3          	and	s9,s10,a3
    8014:	c1dff06f          	j	7c30 <_vfprintf_r+0x24ec>
    8018:	03412783          	lw	a5,52(sp)
    801c:	06600893          	li	a7,102
    8020:	00f70e33          	add	t3,a4,a5
    8024:	012e0d33          	add	s10,t3,s2
    8028:	d29ff06f          	j	7d50 <_vfprintf_r+0x260c>
    802c:	07000713          	li	a4,112
    8030:	c8cff06f          	j	74bc <_vfprintf_r+0x1d78>
    8034:	00200793          	li	a5,2
    8038:	04f12223          	sw	a5,68(sp)
    803c:	d1cff06f          	j	7558 <_vfprintf_r+0x1e14>
    8040:	00079c63          	bnez	a5,8058 <_vfprintf_r+0x2914>
    8044:	05c12b83          	lw	s7,92(sp)
    8048:	00100c93          	li	s9,1
    804c:	06600893          	li	a7,102
    8050:	00100d13          	li	s10,1
    8054:	bddff06f          	j	7c30 <_vfprintf_r+0x24ec>
    8058:	03412783          	lw	a5,52(sp)
    805c:	05c12b83          	lw	s7,92(sp)
    8060:	06600893          	li	a7,102
    8064:	00178e13          	add	t3,a5,1
    8068:	012e0d33          	add	s10,t3,s2
    806c:	fffd4693          	not	a3,s10
    8070:	41f6d693          	sra	a3,a3,0x1f
    8074:	00dd7cb3          	and	s9,s10,a3
    8078:	bb9ff06f          	j	7c30 <_vfprintf_r+0x24ec>
    807c:	01812783          	lw	a5,24(sp)
    8080:	0007a903          	lw	s2,0(a5)
    8084:	00478793          	add	a5,a5,4
    8088:	00095463          	bgez	s2,8090 <_vfprintf_r+0x294c>
    808c:	fff00913          	li	s2,-1
    8090:	0014c883          	lbu	a7,1(s1)
    8094:	00f12c23          	sw	a5,24(sp)
    8098:	00070493          	mv	s1,a4
    809c:	859fd06f          	j	58f4 <_vfprintf_r+0x1b0>
    80a0:	00812703          	lw	a4,8(sp)
    80a4:	00c75783          	lhu	a5,12(a4)
    80a8:	0407e793          	or	a5,a5,64
    80ac:	00f71623          	sh	a5,12(a4)
    80b0:	9f9fd06f          	j	5aa8 <_vfprintf_r+0x364>
    80b4:	02012623          	sw	zero,44(sp)
    80b8:	02012423          	sw	zero,40(sp)
    80bc:	f09ff06f          	j	7fc4 <_vfprintf_r+0x2880>

000080c0 <vfprintf>:
    80c0:	00050793          	mv	a5,a0
    80c4:	8201a503          	lw	a0,-2016(gp) # 17758 <_impure_ptr>
    80c8:	00060693          	mv	a3,a2
    80cc:	00058613          	mv	a2,a1
    80d0:	00078593          	mv	a1,a5
    80d4:	e70fd06f          	j	5744 <_vfprintf_r>

000080d8 <__sbprintf>:
    80d8:	00c59783          	lh	a5,12(a1)
    80dc:	00e5d703          	lhu	a4,14(a1)
    80e0:	0645a303          	lw	t1,100(a1)
    80e4:	ffd7f793          	and	a5,a5,-3
    80e8:	01079793          	sll	a5,a5,0x10
    80ec:	01c5a883          	lw	a7,28(a1)
    80f0:	0245a803          	lw	a6,36(a1)
    80f4:	01071713          	sll	a4,a4,0x10
    80f8:	0107d793          	srl	a5,a5,0x10
    80fc:	b8010113          	add	sp,sp,-1152
    8100:	00e7e7b3          	or	a5,a5,a4
    8104:	46812c23          	sw	s0,1144(sp)
    8108:	40000713          	li	a4,1024
    810c:	00f12a23          	sw	a5,20(sp)
    8110:	00058413          	mv	s0,a1
    8114:	07010793          	add	a5,sp,112
    8118:	00810593          	add	a1,sp,8
    811c:	46912a23          	sw	s1,1140(sp)
    8120:	47212823          	sw	s2,1136(sp)
    8124:	46112e23          	sw	ra,1148(sp)
    8128:	00050913          	mv	s2,a0
    812c:	06612623          	sw	t1,108(sp)
    8130:	03112223          	sw	a7,36(sp)
    8134:	03012623          	sw	a6,44(sp)
    8138:	00f12423          	sw	a5,8(sp)
    813c:	00f12c23          	sw	a5,24(sp)
    8140:	00e12823          	sw	a4,16(sp)
    8144:	00e12e23          	sw	a4,28(sp)
    8148:	02012023          	sw	zero,32(sp)
    814c:	df8fd0ef          	jal	5744 <_vfprintf_r>
    8150:	00050493          	mv	s1,a0
    8154:	02055c63          	bgez	a0,818c <__sbprintf+0xb4>
    8158:	01415783          	lhu	a5,20(sp)
    815c:	0407f793          	and	a5,a5,64
    8160:	00078863          	beqz	a5,8170 <__sbprintf+0x98>
    8164:	00c45783          	lhu	a5,12(s0)
    8168:	0407e793          	or	a5,a5,64
    816c:	00f41623          	sh	a5,12(s0)
    8170:	47c12083          	lw	ra,1148(sp)
    8174:	47812403          	lw	s0,1144(sp)
    8178:	47012903          	lw	s2,1136(sp)
    817c:	00048513          	mv	a0,s1
    8180:	47412483          	lw	s1,1140(sp)
    8184:	48010113          	add	sp,sp,1152
    8188:	00008067          	ret
    818c:	00810593          	add	a1,sp,8
    8190:	00090513          	mv	a0,s2
    8194:	4d0000ef          	jal	8664 <_fflush_r>
    8198:	fc0500e3          	beqz	a0,8158 <__sbprintf+0x80>
    819c:	fff00493          	li	s1,-1
    81a0:	fb9ff06f          	j	8158 <__sbprintf+0x80>

000081a4 <__swsetup_r>:
    81a4:	8201a783          	lw	a5,-2016(gp) # 17758 <_impure_ptr>
    81a8:	ff010113          	add	sp,sp,-16
    81ac:	00812423          	sw	s0,8(sp)
    81b0:	00912223          	sw	s1,4(sp)
    81b4:	00112623          	sw	ra,12(sp)
    81b8:	00050493          	mv	s1,a0
    81bc:	00058413          	mv	s0,a1
    81c0:	00078663          	beqz	a5,81cc <__swsetup_r+0x28>
    81c4:	0387a703          	lw	a4,56(a5)
    81c8:	08070063          	beqz	a4,8248 <__swsetup_r+0xa4>
    81cc:	00c41783          	lh	a5,12(s0)
    81d0:	0087f713          	and	a4,a5,8
    81d4:	08070463          	beqz	a4,825c <__swsetup_r+0xb8>
    81d8:	01042703          	lw	a4,16(s0)
    81dc:	0a070063          	beqz	a4,827c <__swsetup_r+0xd8>
    81e0:	0017f693          	and	a3,a5,1
    81e4:	02068863          	beqz	a3,8214 <__swsetup_r+0x70>
    81e8:	01442683          	lw	a3,20(s0)
    81ec:	00042423          	sw	zero,8(s0)
    81f0:	00000513          	li	a0,0
    81f4:	40d006b3          	neg	a3,a3
    81f8:	00d42c23          	sw	a3,24(s0)
    81fc:	02070a63          	beqz	a4,8230 <__swsetup_r+0x8c>
    8200:	00c12083          	lw	ra,12(sp)
    8204:	00812403          	lw	s0,8(sp)
    8208:	00412483          	lw	s1,4(sp)
    820c:	01010113          	add	sp,sp,16
    8210:	00008067          	ret
    8214:	0027f693          	and	a3,a5,2
    8218:	00000613          	li	a2,0
    821c:	00069463          	bnez	a3,8224 <__swsetup_r+0x80>
    8220:	01442603          	lw	a2,20(s0)
    8224:	00c42423          	sw	a2,8(s0)
    8228:	00000513          	li	a0,0
    822c:	fc071ae3          	bnez	a4,8200 <__swsetup_r+0x5c>
    8230:	0807f713          	and	a4,a5,128
    8234:	fc0706e3          	beqz	a4,8200 <__swsetup_r+0x5c>
    8238:	0407e793          	or	a5,a5,64
    823c:	00f41623          	sh	a5,12(s0)
    8240:	fff00513          	li	a0,-1
    8244:	fbdff06f          	j	8200 <__swsetup_r+0x5c>
    8248:	00078513          	mv	a0,a5
    824c:	03d000ef          	jal	8a88 <__sinit>
    8250:	00c41783          	lh	a5,12(s0)
    8254:	0087f713          	and	a4,a5,8
    8258:	f80710e3          	bnez	a4,81d8 <__swsetup_r+0x34>
    825c:	0107f713          	and	a4,a5,16
    8260:	06070a63          	beqz	a4,82d4 <__swsetup_r+0x130>
    8264:	0047f713          	and	a4,a5,4
    8268:	02071c63          	bnez	a4,82a0 <__swsetup_r+0xfc>
    826c:	01042703          	lw	a4,16(s0)
    8270:	0087e793          	or	a5,a5,8
    8274:	00f41623          	sh	a5,12(s0)
    8278:	f60714e3          	bnez	a4,81e0 <__swsetup_r+0x3c>
    827c:	2807f693          	and	a3,a5,640
    8280:	20000613          	li	a2,512
    8284:	f4c68ee3          	beq	a3,a2,81e0 <__swsetup_r+0x3c>
    8288:	00040593          	mv	a1,s0
    828c:	00048513          	mv	a0,s1
    8290:	75d030ef          	jal	c1ec <__smakebuf_r>
    8294:	00c41783          	lh	a5,12(s0)
    8298:	01042703          	lw	a4,16(s0)
    829c:	f45ff06f          	j	81e0 <__swsetup_r+0x3c>
    82a0:	03042583          	lw	a1,48(s0)
    82a4:	00058e63          	beqz	a1,82c0 <__swsetup_r+0x11c>
    82a8:	04040713          	add	a4,s0,64
    82ac:	00e58863          	beq	a1,a4,82bc <__swsetup_r+0x118>
    82b0:	00048513          	mv	a0,s1
    82b4:	1ad000ef          	jal	8c60 <_free_r>
    82b8:	00c41783          	lh	a5,12(s0)
    82bc:	02042823          	sw	zero,48(s0)
    82c0:	01042703          	lw	a4,16(s0)
    82c4:	fdb7f793          	and	a5,a5,-37
    82c8:	00042223          	sw	zero,4(s0)
    82cc:	00e42023          	sw	a4,0(s0)
    82d0:	fa1ff06f          	j	8270 <__swsetup_r+0xcc>
    82d4:	00900713          	li	a4,9
    82d8:	00e4a023          	sw	a4,0(s1)
    82dc:	0407e793          	or	a5,a5,64
    82e0:	f5dff06f          	j	823c <__swsetup_r+0x98>

000082e4 <__call_exitprocs>:
    82e4:	fd010113          	add	sp,sp,-48
    82e8:	01412c23          	sw	s4,24(sp)
    82ec:	8181aa03          	lw	s4,-2024(gp) # 17750 <_global_impure_ptr>
    82f0:	03212023          	sw	s2,32(sp)
    82f4:	02112623          	sw	ra,44(sp)
    82f8:	148a2903          	lw	s2,328(s4)
    82fc:	02812423          	sw	s0,40(sp)
    8300:	02912223          	sw	s1,36(sp)
    8304:	01312e23          	sw	s3,28(sp)
    8308:	01512a23          	sw	s5,20(sp)
    830c:	01612823          	sw	s6,16(sp)
    8310:	01712623          	sw	s7,12(sp)
    8314:	01812423          	sw	s8,8(sp)
    8318:	04090063          	beqz	s2,8358 <__call_exitprocs+0x74>
    831c:	00050b13          	mv	s6,a0
    8320:	00058b93          	mv	s7,a1
    8324:	00100a93          	li	s5,1
    8328:	fff00993          	li	s3,-1
    832c:	00492483          	lw	s1,4(s2)
    8330:	fff48413          	add	s0,s1,-1
    8334:	02044263          	bltz	s0,8358 <__call_exitprocs+0x74>
    8338:	00249493          	sll	s1,s1,0x2
    833c:	009904b3          	add	s1,s2,s1
    8340:	040b8463          	beqz	s7,8388 <__call_exitprocs+0xa4>
    8344:	1044a783          	lw	a5,260(s1)
    8348:	05778063          	beq	a5,s7,8388 <__call_exitprocs+0xa4>
    834c:	fff40413          	add	s0,s0,-1
    8350:	ffc48493          	add	s1,s1,-4
    8354:	ff3416e3          	bne	s0,s3,8340 <__call_exitprocs+0x5c>
    8358:	02c12083          	lw	ra,44(sp)
    835c:	02812403          	lw	s0,40(sp)
    8360:	02412483          	lw	s1,36(sp)
    8364:	02012903          	lw	s2,32(sp)
    8368:	01c12983          	lw	s3,28(sp)
    836c:	01812a03          	lw	s4,24(sp)
    8370:	01412a83          	lw	s5,20(sp)
    8374:	01012b03          	lw	s6,16(sp)
    8378:	00c12b83          	lw	s7,12(sp)
    837c:	00812c03          	lw	s8,8(sp)
    8380:	03010113          	add	sp,sp,48
    8384:	00008067          	ret
    8388:	00492783          	lw	a5,4(s2)
    838c:	0044a683          	lw	a3,4(s1)
    8390:	fff78793          	add	a5,a5,-1
    8394:	04878e63          	beq	a5,s0,83f0 <__call_exitprocs+0x10c>
    8398:	0004a223          	sw	zero,4(s1)
    839c:	fa0688e3          	beqz	a3,834c <__call_exitprocs+0x68>
    83a0:	18892783          	lw	a5,392(s2)
    83a4:	008a9733          	sll	a4,s5,s0
    83a8:	00492c03          	lw	s8,4(s2)
    83ac:	00f777b3          	and	a5,a4,a5
    83b0:	02079263          	bnez	a5,83d4 <__call_exitprocs+0xf0>
    83b4:	000680e7          	jalr	a3
    83b8:	00492703          	lw	a4,4(s2)
    83bc:	148a2783          	lw	a5,328(s4)
    83c0:	01871463          	bne	a4,s8,83c8 <__call_exitprocs+0xe4>
    83c4:	f92784e3          	beq	a5,s2,834c <__call_exitprocs+0x68>
    83c8:	f80788e3          	beqz	a5,8358 <__call_exitprocs+0x74>
    83cc:	00078913          	mv	s2,a5
    83d0:	f5dff06f          	j	832c <__call_exitprocs+0x48>
    83d4:	18c92783          	lw	a5,396(s2)
    83d8:	0844a583          	lw	a1,132(s1)
    83dc:	00f77733          	and	a4,a4,a5
    83e0:	00071c63          	bnez	a4,83f8 <__call_exitprocs+0x114>
    83e4:	000b0513          	mv	a0,s6
    83e8:	000680e7          	jalr	a3
    83ec:	fcdff06f          	j	83b8 <__call_exitprocs+0xd4>
    83f0:	00892223          	sw	s0,4(s2)
    83f4:	fa9ff06f          	j	839c <__call_exitprocs+0xb8>
    83f8:	00058513          	mv	a0,a1
    83fc:	000680e7          	jalr	a3
    8400:	fb9ff06f          	j	83b8 <__call_exitprocs+0xd4>

00008404 <atexit>:
    8404:	00050593          	mv	a1,a0
    8408:	00000693          	li	a3,0
    840c:	00000613          	li	a2,0
    8410:	00000513          	li	a0,0
    8414:	2ac0a06f          	j	126c0 <__register_exitproc>

00008418 <__sflush_r>:
    8418:	00c59783          	lh	a5,12(a1)
    841c:	fe010113          	add	sp,sp,-32
    8420:	00812c23          	sw	s0,24(sp)
    8424:	01312623          	sw	s3,12(sp)
    8428:	00112e23          	sw	ra,28(sp)
    842c:	00912a23          	sw	s1,20(sp)
    8430:	01212823          	sw	s2,16(sp)
    8434:	0087f713          	and	a4,a5,8
    8438:	00058413          	mv	s0,a1
    843c:	00050993          	mv	s3,a0
    8440:	12071263          	bnez	a4,8564 <__sflush_r+0x14c>
    8444:	00001737          	lui	a4,0x1
    8448:	80070713          	add	a4,a4,-2048 # 800 <__divdf3+0x100>
    844c:	0045a683          	lw	a3,4(a1)
    8450:	00e7e733          	or	a4,a5,a4
    8454:	00e59623          	sh	a4,12(a1)
    8458:	18d05863          	blez	a3,85e8 <__sflush_r+0x1d0>
    845c:	02842803          	lw	a6,40(s0)
    8460:	0e080263          	beqz	a6,8544 <__sflush_r+0x12c>
    8464:	00c7d793          	srl	a5,a5,0xc
    8468:	0009a483          	lw	s1,0(s3)
    846c:	0017f793          	and	a5,a5,1
    8470:	0009a023          	sw	zero,0(s3)
    8474:	01c42583          	lw	a1,28(s0)
    8478:	18079063          	bnez	a5,85f8 <__sflush_r+0x1e0>
    847c:	00000613          	li	a2,0
    8480:	00100693          	li	a3,1
    8484:	00098513          	mv	a0,s3
    8488:	000800e7          	jalr	a6
    848c:	fff00793          	li	a5,-1
    8490:	00050613          	mv	a2,a0
    8494:	1af50063          	beq	a0,a5,8634 <__sflush_r+0x21c>
    8498:	00c41703          	lh	a4,12(s0)
    849c:	02842803          	lw	a6,40(s0)
    84a0:	01c42583          	lw	a1,28(s0)
    84a4:	00477713          	and	a4,a4,4
    84a8:	00070e63          	beqz	a4,84c4 <__sflush_r+0xac>
    84ac:	00442703          	lw	a4,4(s0)
    84b0:	03042783          	lw	a5,48(s0)
    84b4:	40e60633          	sub	a2,a2,a4
    84b8:	00078663          	beqz	a5,84c4 <__sflush_r+0xac>
    84bc:	03c42783          	lw	a5,60(s0)
    84c0:	40f60633          	sub	a2,a2,a5
    84c4:	00000693          	li	a3,0
    84c8:	00098513          	mv	a0,s3
    84cc:	000800e7          	jalr	a6
    84d0:	fff00793          	li	a5,-1
    84d4:	12f51663          	bne	a0,a5,8600 <__sflush_r+0x1e8>
    84d8:	0009a683          	lw	a3,0(s3)
    84dc:	01d00793          	li	a5,29
    84e0:	0cd7ee63          	bltu	a5,a3,85bc <__sflush_r+0x1a4>
    84e4:	dfc00737          	lui	a4,0xdfc00
    84e8:	ffe70713          	add	a4,a4,-2 # dfbffffe <_end+0xdfbe602e>
    84ec:	40d75733          	sra	a4,a4,a3
    84f0:	00177713          	and	a4,a4,1
    84f4:	00c41783          	lh	a5,12(s0)
    84f8:	0c071463          	bnez	a4,85c0 <__sflush_r+0x1a8>
    84fc:	01042603          	lw	a2,16(s0)
    8500:	fffff737          	lui	a4,0xfffff
    8504:	7ff70713          	add	a4,a4,2047 # fffff7ff <_end+0xfffe582f>
    8508:	00e7f733          	and	a4,a5,a4
    850c:	00c7d793          	srl	a5,a5,0xc
    8510:	00e41623          	sh	a4,12(s0)
    8514:	00042223          	sw	zero,4(s0)
    8518:	00c42023          	sw	a2,0(s0)
    851c:	0017f793          	and	a5,a5,1
    8520:	12079c63          	bnez	a5,8658 <__sflush_r+0x240>
    8524:	03042583          	lw	a1,48(s0)
    8528:	0099a023          	sw	s1,0(s3)
    852c:	00058c63          	beqz	a1,8544 <__sflush_r+0x12c>
    8530:	04040793          	add	a5,s0,64
    8534:	00f58663          	beq	a1,a5,8540 <__sflush_r+0x128>
    8538:	00098513          	mv	a0,s3
    853c:	724000ef          	jal	8c60 <_free_r>
    8540:	02042823          	sw	zero,48(s0)
    8544:	00000513          	li	a0,0
    8548:	01c12083          	lw	ra,28(sp)
    854c:	01812403          	lw	s0,24(sp)
    8550:	01412483          	lw	s1,20(sp)
    8554:	01012903          	lw	s2,16(sp)
    8558:	00c12983          	lw	s3,12(sp)
    855c:	02010113          	add	sp,sp,32
    8560:	00008067          	ret
    8564:	0105a903          	lw	s2,16(a1)
    8568:	fc090ee3          	beqz	s2,8544 <__sflush_r+0x12c>
    856c:	0005a483          	lw	s1,0(a1)
    8570:	0037f793          	and	a5,a5,3
    8574:	0125a023          	sw	s2,0(a1)
    8578:	412484b3          	sub	s1,s1,s2
    857c:	00000713          	li	a4,0
    8580:	00079463          	bnez	a5,8588 <__sflush_r+0x170>
    8584:	0145a703          	lw	a4,20(a1)
    8588:	00e42423          	sw	a4,8(s0)
    858c:	00904863          	bgtz	s1,859c <__sflush_r+0x184>
    8590:	fb5ff06f          	j	8544 <__sflush_r+0x12c>
    8594:	00a90933          	add	s2,s2,a0
    8598:	fa9056e3          	blez	s1,8544 <__sflush_r+0x12c>
    859c:	02442783          	lw	a5,36(s0)
    85a0:	01c42583          	lw	a1,28(s0)
    85a4:	00048693          	mv	a3,s1
    85a8:	00090613          	mv	a2,s2
    85ac:	00098513          	mv	a0,s3
    85b0:	000780e7          	jalr	a5
    85b4:	40a484b3          	sub	s1,s1,a0
    85b8:	fca04ee3          	bgtz	a0,8594 <__sflush_r+0x17c>
    85bc:	00c41783          	lh	a5,12(s0)
    85c0:	0407e793          	or	a5,a5,64
    85c4:	01c12083          	lw	ra,28(sp)
    85c8:	00f41623          	sh	a5,12(s0)
    85cc:	01812403          	lw	s0,24(sp)
    85d0:	01412483          	lw	s1,20(sp)
    85d4:	01012903          	lw	s2,16(sp)
    85d8:	00c12983          	lw	s3,12(sp)
    85dc:	fff00513          	li	a0,-1
    85e0:	02010113          	add	sp,sp,32
    85e4:	00008067          	ret
    85e8:	03c5a683          	lw	a3,60(a1)
    85ec:	e6d048e3          	bgtz	a3,845c <__sflush_r+0x44>
    85f0:	00000513          	li	a0,0
    85f4:	f55ff06f          	j	8548 <__sflush_r+0x130>
    85f8:	05042603          	lw	a2,80(s0)
    85fc:	ea9ff06f          	j	84a4 <__sflush_r+0x8c>
    8600:	00c41783          	lh	a5,12(s0)
    8604:	01042683          	lw	a3,16(s0)
    8608:	fffff737          	lui	a4,0xfffff
    860c:	7ff70713          	add	a4,a4,2047 # fffff7ff <_end+0xfffe582f>
    8610:	00e7f733          	and	a4,a5,a4
    8614:	00c7d793          	srl	a5,a5,0xc
    8618:	00e41623          	sh	a4,12(s0)
    861c:	00042223          	sw	zero,4(s0)
    8620:	00d42023          	sw	a3,0(s0)
    8624:	0017f793          	and	a5,a5,1
    8628:	ee078ee3          	beqz	a5,8524 <__sflush_r+0x10c>
    862c:	04a42823          	sw	a0,80(s0)
    8630:	ef5ff06f          	j	8524 <__sflush_r+0x10c>
    8634:	0009a783          	lw	a5,0(s3)
    8638:	e60780e3          	beqz	a5,8498 <__sflush_r+0x80>
    863c:	01d00713          	li	a4,29
    8640:	00e78663          	beq	a5,a4,864c <__sflush_r+0x234>
    8644:	01600713          	li	a4,22
    8648:	f6e79ae3          	bne	a5,a4,85bc <__sflush_r+0x1a4>
    864c:	0099a023          	sw	s1,0(s3)
    8650:	00000513          	li	a0,0
    8654:	ef5ff06f          	j	8548 <__sflush_r+0x130>
    8658:	ec0696e3          	bnez	a3,8524 <__sflush_r+0x10c>
    865c:	04a42823          	sw	a0,80(s0)
    8660:	ec5ff06f          	j	8524 <__sflush_r+0x10c>

00008664 <_fflush_r>:
    8664:	fe010113          	add	sp,sp,-32
    8668:	00812c23          	sw	s0,24(sp)
    866c:	00112e23          	sw	ra,28(sp)
    8670:	00050413          	mv	s0,a0
    8674:	00050663          	beqz	a0,8680 <_fflush_r+0x1c>
    8678:	03852783          	lw	a5,56(a0)
    867c:	02078063          	beqz	a5,869c <_fflush_r+0x38>
    8680:	00c59783          	lh	a5,12(a1)
    8684:	02079663          	bnez	a5,86b0 <_fflush_r+0x4c>
    8688:	01c12083          	lw	ra,28(sp)
    868c:	01812403          	lw	s0,24(sp)
    8690:	00000513          	li	a0,0
    8694:	02010113          	add	sp,sp,32
    8698:	00008067          	ret
    869c:	00b12623          	sw	a1,12(sp)
    86a0:	3e8000ef          	jal	8a88 <__sinit>
    86a4:	00c12583          	lw	a1,12(sp)
    86a8:	00c59783          	lh	a5,12(a1)
    86ac:	fc078ee3          	beqz	a5,8688 <_fflush_r+0x24>
    86b0:	00040513          	mv	a0,s0
    86b4:	01812403          	lw	s0,24(sp)
    86b8:	01c12083          	lw	ra,28(sp)
    86bc:	02010113          	add	sp,sp,32
    86c0:	d59ff06f          	j	8418 <__sflush_r>

000086c4 <fflush>:
    86c4:	06050663          	beqz	a0,8730 <fflush+0x6c>
    86c8:	fe010113          	add	sp,sp,-32
    86cc:	00812c23          	sw	s0,24(sp)
    86d0:	00050413          	mv	s0,a0
    86d4:	8201a503          	lw	a0,-2016(gp) # 17758 <_impure_ptr>
    86d8:	00112e23          	sw	ra,28(sp)
    86dc:	00050663          	beqz	a0,86e8 <fflush+0x24>
    86e0:	03852783          	lw	a5,56(a0)
    86e4:	02078a63          	beqz	a5,8718 <fflush+0x54>
    86e8:	00c41783          	lh	a5,12(s0)
    86ec:	00079c63          	bnez	a5,8704 <fflush+0x40>
    86f0:	01c12083          	lw	ra,28(sp)
    86f4:	01812403          	lw	s0,24(sp)
    86f8:	00000513          	li	a0,0
    86fc:	02010113          	add	sp,sp,32
    8700:	00008067          	ret
    8704:	00040593          	mv	a1,s0
    8708:	01812403          	lw	s0,24(sp)
    870c:	01c12083          	lw	ra,28(sp)
    8710:	02010113          	add	sp,sp,32
    8714:	d05ff06f          	j	8418 <__sflush_r>
    8718:	00a12623          	sw	a0,12(sp)
    871c:	36c000ef          	jal	8a88 <__sinit>
    8720:	00c41783          	lh	a5,12(s0)
    8724:	00c12503          	lw	a0,12(sp)
    8728:	fc0784e3          	beqz	a5,86f0 <fflush+0x2c>
    872c:	fd9ff06f          	j	8704 <fflush+0x40>
    8730:	8181a503          	lw	a0,-2024(gp) # 17750 <_global_impure_ptr>
    8734:	000085b7          	lui	a1,0x8
    8738:	66458593          	add	a1,a1,1636 # 8664 <_fflush_r>
    873c:	5690006f          	j	94a4 <_fwalk_reent>

00008740 <__fp_lock>:
    8740:	00000513          	li	a0,0
    8744:	00008067          	ret

00008748 <_cleanup_r>:
    8748:	000135b7          	lui	a1,0x13
    874c:	90458593          	add	a1,a1,-1788 # 12904 <_fclose_r>
    8750:	5550006f          	j	94a4 <_fwalk_reent>

00008754 <__fp_unlock>:
    8754:	00000513          	li	a0,0
    8758:	00008067          	ret

0000875c <__sinit.part.0>:
    875c:	fe010113          	add	sp,sp,-32
    8760:	000087b7          	lui	a5,0x8
    8764:	00112e23          	sw	ra,28(sp)
    8768:	00812c23          	sw	s0,24(sp)
    876c:	00912a23          	sw	s1,20(sp)
    8770:	01212823          	sw	s2,16(sp)
    8774:	01312623          	sw	s3,12(sp)
    8778:	01412423          	sw	s4,8(sp)
    877c:	01512223          	sw	s5,4(sp)
    8780:	01612023          	sw	s6,0(sp)
    8784:	00452403          	lw	s0,4(a0)
    8788:	74878793          	add	a5,a5,1864 # 8748 <_cleanup_r>
    878c:	02f52e23          	sw	a5,60(a0)
    8790:	2ec50713          	add	a4,a0,748
    8794:	00300793          	li	a5,3
    8798:	2ee52423          	sw	a4,744(a0)
    879c:	2ef52223          	sw	a5,740(a0)
    87a0:	2e052023          	sw	zero,736(a0)
    87a4:	00400793          	li	a5,4
    87a8:	00050913          	mv	s2,a0
    87ac:	00f42623          	sw	a5,12(s0)
    87b0:	00800613          	li	a2,8
    87b4:	00000593          	li	a1,0
    87b8:	00042023          	sw	zero,0(s0)
    87bc:	00042223          	sw	zero,4(s0)
    87c0:	00042423          	sw	zero,8(s0)
    87c4:	06042223          	sw	zero,100(s0)
    87c8:	00042823          	sw	zero,16(s0)
    87cc:	00042a23          	sw	zero,20(s0)
    87d0:	00042c23          	sw	zero,24(s0)
    87d4:	05c40513          	add	a0,s0,92
    87d8:	cd1f70ef          	jal	4a8 <memset>
    87dc:	0000eb37          	lui	s6,0xe
    87e0:	00892483          	lw	s1,8(s2)
    87e4:	0000eab7          	lui	s5,0xe
    87e8:	0000ea37          	lui	s4,0xe
    87ec:	0000e9b7          	lui	s3,0xe
    87f0:	3a8b0b13          	add	s6,s6,936 # e3a8 <__sread>
    87f4:	40ca8a93          	add	s5,s5,1036 # e40c <__swrite>
    87f8:	494a0a13          	add	s4,s4,1172 # e494 <__sseek>
    87fc:	50c98993          	add	s3,s3,1292 # e50c <__sclose>
    8800:	000107b7          	lui	a5,0x10
    8804:	03642023          	sw	s6,32(s0)
    8808:	03542223          	sw	s5,36(s0)
    880c:	03442423          	sw	s4,40(s0)
    8810:	03342623          	sw	s3,44(s0)
    8814:	00842e23          	sw	s0,28(s0)
    8818:	00978793          	add	a5,a5,9 # 10009 <_svfprintf_r+0x1999>
    881c:	00f4a623          	sw	a5,12(s1)
    8820:	00800613          	li	a2,8
    8824:	00000593          	li	a1,0
    8828:	0004a023          	sw	zero,0(s1)
    882c:	0004a223          	sw	zero,4(s1)
    8830:	0004a423          	sw	zero,8(s1)
    8834:	0604a223          	sw	zero,100(s1)
    8838:	0004a823          	sw	zero,16(s1)
    883c:	0004aa23          	sw	zero,20(s1)
    8840:	0004ac23          	sw	zero,24(s1)
    8844:	05c48513          	add	a0,s1,92
    8848:	c61f70ef          	jal	4a8 <memset>
    884c:	00c92403          	lw	s0,12(s2)
    8850:	000207b7          	lui	a5,0x20
    8854:	0364a023          	sw	s6,32(s1)
    8858:	0354a223          	sw	s5,36(s1)
    885c:	0344a423          	sw	s4,40(s1)
    8860:	0334a623          	sw	s3,44(s1)
    8864:	0094ae23          	sw	s1,28(s1)
    8868:	01278793          	add	a5,a5,18 # 20012 <_end+0x6042>
    886c:	00f42623          	sw	a5,12(s0)
    8870:	00042023          	sw	zero,0(s0)
    8874:	00042223          	sw	zero,4(s0)
    8878:	00042423          	sw	zero,8(s0)
    887c:	06042223          	sw	zero,100(s0)
    8880:	00042823          	sw	zero,16(s0)
    8884:	00042a23          	sw	zero,20(s0)
    8888:	00042c23          	sw	zero,24(s0)
    888c:	05c40513          	add	a0,s0,92
    8890:	00800613          	li	a2,8
    8894:	00000593          	li	a1,0
    8898:	c11f70ef          	jal	4a8 <memset>
    889c:	01c12083          	lw	ra,28(sp)
    88a0:	03642023          	sw	s6,32(s0)
    88a4:	03542223          	sw	s5,36(s0)
    88a8:	03442423          	sw	s4,40(s0)
    88ac:	03342623          	sw	s3,44(s0)
    88b0:	00842e23          	sw	s0,28(s0)
    88b4:	01812403          	lw	s0,24(sp)
    88b8:	00100793          	li	a5,1
    88bc:	02f92c23          	sw	a5,56(s2)
    88c0:	01412483          	lw	s1,20(sp)
    88c4:	01012903          	lw	s2,16(sp)
    88c8:	00c12983          	lw	s3,12(sp)
    88cc:	00812a03          	lw	s4,8(sp)
    88d0:	00412a83          	lw	s5,4(sp)
    88d4:	00012b03          	lw	s6,0(sp)
    88d8:	02010113          	add	sp,sp,32
    88dc:	00008067          	ret

000088e0 <__sfmoreglue>:
    88e0:	ff010113          	add	sp,sp,-16
    88e4:	00912223          	sw	s1,4(sp)
    88e8:	06800793          	li	a5,104
    88ec:	fff58493          	add	s1,a1,-1
    88f0:	02f484b3          	mul	s1,s1,a5
    88f4:	01212023          	sw	s2,0(sp)
    88f8:	00058913          	mv	s2,a1
    88fc:	00812423          	sw	s0,8(sp)
    8900:	00112623          	sw	ra,12(sp)
    8904:	07448593          	add	a1,s1,116
    8908:	c40fc0ef          	jal	4d48 <_malloc_r>
    890c:	00050413          	mv	s0,a0
    8910:	02050063          	beqz	a0,8930 <__sfmoreglue+0x50>
    8914:	00c50513          	add	a0,a0,12
    8918:	00042023          	sw	zero,0(s0)
    891c:	01242223          	sw	s2,4(s0)
    8920:	00a42423          	sw	a0,8(s0)
    8924:	06848613          	add	a2,s1,104
    8928:	00000593          	li	a1,0
    892c:	b7df70ef          	jal	4a8 <memset>
    8930:	00c12083          	lw	ra,12(sp)
    8934:	00040513          	mv	a0,s0
    8938:	00812403          	lw	s0,8(sp)
    893c:	00412483          	lw	s1,4(sp)
    8940:	00012903          	lw	s2,0(sp)
    8944:	01010113          	add	sp,sp,16
    8948:	00008067          	ret

0000894c <__sfp>:
    894c:	fe010113          	add	sp,sp,-32
    8950:	01212823          	sw	s2,16(sp)
    8954:	8181a903          	lw	s2,-2024(gp) # 17750 <_global_impure_ptr>
    8958:	01312623          	sw	s3,12(sp)
    895c:	00112e23          	sw	ra,28(sp)
    8960:	03892783          	lw	a5,56(s2)
    8964:	00812c23          	sw	s0,24(sp)
    8968:	00912a23          	sw	s1,20(sp)
    896c:	00050993          	mv	s3,a0
    8970:	0a078663          	beqz	a5,8a1c <__sfp+0xd0>
    8974:	2e090913          	add	s2,s2,736
    8978:	fff00493          	li	s1,-1
    897c:	00492783          	lw	a5,4(s2)
    8980:	00892403          	lw	s0,8(s2)
    8984:	fff78793          	add	a5,a5,-1
    8988:	0007d863          	bgez	a5,8998 <__sfp+0x4c>
    898c:	0800006f          	j	8a0c <__sfp+0xc0>
    8990:	06840413          	add	s0,s0,104
    8994:	06978c63          	beq	a5,s1,8a0c <__sfp+0xc0>
    8998:	00c41703          	lh	a4,12(s0)
    899c:	fff78793          	add	a5,a5,-1
    89a0:	fe0718e3          	bnez	a4,8990 <__sfp+0x44>
    89a4:	ffff07b7          	lui	a5,0xffff0
    89a8:	00178793          	add	a5,a5,1 # ffff0001 <_end+0xfffd6031>
    89ac:	00f42623          	sw	a5,12(s0)
    89b0:	06042223          	sw	zero,100(s0)
    89b4:	00042023          	sw	zero,0(s0)
    89b8:	00042423          	sw	zero,8(s0)
    89bc:	00042223          	sw	zero,4(s0)
    89c0:	00042823          	sw	zero,16(s0)
    89c4:	00042a23          	sw	zero,20(s0)
    89c8:	00042c23          	sw	zero,24(s0)
    89cc:	00800613          	li	a2,8
    89d0:	00000593          	li	a1,0
    89d4:	05c40513          	add	a0,s0,92
    89d8:	ad1f70ef          	jal	4a8 <memset>
    89dc:	02042823          	sw	zero,48(s0)
    89e0:	02042a23          	sw	zero,52(s0)
    89e4:	04042223          	sw	zero,68(s0)
    89e8:	04042423          	sw	zero,72(s0)
    89ec:	01c12083          	lw	ra,28(sp)
    89f0:	00040513          	mv	a0,s0
    89f4:	01812403          	lw	s0,24(sp)
    89f8:	01412483          	lw	s1,20(sp)
    89fc:	01012903          	lw	s2,16(sp)
    8a00:	00c12983          	lw	s3,12(sp)
    8a04:	02010113          	add	sp,sp,32
    8a08:	00008067          	ret
    8a0c:	00092403          	lw	s0,0(s2)
    8a10:	00040c63          	beqz	s0,8a28 <__sfp+0xdc>
    8a14:	00040913          	mv	s2,s0
    8a18:	f65ff06f          	j	897c <__sfp+0x30>
    8a1c:	00090513          	mv	a0,s2
    8a20:	d3dff0ef          	jal	875c <__sinit.part.0>
    8a24:	f51ff06f          	j	8974 <__sfp+0x28>
    8a28:	1ac00593          	li	a1,428
    8a2c:	00098513          	mv	a0,s3
    8a30:	b18fc0ef          	jal	4d48 <_malloc_r>
    8a34:	00050413          	mv	s0,a0
    8a38:	02050863          	beqz	a0,8a68 <__sfp+0x11c>
    8a3c:	00c50513          	add	a0,a0,12
    8a40:	00400793          	li	a5,4
    8a44:	00042023          	sw	zero,0(s0)
    8a48:	00f42223          	sw	a5,4(s0)
    8a4c:	00a42423          	sw	a0,8(s0)
    8a50:	1a000613          	li	a2,416
    8a54:	00000593          	li	a1,0
    8a58:	a51f70ef          	jal	4a8 <memset>
    8a5c:	00892023          	sw	s0,0(s2)
    8a60:	00040913          	mv	s2,s0
    8a64:	f19ff06f          	j	897c <__sfp+0x30>
    8a68:	00092023          	sw	zero,0(s2)
    8a6c:	00c00793          	li	a5,12
    8a70:	00f9a023          	sw	a5,0(s3)
    8a74:	f79ff06f          	j	89ec <__sfp+0xa0>

00008a78 <_cleanup>:
    8a78:	8181a503          	lw	a0,-2024(gp) # 17750 <_global_impure_ptr>
    8a7c:	000135b7          	lui	a1,0x13
    8a80:	90458593          	add	a1,a1,-1788 # 12904 <_fclose_r>
    8a84:	2210006f          	j	94a4 <_fwalk_reent>

00008a88 <__sinit>:
    8a88:	03852783          	lw	a5,56(a0)
    8a8c:	00078463          	beqz	a5,8a94 <__sinit+0xc>
    8a90:	00008067          	ret
    8a94:	cc9ff06f          	j	875c <__sinit.part.0>

00008a98 <__sfp_lock_acquire>:
    8a98:	00008067          	ret

00008a9c <__sfp_lock_release>:
    8a9c:	00008067          	ret

00008aa0 <__sinit_lock_acquire>:
    8aa0:	00008067          	ret

00008aa4 <__sinit_lock_release>:
    8aa4:	00008067          	ret

00008aa8 <__fp_lock_all>:
    8aa8:	8201a503          	lw	a0,-2016(gp) # 17758 <_impure_ptr>
    8aac:	000085b7          	lui	a1,0x8
    8ab0:	74058593          	add	a1,a1,1856 # 8740 <__fp_lock>
    8ab4:	14d0006f          	j	9400 <_fwalk>

00008ab8 <__fp_unlock_all>:
    8ab8:	8201a503          	lw	a0,-2016(gp) # 17758 <_impure_ptr>
    8abc:	000085b7          	lui	a1,0x8
    8ac0:	75458593          	add	a1,a1,1876 # 8754 <__fp_unlock>
    8ac4:	13d0006f          	j	9400 <_fwalk>

00008ac8 <__libc_fini_array>:
    8ac8:	ff010113          	add	sp,sp,-16
    8acc:	00812423          	sw	s0,8(sp)
    8ad0:	000177b7          	lui	a5,0x17
    8ad4:	00017437          	lui	s0,0x17
    8ad8:	d9078793          	add	a5,a5,-624 # 16d90 <__do_global_dtors_aux_fini_array_entry>
    8adc:	d9440413          	add	s0,s0,-620 # 16d94 <__fini_array_end>
    8ae0:	40f40433          	sub	s0,s0,a5
    8ae4:	00912223          	sw	s1,4(sp)
    8ae8:	00112623          	sw	ra,12(sp)
    8aec:	40245493          	sra	s1,s0,0x2
    8af0:	02048063          	beqz	s1,8b10 <__libc_fini_array+0x48>
    8af4:	ffc40413          	add	s0,s0,-4
    8af8:	00f40433          	add	s0,s0,a5
    8afc:	00042783          	lw	a5,0(s0)
    8b00:	fff48493          	add	s1,s1,-1
    8b04:	ffc40413          	add	s0,s0,-4
    8b08:	000780e7          	jalr	a5
    8b0c:	fe0498e3          	bnez	s1,8afc <__libc_fini_array+0x34>
    8b10:	00c12083          	lw	ra,12(sp)
    8b14:	00812403          	lw	s0,8(sp)
    8b18:	00412483          	lw	s1,4(sp)
    8b1c:	01010113          	add	sp,sp,16
    8b20:	00008067          	ret

00008b24 <_malloc_trim_r>:
    8b24:	fe010113          	add	sp,sp,-32
    8b28:	01312623          	sw	s3,12(sp)
    8b2c:	000179b7          	lui	s3,0x17
    8b30:	00812c23          	sw	s0,24(sp)
    8b34:	00912a23          	sw	s1,20(sp)
    8b38:	01212823          	sw	s2,16(sp)
    8b3c:	01412423          	sw	s4,8(sp)
    8b40:	00112e23          	sw	ra,28(sp)
    8b44:	00058a13          	mv	s4,a1
    8b48:	00050913          	mv	s2,a0
    8b4c:	1c098993          	add	s3,s3,448 # 171c0 <__malloc_av_>
    8b50:	981fc0ef          	jal	54d0 <__malloc_lock>
    8b54:	0089a703          	lw	a4,8(s3)
    8b58:	000017b7          	lui	a5,0x1
    8b5c:	fef78413          	add	s0,a5,-17 # fef <__muldf3+0x227>
    8b60:	00472483          	lw	s1,4(a4)
    8b64:	ffc4f493          	and	s1,s1,-4
    8b68:	00848433          	add	s0,s1,s0
    8b6c:	41440433          	sub	s0,s0,s4
    8b70:	00c45413          	srl	s0,s0,0xc
    8b74:	fff40413          	add	s0,s0,-1
    8b78:	00c41413          	sll	s0,s0,0xc
    8b7c:	00f44e63          	blt	s0,a5,8b98 <_malloc_trim_r+0x74>
    8b80:	00000593          	li	a1,0
    8b84:	00090513          	mv	a0,s2
    8b88:	ad5fc0ef          	jal	565c <_sbrk_r>
    8b8c:	0089a783          	lw	a5,8(s3)
    8b90:	009787b3          	add	a5,a5,s1
    8b94:	02f50863          	beq	a0,a5,8bc4 <_malloc_trim_r+0xa0>
    8b98:	00090513          	mv	a0,s2
    8b9c:	939fc0ef          	jal	54d4 <__malloc_unlock>
    8ba0:	01c12083          	lw	ra,28(sp)
    8ba4:	01812403          	lw	s0,24(sp)
    8ba8:	01412483          	lw	s1,20(sp)
    8bac:	01012903          	lw	s2,16(sp)
    8bb0:	00c12983          	lw	s3,12(sp)
    8bb4:	00812a03          	lw	s4,8(sp)
    8bb8:	00000513          	li	a0,0
    8bbc:	02010113          	add	sp,sp,32
    8bc0:	00008067          	ret
    8bc4:	408005b3          	neg	a1,s0
    8bc8:	00090513          	mv	a0,s2
    8bcc:	a91fc0ef          	jal	565c <_sbrk_r>
    8bd0:	fff00793          	li	a5,-1
    8bd4:	04f50a63          	beq	a0,a5,8c28 <_malloc_trim_r+0x104>
    8bd8:	0001a7b7          	lui	a5,0x1a
    8bdc:	fa878793          	add	a5,a5,-88 # 19fa8 <__malloc_current_mallinfo>
    8be0:	0007a703          	lw	a4,0(a5)
    8be4:	0089a683          	lw	a3,8(s3)
    8be8:	408484b3          	sub	s1,s1,s0
    8bec:	0014e493          	or	s1,s1,1
    8bf0:	40870733          	sub	a4,a4,s0
    8bf4:	00090513          	mv	a0,s2
    8bf8:	0096a223          	sw	s1,4(a3)
    8bfc:	00e7a023          	sw	a4,0(a5)
    8c00:	8d5fc0ef          	jal	54d4 <__malloc_unlock>
    8c04:	01c12083          	lw	ra,28(sp)
    8c08:	01812403          	lw	s0,24(sp)
    8c0c:	01412483          	lw	s1,20(sp)
    8c10:	01012903          	lw	s2,16(sp)
    8c14:	00c12983          	lw	s3,12(sp)
    8c18:	00812a03          	lw	s4,8(sp)
    8c1c:	00100513          	li	a0,1
    8c20:	02010113          	add	sp,sp,32
    8c24:	00008067          	ret
    8c28:	00000593          	li	a1,0
    8c2c:	00090513          	mv	a0,s2
    8c30:	a2dfc0ef          	jal	565c <_sbrk_r>
    8c34:	0089a703          	lw	a4,8(s3)
    8c38:	00f00693          	li	a3,15
    8c3c:	40e507b3          	sub	a5,a0,a4
    8c40:	f4f6dce3          	bge	a3,a5,8b98 <_malloc_trim_r+0x74>
    8c44:	8241a683          	lw	a3,-2012(gp) # 1775c <__malloc_sbrk_base>
    8c48:	0017e793          	or	a5,a5,1
    8c4c:	00f72223          	sw	a5,4(a4)
    8c50:	40d50533          	sub	a0,a0,a3
    8c54:	0001a6b7          	lui	a3,0x1a
    8c58:	faa6a423          	sw	a0,-88(a3) # 19fa8 <__malloc_current_mallinfo>
    8c5c:	f3dff06f          	j	8b98 <_malloc_trim_r+0x74>

00008c60 <_free_r>:
    8c60:	18058263          	beqz	a1,8de4 <_free_r+0x184>
    8c64:	ff010113          	add	sp,sp,-16
    8c68:	00812423          	sw	s0,8(sp)
    8c6c:	00912223          	sw	s1,4(sp)
    8c70:	00058413          	mv	s0,a1
    8c74:	00050493          	mv	s1,a0
    8c78:	00112623          	sw	ra,12(sp)
    8c7c:	855fc0ef          	jal	54d0 <__malloc_lock>
    8c80:	ffc42503          	lw	a0,-4(s0)
    8c84:	ff840713          	add	a4,s0,-8
    8c88:	000175b7          	lui	a1,0x17
    8c8c:	ffe57793          	and	a5,a0,-2
    8c90:	00f70633          	add	a2,a4,a5
    8c94:	1c058593          	add	a1,a1,448 # 171c0 <__malloc_av_>
    8c98:	00462683          	lw	a3,4(a2)
    8c9c:	0085a803          	lw	a6,8(a1)
    8ca0:	ffc6f693          	and	a3,a3,-4
    8ca4:	1ac80263          	beq	a6,a2,8e48 <_free_r+0x1e8>
    8ca8:	00d62223          	sw	a3,4(a2)
    8cac:	00157513          	and	a0,a0,1
    8cb0:	00d60833          	add	a6,a2,a3
    8cb4:	0a051063          	bnez	a0,8d54 <_free_r+0xf4>
    8cb8:	ff842303          	lw	t1,-8(s0)
    8cbc:	00482803          	lw	a6,4(a6)
    8cc0:	00017537          	lui	a0,0x17
    8cc4:	40670733          	sub	a4,a4,t1
    8cc8:	00872883          	lw	a7,8(a4)
    8ccc:	1c850513          	add	a0,a0,456 # 171c8 <__malloc_av_+0x8>
    8cd0:	006787b3          	add	a5,a5,t1
    8cd4:	00187813          	and	a6,a6,1
    8cd8:	14a88263          	beq	a7,a0,8e1c <_free_r+0x1bc>
    8cdc:	00c72303          	lw	t1,12(a4)
    8ce0:	0068a623          	sw	t1,12(a7)
    8ce4:	01132423          	sw	a7,8(t1)
    8ce8:	1a080663          	beqz	a6,8e94 <_free_r+0x234>
    8cec:	0017e693          	or	a3,a5,1
    8cf0:	00d72223          	sw	a3,4(a4)
    8cf4:	00f62023          	sw	a5,0(a2)
    8cf8:	1ff00693          	li	a3,511
    8cfc:	06f6ec63          	bltu	a3,a5,8d74 <_free_r+0x114>
    8d00:	ff87f693          	and	a3,a5,-8
    8d04:	00868693          	add	a3,a3,8
    8d08:	0045a503          	lw	a0,4(a1)
    8d0c:	00d586b3          	add	a3,a1,a3
    8d10:	0006a603          	lw	a2,0(a3)
    8d14:	0057d813          	srl	a6,a5,0x5
    8d18:	00100793          	li	a5,1
    8d1c:	010797b3          	sll	a5,a5,a6
    8d20:	00a7e7b3          	or	a5,a5,a0
    8d24:	ff868513          	add	a0,a3,-8
    8d28:	00a72623          	sw	a0,12(a4)
    8d2c:	00c72423          	sw	a2,8(a4)
    8d30:	00f5a223          	sw	a5,4(a1)
    8d34:	00e6a023          	sw	a4,0(a3)
    8d38:	00e62623          	sw	a4,12(a2)
    8d3c:	00812403          	lw	s0,8(sp)
    8d40:	00c12083          	lw	ra,12(sp)
    8d44:	00048513          	mv	a0,s1
    8d48:	00412483          	lw	s1,4(sp)
    8d4c:	01010113          	add	sp,sp,16
    8d50:	f84fc06f          	j	54d4 <__malloc_unlock>
    8d54:	00482503          	lw	a0,4(a6)
    8d58:	00157513          	and	a0,a0,1
    8d5c:	08050663          	beqz	a0,8de8 <_free_r+0x188>
    8d60:	0017e693          	or	a3,a5,1
    8d64:	fed42e23          	sw	a3,-4(s0)
    8d68:	00f62023          	sw	a5,0(a2)
    8d6c:	1ff00693          	li	a3,511
    8d70:	f8f6f8e3          	bgeu	a3,a5,8d00 <_free_r+0xa0>
    8d74:	0097d693          	srl	a3,a5,0x9
    8d78:	00400613          	li	a2,4
    8d7c:	12d66063          	bltu	a2,a3,8e9c <_free_r+0x23c>
    8d80:	0067d693          	srl	a3,a5,0x6
    8d84:	03968513          	add	a0,a3,57
    8d88:	03868613          	add	a2,a3,56
    8d8c:	00351513          	sll	a0,a0,0x3
    8d90:	00a58533          	add	a0,a1,a0
    8d94:	00052683          	lw	a3,0(a0)
    8d98:	ff850513          	add	a0,a0,-8
    8d9c:	00d51863          	bne	a0,a3,8dac <_free_r+0x14c>
    8da0:	1540006f          	j	8ef4 <_free_r+0x294>
    8da4:	0086a683          	lw	a3,8(a3)
    8da8:	00d50863          	beq	a0,a3,8db8 <_free_r+0x158>
    8dac:	0046a603          	lw	a2,4(a3)
    8db0:	ffc67613          	and	a2,a2,-4
    8db4:	fec7e8e3          	bltu	a5,a2,8da4 <_free_r+0x144>
    8db8:	00c6a503          	lw	a0,12(a3)
    8dbc:	00a72623          	sw	a0,12(a4)
    8dc0:	00d72423          	sw	a3,8(a4)
    8dc4:	00812403          	lw	s0,8(sp)
    8dc8:	00e52423          	sw	a4,8(a0)
    8dcc:	00c12083          	lw	ra,12(sp)
    8dd0:	00048513          	mv	a0,s1
    8dd4:	00412483          	lw	s1,4(sp)
    8dd8:	00e6a623          	sw	a4,12(a3)
    8ddc:	01010113          	add	sp,sp,16
    8de0:	ef4fc06f          	j	54d4 <__malloc_unlock>
    8de4:	00008067          	ret
    8de8:	00017537          	lui	a0,0x17
    8dec:	00d787b3          	add	a5,a5,a3
    8df0:	1c850513          	add	a0,a0,456 # 171c8 <__malloc_av_+0x8>
    8df4:	00862683          	lw	a3,8(a2)
    8df8:	0ca68c63          	beq	a3,a0,8ed0 <_free_r+0x270>
    8dfc:	00c62803          	lw	a6,12(a2)
    8e00:	0017e513          	or	a0,a5,1
    8e04:	00f70633          	add	a2,a4,a5
    8e08:	0106a623          	sw	a6,12(a3)
    8e0c:	00d82423          	sw	a3,8(a6)
    8e10:	00a72223          	sw	a0,4(a4)
    8e14:	00f62023          	sw	a5,0(a2)
    8e18:	ee1ff06f          	j	8cf8 <_free_r+0x98>
    8e1c:	12081c63          	bnez	a6,8f54 <_free_r+0x2f4>
    8e20:	00862583          	lw	a1,8(a2)
    8e24:	00c62603          	lw	a2,12(a2)
    8e28:	00f686b3          	add	a3,a3,a5
    8e2c:	0016e793          	or	a5,a3,1
    8e30:	00c5a623          	sw	a2,12(a1)
    8e34:	00b62423          	sw	a1,8(a2)
    8e38:	00f72223          	sw	a5,4(a4)
    8e3c:	00d70733          	add	a4,a4,a3
    8e40:	00d72023          	sw	a3,0(a4)
    8e44:	ef9ff06f          	j	8d3c <_free_r+0xdc>
    8e48:	00157513          	and	a0,a0,1
    8e4c:	00d786b3          	add	a3,a5,a3
    8e50:	02051063          	bnez	a0,8e70 <_free_r+0x210>
    8e54:	ff842503          	lw	a0,-8(s0)
    8e58:	40a70733          	sub	a4,a4,a0
    8e5c:	00c72783          	lw	a5,12(a4)
    8e60:	00872603          	lw	a2,8(a4)
    8e64:	00a686b3          	add	a3,a3,a0
    8e68:	00f62623          	sw	a5,12(a2)
    8e6c:	00c7a423          	sw	a2,8(a5)
    8e70:	0016e613          	or	a2,a3,1
    8e74:	8281a783          	lw	a5,-2008(gp) # 17760 <__malloc_trim_threshold>
    8e78:	00c72223          	sw	a2,4(a4)
    8e7c:	00e5a423          	sw	a4,8(a1)
    8e80:	eaf6eee3          	bltu	a3,a5,8d3c <_free_r+0xdc>
    8e84:	8701a583          	lw	a1,-1936(gp) # 177a8 <__malloc_top_pad>
    8e88:	00048513          	mv	a0,s1
    8e8c:	c99ff0ef          	jal	8b24 <_malloc_trim_r>
    8e90:	eadff06f          	j	8d3c <_free_r+0xdc>
    8e94:	00d787b3          	add	a5,a5,a3
    8e98:	f5dff06f          	j	8df4 <_free_r+0x194>
    8e9c:	01400613          	li	a2,20
    8ea0:	02d67063          	bgeu	a2,a3,8ec0 <_free_r+0x260>
    8ea4:	05400613          	li	a2,84
    8ea8:	06d66463          	bltu	a2,a3,8f10 <_free_r+0x2b0>
    8eac:	00c7d693          	srl	a3,a5,0xc
    8eb0:	06f68513          	add	a0,a3,111
    8eb4:	06e68613          	add	a2,a3,110
    8eb8:	00351513          	sll	a0,a0,0x3
    8ebc:	ed5ff06f          	j	8d90 <_free_r+0x130>
    8ec0:	05c68513          	add	a0,a3,92
    8ec4:	05b68613          	add	a2,a3,91
    8ec8:	00351513          	sll	a0,a0,0x3
    8ecc:	ec5ff06f          	j	8d90 <_free_r+0x130>
    8ed0:	00e5aa23          	sw	a4,20(a1)
    8ed4:	00e5a823          	sw	a4,16(a1)
    8ed8:	0017e693          	or	a3,a5,1
    8edc:	00a72623          	sw	a0,12(a4)
    8ee0:	00a72423          	sw	a0,8(a4)
    8ee4:	00d72223          	sw	a3,4(a4)
    8ee8:	00f70733          	add	a4,a4,a5
    8eec:	00f72023          	sw	a5,0(a4)
    8ef0:	e4dff06f          	j	8d3c <_free_r+0xdc>
    8ef4:	0045a803          	lw	a6,4(a1)
    8ef8:	40265613          	sra	a2,a2,0x2
    8efc:	00100793          	li	a5,1
    8f00:	00c797b3          	sll	a5,a5,a2
    8f04:	0107e7b3          	or	a5,a5,a6
    8f08:	00f5a223          	sw	a5,4(a1)
    8f0c:	eb1ff06f          	j	8dbc <_free_r+0x15c>
    8f10:	15400613          	li	a2,340
    8f14:	00d66c63          	bltu	a2,a3,8f2c <_free_r+0x2cc>
    8f18:	00f7d693          	srl	a3,a5,0xf
    8f1c:	07868513          	add	a0,a3,120
    8f20:	07768613          	add	a2,a3,119
    8f24:	00351513          	sll	a0,a0,0x3
    8f28:	e69ff06f          	j	8d90 <_free_r+0x130>
    8f2c:	55400613          	li	a2,1364
    8f30:	00d66c63          	bltu	a2,a3,8f48 <_free_r+0x2e8>
    8f34:	0127d693          	srl	a3,a5,0x12
    8f38:	07d68513          	add	a0,a3,125
    8f3c:	07c68613          	add	a2,a3,124
    8f40:	00351513          	sll	a0,a0,0x3
    8f44:	e4dff06f          	j	8d90 <_free_r+0x130>
    8f48:	3f800513          	li	a0,1016
    8f4c:	07e00613          	li	a2,126
    8f50:	e41ff06f          	j	8d90 <_free_r+0x130>
    8f54:	0017e693          	or	a3,a5,1
    8f58:	00d72223          	sw	a3,4(a4)
    8f5c:	00f62023          	sw	a5,0(a2)
    8f60:	dddff06f          	j	8d3c <_free_r+0xdc>

00008f64 <__sfvwrite_r>:
    8f64:	00862783          	lw	a5,8(a2)
    8f68:	30078a63          	beqz	a5,927c <__sfvwrite_r+0x318>
    8f6c:	00c59683          	lh	a3,12(a1)
    8f70:	fd010113          	add	sp,sp,-48
    8f74:	02812423          	sw	s0,40(sp)
    8f78:	01412c23          	sw	s4,24(sp)
    8f7c:	01612823          	sw	s6,16(sp)
    8f80:	02112623          	sw	ra,44(sp)
    8f84:	02912223          	sw	s1,36(sp)
    8f88:	03212023          	sw	s2,32(sp)
    8f8c:	01312e23          	sw	s3,28(sp)
    8f90:	01512a23          	sw	s5,20(sp)
    8f94:	01712623          	sw	s7,12(sp)
    8f98:	01812423          	sw	s8,8(sp)
    8f9c:	01912223          	sw	s9,4(sp)
    8fa0:	0086f793          	and	a5,a3,8
    8fa4:	00060b13          	mv	s6,a2
    8fa8:	00050a13          	mv	s4,a0
    8fac:	00058413          	mv	s0,a1
    8fb0:	08078663          	beqz	a5,903c <__sfvwrite_r+0xd8>
    8fb4:	0105a783          	lw	a5,16(a1)
    8fb8:	08078263          	beqz	a5,903c <__sfvwrite_r+0xd8>
    8fbc:	0026f793          	and	a5,a3,2
    8fc0:	000b2483          	lw	s1,0(s6)
    8fc4:	08078c63          	beqz	a5,905c <__sfvwrite_r+0xf8>
    8fc8:	02442783          	lw	a5,36(s0)
    8fcc:	01c42583          	lw	a1,28(s0)
    8fd0:	80000ab7          	lui	s5,0x80000
    8fd4:	00000993          	li	s3,0
    8fd8:	00000913          	li	s2,0
    8fdc:	c00aca93          	xor	s5,s5,-1024
    8fe0:	00098613          	mv	a2,s3
    8fe4:	000a0513          	mv	a0,s4
    8fe8:	04090263          	beqz	s2,902c <__sfvwrite_r+0xc8>
    8fec:	00090693          	mv	a3,s2
    8ff0:	012af463          	bgeu	s5,s2,8ff8 <__sfvwrite_r+0x94>
    8ff4:	000a8693          	mv	a3,s5
    8ff8:	000780e7          	jalr	a5
    8ffc:	26a05663          	blez	a0,9268 <__sfvwrite_r+0x304>
    9000:	008b2783          	lw	a5,8(s6)
    9004:	00a989b3          	add	s3,s3,a0
    9008:	40a90933          	sub	s2,s2,a0
    900c:	40a787b3          	sub	a5,a5,a0
    9010:	00fb2423          	sw	a5,8(s6)
    9014:	20078663          	beqz	a5,9220 <__sfvwrite_r+0x2bc>
    9018:	02442783          	lw	a5,36(s0)
    901c:	01c42583          	lw	a1,28(s0)
    9020:	00098613          	mv	a2,s3
    9024:	000a0513          	mv	a0,s4
    9028:	fc0912e3          	bnez	s2,8fec <__sfvwrite_r+0x88>
    902c:	0004a983          	lw	s3,0(s1)
    9030:	0044a903          	lw	s2,4(s1)
    9034:	00848493          	add	s1,s1,8
    9038:	fa9ff06f          	j	8fe0 <__sfvwrite_r+0x7c>
    903c:	00040593          	mv	a1,s0
    9040:	000a0513          	mv	a0,s4
    9044:	960ff0ef          	jal	81a4 <__swsetup_r>
    9048:	22051663          	bnez	a0,9274 <__sfvwrite_r+0x310>
    904c:	00c41683          	lh	a3,12(s0)
    9050:	000b2483          	lw	s1,0(s6)
    9054:	0026f793          	and	a5,a3,2
    9058:	f60798e3          	bnez	a5,8fc8 <__sfvwrite_r+0x64>
    905c:	0016f793          	and	a5,a3,1
    9060:	12079c63          	bnez	a5,9198 <__sfvwrite_r+0x234>
    9064:	00042783          	lw	a5,0(s0)
    9068:	00842703          	lw	a4,8(s0)
    906c:	80000ab7          	lui	s5,0x80000
    9070:	00000b93          	li	s7,0
    9074:	00000993          	li	s3,0
    9078:	fffaca93          	not	s5,s5
    907c:	00078513          	mv	a0,a5
    9080:	00070c13          	mv	s8,a4
    9084:	10098263          	beqz	s3,9188 <__sfvwrite_r+0x224>
    9088:	2006f613          	and	a2,a3,512
    908c:	24060c63          	beqz	a2,92e4 <__sfvwrite_r+0x380>
    9090:	00070c93          	mv	s9,a4
    9094:	2ee9e463          	bltu	s3,a4,937c <__sfvwrite_r+0x418>
    9098:	4806f713          	and	a4,a3,1152
    909c:	08070a63          	beqz	a4,9130 <__sfvwrite_r+0x1cc>
    90a0:	01442603          	lw	a2,20(s0)
    90a4:	01042583          	lw	a1,16(s0)
    90a8:	00161713          	sll	a4,a2,0x1
    90ac:	00c70733          	add	a4,a4,a2
    90b0:	40b78933          	sub	s2,a5,a1
    90b4:	01f75c13          	srl	s8,a4,0x1f
    90b8:	00ec0c33          	add	s8,s8,a4
    90bc:	00190793          	add	a5,s2,1
    90c0:	401c5c13          	sra	s8,s8,0x1
    90c4:	013787b3          	add	a5,a5,s3
    90c8:	000c0613          	mv	a2,s8
    90cc:	00fc7663          	bgeu	s8,a5,90d8 <__sfvwrite_r+0x174>
    90d0:	00078c13          	mv	s8,a5
    90d4:	00078613          	mv	a2,a5
    90d8:	4006f693          	and	a3,a3,1024
    90dc:	2c068c63          	beqz	a3,93b4 <__sfvwrite_r+0x450>
    90e0:	00060593          	mv	a1,a2
    90e4:	000a0513          	mv	a0,s4
    90e8:	c61fb0ef          	jal	4d48 <_malloc_r>
    90ec:	00050c93          	mv	s9,a0
    90f0:	30050063          	beqz	a0,93f0 <__sfvwrite_r+0x48c>
    90f4:	01042583          	lw	a1,16(s0)
    90f8:	00090613          	mv	a2,s2
    90fc:	41c030ef          	jal	c518 <memcpy>
    9100:	00c45783          	lhu	a5,12(s0)
    9104:	b7f7f793          	and	a5,a5,-1153
    9108:	0807e793          	or	a5,a5,128
    910c:	00f41623          	sh	a5,12(s0)
    9110:	012c8533          	add	a0,s9,s2
    9114:	412c07b3          	sub	a5,s8,s2
    9118:	01942823          	sw	s9,16(s0)
    911c:	01842a23          	sw	s8,20(s0)
    9120:	00a42023          	sw	a0,0(s0)
    9124:	00098c13          	mv	s8,s3
    9128:	00f42423          	sw	a5,8(s0)
    912c:	00098c93          	mv	s9,s3
    9130:	000c8613          	mv	a2,s9
    9134:	000b8593          	mv	a1,s7
    9138:	584030ef          	jal	c6bc <memmove>
    913c:	00842703          	lw	a4,8(s0)
    9140:	00042783          	lw	a5,0(s0)
    9144:	00098913          	mv	s2,s3
    9148:	41870733          	sub	a4,a4,s8
    914c:	019787b3          	add	a5,a5,s9
    9150:	00e42423          	sw	a4,8(s0)
    9154:	00f42023          	sw	a5,0(s0)
    9158:	00000993          	li	s3,0
    915c:	008b2783          	lw	a5,8(s6)
    9160:	012b8bb3          	add	s7,s7,s2
    9164:	412787b3          	sub	a5,a5,s2
    9168:	00fb2423          	sw	a5,8(s6)
    916c:	0a078a63          	beqz	a5,9220 <__sfvwrite_r+0x2bc>
    9170:	00042783          	lw	a5,0(s0)
    9174:	00842703          	lw	a4,8(s0)
    9178:	00c41683          	lh	a3,12(s0)
    917c:	00078513          	mv	a0,a5
    9180:	00070c13          	mv	s8,a4
    9184:	f00992e3          	bnez	s3,9088 <__sfvwrite_r+0x124>
    9188:	0004ab83          	lw	s7,0(s1)
    918c:	0044a983          	lw	s3,4(s1)
    9190:	00848493          	add	s1,s1,8
    9194:	ee9ff06f          	j	907c <__sfvwrite_r+0x118>
    9198:	00000a93          	li	s5,0
    919c:	00000513          	li	a0,0
    91a0:	00000c13          	li	s8,0
    91a4:	00000993          	li	s3,0
    91a8:	0c098e63          	beqz	s3,9284 <__sfvwrite_r+0x320>
    91ac:	0e050663          	beqz	a0,9298 <__sfvwrite_r+0x334>
    91b0:	000a8793          	mv	a5,s5
    91b4:	00098b93          	mv	s7,s3
    91b8:	0137f463          	bgeu	a5,s3,91c0 <__sfvwrite_r+0x25c>
    91bc:	00078b93          	mv	s7,a5
    91c0:	00042503          	lw	a0,0(s0)
    91c4:	01042783          	lw	a5,16(s0)
    91c8:	00842903          	lw	s2,8(s0)
    91cc:	01442683          	lw	a3,20(s0)
    91d0:	00a7f663          	bgeu	a5,a0,91dc <__sfvwrite_r+0x278>
    91d4:	00d90933          	add	s2,s2,a3
    91d8:	0f794063          	blt	s2,s7,92b8 <__sfvwrite_r+0x354>
    91dc:	1adbc663          	blt	s7,a3,9388 <__sfvwrite_r+0x424>
    91e0:	02442783          	lw	a5,36(s0)
    91e4:	01c42583          	lw	a1,28(s0)
    91e8:	000c0613          	mv	a2,s8
    91ec:	000a0513          	mv	a0,s4
    91f0:	000780e7          	jalr	a5
    91f4:	00050913          	mv	s2,a0
    91f8:	06a05863          	blez	a0,9268 <__sfvwrite_r+0x304>
    91fc:	412a8ab3          	sub	s5,s5,s2
    9200:	00100513          	li	a0,1
    9204:	040a8a63          	beqz	s5,9258 <__sfvwrite_r+0x2f4>
    9208:	008b2783          	lw	a5,8(s6)
    920c:	012c0c33          	add	s8,s8,s2
    9210:	412989b3          	sub	s3,s3,s2
    9214:	412787b3          	sub	a5,a5,s2
    9218:	00fb2423          	sw	a5,8(s6)
    921c:	f80796e3          	bnez	a5,91a8 <__sfvwrite_r+0x244>
    9220:	00000513          	li	a0,0
    9224:	02c12083          	lw	ra,44(sp)
    9228:	02812403          	lw	s0,40(sp)
    922c:	02412483          	lw	s1,36(sp)
    9230:	02012903          	lw	s2,32(sp)
    9234:	01c12983          	lw	s3,28(sp)
    9238:	01812a03          	lw	s4,24(sp)
    923c:	01412a83          	lw	s5,20(sp)
    9240:	01012b03          	lw	s6,16(sp)
    9244:	00c12b83          	lw	s7,12(sp)
    9248:	00812c03          	lw	s8,8(sp)
    924c:	00412c83          	lw	s9,4(sp)
    9250:	03010113          	add	sp,sp,48
    9254:	00008067          	ret
    9258:	00040593          	mv	a1,s0
    925c:	000a0513          	mv	a0,s4
    9260:	c04ff0ef          	jal	8664 <_fflush_r>
    9264:	fa0502e3          	beqz	a0,9208 <__sfvwrite_r+0x2a4>
    9268:	00c41783          	lh	a5,12(s0)
    926c:	0407e793          	or	a5,a5,64
    9270:	00f41623          	sh	a5,12(s0)
    9274:	fff00513          	li	a0,-1
    9278:	fadff06f          	j	9224 <__sfvwrite_r+0x2c0>
    927c:	00000513          	li	a0,0
    9280:	00008067          	ret
    9284:	0044a983          	lw	s3,4(s1)
    9288:	00048793          	mv	a5,s1
    928c:	00848493          	add	s1,s1,8
    9290:	fe098ae3          	beqz	s3,9284 <__sfvwrite_r+0x320>
    9294:	0007ac03          	lw	s8,0(a5)
    9298:	00098613          	mv	a2,s3
    929c:	00a00593          	li	a1,10
    92a0:	000c0513          	mv	a0,s8
    92a4:	1b0030ef          	jal	c454 <memchr>
    92a8:	12050e63          	beqz	a0,93e4 <__sfvwrite_r+0x480>
    92ac:	00150513          	add	a0,a0,1
    92b0:	41850ab3          	sub	s5,a0,s8
    92b4:	efdff06f          	j	91b0 <__sfvwrite_r+0x24c>
    92b8:	000c0593          	mv	a1,s8
    92bc:	00090613          	mv	a2,s2
    92c0:	3fc030ef          	jal	c6bc <memmove>
    92c4:	00042783          	lw	a5,0(s0)
    92c8:	00040593          	mv	a1,s0
    92cc:	000a0513          	mv	a0,s4
    92d0:	012787b3          	add	a5,a5,s2
    92d4:	00f42023          	sw	a5,0(s0)
    92d8:	b8cff0ef          	jal	8664 <_fflush_r>
    92dc:	f20500e3          	beqz	a0,91fc <__sfvwrite_r+0x298>
    92e0:	f89ff06f          	j	9268 <__sfvwrite_r+0x304>
    92e4:	01042683          	lw	a3,16(s0)
    92e8:	04f6e263          	bltu	a3,a5,932c <__sfvwrite_r+0x3c8>
    92ec:	01442603          	lw	a2,20(s0)
    92f0:	02c9ee63          	bltu	s3,a2,932c <__sfvwrite_r+0x3c8>
    92f4:	00098793          	mv	a5,s3
    92f8:	013af463          	bgeu	s5,s3,9300 <__sfvwrite_r+0x39c>
    92fc:	000a8793          	mv	a5,s5
    9300:	02c7e6b3          	rem	a3,a5,a2
    9304:	02442703          	lw	a4,36(s0)
    9308:	01c42583          	lw	a1,28(s0)
    930c:	000b8613          	mv	a2,s7
    9310:	000a0513          	mv	a0,s4
    9314:	40d786b3          	sub	a3,a5,a3
    9318:	000700e7          	jalr	a4
    931c:	00050913          	mv	s2,a0
    9320:	f4a054e3          	blez	a0,9268 <__sfvwrite_r+0x304>
    9324:	412989b3          	sub	s3,s3,s2
    9328:	e35ff06f          	j	915c <__sfvwrite_r+0x1f8>
    932c:	00070913          	mv	s2,a4
    9330:	00e9f463          	bgeu	s3,a4,9338 <__sfvwrite_r+0x3d4>
    9334:	00098913          	mv	s2,s3
    9338:	00078513          	mv	a0,a5
    933c:	00090613          	mv	a2,s2
    9340:	000b8593          	mv	a1,s7
    9344:	378030ef          	jal	c6bc <memmove>
    9348:	00842703          	lw	a4,8(s0)
    934c:	00042783          	lw	a5,0(s0)
    9350:	41270733          	sub	a4,a4,s2
    9354:	012787b3          	add	a5,a5,s2
    9358:	00e42423          	sw	a4,8(s0)
    935c:	00f42023          	sw	a5,0(s0)
    9360:	fc0712e3          	bnez	a4,9324 <__sfvwrite_r+0x3c0>
    9364:	00040593          	mv	a1,s0
    9368:	000a0513          	mv	a0,s4
    936c:	af8ff0ef          	jal	8664 <_fflush_r>
    9370:	ee051ce3          	bnez	a0,9268 <__sfvwrite_r+0x304>
    9374:	412989b3          	sub	s3,s3,s2
    9378:	de5ff06f          	j	915c <__sfvwrite_r+0x1f8>
    937c:	00098c13          	mv	s8,s3
    9380:	00098c93          	mv	s9,s3
    9384:	dadff06f          	j	9130 <__sfvwrite_r+0x1cc>
    9388:	000b8613          	mv	a2,s7
    938c:	000c0593          	mv	a1,s8
    9390:	32c030ef          	jal	c6bc <memmove>
    9394:	00842703          	lw	a4,8(s0)
    9398:	00042783          	lw	a5,0(s0)
    939c:	000b8913          	mv	s2,s7
    93a0:	41770733          	sub	a4,a4,s7
    93a4:	017787b3          	add	a5,a5,s7
    93a8:	00e42423          	sw	a4,8(s0)
    93ac:	00f42023          	sw	a5,0(s0)
    93b0:	e4dff06f          	j	91fc <__sfvwrite_r+0x298>
    93b4:	000a0513          	mv	a0,s4
    93b8:	75c040ef          	jal	db14 <_realloc_r>
    93bc:	00050c93          	mv	s9,a0
    93c0:	d40518e3          	bnez	a0,9110 <__sfvwrite_r+0x1ac>
    93c4:	01042583          	lw	a1,16(s0)
    93c8:	000a0513          	mv	a0,s4
    93cc:	895ff0ef          	jal	8c60 <_free_r>
    93d0:	00c41783          	lh	a5,12(s0)
    93d4:	00c00713          	li	a4,12
    93d8:	00ea2023          	sw	a4,0(s4)
    93dc:	f7f7f793          	and	a5,a5,-129
    93e0:	e8dff06f          	j	926c <__sfvwrite_r+0x308>
    93e4:	00198793          	add	a5,s3,1
    93e8:	00078a93          	mv	s5,a5
    93ec:	dc9ff06f          	j	91b4 <__sfvwrite_r+0x250>
    93f0:	00c00713          	li	a4,12
    93f4:	00c41783          	lh	a5,12(s0)
    93f8:	00ea2023          	sw	a4,0(s4)
    93fc:	e71ff06f          	j	926c <__sfvwrite_r+0x308>

00009400 <_fwalk>:
    9400:	fe010113          	add	sp,sp,-32
    9404:	01212823          	sw	s2,16(sp)
    9408:	01312623          	sw	s3,12(sp)
    940c:	01412423          	sw	s4,8(sp)
    9410:	01512223          	sw	s5,4(sp)
    9414:	01612023          	sw	s6,0(sp)
    9418:	00112e23          	sw	ra,28(sp)
    941c:	00812c23          	sw	s0,24(sp)
    9420:	00912a23          	sw	s1,20(sp)
    9424:	00058b13          	mv	s6,a1
    9428:	2e050a93          	add	s5,a0,736
    942c:	00000a13          	li	s4,0
    9430:	00100993          	li	s3,1
    9434:	fff00913          	li	s2,-1
    9438:	004aa483          	lw	s1,4(s5) # 80000004 <_end+0x7ffe6034>
    943c:	008aa403          	lw	s0,8(s5)
    9440:	fff48493          	add	s1,s1,-1
    9444:	0204c663          	bltz	s1,9470 <_fwalk+0x70>
    9448:	00c45783          	lhu	a5,12(s0)
    944c:	fff48493          	add	s1,s1,-1
    9450:	00f9fc63          	bgeu	s3,a5,9468 <_fwalk+0x68>
    9454:	00e41783          	lh	a5,14(s0)
    9458:	00040513          	mv	a0,s0
    945c:	01278663          	beq	a5,s2,9468 <_fwalk+0x68>
    9460:	000b00e7          	jalr	s6
    9464:	00aa6a33          	or	s4,s4,a0
    9468:	06840413          	add	s0,s0,104
    946c:	fd249ee3          	bne	s1,s2,9448 <_fwalk+0x48>
    9470:	000aaa83          	lw	s5,0(s5)
    9474:	fc0a92e3          	bnez	s5,9438 <_fwalk+0x38>
    9478:	01c12083          	lw	ra,28(sp)
    947c:	01812403          	lw	s0,24(sp)
    9480:	01412483          	lw	s1,20(sp)
    9484:	01012903          	lw	s2,16(sp)
    9488:	00c12983          	lw	s3,12(sp)
    948c:	00412a83          	lw	s5,4(sp)
    9490:	00012b03          	lw	s6,0(sp)
    9494:	000a0513          	mv	a0,s4
    9498:	00812a03          	lw	s4,8(sp)
    949c:	02010113          	add	sp,sp,32
    94a0:	00008067          	ret

000094a4 <_fwalk_reent>:
    94a4:	fd010113          	add	sp,sp,-48
    94a8:	03212023          	sw	s2,32(sp)
    94ac:	01312e23          	sw	s3,28(sp)
    94b0:	01412c23          	sw	s4,24(sp)
    94b4:	01512a23          	sw	s5,20(sp)
    94b8:	01612823          	sw	s6,16(sp)
    94bc:	01712623          	sw	s7,12(sp)
    94c0:	02112623          	sw	ra,44(sp)
    94c4:	02812423          	sw	s0,40(sp)
    94c8:	02912223          	sw	s1,36(sp)
    94cc:	00050a93          	mv	s5,a0
    94d0:	00058b93          	mv	s7,a1
    94d4:	2e050b13          	add	s6,a0,736
    94d8:	00000a13          	li	s4,0
    94dc:	00100993          	li	s3,1
    94e0:	fff00913          	li	s2,-1
    94e4:	004b2483          	lw	s1,4(s6)
    94e8:	008b2403          	lw	s0,8(s6)
    94ec:	fff48493          	add	s1,s1,-1
    94f0:	0204c863          	bltz	s1,9520 <_fwalk_reent+0x7c>
    94f4:	00c45783          	lhu	a5,12(s0)
    94f8:	fff48493          	add	s1,s1,-1
    94fc:	00f9fe63          	bgeu	s3,a5,9518 <_fwalk_reent+0x74>
    9500:	00e41783          	lh	a5,14(s0)
    9504:	00040593          	mv	a1,s0
    9508:	000a8513          	mv	a0,s5
    950c:	01278663          	beq	a5,s2,9518 <_fwalk_reent+0x74>
    9510:	000b80e7          	jalr	s7
    9514:	00aa6a33          	or	s4,s4,a0
    9518:	06840413          	add	s0,s0,104
    951c:	fd249ce3          	bne	s1,s2,94f4 <_fwalk_reent+0x50>
    9520:	000b2b03          	lw	s6,0(s6)
    9524:	fc0b10e3          	bnez	s6,94e4 <_fwalk_reent+0x40>
    9528:	02c12083          	lw	ra,44(sp)
    952c:	02812403          	lw	s0,40(sp)
    9530:	02412483          	lw	s1,36(sp)
    9534:	02012903          	lw	s2,32(sp)
    9538:	01c12983          	lw	s3,28(sp)
    953c:	01412a83          	lw	s5,20(sp)
    9540:	01012b03          	lw	s6,16(sp)
    9544:	00c12b83          	lw	s7,12(sp)
    9548:	000a0513          	mv	a0,s4
    954c:	01812a03          	lw	s4,24(sp)
    9550:	03010113          	add	sp,sp,48
    9554:	00008067          	ret

00009558 <eshdn1>:
    9558:	00450693          	add	a3,a0,4
    955c:	00000713          	li	a4,0
    9560:	01a50513          	add	a0,a0,26
    9564:	ffff8837          	lui	a6,0xffff8
    9568:	0006d783          	lhu	a5,0(a3)
    956c:	0017f613          	and	a2,a5,1
    9570:	00060463          	beqz	a2,9578 <eshdn1+0x20>
    9574:	00176713          	or	a4,a4,1
    9578:	00277613          	and	a2,a4,2
    957c:	0017d793          	srl	a5,a5,0x1
    9580:	00171713          	sll	a4,a4,0x1
    9584:	0107e5b3          	or	a1,a5,a6
    9588:	00060663          	beqz	a2,9594 <eshdn1+0x3c>
    958c:	01059793          	sll	a5,a1,0x10
    9590:	0107d793          	srl	a5,a5,0x10
    9594:	00f69023          	sh	a5,0(a3)
    9598:	01071713          	sll	a4,a4,0x10
    959c:	00268693          	add	a3,a3,2
    95a0:	01075713          	srl	a4,a4,0x10
    95a4:	fcd512e3          	bne	a0,a3,9568 <eshdn1+0x10>
    95a8:	00008067          	ret

000095ac <eshup1>:
    95ac:	01850693          	add	a3,a0,24
    95b0:	00000713          	li	a4,0
    95b4:	00250513          	add	a0,a0,2
    95b8:	0006d783          	lhu	a5,0(a3)
    95bc:	01079613          	sll	a2,a5,0x10
    95c0:	41065613          	sra	a2,a2,0x10
    95c4:	00179793          	sll	a5,a5,0x1
    95c8:	00065463          	bgez	a2,95d0 <eshup1+0x24>
    95cc:	00176713          	or	a4,a4,1
    95d0:	00277613          	and	a2,a4,2
    95d4:	01079793          	sll	a5,a5,0x10
    95d8:	00171713          	sll	a4,a4,0x1
    95dc:	0107d793          	srl	a5,a5,0x10
    95e0:	00060463          	beqz	a2,95e8 <eshup1+0x3c>
    95e4:	0017e793          	or	a5,a5,1
    95e8:	00f69023          	sh	a5,0(a3)
    95ec:	01071713          	sll	a4,a4,0x10
    95f0:	ffe68693          	add	a3,a3,-2
    95f4:	01075713          	srl	a4,a4,0x10
    95f8:	fcd510e3          	bne	a0,a3,95b8 <eshup1+0xc>
    95fc:	00008067          	ret

00009600 <m16m>:
    9600:	fe010113          	add	sp,sp,-32
    9604:	00010e37          	lui	t3,0x10
    9608:	00011d23          	sh	zero,26(sp)
    960c:	00011e23          	sh	zero,28(sp)
    9610:	01858593          	add	a1,a1,24
    9614:	01c10793          	add	a5,sp,28
    9618:	00810813          	add	a6,sp,8
    961c:	fffe0e13          	add	t3,t3,-1 # ffff <_svfprintf_r+0x198f>
    9620:	0005d703          	lhu	a4,0(a1)
    9624:	ffe78793          	add	a5,a5,-2
    9628:	ffe58593          	add	a1,a1,-2
    962c:	02070a63          	beqz	a4,9660 <m16m+0x60>
    9630:	02a70733          	mul	a4,a4,a0
    9634:	0027d883          	lhu	a7,2(a5)
    9638:	0007d303          	lhu	t1,0(a5)
    963c:	01c776b3          	and	a3,a4,t3
    9640:	011686b3          	add	a3,a3,a7
    9644:	01075713          	srl	a4,a4,0x10
    9648:	0106d893          	srl	a7,a3,0x10
    964c:	00670733          	add	a4,a4,t1
    9650:	01170733          	add	a4,a4,a7
    9654:	00e79023          	sh	a4,0(a5)
    9658:	00d79123          	sh	a3,2(a5)
    965c:	01075713          	srl	a4,a4,0x10
    9660:	fee79f23          	sh	a4,-2(a5)
    9664:	fb079ee3          	bne	a5,a6,9620 <m16m+0x20>
    9668:	00460613          	add	a2,a2,4
    966c:	01e10693          	add	a3,sp,30
    9670:	0007d703          	lhu	a4,0(a5)
    9674:	00278793          	add	a5,a5,2
    9678:	00260613          	add	a2,a2,2
    967c:	fee61f23          	sh	a4,-2(a2)
    9680:	fed798e3          	bne	a5,a3,9670 <m16m+0x70>
    9684:	02010113          	add	sp,sp,32
    9688:	00008067          	ret

0000968c <emovo.constprop.0>:
    968c:	00055703          	lhu	a4,0(a0)
    9690:	00255783          	lhu	a5,2(a0)
    9694:	00070663          	beqz	a4,96a0 <emovo.constprop.0+0x14>
    9698:	00008737          	lui	a4,0x8
    969c:	00e7e7b3          	or	a5,a5,a4
    96a0:	00f59923          	sh	a5,18(a1)
    96a4:	00255703          	lhu	a4,2(a0)
    96a8:	000087b7          	lui	a5,0x8
    96ac:	fff78793          	add	a5,a5,-1 # 7fff <_vfprintf_r+0x28bb>
    96b0:	02f70463          	beq	a4,a5,96d8 <emovo.constprop.0+0x4c>
    96b4:	00650793          	add	a5,a0,6
    96b8:	01058593          	add	a1,a1,16
    96bc:	01850513          	add	a0,a0,24
    96c0:	0007d703          	lhu	a4,0(a5)
    96c4:	00278793          	add	a5,a5,2
    96c8:	ffe58593          	add	a1,a1,-2
    96cc:	00e59123          	sh	a4,2(a1)
    96d0:	fea798e3          	bne	a5,a0,96c0 <emovo.constprop.0+0x34>
    96d4:	00008067          	ret
    96d8:	00650793          	add	a5,a0,6
    96dc:	01a50513          	add	a0,a0,26
    96e0:	0007d703          	lhu	a4,0(a5)
    96e4:	00278793          	add	a5,a5,2
    96e8:	02071a63          	bnez	a4,971c <emovo.constprop.0+0x90>
    96ec:	fef51ae3          	bne	a0,a5,96e0 <emovo.constprop.0+0x54>
    96f0:	01258713          	add	a4,a1,18
    96f4:	00058793          	mv	a5,a1
    96f8:	00278793          	add	a5,a5,2
    96fc:	fe079f23          	sh	zero,-2(a5)
    9700:	fee79ce3          	bne	a5,a4,96f8 <emovo.constprop.0+0x6c>
    9704:	0125d783          	lhu	a5,18(a1)
    9708:	00008737          	lui	a4,0x8
    970c:	fff70713          	add	a4,a4,-1 # 7fff <_vfprintf_r+0x28bb>
    9710:	00e7e7b3          	or	a5,a5,a4
    9714:	00f59923          	sh	a5,18(a1)
    9718:	00008067          	ret
    971c:	01058713          	add	a4,a1,16
    9720:	00058793          	mv	a5,a1
    9724:	00278793          	add	a5,a5,2
    9728:	fe079f23          	sh	zero,-2(a5)
    972c:	fee79ce3          	bne	a5,a4,9724 <emovo.constprop.0+0x98>
    9730:	ffffc7b7          	lui	a5,0xffffc
    9734:	00f59823          	sh	a5,16(a1)
    9738:	ffff87b7          	lui	a5,0xffff8
    973c:	fff7c793          	not	a5,a5
    9740:	00f59923          	sh	a5,18(a1)
    9744:	00008067          	ret

00009748 <enormlz>:
    9748:	00455783          	lhu	a5,4(a0)
    974c:	ff010113          	add	sp,sp,-16
    9750:	00912223          	sw	s1,4(sp)
    9754:	00112623          	sw	ra,12(sp)
    9758:	00812423          	sw	s0,8(sp)
    975c:	01212023          	sw	s2,0(sp)
    9760:	00050493          	mv	s1,a0
    9764:	0c079a63          	bnez	a5,9838 <enormlz+0xf0>
    9768:	00655783          	lhu	a5,6(a0)
    976c:	00000413          	li	s0,0
    9770:	01079713          	sll	a4,a5,0x10
    9774:	41075713          	sra	a4,a4,0x10
    9778:	0a074263          	bltz	a4,981c <enormlz+0xd4>
    977c:	01850693          	add	a3,a0,24
    9780:	0a000613          	li	a2,160
    9784:	02079663          	bnez	a5,97b0 <enormlz+0x68>
    9788:	00448793          	add	a5,s1,4
    978c:	0027d703          	lhu	a4,2(a5) # ffff8002 <_end+0xfffde032>
    9790:	00278793          	add	a5,a5,2
    9794:	fee79f23          	sh	a4,-2(a5)
    9798:	fed79ae3          	bne	a5,a3,978c <enormlz+0x44>
    979c:	00049c23          	sh	zero,24(s1)
    97a0:	01040413          	add	s0,s0,16
    97a4:	06c40c63          	beq	s0,a2,981c <enormlz+0xd4>
    97a8:	0064d783          	lhu	a5,6(s1)
    97ac:	fc078ee3          	beqz	a5,9788 <enormlz+0x40>
    97b0:	0ff00713          	li	a4,255
    97b4:	04f76063          	bltu	a4,a5,97f4 <enormlz+0xac>
    97b8:	01848813          	add	a6,s1,24
    97bc:	00248593          	add	a1,s1,2
    97c0:	0ff00513          	li	a0,255
    97c4:	00000793          	li	a5,0
    97c8:	00080713          	mv	a4,a6
    97cc:	00075683          	lhu	a3,0(a4)
    97d0:	ffe70713          	add	a4,a4,-2
    97d4:	00869613          	sll	a2,a3,0x8
    97d8:	00c7e7b3          	or	a5,a5,a2
    97dc:	00f71123          	sh	a5,2(a4)
    97e0:	0086d793          	srl	a5,a3,0x8
    97e4:	feb714e3          	bne	a4,a1,97cc <enormlz+0x84>
    97e8:	0064d783          	lhu	a5,6(s1)
    97ec:	00840413          	add	s0,s0,8
    97f0:	fcf57ae3          	bgeu	a0,a5,97c4 <enormlz+0x7c>
    97f4:	0a000913          	li	s2,160
    97f8:	0140006f          	j	980c <enormlz+0xc4>
    97fc:	00140413          	add	s0,s0,1
    9800:	dadff0ef          	jal	95ac <eshup1>
    9804:	00894c63          	blt	s2,s0,981c <enormlz+0xd4>
    9808:	0064d783          	lhu	a5,6(s1)
    980c:	01079793          	sll	a5,a5,0x10
    9810:	4107d793          	sra	a5,a5,0x10
    9814:	00048513          	mv	a0,s1
    9818:	fe07d2e3          	bgez	a5,97fc <enormlz+0xb4>
    981c:	00c12083          	lw	ra,12(sp)
    9820:	00040513          	mv	a0,s0
    9824:	00812403          	lw	s0,8(sp)
    9828:	00412483          	lw	s1,4(sp)
    982c:	00012903          	lw	s2,0(sp)
    9830:	01010113          	add	sp,sp,16
    9834:	00008067          	ret
    9838:	0ff00713          	li	a4,255
    983c:	00000413          	li	s0,0
    9840:	04f76063          	bltu	a4,a5,9880 <enormlz+0x138>
    9844:	f6f00913          	li	s2,-145
    9848:	0140006f          	j	985c <enormlz+0x114>
    984c:	fff40413          	add	s0,s0,-1
    9850:	d09ff0ef          	jal	9558 <eshdn1>
    9854:	fd2404e3          	beq	s0,s2,981c <enormlz+0xd4>
    9858:	0044d783          	lhu	a5,4(s1)
    985c:	00048513          	mv	a0,s1
    9860:	fe0796e3          	bnez	a5,984c <enormlz+0x104>
    9864:	00c12083          	lw	ra,12(sp)
    9868:	00040513          	mv	a0,s0
    986c:	00812403          	lw	s0,8(sp)
    9870:	00412483          	lw	s1,4(sp)
    9874:	00012903          	lw	s2,0(sp)
    9878:	01010113          	add	sp,sp,16
    987c:	00008067          	ret
    9880:	00450713          	add	a4,a0,4
    9884:	01a50593          	add	a1,a0,26
    9888:	00000793          	li	a5,0
    988c:	00075683          	lhu	a3,0(a4)
    9890:	00270713          	add	a4,a4,2
    9894:	0086d613          	srl	a2,a3,0x8
    9898:	00c7e7b3          	or	a5,a5,a2
    989c:	00869693          	sll	a3,a3,0x8
    98a0:	fef71f23          	sh	a5,-2(a4)
    98a4:	01069793          	sll	a5,a3,0x10
    98a8:	0107d793          	srl	a5,a5,0x10
    98ac:	feb710e3          	bne	a4,a1,988c <enormlz+0x144>
    98b0:	0044d783          	lhu	a5,4(s1)
    98b4:	ff800413          	li	s0,-8
    98b8:	f8dff06f          	j	9844 <enormlz+0xfc>

000098bc <eshift.part.0>:
    98bc:	fe010113          	add	sp,sp,-32
    98c0:	00812c23          	sw	s0,24(sp)
    98c4:	00912a23          	sw	s1,20(sp)
    98c8:	00112e23          	sw	ra,28(sp)
    98cc:	01212823          	sw	s2,16(sp)
    98d0:	01312623          	sw	s3,12(sp)
    98d4:	00058493          	mv	s1,a1
    98d8:	00050413          	mv	s0,a0
    98dc:	0a05c463          	bltz	a1,9984 <eshift.part.0+0xc8>
    98e0:	00f00793          	li	a5,15
    98e4:	00058613          	mv	a2,a1
    98e8:	00450513          	add	a0,a0,4
    98ec:	01840693          	add	a3,s0,24
    98f0:	00f00593          	li	a1,15
    98f4:	0297d463          	bge	a5,s1,991c <eshift.part.0+0x60>
    98f8:	00050793          	mv	a5,a0
    98fc:	0027d703          	lhu	a4,2(a5)
    9900:	00278793          	add	a5,a5,2
    9904:	fee79f23          	sh	a4,-2(a5)
    9908:	fef69ae3          	bne	a3,a5,98fc <eshift.part.0+0x40>
    990c:	00041c23          	sh	zero,24(s0)
    9910:	ff060613          	add	a2,a2,-16
    9914:	fec5c2e3          	blt	a1,a2,98f8 <eshift.part.0+0x3c>
    9918:	00f4f493          	and	s1,s1,15
    991c:	00700793          	li	a5,7
    9920:	0297d863          	bge	a5,s1,9950 <eshift.part.0+0x94>
    9924:	01840713          	add	a4,s0,24
    9928:	00240593          	add	a1,s0,2
    992c:	00000793          	li	a5,0
    9930:	00075683          	lhu	a3,0(a4)
    9934:	ffe70713          	add	a4,a4,-2
    9938:	00869613          	sll	a2,a3,0x8
    993c:	00c7e7b3          	or	a5,a5,a2
    9940:	00f71123          	sh	a5,2(a4)
    9944:	0086d793          	srl	a5,a3,0x8
    9948:	feb714e3          	bne	a4,a1,9930 <eshift.part.0+0x74>
    994c:	ff848493          	add	s1,s1,-8
    9950:	00048a63          	beqz	s1,9964 <eshift.part.0+0xa8>
    9954:	fff48493          	add	s1,s1,-1
    9958:	00040513          	mv	a0,s0
    995c:	c51ff0ef          	jal	95ac <eshup1>
    9960:	fe049ae3          	bnez	s1,9954 <eshift.part.0+0x98>
    9964:	01c12083          	lw	ra,28(sp)
    9968:	01812403          	lw	s0,24(sp)
    996c:	01412483          	lw	s1,20(sp)
    9970:	01012903          	lw	s2,16(sp)
    9974:	00c12983          	lw	s3,12(sp)
    9978:	00000513          	li	a0,0
    997c:	02010113          	add	sp,sp,32
    9980:	00008067          	ret
    9984:	ff100793          	li	a5,-15
    9988:	40b00933          	neg	s2,a1
    998c:	00000993          	li	s3,0
    9990:	01850593          	add	a1,a0,24
    9994:	00450693          	add	a3,a0,4
    9998:	00f00613          	li	a2,15
    999c:	0cf4d863          	bge	s1,a5,9a6c <eshift.part.0+0x1b0>
    99a0:	01845703          	lhu	a4,24(s0)
    99a4:	00058793          	mv	a5,a1
    99a8:	00e9e9b3          	or	s3,s3,a4
    99ac:	ffe7d703          	lhu	a4,-2(a5)
    99b0:	ffe78793          	add	a5,a5,-2
    99b4:	00e79123          	sh	a4,2(a5)
    99b8:	fed79ae3          	bne	a5,a3,99ac <eshift.part.0+0xf0>
    99bc:	00041223          	sh	zero,4(s0)
    99c0:	ff090913          	add	s2,s2,-16
    99c4:	fd264ee3          	blt	a2,s2,99a0 <eshift.part.0+0xe4>
    99c8:	ff000913          	li	s2,-16
    99cc:	ff100713          	li	a4,-15
    99d0:	40990933          	sub	s2,s2,s1
    99d4:	00000793          	li	a5,0
    99d8:	08e4c463          	blt	s1,a4,9a60 <eshift.part.0+0x1a4>
    99dc:	00f90933          	add	s2,s2,a5
    99e0:	00700793          	li	a5,7
    99e4:	0327de63          	bge	a5,s2,9a20 <eshift.part.0+0x164>
    99e8:	01844783          	lbu	a5,24(s0)
    99ec:	01a40593          	add	a1,s0,26
    99f0:	00f9e9b3          	or	s3,s3,a5
    99f4:	00000793          	li	a5,0
    99f8:	0006d703          	lhu	a4,0(a3)
    99fc:	00268693          	add	a3,a3,2
    9a00:	00875613          	srl	a2,a4,0x8
    9a04:	00c7e7b3          	or	a5,a5,a2
    9a08:	00871713          	sll	a4,a4,0x8
    9a0c:	fef69f23          	sh	a5,-2(a3)
    9a10:	01071793          	sll	a5,a4,0x10
    9a14:	0107d793          	srl	a5,a5,0x10
    9a18:	feb690e3          	bne	a3,a1,99f8 <eshift.part.0+0x13c>
    9a1c:	ff890913          	add	s2,s2,-8
    9a20:	02090063          	beqz	s2,9a40 <eshift.part.0+0x184>
    9a24:	01845783          	lhu	a5,24(s0)
    9a28:	fff90913          	add	s2,s2,-1
    9a2c:	00040513          	mv	a0,s0
    9a30:	0017f793          	and	a5,a5,1
    9a34:	00f9e9b3          	or	s3,s3,a5
    9a38:	b21ff0ef          	jal	9558 <eshdn1>
    9a3c:	fe0914e3          	bnez	s2,9a24 <eshift.part.0+0x168>
    9a40:	01c12083          	lw	ra,28(sp)
    9a44:	01812403          	lw	s0,24(sp)
    9a48:	01412483          	lw	s1,20(sp)
    9a4c:	01012903          	lw	s2,16(sp)
    9a50:	01303533          	snez	a0,s3
    9a54:	00c12983          	lw	s3,12(sp)
    9a58:	02010113          	add	sp,sp,32
    9a5c:	00008067          	ret
    9a60:	ff097793          	and	a5,s2,-16
    9a64:	40f007b3          	neg	a5,a5
    9a68:	f75ff06f          	j	99dc <eshift.part.0+0x120>
    9a6c:	ff900793          	li	a5,-7
    9a70:	f6f4cce3          	blt	s1,a5,99e8 <eshift.part.0+0x12c>
    9a74:	fb1ff06f          	j	9a24 <eshift.part.0+0x168>

00009a78 <emovi>:
    9a78:	01255783          	lhu	a5,18(a0)
    9a7c:	000086b7          	lui	a3,0x8
    9a80:	fff68693          	add	a3,a3,-1 # 7fff <_vfprintf_r+0x28bb>
    9a84:	00f7d793          	srl	a5,a5,0xf
    9a88:	40f007b3          	neg	a5,a5
    9a8c:	00f59023          	sh	a5,0(a1)
    9a90:	01255703          	lhu	a4,18(a0)
    9a94:	01050793          	add	a5,a0,16
    9a98:	00d77733          	and	a4,a4,a3
    9a9c:	00e59123          	sh	a4,2(a1)
    9aa0:	02d70663          	beq	a4,a3,9acc <emovi+0x54>
    9aa4:	00658713          	add	a4,a1,6
    9aa8:	00059223          	sh	zero,4(a1)
    9aac:	ffe50513          	add	a0,a0,-2
    9ab0:	0007d683          	lhu	a3,0(a5)
    9ab4:	ffe78793          	add	a5,a5,-2
    9ab8:	00270713          	add	a4,a4,2
    9abc:	fed71f23          	sh	a3,-2(a4)
    9ac0:	fea798e3          	bne	a5,a0,9ab0 <emovi+0x38>
    9ac4:	00059c23          	sh	zero,24(a1)
    9ac8:	00008067          	ret
    9acc:	01255683          	lhu	a3,18(a0)
    9ad0:	00e6f6b3          	and	a3,a3,a4
    9ad4:	00e69e63          	bne	a3,a4,9af0 <emovi+0x78>
    9ad8:	01250613          	add	a2,a0,18
    9adc:	00050713          	mv	a4,a0
    9ae0:	00075683          	lhu	a3,0(a4)
    9ae4:	00270713          	add	a4,a4,2
    9ae8:	02069063          	bnez	a3,9b08 <emovi+0x90>
    9aec:	fec71ae3          	bne	a4,a2,9ae0 <emovi+0x68>
    9af0:	00458793          	add	a5,a1,4
    9af4:	01a58593          	add	a1,a1,26
    9af8:	00278793          	add	a5,a5,2
    9afc:	fe079f23          	sh	zero,-2(a5)
    9b00:	feb79ce3          	bne	a5,a1,9af8 <emovi+0x80>
    9b04:	00008067          	ret
    9b08:	00658713          	add	a4,a1,6
    9b0c:	00059223          	sh	zero,4(a1)
    9b10:	ffc50513          	add	a0,a0,-4
    9b14:	0007d683          	lhu	a3,0(a5)
    9b18:	ffe78793          	add	a5,a5,-2
    9b1c:	00270713          	add	a4,a4,2
    9b20:	fed71f23          	sh	a3,-2(a4)
    9b24:	fef518e3          	bne	a0,a5,9b14 <emovi+0x9c>
    9b28:	00008067          	ret

00009b2c <ecmp>:
    9b2c:	01255783          	lhu	a5,18(a0)
    9b30:	fb010113          	add	sp,sp,-80
    9b34:	04812423          	sw	s0,72(sp)
    9b38:	fff7c793          	not	a5,a5
    9b3c:	04112623          	sw	ra,76(sp)
    9b40:	01179713          	sll	a4,a5,0x11
    9b44:	00058413          	mv	s0,a1
    9b48:	00071e63          	bnez	a4,9b64 <ecmp+0x38>
    9b4c:	01250693          	add	a3,a0,18
    9b50:	00050793          	mv	a5,a0
    9b54:	0007d703          	lhu	a4,0(a5)
    9b58:	00278793          	add	a5,a5,2
    9b5c:	08071c63          	bnez	a4,9bf4 <ecmp+0xc8>
    9b60:	fed79ae3          	bne	a5,a3,9b54 <ecmp+0x28>
    9b64:	01245783          	lhu	a5,18(s0)
    9b68:	fff7c793          	not	a5,a5
    9b6c:	01179713          	sll	a4,a5,0x11
    9b70:	06070063          	beqz	a4,9bd0 <ecmp+0xa4>
    9b74:	00810593          	add	a1,sp,8
    9b78:	f01ff0ef          	jal	9a78 <emovi>
    9b7c:	02410593          	add	a1,sp,36
    9b80:	00040513          	mv	a0,s0
    9b84:	ef5ff0ef          	jal	9a78 <emovi>
    9b88:	00815583          	lhu	a1,8(sp)
    9b8c:	02415503          	lhu	a0,36(sp)
    9b90:	06b50c63          	beq	a0,a1,9c08 <ecmp+0xdc>
    9b94:	00a10793          	add	a5,sp,10
    9b98:	02610713          	add	a4,sp,38
    9b9c:	02010613          	add	a2,sp,32
    9ba0:	0007d683          	lhu	a3,0(a5)
    9ba4:	00278793          	add	a5,a5,2
    9ba8:	0a069863          	bnez	a3,9c58 <ecmp+0x12c>
    9bac:	00075683          	lhu	a3,0(a4)
    9bb0:	00270713          	add	a4,a4,2
    9bb4:	0a069263          	bnez	a3,9c58 <ecmp+0x12c>
    9bb8:	fef614e3          	bne	a2,a5,9ba0 <ecmp+0x74>
    9bbc:	00000513          	li	a0,0
    9bc0:	04c12083          	lw	ra,76(sp)
    9bc4:	04812403          	lw	s0,72(sp)
    9bc8:	05010113          	add	sp,sp,80
    9bcc:	00008067          	ret
    9bd0:	00040793          	mv	a5,s0
    9bd4:	0007d703          	lhu	a4,0(a5)
    9bd8:	01240693          	add	a3,s0,18
    9bdc:	00278793          	add	a5,a5,2
    9be0:	00071a63          	bnez	a4,9bf4 <ecmp+0xc8>
    9be4:	f8d788e3          	beq	a5,a3,9b74 <ecmp+0x48>
    9be8:	0007d703          	lhu	a4,0(a5)
    9bec:	00278793          	add	a5,a5,2
    9bf0:	fe070ae3          	beqz	a4,9be4 <ecmp+0xb8>
    9bf4:	04c12083          	lw	ra,76(sp)
    9bf8:	04812403          	lw	s0,72(sp)
    9bfc:	ffe00513          	li	a0,-2
    9c00:	05010113          	add	sp,sp,80
    9c04:	00008067          	ret
    9c08:	00815603          	lhu	a2,8(sp)
    9c0c:	02415683          	lhu	a3,36(sp)
    9c10:	00a03533          	snez	a0,a0
    9c14:	02410713          	add	a4,sp,36
    9c18:	00810793          	add	a5,sp,8
    9c1c:	40a00533          	neg	a0,a0
    9c20:	00156513          	or	a0,a0,1
    9c24:	02010593          	add	a1,sp,32
    9c28:	00278793          	add	a5,a5,2
    9c2c:	00270713          	add	a4,a4,2
    9c30:	00d61e63          	bne	a2,a3,9c4c <ecmp+0x120>
    9c34:	f8b784e3          	beq	a5,a1,9bbc <ecmp+0x90>
    9c38:	0007d603          	lhu	a2,0(a5)
    9c3c:	00075683          	lhu	a3,0(a4)
    9c40:	00278793          	add	a5,a5,2
    9c44:	00270713          	add	a4,a4,2
    9c48:	fed606e3          	beq	a2,a3,9c34 <ecmp+0x108>
    9c4c:	f6c6eae3          	bltu	a3,a2,9bc0 <ecmp+0x94>
    9c50:	40a00533          	neg	a0,a0
    9c54:	f6dff06f          	j	9bc0 <ecmp+0x94>
    9c58:	00059c63          	bnez	a1,9c70 <ecmp+0x144>
    9c5c:	04c12083          	lw	ra,76(sp)
    9c60:	04812403          	lw	s0,72(sp)
    9c64:	00100513          	li	a0,1
    9c68:	05010113          	add	sp,sp,80
    9c6c:	00008067          	ret
    9c70:	fff00513          	li	a0,-1
    9c74:	f4dff06f          	j	9bc0 <ecmp+0x94>

00009c78 <emdnorm>:
    9c78:	fe010113          	add	sp,sp,-32
    9c7c:	00812c23          	sw	s0,24(sp)
    9c80:	00912a23          	sw	s1,20(sp)
    9c84:	01212823          	sw	s2,16(sp)
    9c88:	01312623          	sw	s3,12(sp)
    9c8c:	01412423          	sw	s4,8(sp)
    9c90:	01512223          	sw	s5,4(sp)
    9c94:	00068913          	mv	s2,a3
    9c98:	00078413          	mv	s0,a5
    9c9c:	00112e23          	sw	ra,28(sp)
    9ca0:	00050493          	mv	s1,a0
    9ca4:	00058993          	mv	s3,a1
    9ca8:	00060a13          	mv	s4,a2
    9cac:	00070a93          	mv	s5,a4
    9cb0:	a99ff0ef          	jal	9748 <enormlz>
    9cb4:	09000793          	li	a5,144
    9cb8:	40a90933          	sub	s2,s2,a0
    9cbc:	16a7da63          	bge	a5,a0,9e30 <emdnorm+0x1b8>
    9cc0:	000087b7          	lui	a5,0x8
    9cc4:	ffe78793          	add	a5,a5,-2 # 7ffe <_vfprintf_r+0x28ba>
    9cc8:	2b27da63          	bge	a5,s2,9f7c <emdnorm+0x304>
    9ccc:	200a8c63          	beqz	s5,9ee4 <emdnorm+0x26c>
    9cd0:	00442a83          	lw	s5,4(s0)
    9cd4:	00042783          	lw	a5,0(s0)
    9cd8:	26fa8a63          	beq	s5,a5,9f4c <emdnorm+0x2d4>
    9cdc:	01a40713          	add	a4,s0,26
    9ce0:	03440793          	add	a5,s0,52
    9ce4:	00270713          	add	a4,a4,2
    9ce8:	fe071f23          	sh	zero,-2(a4)
    9cec:	fee79ce3          	bne	a5,a4,9ce4 <emdnorm+0x6c>
    9cf0:	03800793          	li	a5,56
    9cf4:	36fa8863          	beq	s5,a5,a064 <emdnorm+0x3ec>
    9cf8:	1957dc63          	bge	a5,s5,9e90 <emdnorm+0x218>
    9cfc:	04000793          	li	a5,64
    9d00:	28fa8a63          	beq	s5,a5,9f94 <emdnorm+0x31c>
    9d04:	07100793          	li	a5,113
    9d08:	38fa9c63          	bne	s5,a5,a0a0 <emdnorm+0x428>
    9d0c:	400087b7          	lui	a5,0x40008
    9d10:	00a00693          	li	a3,10
    9d14:	ffff8737          	lui	a4,0xffff8
    9d18:	fff78793          	add	a5,a5,-1 # 40007fff <_end+0x3ffee02f>
    9d1c:	00d42423          	sw	a3,8(s0)
    9d20:	00f42a23          	sw	a5,20(s0)
    9d24:	00e41c23          	sh	a4,24(s0)
    9d28:	00d42623          	sw	a3,12(s0)
    9d2c:	02e41723          	sh	a4,46(s0)
    9d30:	01542023          	sw	s5,0(s0)
    9d34:	21205263          	blez	s2,9f38 <emdnorm+0x2c0>
    9d38:	0144d683          	lhu	a3,20(s1)
    9d3c:	01448613          	add	a2,s1,20
    9d40:	00b00793          	li	a5,11
    9d44:	01169693          	sll	a3,a3,0x11
    9d48:	0116d693          	srl	a3,a3,0x11
    9d4c:	00179793          	sll	a5,a5,0x1
    9d50:	00f487b3          	add	a5,s1,a5
    9d54:	01a48593          	add	a1,s1,26
    9d58:	0007d703          	lhu	a4,0(a5)
    9d5c:	00070463          	beqz	a4,9d64 <emdnorm+0xec>
    9d60:	0016e693          	or	a3,a3,1
    9d64:	00079023          	sh	zero,0(a5)
    9d68:	00278793          	add	a5,a5,2
    9d6c:	feb796e3          	bne	a5,a1,9d58 <emdnorm+0xe0>
    9d70:	00065703          	lhu	a4,0(a2)
    9d74:	01445583          	lhu	a1,20(s0)
    9d78:	fff5c593          	not	a1,a1
    9d7c:	00b77733          	and	a4,a4,a1
    9d80:	00e61023          	sh	a4,0(a2)
    9d84:	01645783          	lhu	a5,22(s0)
    9d88:	00d7f733          	and	a4,a5,a3
    9d8c:	06070063          	beqz	a4,9dec <emdnorm+0x174>
    9d90:	02d79263          	bne	a5,a3,9db4 <emdnorm+0x13c>
    9d94:	2c099463          	bnez	s3,a05c <emdnorm+0x3e4>
    9d98:	00c42783          	lw	a5,12(s0)
    9d9c:	01845703          	lhu	a4,24(s0)
    9da0:	00179793          	sll	a5,a5,0x1
    9da4:	00f487b3          	add	a5,s1,a5
    9da8:	0007d783          	lhu	a5,0(a5)
    9dac:	00e7f7b3          	and	a5,a5,a4
    9db0:	02078e63          	beqz	a5,9dec <emdnorm+0x174>
    9db4:	03240793          	add	a5,s0,50
    9db8:	01848613          	add	a2,s1,24
    9dbc:	00248593          	add	a1,s1,2
    9dc0:	00000513          	li	a0,0
    9dc4:	0007d703          	lhu	a4,0(a5)
    9dc8:	00065683          	lhu	a3,0(a2)
    9dcc:	ffe60613          	add	a2,a2,-2
    9dd0:	ffe78793          	add	a5,a5,-2
    9dd4:	00d70733          	add	a4,a4,a3
    9dd8:	00a70733          	add	a4,a4,a0
    9ddc:	01075513          	srl	a0,a4,0x10
    9de0:	00e61123          	sh	a4,2(a2)
    9de4:	00157513          	and	a0,a0,1
    9de8:	fcc59ee3          	bne	a1,a2,9dc4 <emdnorm+0x14c>
    9dec:	23205863          	blez	s2,a01c <emdnorm+0x3a4>
    9df0:	0044d783          	lhu	a5,4(s1)
    9df4:	20079463          	bnez	a5,9ffc <emdnorm+0x384>
    9df8:	000087b7          	lui	a5,0x8
    9dfc:	00049c23          	sh	zero,24(s1)
    9e00:	ffe78793          	add	a5,a5,-2 # 7ffe <_vfprintf_r+0x28ba>
    9e04:	0f27c263          	blt	a5,s2,9ee8 <emdnorm+0x270>
    9e08:	01249123          	sh	s2,2(s1)
    9e0c:	01c12083          	lw	ra,28(sp)
    9e10:	01812403          	lw	s0,24(sp)
    9e14:	01412483          	lw	s1,20(sp)
    9e18:	01012903          	lw	s2,16(sp)
    9e1c:	00c12983          	lw	s3,12(sp)
    9e20:	00812a03          	lw	s4,8(sp)
    9e24:	00412a83          	lw	s5,4(sp)
    9e28:	02010113          	add	sp,sp,32
    9e2c:	00008067          	ret
    9e30:	04094063          	bltz	s2,9e70 <emdnorm+0x1f8>
    9e34:	fc0a82e3          	beqz	s5,9df8 <emdnorm+0x180>
    9e38:	00442a83          	lw	s5,4(s0)
    9e3c:	00042783          	lw	a5,0(s0)
    9e40:	e8fa9ee3          	bne	s5,a5,9cdc <emdnorm+0x64>
    9e44:	2d204063          	bgtz	s2,a104 <emdnorm+0x48c>
    9e48:	09000713          	li	a4,144
    9e4c:	2ce79063          	bne	a5,a4,a10c <emdnorm+0x494>
    9e50:	00842603          	lw	a2,8(s0)
    9e54:	01445583          	lhu	a1,20(s0)
    9e58:	09000a93          	li	s5,144
    9e5c:	00161613          	sll	a2,a2,0x1
    9e60:	00c48633          	add	a2,s1,a2
    9e64:	00065703          	lhu	a4,0(a2)
    9e68:	00b776b3          	and	a3,a4,a1
    9e6c:	f0dff06f          	j	9d78 <emdnorm+0x100>
    9e70:	f7000793          	li	a5,-144
    9e74:	16f95063          	bge	s2,a5,9fd4 <emdnorm+0x35c>
    9e78:	00248793          	add	a5,s1,2
    9e7c:	01a48493          	add	s1,s1,26
    9e80:	00278793          	add	a5,a5,2
    9e84:	fe079f23          	sh	zero,-2(a5)
    9e88:	fef49ce3          	bne	s1,a5,9e80 <emdnorm+0x208>
    9e8c:	f81ff06f          	j	9e0c <emdnorm+0x194>
    9e90:	01800793          	li	a5,24
    9e94:	06fa8c63          	beq	s5,a5,9f0c <emdnorm+0x294>
    9e98:	03500793          	li	a5,53
    9e9c:	20fa9263          	bne	s5,a5,a0a0 <emdnorm+0x428>
    9ea0:	000017b7          	lui	a5,0x1
    9ea4:	04000737          	lui	a4,0x4000
    9ea8:	00600693          	li	a3,6
    9eac:	80078793          	add	a5,a5,-2048 # 800 <__divdf3+0x100>
    9eb0:	7ff70713          	add	a4,a4,2047 # 40007ff <_end+0x3fe682f>
    9eb4:	00d42423          	sw	a3,8(s0)
    9eb8:	00e42a23          	sw	a4,20(s0)
    9ebc:	00f41c23          	sh	a5,24(s0)
    9ec0:	00d42623          	sw	a3,12(s0)
    9ec4:	02f41323          	sh	a5,38(s0)
    9ec8:	01542023          	sw	s5,0(s0)
    9ecc:	07205663          	blez	s2,9f38 <emdnorm+0x2c0>
    9ed0:	00c4d683          	lhu	a3,12(s1)
    9ed4:	00c48613          	add	a2,s1,12
    9ed8:	00700793          	li	a5,7
    9edc:	7ff6f693          	and	a3,a3,2047
    9ee0:	e6dff06f          	j	9d4c <emdnorm+0xd4>
    9ee4:	00049c23          	sh	zero,24(s1)
    9ee8:	ffff87b7          	lui	a5,0xffff8
    9eec:	fff7c793          	not	a5,a5
    9ef0:	00f49123          	sh	a5,2(s1)
    9ef4:	00448793          	add	a5,s1,4
    9ef8:	01848493          	add	s1,s1,24
    9efc:	00079023          	sh	zero,0(a5) # ffff8000 <_end+0xfffde030>
    9f00:	00278793          	add	a5,a5,2
    9f04:	fef49ce3          	bne	s1,a5,9efc <emdnorm+0x284>
    9f08:	f05ff06f          	j	9e0c <emdnorm+0x194>
    9f0c:	008007b7          	lui	a5,0x800
    9f10:	00400693          	li	a3,4
    9f14:	10000713          	li	a4,256
    9f18:	0ff78793          	add	a5,a5,255 # 8000ff <_end+0x7e612f>
    9f1c:	00d42423          	sw	a3,8(s0)
    9f20:	00f42a23          	sw	a5,20(s0)
    9f24:	00e41c23          	sh	a4,24(s0)
    9f28:	00d42623          	sw	a3,12(s0)
    9f2c:	02e41123          	sh	a4,34(s0)
    9f30:	01542023          	sw	s5,0(s0)
    9f34:	1b204a63          	bgtz	s2,a0e8 <emdnorm+0x470>
    9f38:	0184d783          	lhu	a5,24(s1)
    9f3c:	00048513          	mv	a0,s1
    9f40:	0017f793          	and	a5,a5,1
    9f44:	00f9e9b3          	or	s3,s3,a5
    9f48:	e10ff0ef          	jal	9558 <eshdn1>
    9f4c:	00842783          	lw	a5,8(s0)
    9f50:	01445583          	lhu	a1,20(s0)
    9f54:	08f00513          	li	a0,143
    9f58:	00179613          	sll	a2,a5,0x1
    9f5c:	00c48633          	add	a2,s1,a2
    9f60:	00065703          	lhu	a4,0(a2)
    9f64:	00b776b3          	and	a3,a4,a1
    9f68:	e15548e3          	blt	a0,s5,9d78 <emdnorm+0x100>
    9f6c:	00178793          	add	a5,a5,1
    9f70:	00c00513          	li	a0,12
    9f74:	dcf55ce3          	bge	a0,a5,9d4c <emdnorm+0xd4>
    9f78:	e01ff06f          	j	9d78 <emdnorm+0x100>
    9f7c:	00248793          	add	a5,s1,2
    9f80:	01a48493          	add	s1,s1,26
    9f84:	00278793          	add	a5,a5,2
    9f88:	fe079f23          	sh	zero,-2(a5)
    9f8c:	fef49ce3          	bne	s1,a5,9f84 <emdnorm+0x30c>
    9f90:	e7dff06f          	j	9e0c <emdnorm+0x194>
    9f94:	00700793          	li	a5,7
    9f98:	00f42423          	sw	a5,8(s0)
    9f9c:	800107b7          	lui	a5,0x80010
    9fa0:	fff78793          	add	a5,a5,-1 # 8000ffff <_end+0x7fff602f>
    9fa4:	00100713          	li	a4,1
    9fa8:	00f42a23          	sw	a5,20(s0)
    9fac:	00600793          	li	a5,6
    9fb0:	00e41c23          	sh	a4,24(s0)
    9fb4:	00f42623          	sw	a5,12(s0)
    9fb8:	02e41323          	sh	a4,38(s0)
    9fbc:	01542023          	sw	s5,0(s0)
    9fc0:	f7205ce3          	blez	s2,9f38 <emdnorm+0x2c0>
    9fc4:	00e4d683          	lhu	a3,14(s1)
    9fc8:	00e48613          	add	a2,s1,14
    9fcc:	00800793          	li	a5,8
    9fd0:	d7dff06f          	j	9d4c <emdnorm+0xd4>
    9fd4:	00090593          	mv	a1,s2
    9fd8:	00048513          	mv	a0,s1
    9fdc:	8e1ff0ef          	jal	98bc <eshift.part.0>
    9fe0:	0e050a63          	beqz	a0,a0d4 <emdnorm+0x45c>
    9fe4:	100a8a63          	beqz	s5,a0f8 <emdnorm+0x480>
    9fe8:	00442a83          	lw	s5,4(s0)
    9fec:	00042783          	lw	a5,0(s0)
    9ff0:	00100993          	li	s3,1
    9ff4:	cefa94e3          	bne	s5,a5,9cdc <emdnorm+0x64>
    9ff8:	e51ff06f          	j	9e48 <emdnorm+0x1d0>
    9ffc:	00048513          	mv	a0,s1
    a000:	d58ff0ef          	jal	9558 <eshdn1>
    a004:	000087b7          	lui	a5,0x8
    a008:	00190913          	add	s2,s2,1
    a00c:	00049c23          	sh	zero,24(s1)
    a010:	ffe78793          	add	a5,a5,-2 # 7ffe <_vfprintf_r+0x28ba>
    a014:	ed27cae3          	blt	a5,s2,9ee8 <emdnorm+0x270>
    a018:	df1ff06f          	j	9e08 <emdnorm+0x190>
    a01c:	09000793          	li	a5,144
    a020:	02fa8263          	beq	s5,a5,a044 <emdnorm+0x3cc>
    a024:	00048513          	mv	a0,s1
    a028:	d84ff0ef          	jal	95ac <eshup1>
    a02c:	0044d783          	lhu	a5,4(s1)
    a030:	00079e63          	bnez	a5,a04c <emdnorm+0x3d4>
    a034:	00049c23          	sh	zero,24(s1)
    a038:	dc0958e3          	bgez	s2,9e08 <emdnorm+0x190>
    a03c:	00049123          	sh	zero,2(s1)
    a040:	dcdff06f          	j	9e0c <emdnorm+0x194>
    a044:	0044d783          	lhu	a5,4(s1)
    a048:	fe0786e3          	beqz	a5,a034 <emdnorm+0x3bc>
    a04c:	00048513          	mv	a0,s1
    a050:	d08ff0ef          	jal	9558 <eshdn1>
    a054:	00190913          	add	s2,s2,1
    a058:	fddff06f          	j	a034 <emdnorm+0x3bc>
    a05c:	d40a0ce3          	beqz	s4,9db4 <emdnorm+0x13c>
    a060:	d8dff06f          	j	9dec <emdnorm+0x174>
    a064:	008007b7          	lui	a5,0x800
    a068:	00600693          	li	a3,6
    a06c:	10000713          	li	a4,256
    a070:	0ff78793          	add	a5,a5,255 # 8000ff <_end+0x7e612f>
    a074:	00d42423          	sw	a3,8(s0)
    a078:	00f42a23          	sw	a5,20(s0)
    a07c:	00e41c23          	sh	a4,24(s0)
    a080:	00d42623          	sw	a3,12(s0)
    a084:	02e41323          	sh	a4,38(s0)
    a088:	01542023          	sw	s5,0(s0)
    a08c:	eb2056e3          	blez	s2,9f38 <emdnorm+0x2c0>
    a090:	00c4c683          	lbu	a3,12(s1)
    a094:	00c48613          	add	a2,s1,12
    a098:	00700793          	li	a5,7
    a09c:	cb1ff06f          	j	9d4c <emdnorm+0xd4>
    a0a0:	00c00793          	li	a5,12
    a0a4:	00f42423          	sw	a5,8(s0)
    a0a8:	800107b7          	lui	a5,0x80010
    a0ac:	fff78793          	add	a5,a5,-1 # 8000ffff <_end+0x7fff602f>
    a0b0:	00100713          	li	a4,1
    a0b4:	00f42a23          	sw	a5,20(s0)
    a0b8:	00b00793          	li	a5,11
    a0bc:	00f42623          	sw	a5,12(s0)
    a0c0:	00e41c23          	sh	a4,24(s0)
    a0c4:	02e41823          	sh	a4,48(s0)
    a0c8:	01542023          	sw	s5,0(s0)
    a0cc:	000a8793          	mv	a5,s5
    a0d0:	d75ff06f          	j	9e44 <emdnorm+0x1cc>
    a0d4:	020a8263          	beqz	s5,a0f8 <emdnorm+0x480>
    a0d8:	00442a83          	lw	s5,4(s0)
    a0dc:	00042783          	lw	a5,0(s0)
    a0e0:	befa9ee3          	bne	s5,a5,9cdc <emdnorm+0x64>
    a0e4:	d65ff06f          	j	9e48 <emdnorm+0x1d0>
    a0e8:	0084c683          	lbu	a3,8(s1)
    a0ec:	00848613          	add	a2,s1,8
    a0f0:	00500793          	li	a5,5
    a0f4:	c59ff06f          	j	9d4c <emdnorm+0xd4>
    a0f8:	00049c23          	sh	zero,24(s1)
    a0fc:	00049123          	sh	zero,2(s1)
    a100:	d0dff06f          	j	9e0c <emdnorm+0x194>
    a104:	00078a93          	mv	s5,a5
    a108:	e45ff06f          	j	9f4c <emdnorm+0x2d4>
    a10c:	00078a93          	mv	s5,a5
    a110:	e29ff06f          	j	9f38 <emdnorm+0x2c0>

0000a114 <eiremain>:
    a114:	fd010113          	add	sp,sp,-48
    a118:	03212023          	sw	s2,32(sp)
    a11c:	01312e23          	sw	s3,28(sp)
    a120:	00058913          	mv	s2,a1
    a124:	00255983          	lhu	s3,2(a0)
    a128:	02112623          	sw	ra,44(sp)
    a12c:	02812423          	sw	s0,40(sp)
    a130:	02912223          	sw	s1,36(sp)
    a134:	01412c23          	sw	s4,24(sp)
    a138:	00060493          	mv	s1,a2
    a13c:	01712623          	sw	s7,12(sp)
    a140:	01512a23          	sw	s5,20(sp)
    a144:	01612823          	sw	s6,16(sp)
    a148:	01812423          	sw	s8,8(sp)
    a14c:	01912223          	sw	s9,4(sp)
    a150:	01a12023          	sw	s10,0(sp)
    a154:	00050b93          	mv	s7,a0
    a158:	df0ff0ef          	jal	9748 <enormlz>
    a15c:	00295403          	lhu	s0,2(s2)
    a160:	00050793          	mv	a5,a0
    a164:	00090513          	mv	a0,s2
    a168:	40f989b3          	sub	s3,s3,a5
    a16c:	03448a13          	add	s4,s1,52
    a170:	dd8ff0ef          	jal	9748 <enormlz>
    a174:	40a40433          	sub	s0,s0,a0
    a178:	04e48713          	add	a4,s1,78
    a17c:	000a0793          	mv	a5,s4
    a180:	00278793          	add	a5,a5,2
    a184:	fe079f23          	sh	zero,-2(a5)
    a188:	fee79ce3          	bne	a5,a4,a180 <eiremain+0x6c>
    a18c:	09344863          	blt	s0,s3,a21c <eiremain+0x108>
    a190:	004b8b13          	add	s6,s7,4
    a194:	00490a93          	add	s5,s2,4
    a198:	01ab8c13          	add	s8,s7,26
    a19c:	00290d13          	add	s10,s2,2
    a1a0:	000a8713          	mv	a4,s5
    a1a4:	000b0793          	mv	a5,s6
    a1a8:	0007d603          	lhu	a2,0(a5)
    a1ac:	00075683          	lhu	a3,0(a4)
    a1b0:	00278793          	add	a5,a5,2
    a1b4:	00270713          	add	a4,a4,2
    a1b8:	0ad61a63          	bne	a2,a3,a26c <eiremain+0x158>
    a1bc:	fefc16e3          	bne	s8,a5,a1a8 <eiremain+0x94>
    a1c0:	018b8613          	add	a2,s7,24
    a1c4:	01890713          	add	a4,s2,24
    a1c8:	00000693          	li	a3,0
    a1cc:	00075783          	lhu	a5,0(a4)
    a1d0:	00065583          	lhu	a1,0(a2)
    a1d4:	ffe70713          	add	a4,a4,-2
    a1d8:	ffe60613          	add	a2,a2,-2
    a1dc:	40b787b3          	sub	a5,a5,a1
    a1e0:	40d787b3          	sub	a5,a5,a3
    a1e4:	0107d693          	srl	a3,a5,0x10
    a1e8:	00f71123          	sh	a5,2(a4)
    a1ec:	0016f693          	and	a3,a3,1
    a1f0:	fda71ee3          	bne	a4,s10,a1cc <eiremain+0xb8>
    a1f4:	00100c93          	li	s9,1
    a1f8:	000a0513          	mv	a0,s4
    a1fc:	bb0ff0ef          	jal	95ac <eshup1>
    a200:	04c4d783          	lhu	a5,76(s1)
    a204:	fff40413          	add	s0,s0,-1
    a208:	00090513          	mv	a0,s2
    a20c:	00fce7b3          	or	a5,s9,a5
    a210:	04f49623          	sh	a5,76(s1)
    a214:	b98ff0ef          	jal	95ac <eshup1>
    a218:	f93454e3          	bge	s0,s3,a1a0 <eiremain+0x8c>
    a21c:	00040693          	mv	a3,s0
    a220:	02812403          	lw	s0,40(sp)
    a224:	02c12083          	lw	ra,44(sp)
    a228:	01c12983          	lw	s3,28(sp)
    a22c:	01812a03          	lw	s4,24(sp)
    a230:	01412a83          	lw	s5,20(sp)
    a234:	01012b03          	lw	s6,16(sp)
    a238:	00c12b83          	lw	s7,12(sp)
    a23c:	00812c03          	lw	s8,8(sp)
    a240:	00412c83          	lw	s9,4(sp)
    a244:	00012d03          	lw	s10,0(sp)
    a248:	00048793          	mv	a5,s1
    a24c:	00090513          	mv	a0,s2
    a250:	02412483          	lw	s1,36(sp)
    a254:	02012903          	lw	s2,32(sp)
    a258:	00000713          	li	a4,0
    a25c:	00000613          	li	a2,0
    a260:	00000593          	li	a1,0
    a264:	03010113          	add	sp,sp,48
    a268:	a11ff06f          	j	9c78 <emdnorm>
    a26c:	00000c93          	li	s9,0
    a270:	f8c6e4e3          	bltu	a3,a2,a1f8 <eiremain+0xe4>
    a274:	f4dff06f          	j	a1c0 <eiremain+0xac>

0000a278 <e113toe.isra.0>:
    a278:	fd010113          	add	sp,sp,-48
    a27c:	02812423          	sw	s0,40(sp)
    a280:	02112623          	sw	ra,44(sp)
    a284:	00058413          	mv	s0,a1
    a288:	00410793          	add	a5,sp,4
    a28c:	01e10713          	add	a4,sp,30
    a290:	00278793          	add	a5,a5,2
    a294:	fe079f23          	sh	zero,-2(a5)
    a298:	fee79ce3          	bne	a5,a4,a290 <e113toe.isra.0+0x18>
    a29c:	00e55603          	lhu	a2,14(a0)
    a2a0:	000087b7          	lui	a5,0x8
    a2a4:	fff78793          	add	a5,a5,-1 # 7fff <_vfprintf_r+0x28bb>
    a2a8:	00f65713          	srl	a4,a2,0xf
    a2ac:	40e00733          	neg	a4,a4
    a2b0:	00e11223          	sh	a4,4(sp)
    a2b4:	00f67633          	and	a2,a2,a5
    a2b8:	06f60063          	beq	a2,a5,a318 <e113toe.isra.0+0xa0>
    a2bc:	00e50793          	add	a5,a0,14
    a2c0:	00c11323          	sh	a2,6(sp)
    a2c4:	00a10713          	add	a4,sp,10
    a2c8:	ffe7d683          	lhu	a3,-2(a5)
    a2cc:	ffe78793          	add	a5,a5,-2
    a2d0:	00270713          	add	a4,a4,2
    a2d4:	fed71f23          	sh	a3,-2(a4)
    a2d8:	fef518e3          	bne	a0,a5,a2c8 <e113toe.isra.0+0x50>
    a2dc:	02061263          	bnez	a2,a300 <e113toe.isra.0+0x88>
    a2e0:	00011423          	sh	zero,8(sp)
    a2e4:	00040593          	mv	a1,s0
    a2e8:	00410513          	add	a0,sp,4
    a2ec:	ba0ff0ef          	jal	968c <emovo.constprop.0>
    a2f0:	02c12083          	lw	ra,44(sp)
    a2f4:	02812403          	lw	s0,40(sp)
    a2f8:	03010113          	add	sp,sp,48
    a2fc:	00008067          	ret
    a300:	00100793          	li	a5,1
    a304:	fff00593          	li	a1,-1
    a308:	00410513          	add	a0,sp,4
    a30c:	00f11423          	sh	a5,8(sp)
    a310:	dacff0ef          	jal	98bc <eshift.part.0>
    a314:	fd1ff06f          	j	a2e4 <e113toe.isra.0+0x6c>
    a318:	00050793          	mv	a5,a0
    a31c:	00e50693          	add	a3,a0,14
    a320:	0007d703          	lhu	a4,0(a5)
    a324:	00278793          	add	a5,a5,2
    a328:	06071c63          	bnez	a4,a3a0 <e113toe.isra.0+0x128>
    a32c:	fed79ae3          	bne	a5,a3,a320 <e113toe.isra.0+0xa8>
    a330:	01440713          	add	a4,s0,20
    a334:	00040793          	mv	a5,s0
    a338:	00278793          	add	a5,a5,2
    a33c:	fe079f23          	sh	zero,-2(a5)
    a340:	fee79ce3          	bne	a5,a4,a338 <e113toe.isra.0+0xc0>
    a344:	01240713          	add	a4,s0,18
    a348:	00040793          	mv	a5,s0
    a34c:	00278793          	add	a5,a5,2
    a350:	fe079f23          	sh	zero,-2(a5)
    a354:	fee79ce3          	bne	a5,a4,a34c <e113toe.isra.0+0xd4>
    a358:	01245783          	lhu	a5,18(s0)
    a35c:	000086b7          	lui	a3,0x8
    a360:	fff68693          	add	a3,a3,-1 # 7fff <_vfprintf_r+0x28bb>
    a364:	00d7e7b3          	or	a5,a5,a3
    a368:	01079793          	sll	a5,a5,0x10
    a36c:	0107d793          	srl	a5,a5,0x10
    a370:	00f41923          	sh	a5,18(s0)
    a374:	00e51683          	lh	a3,14(a0)
    a378:	f606dce3          	bgez	a3,a2f0 <e113toe.isra.0+0x78>
    a37c:	00040693          	mv	a3,s0
    a380:	0006d603          	lhu	a2,0(a3)
    a384:	00268693          	add	a3,a3,2
    a388:	f60614e3          	bnez	a2,a2f0 <e113toe.isra.0+0x78>
    a38c:	fee69ae3          	bne	a3,a4,a380 <e113toe.isra.0+0x108>
    a390:	ffff8737          	lui	a4,0xffff8
    a394:	00e7c7b3          	xor	a5,a5,a4
    a398:	00f41923          	sh	a5,18(s0)
    a39c:	f55ff06f          	j	a2f0 <e113toe.isra.0+0x78>
    a3a0:	01040713          	add	a4,s0,16
    a3a4:	00040793          	mv	a5,s0
    a3a8:	00278793          	add	a5,a5,2
    a3ac:	fe079f23          	sh	zero,-2(a5)
    a3b0:	fee79ce3          	bne	a5,a4,a3a8 <e113toe.isra.0+0x130>
    a3b4:	ffffc7b7          	lui	a5,0xffffc
    a3b8:	00f41823          	sh	a5,16(s0)
    a3bc:	ffff87b7          	lui	a5,0xffff8
    a3c0:	fff7c793          	not	a5,a5
    a3c4:	00f41923          	sh	a5,18(s0)
    a3c8:	f29ff06f          	j	a2f0 <e113toe.isra.0+0x78>

0000a3cc <ediv>:
    a3cc:	01255783          	lhu	a5,18(a0)
    a3d0:	f5010113          	add	sp,sp,-176
    a3d4:	0a812423          	sw	s0,168(sp)
    a3d8:	fff7c793          	not	a5,a5
    a3dc:	0a912223          	sw	s1,164(sp)
    a3e0:	0b212023          	sw	s2,160(sp)
    a3e4:	09312e23          	sw	s3,156(sp)
    a3e8:	0a112623          	sw	ra,172(sp)
    a3ec:	09412c23          	sw	s4,152(sp)
    a3f0:	09512a23          	sw	s5,148(sp)
    a3f4:	09612823          	sw	s6,144(sp)
    a3f8:	09712623          	sw	s7,140(sp)
    a3fc:	09812423          	sw	s8,136(sp)
    a400:	09912223          	sw	s9,132(sp)
    a404:	09a12023          	sw	s10,128(sp)
    a408:	07b12e23          	sw	s11,124(sp)
    a40c:	01179713          	sll	a4,a5,0x11
    a410:	00050493          	mv	s1,a0
    a414:	00058993          	mv	s3,a1
    a418:	00060413          	mv	s0,a2
    a41c:	00068913          	mv	s2,a3
    a420:	00071e63          	bnez	a4,a43c <ediv+0x70>
    a424:	01250693          	add	a3,a0,18
    a428:	00050793          	mv	a5,a0
    a42c:	0007d703          	lhu	a4,0(a5) # ffff8000 <_end+0xfffde030>
    a430:	00278793          	add	a5,a5,2
    a434:	0e071e63          	bnez	a4,a530 <ediv+0x164>
    a438:	fed79ae3          	bne	a5,a3,a42c <ediv+0x60>
    a43c:	0129d783          	lhu	a5,18(s3)
    a440:	fff7c793          	not	a5,a5
    a444:	01179713          	sll	a4,a5,0x11
    a448:	00071e63          	bnez	a4,a464 <ediv+0x98>
    a44c:	01298693          	add	a3,s3,18
    a450:	00098793          	mv	a5,s3
    a454:	0007d703          	lhu	a4,0(a5)
    a458:	00278793          	add	a5,a5,2
    a45c:	0e071863          	bnez	a4,a54c <ediv+0x180>
    a460:	fed79ae3          	bne	a5,a3,a454 <ediv+0x88>
    a464:	00015a37          	lui	s4,0x15
    a468:	430a0593          	add	a1,s4,1072 # 15430 <ezero>
    a46c:	00048513          	mv	a0,s1
    a470:	ebcff0ef          	jal	9b2c <ecmp>
    a474:	18050a63          	beqz	a0,a608 <ediv+0x23c>
    a478:	0124d603          	lhu	a2,18(s1)
    a47c:	000087b7          	lui	a5,0x8
    a480:	fff78793          	add	a5,a5,-1 # 7fff <_vfprintf_r+0x28bb>
    a484:	00f67533          	and	a0,a2,a5
    a488:	0ef51063          	bne	a0,a5,a568 <ediv+0x19c>
    a48c:	01248693          	add	a3,s1,18
    a490:	00048793          	mv	a5,s1
    a494:	0007d703          	lhu	a4,0(a5)
    a498:	00278793          	add	a5,a5,2
    a49c:	0c071663          	bnez	a4,a568 <ediv+0x19c>
    a4a0:	fed79ae3          	bne	a5,a3,a494 <ediv+0xc8>
    a4a4:	0129d703          	lhu	a4,18(s3)
    a4a8:	fff74793          	not	a5,a4
    a4ac:	01179693          	sll	a3,a5,0x11
    a4b0:	14069263          	bnez	a3,a5f4 <ediv+0x228>
    a4b4:	01298693          	add	a3,s3,18
    a4b8:	00098793          	mv	a5,s3
    a4bc:	0007d583          	lhu	a1,0(a5)
    a4c0:	00278793          	add	a5,a5,2
    a4c4:	48059863          	bnez	a1,a954 <ediv+0x588>
    a4c8:	fed79ae3          	bne	a5,a3,a4bc <ediv+0xf0>
    a4cc:	01040713          	add	a4,s0,16
    a4d0:	00040793          	mv	a5,s0
    a4d4:	00278793          	add	a5,a5,2
    a4d8:	fe079f23          	sh	zero,-2(a5)
    a4dc:	fee79ce3          	bne	a5,a4,a4d4 <ediv+0x108>
    a4e0:	ffffc7b7          	lui	a5,0xffffc
    a4e4:	00f41823          	sh	a5,16(s0)
    a4e8:	ffff87b7          	lui	a5,0xffff8
    a4ec:	fff7c793          	not	a5,a5
    a4f0:	00f41923          	sh	a5,18(s0)
    a4f4:	0ac12083          	lw	ra,172(sp)
    a4f8:	0a812403          	lw	s0,168(sp)
    a4fc:	0a412483          	lw	s1,164(sp)
    a500:	0a012903          	lw	s2,160(sp)
    a504:	09c12983          	lw	s3,156(sp)
    a508:	09812a03          	lw	s4,152(sp)
    a50c:	09412a83          	lw	s5,148(sp)
    a510:	09012b03          	lw	s6,144(sp)
    a514:	08c12b83          	lw	s7,140(sp)
    a518:	08812c03          	lw	s8,136(sp)
    a51c:	08412c83          	lw	s9,132(sp)
    a520:	08012d03          	lw	s10,128(sp)
    a524:	07c12d83          	lw	s11,124(sp)
    a528:	0b010113          	add	sp,sp,176
    a52c:	00008067          	ret
    a530:	01448713          	add	a4,s1,20
    a534:	0004d783          	lhu	a5,0(s1)
    a538:	00248493          	add	s1,s1,2
    a53c:	00240413          	add	s0,s0,2
    a540:	fef41f23          	sh	a5,-2(s0)
    a544:	fee498e3          	bne	s1,a4,a534 <ediv+0x168>
    a548:	fadff06f          	j	a4f4 <ediv+0x128>
    a54c:	01440713          	add	a4,s0,20
    a550:	0009d783          	lhu	a5,0(s3)
    a554:	00240413          	add	s0,s0,2
    a558:	00298993          	add	s3,s3,2
    a55c:	fef41f23          	sh	a5,-2(s0)
    a560:	fee418e3          	bne	s0,a4,a550 <ediv+0x184>
    a564:	f91ff06f          	j	a4f4 <ediv+0x128>
    a568:	0129d703          	lhu	a4,18(s3)
    a56c:	fff74793          	not	a5,a4
    a570:	01179693          	sll	a3,a5,0x11
    a574:	0a069463          	bnez	a3,a61c <ediv+0x250>
    a578:	00000813          	li	a6,0
    a57c:	01298693          	add	a3,s3,18
    a580:	00098793          	mv	a5,s3
    a584:	0007d583          	lhu	a1,0(a5) # ffff8000 <_end+0xfffde030>
    a588:	00278793          	add	a5,a5,2
    a58c:	06059263          	bnez	a1,a5f0 <ediv+0x224>
    a590:	fed79ae3          	bne	a5,a3,a584 <ediv+0x1b8>
    a594:	000087b7          	lui	a5,0x8
    a598:	fff78793          	add	a5,a5,-1 # 7fff <_vfprintf_r+0x28bb>
    a59c:	0cf50863          	beq	a0,a5,a66c <ediv+0x2a0>
    a5a0:	00f65613          	srl	a2,a2,0xf
    a5a4:	0009d783          	lhu	a5,0(s3)
    a5a8:	00298993          	add	s3,s3,2
    a5ac:	38079c63          	bnez	a5,a944 <ediv+0x578>
    a5b0:	fed99ae3          	bne	s3,a3,a5a4 <ediv+0x1d8>
    a5b4:	00f75793          	srl	a5,a4,0xf
    a5b8:	00c7c7b3          	xor	a5,a5,a2
    a5bc:	00f79793          	sll	a5,a5,0xf
    a5c0:	00f41923          	sh	a5,18(s0)
    a5c4:	01240713          	add	a4,s0,18
    a5c8:	00040793          	mv	a5,s0
    a5cc:	00278793          	add	a5,a5,2
    a5d0:	fe079f23          	sh	zero,-2(a5)
    a5d4:	fee79ce3          	bne	a5,a4,a5cc <ediv+0x200>
    a5d8:	01245783          	lhu	a5,18(s0)
    a5dc:	00008737          	lui	a4,0x8
    a5e0:	fff70713          	add	a4,a4,-1 # 7fff <_vfprintf_r+0x28bb>
    a5e4:	00e7e7b3          	or	a5,a5,a4
    a5e8:	00f41923          	sh	a5,18(s0)
    a5ec:	f09ff06f          	j	a4f4 <ediv+0x128>
    a5f0:	02080663          	beqz	a6,a61c <ediv+0x250>
    a5f4:	01440793          	add	a5,s0,20
    a5f8:	00240413          	add	s0,s0,2
    a5fc:	fe041f23          	sh	zero,-2(s0)
    a600:	fef41ce3          	bne	s0,a5,a5f8 <ediv+0x22c>
    a604:	ef1ff06f          	j	a4f4 <ediv+0x128>
    a608:	430a0593          	add	a1,s4,1072
    a60c:	00098513          	mv	a0,s3
    a610:	d1cff0ef          	jal	9b2c <ecmp>
    a614:	e60512e3          	bnez	a0,a478 <ediv+0xac>
    a618:	eb5ff06f          	j	a4cc <ediv+0x100>
    a61c:	01c10593          	add	a1,sp,28
    a620:	00048513          	mv	a0,s1
    a624:	c54ff0ef          	jal	9a78 <emovi>
    a628:	03810593          	add	a1,sp,56
    a62c:	00098513          	mv	a0,s3
    a630:	c48ff0ef          	jal	9a78 <emovi>
    a634:	03a15b03          	lhu	s6,58(sp)
    a638:	01e15c03          	lhu	s8,30(sp)
    a63c:	040b1463          	bnez	s6,a684 <ediv+0x2b8>
    a640:	03a10793          	add	a5,sp,58
    a644:	05010c93          	add	s9,sp,80
    a648:	0007d703          	lhu	a4,0(a5)
    a64c:	00278793          	add	a5,a5,2
    a650:	2c071663          	bnez	a4,a91c <ediv+0x550>
    a654:	fefc9ae3          	bne	s9,a5,a648 <ediv+0x27c>
    a658:	01440793          	add	a5,s0,20
    a65c:	00240413          	add	s0,s0,2
    a660:	fe041f23          	sh	zero,-2(s0)
    a664:	fef41ce3          	bne	s0,a5,a65c <ediv+0x290>
    a668:	e8dff06f          	j	a4f4 <ediv+0x128>
    a66c:	01248593          	add	a1,s1,18
    a670:	0004d783          	lhu	a5,0(s1)
    a674:	00248493          	add	s1,s1,2
    a678:	2c079a63          	bnez	a5,a94c <ediv+0x580>
    a67c:	feb49ae3          	bne	s1,a1,a670 <ediv+0x2a4>
    a680:	f21ff06f          	j	a5a0 <ediv+0x1d4>
    a684:	01612223          	sw	s6,4(sp)
    a688:	040c1663          	bnez	s8,a6d4 <ediv+0x308>
    a68c:	01e10793          	add	a5,sp,30
    a690:	03410693          	add	a3,sp,52
    a694:	0007d703          	lhu	a4,0(a5)
    a698:	00278793          	add	a5,a5,2
    a69c:	28071a63          	bnez	a4,a930 <ediv+0x564>
    a6a0:	fed79ae3          	bne	a5,a3,a694 <ediv+0x2c8>
    a6a4:	01c15683          	lhu	a3,28(sp)
    a6a8:	03815603          	lhu	a2,56(sp)
    a6ac:	01240713          	add	a4,s0,18
    a6b0:	00040793          	mv	a5,s0
    a6b4:	40c686b3          	sub	a3,a3,a2
    a6b8:	00d036b3          	snez	a3,a3
    a6bc:	00f69693          	sll	a3,a3,0xf
    a6c0:	00d41923          	sh	a3,18(s0)
    a6c4:	00278793          	add	a5,a5,2
    a6c8:	fe079f23          	sh	zero,-2(a5)
    a6cc:	fee79ce3          	bne	a5,a4,a6c4 <ediv+0x2f8>
    a6d0:	f09ff06f          	j	a5d8 <ediv+0x20c>
    a6d4:	01812423          	sw	s8,8(sp)
    a6d8:	03490793          	add	a5,s2,52
    a6dc:	00f12623          	sw	a5,12(sp)
    a6e0:	03812783          	lw	a5,56(sp)
    a6e4:	03890493          	add	s1,s2,56
    a6e8:	04e90993          	add	s3,s2,78
    a6ec:	02f92a23          	sw	a5,52(s2)
    a6f0:	00048793          	mv	a5,s1
    a6f4:	00278793          	add	a5,a5,2
    a6f8:	fe079f23          	sh	zero,-2(a5)
    a6fc:	ff379ce3          	bne	a5,s3,a6f4 <ediv+0x328>
    a700:	03810513          	add	a0,sp,56
    a704:	e55fe0ef          	jal	9558 <eshdn1>
    a708:	02215b83          	lhu	s7,34(sp)
    a70c:	00010a37          	lui	s4,0x10
    a710:	03a10d13          	add	s10,sp,58
    a714:	010b9a93          	sll	s5,s7,0x10
    a718:	417a8ab3          	sub	s5,s5,s7
    a71c:	05010c93          	add	s9,sp,80
    a720:	fffa0a13          	add	s4,s4,-1 # ffff <_svfprintf_r+0x198f>
    a724:	06e10d93          	add	s11,sp,110
    a728:	05610c13          	add	s8,sp,86
    a72c:	03c15783          	lhu	a5,60(sp)
    a730:	03e15703          	lhu	a4,62(sp)
    a734:	000a0b13          	mv	s6,s4
    a738:	01079793          	sll	a5,a5,0x10
    a73c:	00e787b3          	add	a5,a5,a4
    a740:	00fae863          	bltu	s5,a5,a750 <ediv+0x384>
    a744:	0377d7b3          	divu	a5,a5,s7
    a748:	01079b13          	sll	s6,a5,0x10
    a74c:	010b5b13          	srl	s6,s6,0x10
    a750:	05410613          	add	a2,sp,84
    a754:	01c10593          	add	a1,sp,28
    a758:	000b0513          	mv	a0,s6
    a75c:	ea5fe0ef          	jal	9600 <m16m>
    a760:	03c10713          	add	a4,sp,60
    a764:	05810793          	add	a5,sp,88
    a768:	0007d603          	lhu	a2,0(a5)
    a76c:	00075683          	lhu	a3,0(a4)
    a770:	00278793          	add	a5,a5,2
    a774:	00270713          	add	a4,a4,2
    a778:	0ed61863          	bne	a2,a3,a868 <ediv+0x49c>
    a77c:	ffb796e3          	bne	a5,s11,a768 <ediv+0x39c>
    a780:	00000693          	li	a3,0
    a784:	06c10613          	add	a2,sp,108
    a788:	000c8793          	mv	a5,s9
    a78c:	0007d703          	lhu	a4,0(a5)
    a790:	00065583          	lhu	a1,0(a2)
    a794:	ffe78793          	add	a5,a5,-2
    a798:	ffe60613          	add	a2,a2,-2
    a79c:	40b70733          	sub	a4,a4,a1
    a7a0:	40d70733          	sub	a4,a4,a3
    a7a4:	01075693          	srl	a3,a4,0x10
    a7a8:	00e79123          	sh	a4,2(a5)
    a7ac:	0016f693          	and	a3,a3,1
    a7b0:	fda79ee3          	bne	a5,s10,a78c <ediv+0x3c0>
    a7b4:	01649023          	sh	s6,0(s1)
    a7b8:	03c10793          	add	a5,sp,60
    a7bc:	0027d703          	lhu	a4,2(a5)
    a7c0:	00278793          	add	a5,a5,2
    a7c4:	fee79f23          	sh	a4,-2(a5)
    a7c8:	ff979ae3          	bne	a5,s9,a7bc <ediv+0x3f0>
    a7cc:	04011823          	sh	zero,80(sp)
    a7d0:	00248493          	add	s1,s1,2
    a7d4:	f4999ce3          	bne	s3,s1,a72c <ediv+0x360>
    a7d8:	00000713          	li	a4,0
    a7dc:	03c10793          	add	a5,sp,60
    a7e0:	05210693          	add	a3,sp,82
    a7e4:	0007d603          	lhu	a2,0(a5)
    a7e8:	00278793          	add	a5,a5,2
    a7ec:	00c76733          	or	a4,a4,a2
    a7f0:	fed79ae3          	bne	a5,a3,a7e4 <ediv+0x418>
    a7f4:	00c12483          	lw	s1,12(sp)
    a7f8:	00e035b3          	snez	a1,a4
    a7fc:	03810793          	add	a5,sp,56
    a800:	0004d703          	lhu	a4,0(s1)
    a804:	00278793          	add	a5,a5,2
    a808:	00248493          	add	s1,s1,2
    a80c:	fee79f23          	sh	a4,-2(a5)
    a810:	fef698e3          	bne	a3,a5,a800 <ediv+0x434>
    a814:	00412783          	lw	a5,4(sp)
    a818:	00812703          	lw	a4,8(sp)
    a81c:	000046b7          	lui	a3,0x4
    a820:	fff68693          	add	a3,a3,-1 # 3fff <__extenddftf2+0x14b>
    a824:	40e78b33          	sub	s6,a5,a4
    a828:	03810513          	add	a0,sp,56
    a82c:	00090793          	mv	a5,s2
    a830:	04000713          	li	a4,64
    a834:	00db06b3          	add	a3,s6,a3
    a838:	00000613          	li	a2,0
    a83c:	c3cff0ef          	jal	9c78 <emdnorm>
    a840:	03815703          	lhu	a4,56(sp)
    a844:	01c15783          	lhu	a5,28(sp)
    a848:	00040593          	mv	a1,s0
    a84c:	03810513          	add	a0,sp,56
    a850:	40e787b3          	sub	a5,a5,a4
    a854:	00f037b3          	snez	a5,a5
    a858:	40f007b3          	neg	a5,a5
    a85c:	02f11c23          	sh	a5,56(sp)
    a860:	e2dfe0ef          	jal	968c <emovo.constprop.0>
    a864:	c91ff06f          	j	a4f4 <ediv+0x128>
    a868:	f0c6fce3          	bgeu	a3,a2,a780 <ediv+0x3b4>
    a86c:	fffb0793          	add	a5,s6,-1
    a870:	01079313          	sll	t1,a5,0x10
    a874:	01035313          	srl	t1,t1,0x10
    a878:	00000693          	li	a3,0
    a87c:	03410613          	add	a2,sp,52
    a880:	06c10713          	add	a4,sp,108
    a884:	00075783          	lhu	a5,0(a4)
    a888:	00065583          	lhu	a1,0(a2)
    a88c:	ffe70713          	add	a4,a4,-2
    a890:	ffe60613          	add	a2,a2,-2
    a894:	40b787b3          	sub	a5,a5,a1
    a898:	40d787b3          	sub	a5,a5,a3
    a89c:	0107d693          	srl	a3,a5,0x10
    a8a0:	00f71123          	sh	a5,2(a4)
    a8a4:	0016f693          	and	a3,a3,1
    a8a8:	fd871ee3          	bne	a4,s8,a884 <ediv+0x4b8>
    a8ac:	03c10713          	add	a4,sp,60
    a8b0:	05810793          	add	a5,sp,88
    a8b4:	0007d603          	lhu	a2,0(a5)
    a8b8:	00075683          	lhu	a3,0(a4)
    a8bc:	00278793          	add	a5,a5,2
    a8c0:	00270713          	add	a4,a4,2
    a8c4:	00d61863          	bne	a2,a3,a8d4 <ediv+0x508>
    a8c8:	ffb796e3          	bne	a5,s11,a8b4 <ediv+0x4e8>
    a8cc:	00030b13          	mv	s6,t1
    a8d0:	eb1ff06f          	j	a780 <ediv+0x3b4>
    a8d4:	fec6fce3          	bgeu	a3,a2,a8cc <ediv+0x500>
    a8d8:	ffeb0513          	add	a0,s6,-2
    a8dc:	01051b13          	sll	s6,a0,0x10
    a8e0:	010b5b13          	srl	s6,s6,0x10
    a8e4:	00000693          	li	a3,0
    a8e8:	03410613          	add	a2,sp,52
    a8ec:	06c10713          	add	a4,sp,108
    a8f0:	00075783          	lhu	a5,0(a4)
    a8f4:	00065583          	lhu	a1,0(a2)
    a8f8:	ffe70713          	add	a4,a4,-2
    a8fc:	ffe60613          	add	a2,a2,-2
    a900:	40b787b3          	sub	a5,a5,a1
    a904:	40d787b3          	sub	a5,a5,a3
    a908:	0107d693          	srl	a3,a5,0x10
    a90c:	00f71123          	sh	a5,2(a4)
    a910:	0016f693          	and	a3,a3,1
    a914:	fd871ee3          	bne	a4,s8,a8f0 <ediv+0x524>
    a918:	e69ff06f          	j	a780 <ediv+0x3b4>
    a91c:	03810513          	add	a0,sp,56
    a920:	e29fe0ef          	jal	9748 <enormlz>
    a924:	40a007b3          	neg	a5,a0
    a928:	00f12223          	sw	a5,4(sp)
    a92c:	d5dff06f          	j	a688 <ediv+0x2bc>
    a930:	01c10513          	add	a0,sp,28
    a934:	e15fe0ef          	jal	9748 <enormlz>
    a938:	40a007b3          	neg	a5,a0
    a93c:	00f12423          	sw	a5,8(sp)
    a940:	d99ff06f          	j	a6d8 <ediv+0x30c>
    a944:	00000793          	li	a5,0
    a948:	c71ff06f          	j	a5b8 <ediv+0x1ec>
    a94c:	00000613          	li	a2,0
    a950:	c55ff06f          	j	a5a4 <ediv+0x1d8>
    a954:	00100813          	li	a6,1
    a958:	c29ff06f          	j	a580 <ediv+0x1b4>

0000a95c <emul>:
    a95c:	01255803          	lhu	a6,18(a0)
    a960:	00008737          	lui	a4,0x8
    a964:	f7010113          	add	sp,sp,-144
    a968:	fff70713          	add	a4,a4,-1 # 7fff <_vfprintf_r+0x28bb>
    a96c:	08812423          	sw	s0,136(sp)
    a970:	08912223          	sw	s1,132(sp)
    a974:	09212023          	sw	s2,128(sp)
    a978:	07512a23          	sw	s5,116(sp)
    a97c:	00050493          	mv	s1,a0
    a980:	08112623          	sw	ra,140(sp)
    a984:	07312e23          	sw	s3,124(sp)
    a988:	07412c23          	sw	s4,120(sp)
    a98c:	07612823          	sw	s6,112(sp)
    a990:	07712623          	sw	s7,108(sp)
    a994:	07812423          	sw	s8,104(sp)
    a998:	07912223          	sw	s9,100(sp)
    a99c:	07a12023          	sw	s10,96(sp)
    a9a0:	00e87533          	and	a0,a6,a4
    a9a4:	00058913          	mv	s2,a1
    a9a8:	00060413          	mv	s0,a2
    a9ac:	00068a93          	mv	s5,a3
    a9b0:	16e51e63          	bne	a0,a4,ab2c <emul+0x1d0>
    a9b4:	01248993          	add	s3,s1,18
    a9b8:	00048713          	mv	a4,s1
    a9bc:	00075603          	lhu	a2,0(a4)
    a9c0:	00270713          	add	a4,a4,2
    a9c4:	1e061c63          	bnez	a2,abbc <emul+0x260>
    a9c8:	ff371ae3          	bne	a4,s3,a9bc <emul+0x60>
    a9cc:	01295603          	lhu	a2,18(s2)
    a9d0:	fff64793          	not	a5,a2
    a9d4:	01179713          	sll	a4,a5,0x11
    a9d8:	16070063          	beqz	a4,ab38 <emul+0x1dc>
    a9dc:	00048793          	mv	a5,s1
    a9e0:	0007d703          	lhu	a4,0(a5)
    a9e4:	00278793          	add	a5,a5,2
    a9e8:	28071063          	bnez	a4,ac68 <emul+0x30c>
    a9ec:	ff379ae3          	bne	a5,s3,a9e0 <emul+0x84>
    a9f0:	000155b7          	lui	a1,0x15
    a9f4:	43058593          	add	a1,a1,1072 # 15430 <ezero>
    a9f8:	00090513          	mv	a0,s2
    a9fc:	930ff0ef          	jal	9b2c <ecmp>
    aa00:	28050063          	beqz	a0,ac80 <emul+0x324>
    aa04:	01295603          	lhu	a2,18(s2)
    aa08:	00008737          	lui	a4,0x8
    aa0c:	fff70713          	add	a4,a4,-1 # 7fff <_vfprintf_r+0x28bb>
    aa10:	00e676b3          	and	a3,a2,a4
    aa14:	01290793          	add	a5,s2,18
    aa18:	40e69263          	bne	a3,a4,ae1c <emul+0x4c0>
    aa1c:	00090713          	mv	a4,s2
    aa20:	00075683          	lhu	a3,0(a4)
    aa24:	00270713          	add	a4,a4,2
    aa28:	1e069c63          	bnez	a3,ac20 <emul+0x2c4>
    aa2c:	fef71ae3          	bne	a4,a5,aa20 <emul+0xc4>
    aa30:	000155b7          	lui	a1,0x15
    aa34:	43058593          	add	a1,a1,1072 # 15430 <ezero>
    aa38:	00048513          	mv	a0,s1
    aa3c:	8f0ff0ef          	jal	9b2c <ecmp>
    aa40:	24050063          	beqz	a0,ac80 <emul+0x324>
    aa44:	0124d803          	lhu	a6,18(s1)
    aa48:	01295603          	lhu	a2,18(s2)
    aa4c:	000087b7          	lui	a5,0x8
    aa50:	fff78793          	add	a5,a5,-1 # 7fff <_vfprintf_r+0x28bb>
    aa54:	00f87733          	and	a4,a6,a5
    aa58:	00f676b3          	and	a3,a2,a5
    aa5c:	1cf70c63          	beq	a4,a5,ac34 <emul+0x2d8>
    aa60:	00068593          	mv	a1,a3
    aa64:	00070693          	mv	a3,a4
    aa68:	000087b7          	lui	a5,0x8
    aa6c:	fff78793          	add	a5,a5,-1 # 7fff <_vfprintf_r+0x28bb>
    aa70:	0ef59c63          	bne	a1,a5,ab68 <emul+0x20c>
    aa74:	01290793          	add	a5,s2,18
    aa78:	00090713          	mv	a4,s2
    aa7c:	00075583          	lhu	a1,0(a4)
    aa80:	00270713          	add	a4,a4,2
    aa84:	0e059263          	bnez	a1,ab68 <emul+0x20c>
    aa88:	fee79ae3          	bne	a5,a4,aa7c <emul+0x120>
    aa8c:	00008737          	lui	a4,0x8
    aa90:	fff70713          	add	a4,a4,-1 # 7fff <_vfprintf_r+0x28bb>
    aa94:	01248993          	add	s3,s1,18
    aa98:	20e69a63          	bne	a3,a4,acac <emul+0x350>
    aa9c:	0004d783          	lhu	a5,0(s1)
    aaa0:	00248493          	add	s1,s1,2
    aaa4:	20079c63          	bnez	a5,acbc <emul+0x360>
    aaa8:	fe999ae3          	bne	s3,s1,aa9c <emul+0x140>
    aaac:	00f85813          	srl	a6,a6,0xf
    aab0:	000087b7          	lui	a5,0x8
    aab4:	fff78793          	add	a5,a5,-1 # 7fff <_vfprintf_r+0x28bb>
    aab8:	18f68c63          	beq	a3,a5,ac50 <emul+0x2f4>
    aabc:	00f65793          	srl	a5,a2,0xf
    aac0:	0107c7b3          	xor	a5,a5,a6
    aac4:	00f79793          	sll	a5,a5,0xf
    aac8:	00f41923          	sh	a5,18(s0)
    aacc:	01240713          	add	a4,s0,18
    aad0:	00040793          	mv	a5,s0
    aad4:	00278793          	add	a5,a5,2
    aad8:	fe079f23          	sh	zero,-2(a5)
    aadc:	fee79ce3          	bne	a5,a4,aad4 <emul+0x178>
    aae0:	01245783          	lhu	a5,18(s0)
    aae4:	00008737          	lui	a4,0x8
    aae8:	fff70713          	add	a4,a4,-1 # 7fff <_vfprintf_r+0x28bb>
    aaec:	00e7e7b3          	or	a5,a5,a4
    aaf0:	00f41923          	sh	a5,18(s0)
    aaf4:	08c12083          	lw	ra,140(sp)
    aaf8:	08812403          	lw	s0,136(sp)
    aafc:	08412483          	lw	s1,132(sp)
    ab00:	08012903          	lw	s2,128(sp)
    ab04:	07c12983          	lw	s3,124(sp)
    ab08:	07812a03          	lw	s4,120(sp)
    ab0c:	07412a83          	lw	s5,116(sp)
    ab10:	07012b03          	lw	s6,112(sp)
    ab14:	06c12b83          	lw	s7,108(sp)
    ab18:	06812c03          	lw	s8,104(sp)
    ab1c:	06412c83          	lw	s9,100(sp)
    ab20:	06012d03          	lw	s10,96(sp)
    ab24:	09010113          	add	sp,sp,144
    ab28:	00008067          	ret
    ab2c:	0125d603          	lhu	a2,18(a1)
    ab30:	00e677b3          	and	a5,a2,a4
    ab34:	02e79a63          	bne	a5,a4,ab68 <emul+0x20c>
    ab38:	01290793          	add	a5,s2,18
    ab3c:	00090713          	mv	a4,s2
    ab40:	00075683          	lhu	a3,0(a4)
    ab44:	00270713          	add	a4,a4,2
    ab48:	08069863          	bnez	a3,abd8 <emul+0x27c>
    ab4c:	fef71ae3          	bne	a4,a5,ab40 <emul+0x1e4>
    ab50:	00008737          	lui	a4,0x8
    ab54:	fff70713          	add	a4,a4,-1 # 7fff <_vfprintf_r+0x28bb>
    ab58:	01248993          	add	s3,s1,18
    ab5c:	e8e500e3          	beq	a0,a4,a9dc <emul+0x80>
    ab60:	00e676b3          	and	a3,a2,a4
    ab64:	eae68ce3          	beq	a3,a4,aa1c <emul+0xc0>
    ab68:	00048513          	mv	a0,s1
    ab6c:	00c10593          	add	a1,sp,12
    ab70:	f09fe0ef          	jal	9a78 <emovi>
    ab74:	00090513          	mv	a0,s2
    ab78:	02810593          	add	a1,sp,40
    ab7c:	efdfe0ef          	jal	9a78 <emovi>
    ab80:	00e15903          	lhu	s2,14(sp)
    ab84:	02a15483          	lhu	s1,42(sp)
    ab88:	06090663          	beqz	s2,abf4 <emul+0x298>
    ab8c:	14049463          	bnez	s1,acd4 <emul+0x378>
    ab90:	02a10793          	add	a5,sp,42
    ab94:	04010693          	add	a3,sp,64
    ab98:	0007d703          	lhu	a4,0(a5)
    ab9c:	00278793          	add	a5,a5,2
    aba0:	26071463          	bnez	a4,ae08 <emul+0x4ac>
    aba4:	fed79ae3          	bne	a5,a3,ab98 <emul+0x23c>
    aba8:	01440793          	add	a5,s0,20
    abac:	00240413          	add	s0,s0,2
    abb0:	fe041f23          	sh	zero,-2(s0)
    abb4:	fe879ce3          	bne	a5,s0,abac <emul+0x250>
    abb8:	f3dff06f          	j	aaf4 <emul+0x198>
    abbc:	01440713          	add	a4,s0,20
    abc0:	0004d783          	lhu	a5,0(s1)
    abc4:	00240413          	add	s0,s0,2
    abc8:	00248493          	add	s1,s1,2
    abcc:	fef41f23          	sh	a5,-2(s0)
    abd0:	fee418e3          	bne	s0,a4,abc0 <emul+0x264>
    abd4:	f21ff06f          	j	aaf4 <emul+0x198>
    abd8:	01490713          	add	a4,s2,20
    abdc:	00095783          	lhu	a5,0(s2)
    abe0:	00290913          	add	s2,s2,2
    abe4:	00240413          	add	s0,s0,2
    abe8:	fef41f23          	sh	a5,-2(s0)
    abec:	ff2718e3          	bne	a4,s2,abdc <emul+0x280>
    abf0:	f05ff06f          	j	aaf4 <emul+0x198>
    abf4:	00e10793          	add	a5,sp,14
    abf8:	02410693          	add	a3,sp,36
    abfc:	0007d703          	lhu	a4,0(a5)
    ac00:	00278793          	add	a5,a5,2
    ac04:	1e071a63          	bnez	a4,adf8 <emul+0x49c>
    ac08:	fef69ae3          	bne	a3,a5,abfc <emul+0x2a0>
    ac0c:	01440793          	add	a5,s0,20
    ac10:	00240413          	add	s0,s0,2
    ac14:	fe041f23          	sh	zero,-2(s0)
    ac18:	fef41ce3          	bne	s0,a5,ac10 <emul+0x2b4>
    ac1c:	ed9ff06f          	j	aaf4 <emul+0x198>
    ac20:	0124d803          	lhu	a6,18(s1)
    ac24:	00008737          	lui	a4,0x8
    ac28:	fff70713          	add	a4,a4,-1 # 7fff <_vfprintf_r+0x28bb>
    ac2c:	00e876b3          	and	a3,a6,a4
    ac30:	e4e694e3          	bne	a3,a4,aa78 <emul+0x11c>
    ac34:	01248993          	add	s3,s1,18
    ac38:	00048793          	mv	a5,s1
    ac3c:	0007d703          	lhu	a4,0(a5)
    ac40:	00278793          	add	a5,a5,2
    ac44:	08071063          	bnez	a4,acc4 <emul+0x368>
    ac48:	fef99ae3          	bne	s3,a5,ac3c <emul+0x2e0>
    ac4c:	e51ff06f          	j	aa9c <emul+0x140>
    ac50:	01290793          	add	a5,s2,18
    ac54:	00095703          	lhu	a4,0(s2)
    ac58:	00290913          	add	s2,s2,2
    ac5c:	04071c63          	bnez	a4,acb4 <emul+0x358>
    ac60:	ff279ae3          	bne	a5,s2,ac54 <emul+0x2f8>
    ac64:	e59ff06f          	j	aabc <emul+0x160>
    ac68:	00008737          	lui	a4,0x8
    ac6c:	fff70713          	add	a4,a4,-1 # 7fff <_vfprintf_r+0x28bb>
    ac70:	00e676b3          	and	a3,a2,a4
    ac74:	01290793          	add	a5,s2,18
    ac78:	dae682e3          	beq	a3,a4,aa1c <emul+0xc0>
    ac7c:	fbdff06f          	j	ac38 <emul+0x2dc>
    ac80:	01040713          	add	a4,s0,16
    ac84:	00040793          	mv	a5,s0
    ac88:	00278793          	add	a5,a5,2
    ac8c:	fe079f23          	sh	zero,-2(a5)
    ac90:	fee79ce3          	bne	a5,a4,ac88 <emul+0x32c>
    ac94:	ffffc7b7          	lui	a5,0xffffc
    ac98:	00f41823          	sh	a5,16(s0)
    ac9c:	ffff87b7          	lui	a5,0xffff8
    aca0:	fff7c793          	not	a5,a5
    aca4:	00f41923          	sh	a5,18(s0)
    aca8:	e4dff06f          	j	aaf4 <emul+0x198>
    acac:	00f85813          	srl	a6,a6,0xf
    acb0:	fa5ff06f          	j	ac54 <emul+0x2f8>
    acb4:	00000793          	li	a5,0
    acb8:	e09ff06f          	j	aac0 <emul+0x164>
    acbc:	00000813          	li	a6,0
    acc0:	df1ff06f          	j	aab0 <emul+0x154>
    acc4:	00068593          	mv	a1,a3
    acc8:	000086b7          	lui	a3,0x8
    accc:	fff68693          	add	a3,a3,-1 # 7fff <_vfprintf_r+0x28bb>
    acd0:	d99ff06f          	j	aa68 <emul+0x10c>
    acd4:	00048993          	mv	s3,s1
    acd8:	02815783          	lhu	a5,40(sp)
    acdc:	01049493          	sll	s1,s1,0x10
    ace0:	038a8a13          	add	s4,s5,56
    ace4:	0097e7b3          	or	a5,a5,s1
    ace8:	02faaa23          	sw	a5,52(s5)
    acec:	034a8493          	add	s1,s5,52
    acf0:	000a0793          	mv	a5,s4
    acf4:	04ea8713          	add	a4,s5,78
    acf8:	00079023          	sh	zero,0(a5) # ffff8000 <_end+0xfffde030>
    acfc:	00278793          	add	a5,a5,2
    ad00:	fee79ce3          	bne	a5,a4,acf8 <emul+0x39c>
    ad04:	04ca8c93          	add	s9,s5,76
    ad08:	00000c13          	li	s8,0
    ad0c:	02410b13          	add	s6,sp,36
    ad10:	01010d13          	add	s10,sp,16
    ad14:	04610b93          	add	s7,sp,70
    ad18:	000b5503          	lhu	a0,0(s6)
    ad1c:	ffeb0b13          	add	s6,s6,-2
    ad20:	08051a63          	bnez	a0,adb4 <emul+0x458>
    ad24:	04cad783          	lhu	a5,76(s5)
    ad28:	000c8713          	mv	a4,s9
    ad2c:	00fc6c33          	or	s8,s8,a5
    ad30:	ffe75603          	lhu	a2,-2(a4)
    ad34:	ffe70713          	add	a4,a4,-2
    ad38:	00c71123          	sh	a2,2(a4)
    ad3c:	feea1ae3          	bne	s4,a4,ad30 <emul+0x3d4>
    ad40:	020a9c23          	sh	zero,56(s5)
    ad44:	fdab1ae3          	bne	s6,s10,ad18 <emul+0x3bc>
    ad48:	02810793          	add	a5,sp,40
    ad4c:	04210693          	add	a3,sp,66
    ad50:	0004d703          	lhu	a4,0(s1)
    ad54:	00278793          	add	a5,a5,2
    ad58:	00248493          	add	s1,s1,2
    ad5c:	fee79f23          	sh	a4,-2(a5)
    ad60:	fef698e3          	bne	a3,a5,ad50 <emul+0x3f4>
    ad64:	ffffc6b7          	lui	a3,0xffffc
    ad68:	01390933          	add	s2,s2,s3
    ad6c:	00268693          	add	a3,a3,2 # ffffc002 <_end+0xfffe2032>
    ad70:	000c0593          	mv	a1,s8
    ad74:	02810513          	add	a0,sp,40
    ad78:	000a8793          	mv	a5,s5
    ad7c:	04000713          	li	a4,64
    ad80:	00d906b3          	add	a3,s2,a3
    ad84:	00000613          	li	a2,0
    ad88:	ef1fe0ef          	jal	9c78 <emdnorm>
    ad8c:	02815703          	lhu	a4,40(sp)
    ad90:	00c15783          	lhu	a5,12(sp)
    ad94:	00040593          	mv	a1,s0
    ad98:	02810513          	add	a0,sp,40
    ad9c:	40e787b3          	sub	a5,a5,a4
    ada0:	00f037b3          	snez	a5,a5
    ada4:	40f007b3          	neg	a5,a5
    ada8:	02f11423          	sh	a5,40(sp)
    adac:	8e1fe0ef          	jal	968c <emovo.constprop.0>
    adb0:	d45ff06f          	j	aaf4 <emul+0x198>
    adb4:	04410613          	add	a2,sp,68
    adb8:	02810593          	add	a1,sp,40
    adbc:	845fe0ef          	jal	9600 <m16m>
    adc0:	000c8513          	mv	a0,s9
    adc4:	00000593          	li	a1,0
    adc8:	05c10613          	add	a2,sp,92
    adcc:	00055783          	lhu	a5,0(a0)
    add0:	00065703          	lhu	a4,0(a2)
    add4:	ffe50513          	add	a0,a0,-2
    add8:	ffe60613          	add	a2,a2,-2
    addc:	00f70733          	add	a4,a4,a5
    ade0:	00b70733          	add	a4,a4,a1
    ade4:	01075593          	srl	a1,a4,0x10
    ade8:	00e51123          	sh	a4,2(a0)
    adec:	0015f593          	and	a1,a1,1
    adf0:	fd761ee3          	bne	a2,s7,adcc <emul+0x470>
    adf4:	f31ff06f          	j	ad24 <emul+0x3c8>
    adf8:	00c10513          	add	a0,sp,12
    adfc:	94dfe0ef          	jal	9748 <enormlz>
    ae00:	40a00933          	neg	s2,a0
    ae04:	d89ff06f          	j	ab8c <emul+0x230>
    ae08:	02810513          	add	a0,sp,40
    ae0c:	93dfe0ef          	jal	9748 <enormlz>
    ae10:	40a009b3          	neg	s3,a0
    ae14:	02a15483          	lhu	s1,42(sp)
    ae18:	ec1ff06f          	j	acd8 <emul+0x37c>
    ae1c:	0124d803          	lhu	a6,18(s1)
    ae20:	00e877b3          	and	a5,a6,a4
    ae24:	e0e78ae3          	beq	a5,a4,ac38 <emul+0x2dc>
    ae28:	d41ff06f          	j	ab68 <emul+0x20c>

0000ae2c <_ldtoa_r>:
    ae2c:	00c5a883          	lw	a7,12(a1)
    ae30:	e0010113          	add	sp,sp,-512
    ae34:	0005ae83          	lw	t4,0(a1)
    ae38:	0045ae03          	lw	t3,4(a1)
    ae3c:	0085a303          	lw	t1,8(a1)
    ae40:	05112623          	sw	a7,76(sp)
    ae44:	04052583          	lw	a1,64(a0)
    ae48:	fff00893          	li	a7,-1
    ae4c:	17112823          	sw	a7,368(sp)
    ae50:	09000893          	li	a7,144
    ae54:	1e812c23          	sw	s0,504(sp)
    ae58:	1f412423          	sw	s4,488(sp)
    ae5c:	1e112e23          	sw	ra,508(sp)
    ae60:	1e912a23          	sw	s1,500(sp)
    ae64:	1f212823          	sw	s2,496(sp)
    ae68:	1f312623          	sw	s3,492(sp)
    ae6c:	1f512223          	sw	s5,484(sp)
    ae70:	1f612023          	sw	s6,480(sp)
    ae74:	1d712e23          	sw	s7,476(sp)
    ae78:	1d812c23          	sw	s8,472(sp)
    ae7c:	1d912a23          	sw	s9,468(sp)
    ae80:	1da12823          	sw	s10,464(sp)
    ae84:	1db12623          	sw	s11,460(sp)
    ae88:	00a12023          	sw	a0,0(sp)
    ae8c:	05d12023          	sw	t4,64(sp)
    ae90:	05c12223          	sw	t3,68(sp)
    ae94:	04612423          	sw	t1,72(sp)
    ae98:	17112a23          	sw	a7,372(sp)
    ae9c:	00d12423          	sw	a3,8(sp)
    aea0:	00e12623          	sw	a4,12(sp)
    aea4:	01012823          	sw	a6,16(sp)
    aea8:	00060a13          	mv	s4,a2
    aeac:	00078413          	mv	s0,a5
    aeb0:	02058263          	beqz	a1,aed4 <_ldtoa_r+0xa8>
    aeb4:	04452703          	lw	a4,68(a0)
    aeb8:	00100793          	li	a5,1
    aebc:	00050493          	mv	s1,a0
    aec0:	00e797b3          	sll	a5,a5,a4
    aec4:	00e5a223          	sw	a4,4(a1)
    aec8:	00f5a423          	sw	a5,8(a1)
    aecc:	1b5010ef          	jal	c880 <_Bfree>
    aed0:	0404a023          	sw	zero,64(s1)
    aed4:	07010593          	add	a1,sp,112
    aed8:	04010513          	add	a0,sp,64
    aedc:	b9cff0ef          	jal	a278 <e113toe.isra.0>
    aee0:	08215603          	lhu	a2,130(sp)
    aee4:	00008737          	lui	a4,0x8
    aee8:	fff70713          	add	a4,a4,-1 # 7fff <_vfprintf_r+0x28bb>
    aeec:	00e677b3          	and	a5,a2,a4
    aef0:	00f12a23          	sw	a5,20(sp)
    aef4:	46e78c63          	beq	a5,a4,b36c <_ldtoa_r+0x540>
    aef8:	00f65613          	srl	a2,a2,0xf
    aefc:	00c42023          	sw	a2,0(s0)
    af00:	00300793          	li	a5,3
    af04:	14fa06e3          	beq	s4,a5,b850 <_ldtoa_r+0xa24>
    af08:	01400793          	li	a5,20
    af0c:	00f12223          	sw	a5,4(sp)
    af10:	140a1ce3          	bnez	s4,b868 <_ldtoa_r+0xa3c>
    af14:	07010793          	add	a5,sp,112
    af18:	08410613          	add	a2,sp,132
    af1c:	08c10713          	add	a4,sp,140
    af20:	0007a683          	lw	a3,0(a5)
    af24:	00478793          	add	a5,a5,4
    af28:	00470713          	add	a4,a4,4
    af2c:	fed72e23          	sw	a3,-4(a4)
    af30:	fef618e3          	bne	a2,a5,af20 <_ldtoa_r+0xf4>
    af34:	09e15d03          	lhu	s10,158(sp)
    af38:	00000913          	li	s2,0
    af3c:	010d1793          	sll	a5,s10,0x10
    af40:	4107d793          	sra	a5,a5,0x10
    af44:	0007dc63          	bgez	a5,af5c <_ldtoa_r+0x130>
    af48:	011d1d13          	sll	s10,s10,0x11
    af4c:	011d5d13          	srl	s10,s10,0x11
    af50:	000107b7          	lui	a5,0x10
    af54:	09a11f23          	sh	s10,158(sp)
    af58:	fff78913          	add	s2,a5,-1 # ffff <_svfprintf_r+0x198f>
    af5c:	00015bb7          	lui	s7,0x15
    af60:	41cb8713          	add	a4,s7,1052 # 1541c <eone>
    af64:	0a810993          	add	s3,sp,168
    af68:	01470a93          	add	s5,a4,20
    af6c:	00098613          	mv	a2,s3
    af70:	41cb8693          	add	a3,s7,1052
    af74:	0006a783          	lw	a5,0(a3)
    af78:	00468693          	add	a3,a3,4
    af7c:	00460613          	add	a2,a2,4
    af80:	fef62e23          	sw	a5,-4(a2)
    af84:	ff5698e3          	bne	a3,s5,af74 <_ldtoa_r+0x148>
    af88:	6a0d1e63          	bnez	s10,b644 <_ldtoa_r+0x818>
    af8c:	08c10793          	add	a5,sp,140
    af90:	09e10593          	add	a1,sp,158
    af94:	00078693          	mv	a3,a5
    af98:	0006d783          	lhu	a5,0(a3)
    af9c:	6a079e63          	bnez	a5,b658 <_ldtoa_r+0x82c>
    afa0:	00268693          	add	a3,a3,2
    afa4:	fed59ae3          	bne	a1,a3,af98 <_ldtoa_r+0x16c>
    afa8:	00000413          	li	s0,0
    afac:	13410d93          	add	s11,sp,308
    afb0:	17010b13          	add	s6,sp,368
    afb4:	0e010c13          	add	s8,sp,224
    afb8:	0f810493          	add	s1,sp,248
    afbc:	000c0593          	mv	a1,s8
    afc0:	0a810513          	add	a0,sp,168
    afc4:	ab5fe0ef          	jal	9a78 <emovi>
    afc8:	000c0a93          	mv	s5,s8
    afcc:	000c0713          	mv	a4,s8
    afd0:	00072783          	lw	a5,0(a4)
    afd4:	00470713          	add	a4,a4,4
    afd8:	00498993          	add	s3,s3,4
    afdc:	fef9ae23          	sw	a5,-4(s3)
    afe0:	fee498e3          	bne	s1,a4,afd0 <_ldtoa_r+0x1a4>
    afe4:	000c0593          	mv	a1,s8
    afe8:	08c10513          	add	a0,sp,140
    afec:	0c011023          	sh	zero,192(sp)
    aff0:	a89fe0ef          	jal	9a78 <emovi>
    aff4:	0a410d13          	add	s10,sp,164
    aff8:	08c10793          	add	a5,sp,140
    affc:	000aa703          	lw	a4,0(s5)
    b000:	00478793          	add	a5,a5,4
    b004:	004a8a93          	add	s5,s5,4
    b008:	fee7ae23          	sw	a4,-4(a5)
    b00c:	ffa798e3          	bne	a5,s10,affc <_ldtoa_r+0x1d0>
    b010:	0a810513          	add	a0,sp,168
    b014:	000b0613          	mv	a2,s6
    b018:	08c10593          	add	a1,sp,140
    b01c:	0a011223          	sh	zero,164(sp)
    b020:	8f4ff0ef          	jal	a114 <eiremain>
    b024:	1bc15503          	lhu	a0,444(sp)
    b028:	00015ab7          	lui	s5,0x15
    b02c:	16051863          	bnez	a0,b19c <_ldtoa_r+0x370>
    b030:	08e10c93          	add	s9,sp,142
    b034:	0c610b93          	add	s7,sp,198
    b038:	430a8593          	add	a1,s5,1072 # 15430 <ezero>
    b03c:	08c10513          	add	a0,sp,140
    b040:	aedfe0ef          	jal	9b2c <ecmp>
    b044:	14050c63          	beqz	a0,b19c <_ldtoa_r+0x370>
    b048:	00000713          	li	a4,0
    b04c:	0a410693          	add	a3,sp,164
    b050:	0006d783          	lhu	a5,0(a3)
    b054:	01079613          	sll	a2,a5,0x10
    b058:	41065613          	sra	a2,a2,0x10
    b05c:	00065463          	bgez	a2,b064 <_ldtoa_r+0x238>
    b060:	00176713          	or	a4,a4,1
    b064:	00179793          	sll	a5,a5,0x1
    b068:	01079793          	sll	a5,a5,0x10
    b06c:	00277613          	and	a2,a4,2
    b070:	0107d793          	srl	a5,a5,0x10
    b074:	00060463          	beqz	a2,b07c <_ldtoa_r+0x250>
    b078:	0017e793          	or	a5,a5,1
    b07c:	00171713          	sll	a4,a4,0x1
    b080:	00f69023          	sh	a5,0(a3)
    b084:	01071713          	sll	a4,a4,0x10
    b088:	ffe68693          	add	a3,a3,-2
    b08c:	01075713          	srl	a4,a4,0x10
    b090:	fd9690e3          	bne	a3,s9,b050 <_ldtoa_r+0x224>
    b094:	0c410713          	add	a4,sp,196
    b098:	08c10793          	add	a5,sp,140
    b09c:	0007a683          	lw	a3,0(a5)
    b0a0:	00478793          	add	a5,a5,4
    b0a4:	00470713          	add	a4,a4,4
    b0a8:	fed72e23          	sw	a3,-4(a4)
    b0ac:	ffa798e3          	bne	a5,s10,b09c <_ldtoa_r+0x270>
    b0b0:	0c011e23          	sh	zero,220(sp)
    b0b4:	00000713          	li	a4,0
    b0b8:	0dc10693          	add	a3,sp,220
    b0bc:	0006d783          	lhu	a5,0(a3)
    b0c0:	01079613          	sll	a2,a5,0x10
    b0c4:	41065613          	sra	a2,a2,0x10
    b0c8:	00065463          	bgez	a2,b0d0 <_ldtoa_r+0x2a4>
    b0cc:	00176713          	or	a4,a4,1
    b0d0:	00179793          	sll	a5,a5,0x1
    b0d4:	01079793          	sll	a5,a5,0x10
    b0d8:	00277613          	and	a2,a4,2
    b0dc:	0107d793          	srl	a5,a5,0x10
    b0e0:	00060463          	beqz	a2,b0e8 <_ldtoa_r+0x2bc>
    b0e4:	0017e793          	or	a5,a5,1
    b0e8:	00171713          	sll	a4,a4,0x1
    b0ec:	00f69023          	sh	a5,0(a3)
    b0f0:	01071713          	sll	a4,a4,0x10
    b0f4:	ffe68693          	add	a3,a3,-2
    b0f8:	01075713          	srl	a4,a4,0x10
    b0fc:	fd7690e3          	bne	a3,s7,b0bc <_ldtoa_r+0x290>
    b100:	00000713          	li	a4,0
    b104:	0dc10693          	add	a3,sp,220
    b108:	0006d783          	lhu	a5,0(a3)
    b10c:	01079613          	sll	a2,a5,0x10
    b110:	41065613          	sra	a2,a2,0x10
    b114:	00065463          	bgez	a2,b11c <_ldtoa_r+0x2f0>
    b118:	00176713          	or	a4,a4,1
    b11c:	00179793          	sll	a5,a5,0x1
    b120:	01079793          	sll	a5,a5,0x10
    b124:	00277613          	and	a2,a4,2
    b128:	0107d793          	srl	a5,a5,0x10
    b12c:	00060463          	beqz	a2,b134 <_ldtoa_r+0x308>
    b130:	0017e793          	or	a5,a5,1
    b134:	00171713          	sll	a4,a4,0x1
    b138:	00f69023          	sh	a5,0(a3)
    b13c:	01071713          	sll	a4,a4,0x10
    b140:	ffe68693          	add	a3,a3,-2
    b144:	01075713          	srl	a4,a4,0x10
    b148:	fd7690e3          	bne	a3,s7,b108 <_ldtoa_r+0x2dc>
    b14c:	00000613          	li	a2,0
    b150:	0a410693          	add	a3,sp,164
    b154:	0dc10713          	add	a4,sp,220
    b158:	0006d583          	lhu	a1,0(a3)
    b15c:	00075783          	lhu	a5,0(a4)
    b160:	ffe68693          	add	a3,a3,-2
    b164:	ffe70713          	add	a4,a4,-2
    b168:	00b787b3          	add	a5,a5,a1
    b16c:	00c787b3          	add	a5,a5,a2
    b170:	0107d613          	srl	a2,a5,0x10
    b174:	00f69123          	sh	a5,2(a3)
    b178:	00167613          	and	a2,a2,1
    b17c:	fd771ee3          	bne	a4,s7,b158 <_ldtoa_r+0x32c>
    b180:	0a810513          	add	a0,sp,168
    b184:	000b0613          	mv	a2,s6
    b188:	08c10593          	add	a1,sp,140
    b18c:	f89fe0ef          	jal	a114 <eiremain>
    b190:	1bc15503          	lhu	a0,444(sp)
    b194:	fff40413          	add	s0,s0,-1
    b198:	ea0500e3          	beqz	a0,b038 <_ldtoa_r+0x20c>
    b19c:	00193793          	seqz	a5,s2
    b1a0:	40f007b3          	neg	a5,a5
    b1a4:	ff37f793          	and	a5,a5,-13
    b1a8:	02d78793          	add	a5,a5,45
    b1ac:	12f10a23          	sb	a5,308(sp)
    b1b0:	00300713          	li	a4,3
    b1b4:	00412783          	lw	a5,4(sp)
    b1b8:	00ea1463          	bne	s4,a4,b1c0 <_ldtoa_r+0x394>
    b1bc:	008787b3          	add	a5,a5,s0
    b1c0:	02a00713          	li	a4,42
    b1c4:	00078493          	mv	s1,a5
    b1c8:	00f75463          	bge	a4,a5,b1d0 <_ldtoa_r+0x3a4>
    b1cc:	02a00493          	li	s1,42
    b1d0:	00a00713          	li	a4,10
    b1d4:	64e50863          	beq	a0,a4,b824 <_ldtoa_r+0x9f8>
    b1d8:	03050513          	add	a0,a0,48
    b1dc:	02e00713          	li	a4,46
    b1e0:	12a10aa3          	sb	a0,309(sp)
    b1e4:	12e10b23          	sb	a4,310(sp)
    b1e8:	2407c463          	bltz	a5,b430 <_ldtoa_r+0x604>
    b1ec:	13710993          	add	s3,sp,311
    b1f0:	00000c13          	li	s8,0
    b1f4:	0c410c93          	add	s9,sp,196
    b1f8:	0dc10d13          	add	s10,sp,220
    b1fc:	08e10b93          	add	s7,sp,142
    b200:	0c610a93          	add	s5,sp,198
    b204:	00000713          	li	a4,0
    b208:	0a410693          	add	a3,sp,164
    b20c:	0006d783          	lhu	a5,0(a3)
    b210:	01079613          	sll	a2,a5,0x10
    b214:	41065613          	sra	a2,a2,0x10
    b218:	00065463          	bgez	a2,b220 <_ldtoa_r+0x3f4>
    b21c:	00176713          	or	a4,a4,1
    b220:	00179793          	sll	a5,a5,0x1
    b224:	01079793          	sll	a5,a5,0x10
    b228:	00277613          	and	a2,a4,2
    b22c:	0107d793          	srl	a5,a5,0x10
    b230:	00060463          	beqz	a2,b238 <_ldtoa_r+0x40c>
    b234:	0017e793          	or	a5,a5,1
    b238:	00171713          	sll	a4,a4,0x1
    b23c:	00f69023          	sh	a5,0(a3)
    b240:	01071713          	sll	a4,a4,0x10
    b244:	ffe68693          	add	a3,a3,-2
    b248:	01075713          	srl	a4,a4,0x10
    b24c:	fd7690e3          	bne	a3,s7,b20c <_ldtoa_r+0x3e0>
    b250:	000c8793          	mv	a5,s9
    b254:	08c10713          	add	a4,sp,140
    b258:	00072683          	lw	a3,0(a4)
    b25c:	00478793          	add	a5,a5,4
    b260:	00470713          	add	a4,a4,4
    b264:	fed7ae23          	sw	a3,-4(a5)
    b268:	fefd18e3          	bne	s10,a5,b258 <_ldtoa_r+0x42c>
    b26c:	0c011e23          	sh	zero,220(sp)
    b270:	00000713          	li	a4,0
    b274:	000d0693          	mv	a3,s10
    b278:	0006d783          	lhu	a5,0(a3)
    b27c:	01079613          	sll	a2,a5,0x10
    b280:	41065613          	sra	a2,a2,0x10
    b284:	00065463          	bgez	a2,b28c <_ldtoa_r+0x460>
    b288:	00176713          	or	a4,a4,1
    b28c:	00179793          	sll	a5,a5,0x1
    b290:	01079793          	sll	a5,a5,0x10
    b294:	00277613          	and	a2,a4,2
    b298:	0107d793          	srl	a5,a5,0x10
    b29c:	00060463          	beqz	a2,b2a4 <_ldtoa_r+0x478>
    b2a0:	0017e793          	or	a5,a5,1
    b2a4:	00171713          	sll	a4,a4,0x1
    b2a8:	00f69023          	sh	a5,0(a3)
    b2ac:	01071713          	sll	a4,a4,0x10
    b2b0:	ffe68693          	add	a3,a3,-2
    b2b4:	01075713          	srl	a4,a4,0x10
    b2b8:	fd5690e3          	bne	a3,s5,b278 <_ldtoa_r+0x44c>
    b2bc:	00000713          	li	a4,0
    b2c0:	000d0693          	mv	a3,s10
    b2c4:	0006d783          	lhu	a5,0(a3)
    b2c8:	01079613          	sll	a2,a5,0x10
    b2cc:	41065613          	sra	a2,a2,0x10
    b2d0:	00065463          	bgez	a2,b2d8 <_ldtoa_r+0x4ac>
    b2d4:	00176713          	or	a4,a4,1
    b2d8:	00179793          	sll	a5,a5,0x1
    b2dc:	01079793          	sll	a5,a5,0x10
    b2e0:	00277613          	and	a2,a4,2
    b2e4:	0107d793          	srl	a5,a5,0x10
    b2e8:	00060463          	beqz	a2,b2f0 <_ldtoa_r+0x4c4>
    b2ec:	0017e793          	or	a5,a5,1
    b2f0:	00171713          	sll	a4,a4,0x1
    b2f4:	00f69023          	sh	a5,0(a3)
    b2f8:	01071713          	sll	a4,a4,0x10
    b2fc:	ffe68693          	add	a3,a3,-2
    b300:	01075713          	srl	a4,a4,0x10
    b304:	fd5690e3          	bne	a3,s5,b2c4 <_ldtoa_r+0x498>
    b308:	00000613          	li	a2,0
    b30c:	0a410693          	add	a3,sp,164
    b310:	000d0713          	mv	a4,s10
    b314:	0006d583          	lhu	a1,0(a3)
    b318:	00075783          	lhu	a5,0(a4)
    b31c:	ffe68693          	add	a3,a3,-2
    b320:	ffe70713          	add	a4,a4,-2
    b324:	00b787b3          	add	a5,a5,a1
    b328:	00c787b3          	add	a5,a5,a2
    b32c:	0107d613          	srl	a2,a5,0x10
    b330:	00f69123          	sh	a5,2(a3)
    b334:	00167613          	and	a2,a2,1
    b338:	fd571ee3          	bne	a4,s5,b314 <_ldtoa_r+0x4e8>
    b33c:	08c10593          	add	a1,sp,140
    b340:	000b0613          	mv	a2,s6
    b344:	0a810513          	add	a0,sp,168
    b348:	dcdfe0ef          	jal	a114 <eiremain>
    b34c:	1bc15583          	lhu	a1,444(sp)
    b350:	00198793          	add	a5,s3,1
    b354:	001c0c13          	add	s8,s8,1
    b358:	03058713          	add	a4,a1,48
    b35c:	fee78fa3          	sb	a4,-1(a5)
    b360:	0d84ce63          	blt	s1,s8,b43c <_ldtoa_r+0x610>
    b364:	00078993          	mv	s3,a5
    b368:	e9dff06f          	j	b204 <_ldtoa_r+0x3d8>
    b36c:	07010713          	add	a4,sp,112
    b370:	08210793          	add	a5,sp,130
    b374:	00075683          	lhu	a3,0(a4)
    b378:	00270713          	add	a4,a4,2
    b37c:	000692e3          	bnez	a3,bb80 <_ldtoa_r+0xd54>
    b380:	fef71ae3          	bne	a4,a5,b374 <_ldtoa_r+0x548>
    b384:	00f65613          	srl	a2,a2,0xf
    b388:	00c42023          	sw	a2,0(s0)
    b38c:	00300793          	li	a5,3
    b390:	7cfa0863          	beq	s4,a5,bb60 <_ldtoa_r+0xd34>
    b394:	01400793          	li	a5,20
    b398:	00f12223          	sw	a5,4(sp)
    b39c:	000a0e63          	beqz	s4,b3b8 <_ldtoa_r+0x58c>
    b3a0:	00812783          	lw	a5,8(sp)
    b3a4:	fff78793          	add	a5,a5,-1
    b3a8:	00078713          	mv	a4,a5
    b3ac:	00f12223          	sw	a5,4(sp)
    b3b0:	02a00793          	li	a5,42
    b3b4:	7ae7ce63          	blt	a5,a4,bb70 <_ldtoa_r+0xd44>
    b3b8:	07015703          	lhu	a4,112(sp)
    b3bc:	07010793          	add	a5,sp,112
    b3c0:	08210693          	add	a3,sp,130
    b3c4:	00278793          	add	a5,a5,2
    b3c8:	00071a63          	bnez	a4,b3dc <_ldtoa_r+0x5b0>
    b3cc:	b4d784e3          	beq	a5,a3,af14 <_ldtoa_r+0xe8>
    b3d0:	0007d703          	lhu	a4,0(a5)
    b3d4:	00278793          	add	a5,a5,2
    b3d8:	fe070ae3          	beqz	a4,b3cc <_ldtoa_r+0x5a0>
    b3dc:	13410d93          	add	s11,sp,308
    b3e0:	000155b7          	lui	a1,0x15
    b3e4:	1e858593          	add	a1,a1,488 # 151e8 <blanks.1+0x90>
    b3e8:	000d8513          	mv	a0,s11
    b3ec:	745020ef          	jal	e330 <sprintf>
    b3f0:	00002437          	lui	s0,0x2
    b3f4:	70f40413          	add	s0,s0,1807 # 270f <__multf3+0xfaf>
    b3f8:	09000793          	li	a5,144
    b3fc:	16f12a23          	sw	a5,372(sp)
    b400:	18812023          	sw	s0,384(sp)
    b404:	07010793          	add	a5,sp,112
    b408:	08210693          	add	a3,sp,130
    b40c:	0007d703          	lhu	a4,0(a5)
    b410:	00278793          	add	a5,a5,2
    b414:	160710e3          	bnez	a4,bd74 <_ldtoa_r+0xf48>
    b418:	fed79ae3          	bne	a5,a3,b40c <_ldtoa_r+0x5e0>
    b41c:	00c12703          	lw	a4,12(sp)
    b420:	000027b7          	lui	a5,0x2
    b424:	70f78793          	add	a5,a5,1807 # 270f <__multf3+0xfaf>
    b428:	00f72023          	sw	a5,0(a4)
    b42c:	0e00006f          	j	b50c <_ldtoa_r+0x6e0>
    b430:	1bc15583          	lhu	a1,444(sp)
    b434:	13610993          	add	s3,sp,310
    b438:	13710793          	add	a5,sp,311
    b43c:	00400713          	li	a4,4
    b440:	04b75863          	bge	a4,a1,b490 <_ldtoa_r+0x664>
    b444:	00500713          	li	a4,5
    b448:	16e58ae3          	beq	a1,a4,bdbc <_ldtoa_r+0xf90>
    b44c:	ffe7c703          	lbu	a4,-2(a5)
    b450:	ffe78593          	add	a1,a5,-2
    b454:	07f77713          	and	a4,a4,127
    b458:	0204c663          	bltz	s1,b484 <_ldtoa_r+0x658>
    b45c:	02e00793          	li	a5,46
    b460:	03800613          	li	a2,56
    b464:	03000513          	li	a0,48
    b468:	0ef708e3          	beq	a4,a5,bd58 <_ldtoa_r+0xf2c>
    b46c:	0ee670e3          	bgeu	a2,a4,bd4c <_ldtoa_r+0xf20>
    b470:	fff5c703          	lbu	a4,-1(a1)
    b474:	00a58023          	sb	a0,0(a1)
    b478:	fff58593          	add	a1,a1,-1
    b47c:	07f77713          	and	a4,a4,127
    b480:	fe9ff06f          	j	b468 <_ldtoa_r+0x63c>
    b484:	03100713          	li	a4,49
    b488:	fee78f23          	sb	a4,-2(a5)
    b48c:	00140413          	add	s0,s0,1
    b490:	000155b7          	lui	a1,0x15
    b494:	00040613          	mv	a2,s0
    b498:	18458593          	add	a1,a1,388 # 15184 <blanks.1+0x2c>
    b49c:	00098513          	mv	a0,s3
    b4a0:	691020ef          	jal	e330 <sprintf>
    b4a4:	09000793          	li	a5,144
    b4a8:	01412703          	lw	a4,20(sp)
    b4ac:	16f12a23          	sw	a5,372(sp)
    b4b0:	000087b7          	lui	a5,0x8
    b4b4:	18812023          	sw	s0,384(sp)
    b4b8:	fff78793          	add	a5,a5,-1 # 7fff <_vfprintf_r+0x28bb>
    b4bc:	f4f704e3          	beq	a4,a5,b404 <_ldtoa_r+0x5d8>
    b4c0:	00c12683          	lw	a3,12(sp)
    b4c4:	13414703          	lbu	a4,308(sp)
    b4c8:	00140793          	add	a5,s0,1
    b4cc:	00f6a023          	sw	a5,0(a3)
    b4d0:	6a070463          	beqz	a4,bb78 <_ldtoa_r+0xd4c>
    b4d4:	000d8793          	mv	a5,s11
    b4d8:	02e00693          	li	a3,46
    b4dc:	30d70e63          	beq	a4,a3,b7f8 <_ldtoa_r+0x9cc>
    b4e0:	0017c703          	lbu	a4,1(a5)
    b4e4:	00178793          	add	a5,a5,1
    b4e8:	fe071ae3          	bnez	a4,b4dc <_ldtoa_r+0x6b0>
    b4ec:	04500693          	li	a3,69
    b4f0:	00fde663          	bltu	s11,a5,b4fc <_ldtoa_r+0x6d0>
    b4f4:	0140006f          	j	b508 <_ldtoa_r+0x6dc>
    b4f8:	69b78063          	beq	a5,s11,bb78 <_ldtoa_r+0xd4c>
    b4fc:	fff7c703          	lbu	a4,-1(a5)
    b500:	fff78793          	add	a5,a5,-1
    b504:	fed71ae3          	bne	a4,a3,b4f8 <_ldtoa_r+0x6cc>
    b508:	00078023          	sb	zero,0(a5)
    b50c:	000d8793          	mv	a5,s11
    b510:	02000693          	li	a3,32
    b514:	02d00613          	li	a2,45
    b518:	0007c703          	lbu	a4,0(a5)
    b51c:	00d70463          	beq	a4,a3,b524 <_ldtoa_r+0x6f8>
    b520:	00c71663          	bne	a4,a2,b52c <_ldtoa_r+0x700>
    b524:	00178793          	add	a5,a5,1
    b528:	ff1ff06f          	j	b518 <_ldtoa_r+0x6ec>
    b52c:	000d8693          	mv	a3,s11
    b530:	0007c703          	lbu	a4,0(a5)
    b534:	00068993          	mv	s3,a3
    b538:	00178793          	add	a5,a5,1
    b53c:	00e68023          	sb	a4,0(a3)
    b540:	00168693          	add	a3,a3,1
    b544:	fe0716e3          	bnez	a4,b530 <_ldtoa_r+0x704>
    b548:	00200793          	li	a5,2
    b54c:	fff9c683          	lbu	a3,-1(s3)
    b550:	28fa0863          	beq	s4,a5,b7e0 <_ldtoa_r+0x9b4>
    b554:	00412783          	lw	a5,4(sp)
    b558:	00040713          	mv	a4,s0
    b55c:	00f45463          	bge	s0,a5,b564 <_ldtoa_r+0x738>
    b560:	00078713          	mv	a4,a5
    b564:	03000793          	li	a5,48
    b568:	02f69663          	bne	a3,a5,b594 <_ldtoa_r+0x768>
    b56c:	41b987b3          	sub	a5,s3,s11
    b570:	02f75263          	bge	a4,a5,b594 <_ldtoa_r+0x768>
    b574:	03000693          	li	a3,48
    b578:	00c0006f          	j	b584 <_ldtoa_r+0x758>
    b57c:	41b987b3          	sub	a5,s3,s11
    b580:	00f75a63          	bge	a4,a5,b594 <_ldtoa_r+0x768>
    b584:	ffe9c783          	lbu	a5,-2(s3)
    b588:	fe098fa3          	sb	zero,-1(s3)
    b58c:	fff98993          	add	s3,s3,-1
    b590:	fed786e3          	beq	a5,a3,b57c <_ldtoa_r+0x750>
    b594:	00300793          	li	a5,3
    b598:	20fa0063          	beq	s4,a5,b798 <_ldtoa_r+0x96c>
    b59c:	00812783          	lw	a5,8(sp)
    b5a0:	01700693          	li	a3,23
    b5a4:	00100713          	li	a4,1
    b5a8:	00978493          	add	s1,a5,9
    b5ac:	00400793          	li	a5,4
    b5b0:	2296f063          	bgeu	a3,s1,b7d0 <_ldtoa_r+0x9a4>
    b5b4:	00179793          	sll	a5,a5,0x1
    b5b8:	01478693          	add	a3,a5,20
    b5bc:	00070593          	mv	a1,a4
    b5c0:	00170713          	add	a4,a4,1
    b5c4:	fed4f8e3          	bgeu	s1,a3,b5b4 <_ldtoa_r+0x788>
    b5c8:	00012783          	lw	a5,0(sp)
    b5cc:	04b7a223          	sw	a1,68(a5)
    b5d0:	00012503          	lw	a0,0(sp)
    b5d4:	204010ef          	jal	c7d8 <_Balloc>
    b5d8:	00050413          	mv	s0,a0
    b5dc:	20050ae3          	beqz	a0,bff0 <_ldtoa_r+0x11c4>
    b5e0:	00012783          	lw	a5,0(sp)
    b5e4:	000d8593          	mv	a1,s11
    b5e8:	04a7a023          	sw	a0,64(a5)
    b5ec:	729020ef          	jal	e514 <strcpy>
    b5f0:	01012703          	lw	a4,16(sp)
    b5f4:	00070863          	beqz	a4,b604 <_ldtoa_r+0x7d8>
    b5f8:	41b987b3          	sub	a5,s3,s11
    b5fc:	00f407b3          	add	a5,s0,a5
    b600:	00f72023          	sw	a5,0(a4)
    b604:	1fc12083          	lw	ra,508(sp)
    b608:	00040513          	mv	a0,s0
    b60c:	1f812403          	lw	s0,504(sp)
    b610:	1f412483          	lw	s1,500(sp)
    b614:	1f012903          	lw	s2,496(sp)
    b618:	1ec12983          	lw	s3,492(sp)
    b61c:	1e812a03          	lw	s4,488(sp)
    b620:	1e412a83          	lw	s5,484(sp)
    b624:	1e012b03          	lw	s6,480(sp)
    b628:	1dc12b83          	lw	s7,476(sp)
    b62c:	1d812c03          	lw	s8,472(sp)
    b630:	1d412c83          	lw	s9,468(sp)
    b634:	1d012d03          	lw	s10,464(sp)
    b638:	1cc12d83          	lw	s11,460(sp)
    b63c:	20010113          	add	sp,sp,512
    b640:	00008067          	ret
    b644:	000086b7          	lui	a3,0x8
    b648:	fff68693          	add	a3,a3,-1 # 7fff <_vfprintf_r+0x28bb>
    b64c:	6cdd0a63          	beq	s10,a3,bd20 <_ldtoa_r+0xef4>
    b650:	09c11683          	lh	a3,156(sp)
    b654:	7406d863          	bgez	a3,bda4 <_ldtoa_r+0xf78>
    b658:	08c10593          	add	a1,sp,140
    b65c:	41cb8513          	add	a0,s7,1052
    b660:	00e12c23          	sw	a4,24(sp)
    b664:	cc8fe0ef          	jal	9b2c <ecmp>
    b668:	940500e3          	beqz	a0,afa8 <_ldtoa_r+0x17c>
    b66c:	01812703          	lw	a4,24(sp)
    b670:	20054c63          	bltz	a0,b888 <_ldtoa_r+0xa5c>
    b674:	7c0d1063          	bnez	s10,be34 <_ldtoa_r+0x1008>
    b678:	09c11683          	lh	a3,156(sp)
    b67c:	00000413          	li	s0,0
    b680:	17010b13          	add	s6,sp,368
    b684:	1006cce3          	bltz	a3,bf9c <_ldtoa_r+0x1170>
    b688:	00015d37          	lui	s10,0x15
    b68c:	00070493          	mv	s1,a4
    b690:	08c10613          	add	a2,sp,140
    b694:	000b0693          	mv	a3,s6
    b698:	00060593          	mv	a1,a2
    b69c:	408d0513          	add	a0,s10,1032 # 15408 <etens+0xf0>
    b6a0:	abcff0ef          	jal	a95c <emul>
    b6a4:	09c11783          	lh	a5,156(sp)
    b6a8:	fff40413          	add	s0,s0,-1
    b6ac:	fe07d2e3          	bgez	a5,b690 <_ldtoa_r+0x864>
    b6b0:	00048713          	mv	a4,s1
    b6b4:	0e010c13          	add	s8,sp,224
    b6b8:	0f810493          	add	s1,sp,248
    b6bc:	08c10793          	add	a5,sp,140
    b6c0:	000c0613          	mv	a2,s8
    b6c4:	0a010513          	add	a0,sp,160
    b6c8:	00078693          	mv	a3,a5
    b6cc:	0006a783          	lw	a5,0(a3)
    b6d0:	00468693          	add	a3,a3,4
    b6d4:	00460613          	add	a2,a2,4
    b6d8:	fef62e23          	sw	a5,-4(a2)
    b6dc:	fea698e3          	bne	a3,a0,b6cc <_ldtoa_r+0x8a0>
    b6e0:	0a810693          	add	a3,sp,168
    b6e4:	00072783          	lw	a5,0(a4)
    b6e8:	00470713          	add	a4,a4,4
    b6ec:	00468693          	add	a3,a3,4
    b6f0:	fef6ae23          	sw	a5,-4(a3)
    b6f4:	ff5718e3          	bne	a4,s5,b6e4 <_ldtoa_r+0x8b8>
    b6f8:	00015d37          	lui	s10,0x15
    b6fc:	00015cb7          	lui	s9,0x15
    b700:	00015db7          	lui	s11,0x15
    b704:	fffffab7          	lui	s5,0xfffff
    b708:	318d0d13          	add	s10,s10,792 # 15318 <etens>
    b70c:	214c8c93          	add	s9,s9,532 # 15214 <emtens>
    b710:	304d8d93          	add	s11,s11,772 # 15304 <emtens+0xf0>
    b714:	00c0006f          	j	b720 <_ldtoa_r+0x8f4>
    b718:	014c8c93          	add	s9,s9,20
    b71c:	014d0d13          	add	s10,s10,20
    b720:	000c0593          	mv	a1,s8
    b724:	41cb8513          	add	a0,s7,1052
    b728:	c04fe0ef          	jal	9b2c <ecmp>
    b72c:	04a05863          	blez	a0,b77c <_ldtoa_r+0x950>
    b730:	000c0593          	mv	a1,s8
    b734:	000c8513          	mv	a0,s9
    b738:	bf4fe0ef          	jal	9b2c <ecmp>
    b73c:	02054863          	bltz	a0,b76c <_ldtoa_r+0x940>
    b740:	000b0693          	mv	a3,s6
    b744:	000c0613          	mv	a2,s8
    b748:	000c0593          	mv	a1,s8
    b74c:	000d0513          	mv	a0,s10
    b750:	a0cff0ef          	jal	a95c <emul>
    b754:	0a810613          	add	a2,sp,168
    b758:	000b0693          	mv	a3,s6
    b75c:	00060593          	mv	a1,a2
    b760:	000d0513          	mv	a0,s10
    b764:	9f8ff0ef          	jal	a95c <emul>
    b768:	01540433          	add	s0,s0,s5
    b76c:	01fad793          	srl	a5,s5,0x1f
    b770:	015787b3          	add	a5,a5,s5
    b774:	4017da93          	sra	s5,a5,0x1
    b778:	fbbc90e3          	bne	s9,s11,b718 <_ldtoa_r+0x8ec>
    b77c:	0a810613          	add	a2,sp,168
    b780:	000b0693          	mv	a3,s6
    b784:	41cb8593          	add	a1,s7,1052
    b788:	00060513          	mv	a0,a2
    b78c:	c41fe0ef          	jal	a3cc <ediv>
    b790:	13410d93          	add	s11,sp,308
    b794:	829ff06f          	j	afbc <_ldtoa_r+0x190>
    b798:	00412783          	lw	a5,4(sp)
    b79c:	00f40433          	add	s0,s0,a5
    b7a0:	54044a63          	bltz	s0,bcf4 <_ldtoa_r+0xec8>
    b7a4:	00c12783          	lw	a5,12(sp)
    b7a8:	00812703          	lw	a4,8(sp)
    b7ac:	0007a783          	lw	a5,0(a5)
    b7b0:	00f707b3          	add	a5,a4,a5
    b7b4:	00f12423          	sw	a5,8(sp)
    b7b8:	00812783          	lw	a5,8(sp)
    b7bc:	01700693          	li	a3,23
    b7c0:	00100713          	li	a4,1
    b7c4:	00378493          	add	s1,a5,3
    b7c8:	00400793          	li	a5,4
    b7cc:	de96e4e3          	bltu	a3,s1,b5b4 <_ldtoa_r+0x788>
    b7d0:	00012783          	lw	a5,0(sp)
    b7d4:	00000593          	li	a1,0
    b7d8:	0407a223          	sw	zero,68(a5)
    b7dc:	df5ff06f          	j	b5d0 <_ldtoa_r+0x7a4>
    b7e0:	03000793          	li	a5,48
    b7e4:	daf69ce3          	bne	a3,a5,b59c <_ldtoa_r+0x770>
    b7e8:	41b987b3          	sub	a5,s3,s11
    b7ec:	00100713          	li	a4,1
    b7f0:	d8f742e3          	blt	a4,a5,b574 <_ldtoa_r+0x748>
    b7f4:	da9ff06f          	j	b59c <_ldtoa_r+0x770>
    b7f8:	0007c703          	lbu	a4,0(a5)
    b7fc:	ce0708e3          	beqz	a4,b4ec <_ldtoa_r+0x6c0>
    b800:	0017c703          	lbu	a4,1(a5)
    b804:	00178793          	add	a5,a5,1
    b808:	fee78fa3          	sb	a4,-1(a5)
    b80c:	ce0700e3          	beqz	a4,b4ec <_ldtoa_r+0x6c0>
    b810:	0017c703          	lbu	a4,1(a5)
    b814:	00178793          	add	a5,a5,1
    b818:	fee78fa3          	sb	a4,-1(a5)
    b81c:	fe0712e3          	bnez	a4,b800 <_ldtoa_r+0x9d4>
    b820:	ccdff06f          	j	b4ec <_ldtoa_r+0x6c0>
    b824:	03100713          	li	a4,49
    b828:	12e10aa3          	sb	a4,309(sp)
    b82c:	02e00713          	li	a4,46
    b830:	12e10b23          	sb	a4,310(sp)
    b834:	00140413          	add	s0,s0,1
    b838:	30f05c63          	blez	a5,bb50 <_ldtoa_r+0xd24>
    b83c:	03000793          	li	a5,48
    b840:	12f10ba3          	sb	a5,311(sp)
    b844:	fff48493          	add	s1,s1,-1
    b848:	13810993          	add	s3,sp,312
    b84c:	9a5ff06f          	j	b1f0 <_ldtoa_r+0x3c4>
    b850:	00812703          	lw	a4,8(sp)
    b854:	02a00793          	li	a5,42
    b858:	00e12223          	sw	a4,4(sp)
    b85c:	eae7dc63          	bge	a5,a4,af14 <_ldtoa_r+0xe8>
    b860:	00f12223          	sw	a5,4(sp)
    b864:	eb0ff06f          	j	af14 <_ldtoa_r+0xe8>
    b868:	00812783          	lw	a5,8(sp)
    b86c:	fff78793          	add	a5,a5,-1
    b870:	00078713          	mv	a4,a5
    b874:	00f12223          	sw	a5,4(sp)
    b878:	02a00793          	li	a5,42
    b87c:	e8e7dc63          	bge	a5,a4,af14 <_ldtoa_r+0xe8>
    b880:	00f12223          	sw	a5,4(sp)
    b884:	e90ff06f          	j	af14 <_ldtoa_r+0xe8>
    b888:	0c410c93          	add	s9,sp,196
    b88c:	000c8493          	mv	s1,s9
    b890:	0a010813          	add	a6,sp,160
    b894:	000c8593          	mv	a1,s9
    b898:	08c10613          	add	a2,sp,140
    b89c:	00062783          	lw	a5,0(a2)
    b8a0:	00460613          	add	a2,a2,4
    b8a4:	00458593          	add	a1,a1,4
    b8a8:	fef5ae23          	sw	a5,-4(a1)
    b8ac:	ff0618e3          	bne	a2,a6,b89c <_ldtoa_r+0xa70>
    b8b0:	00004637          	lui	a2,0x4
    b8b4:	08e60613          	add	a2,a2,142 # 408e <__extenddftf2+0x1da>
    b8b8:	0cc11b23          	sh	a2,214(sp)
    b8bc:	00015637          	lui	a2,0x15
    b8c0:	3b860393          	add	t2,a2,952 # 153b8 <etens+0xa0>
    b8c4:	0a810693          	add	a3,sp,168
    b8c8:	00015637          	lui	a2,0x15
    b8cc:	01268313          	add	t1,a3,18
    b8d0:	41c60693          	add	a3,a2,1052 # 1541c <eone>
    b8d4:	00008637          	lui	a2,0x8
    b8d8:	02d12023          	sw	a3,32(sp)
    b8dc:	fff60693          	add	a3,a2,-1 # 7fff <_vfprintf_r+0x28bb>
    b8e0:	ffffc637          	lui	a2,0xffffc
    b8e4:	00d12c23          	sw	a3,24(sp)
    b8e8:	00260693          	add	a3,a2,2 # ffffc002 <_end+0xfffe2032>
    b8ec:	00015637          	lui	a2,0x15
    b8f0:	0e010c13          	add	s8,sp,224
    b8f4:	01000793          	li	a5,16
    b8f8:	0bc10893          	add	a7,sp,188
    b8fc:	00d12e23          	sw	a3,28(sp)
    b900:	1f060693          	add	a3,a2,496 # 151f0 <bmask>
    b904:	03a12423          	sw	s10,40(sp)
    b908:	03212623          	sw	s2,44(sp)
    b90c:	02912823          	sw	s1,48(sp)
    b910:	03312c23          	sw	s3,56(sp)
    b914:	000c0913          	mv	s2,s8
    b918:	00000413          	li	s0,0
    b91c:	000a0c13          	mv	s8,s4
    b920:	13410d93          	add	s11,sp,308
    b924:	17010b13          	add	s6,sp,368
    b928:	02d12223          	sw	a3,36(sp)
    b92c:	00078d13          	mv	s10,a5
    b930:	00038493          	mv	s1,t2
    b934:	02e12a23          	sw	a4,52(sp)
    b938:	00030993          	mv	s3,t1
    b93c:	00088a13          	mv	s4,a7
    b940:	0a810613          	add	a2,sp,168
    b944:	000b0693          	mv	a3,s6
    b948:	000c8593          	mv	a1,s9
    b94c:	00048513          	mv	a0,s1
    b950:	a7dfe0ef          	jal	a3cc <ediv>
    b954:	05c10613          	add	a2,sp,92
    b958:	00060713          	mv	a4,a2
    b95c:	0a810793          	add	a5,sp,168
    b960:	07010813          	add	a6,sp,112
    b964:	0007a683          	lw	a3,0(a5)
    b968:	00478793          	add	a5,a5,4
    b96c:	00470713          	add	a4,a4,4
    b970:	fed72e23          	sw	a3,-4(a4)
    b974:	fefa18e3          	bne	s4,a5,b964 <_ldtoa_r+0xb38>
    b978:	01812783          	lw	a5,24(sp)
    b97c:	06e15503          	lhu	a0,110(sp)
    b980:	00f57eb3          	and	t4,a0,a5
    b984:	01c12783          	lw	a5,28(sp)
    b988:	00fe8eb3          	add	t4,t4,a5
    b98c:	37d05e63          	blez	t4,bd08 <_ldtoa_r+0xedc>
    b990:	09000793          	li	a5,144
    b994:	41d785b3          	sub	a1,a5,t4
    b998:	00090713          	mv	a4,s2
    b99c:	05c10793          	add	a5,sp,92
    b9a0:	0007a683          	lw	a3,0(a5)
    b9a4:	00478793          	add	a5,a5,4
    b9a8:	00470713          	add	a4,a4,4
    b9ac:	fed72e23          	sw	a3,-4(a4)
    b9b0:	ff0798e3          	bne	a5,a6,b9a0 <_ldtoa_r+0xb74>
    b9b4:	06b05863          	blez	a1,ba24 <_ldtoa_r+0xbf8>
    b9b8:	00f00793          	li	a5,15
    b9bc:	00090713          	mv	a4,s2
    b9c0:	02b7de63          	bge	a5,a1,b9fc <_ldtoa_r+0xbd0>
    b9c4:	08000693          	li	a3,128
    b9c8:	41d686b3          	sub	a3,a3,t4
    b9cc:	0046d693          	srl	a3,a3,0x4
    b9d0:	00168713          	add	a4,a3,1
    b9d4:	00171713          	sll	a4,a4,0x1
    b9d8:	00e90733          	add	a4,s2,a4
    b9dc:	00090793          	mv	a5,s2
    b9e0:	00278793          	add	a5,a5,2
    b9e4:	fe079f23          	sh	zero,-2(a5)
    b9e8:	fef71ce3          	bne	a4,a5,b9e0 <_ldtoa_r+0xbb4>
    b9ec:	08000593          	li	a1,128
    b9f0:	41d585b3          	sub	a1,a1,t4
    b9f4:	00469693          	sll	a3,a3,0x4
    b9f8:	40d585b3          	sub	a1,a1,a3
    b9fc:	02412683          	lw	a3,36(sp)
    ba00:	00159793          	sll	a5,a1,0x1
    ba04:	00f687b3          	add	a5,a3,a5
    ba08:	0007d783          	lhu	a5,0(a5)
    ba0c:	00075683          	lhu	a3,0(a4)
    ba10:	00f6f7b3          	and	a5,a3,a5
    ba14:	00f71023          	sh	a5,0(a4)
    ba18:	01051513          	sll	a0,a0,0x10
    ba1c:	41055513          	sra	a0,a0,0x10
    ba20:	16054463          	bltz	a0,bb88 <_ldtoa_r+0xd5c>
    ba24:	00090713          	mv	a4,s2
    ba28:	0a810793          	add	a5,sp,168
    ba2c:	0007d603          	lhu	a2,0(a5)
    ba30:	00075683          	lhu	a3,0(a4)
    ba34:	02d61863          	bne	a2,a3,ba64 <_ldtoa_r+0xc38>
    ba38:	00278793          	add	a5,a5,2
    ba3c:	00270713          	add	a4,a4,2
    ba40:	ff3796e3          	bne	a5,s3,ba2c <_ldtoa_r+0xc00>
    ba44:	000c8713          	mv	a4,s9
    ba48:	0a810793          	add	a5,sp,168
    ba4c:	0007a683          	lw	a3,0(a5)
    ba50:	00478793          	add	a5,a5,4
    ba54:	00470713          	add	a4,a4,4
    ba58:	fed72e23          	sw	a3,-4(a4)
    ba5c:	fefa18e3          	bne	s4,a5,ba4c <_ldtoa_r+0xc20>
    ba60:	01a40433          	add	s0,s0,s10
    ba64:	02012783          	lw	a5,32(sp)
    ba68:	01448493          	add	s1,s1,20
    ba6c:	001d5d13          	srl	s10,s10,0x1
    ba70:	ecf498e3          	bne	s1,a5,b940 <_ldtoa_r+0xb14>
    ba74:	0d615603          	lhu	a2,214(sp)
    ba78:	02812d03          	lw	s10,40(sp)
    ba7c:	ffffc5b7          	lui	a1,0xffffc
    ba80:	f7258593          	add	a1,a1,-142 # ffffbf72 <_end+0xfffe1fa2>
    ba84:	000c0a13          	mv	s4,s8
    ba88:	00b60633          	add	a2,a2,a1
    ba8c:	00090c13          	mv	s8,s2
    ba90:	03012483          	lw	s1,48(sp)
    ba94:	03412703          	lw	a4,52(sp)
    ba98:	03812983          	lw	s3,56(sp)
    ba9c:	02c12903          	lw	s2,44(sp)
    baa0:	00cd0633          	add	a2,s10,a2
    baa4:	0cc11b23          	sh	a2,214(sp)
    baa8:	014c8513          	add	a0,s9,20
    baac:	08c10613          	add	a2,sp,140
    bab0:	0004a783          	lw	a5,0(s1)
    bab4:	00448493          	add	s1,s1,4
    bab8:	00460613          	add	a2,a2,4
    babc:	fef62e23          	sw	a5,-4(a2)
    bac0:	fe9518e3          	bne	a0,s1,bab0 <_ldtoa_r+0xc84>
    bac4:	0a810693          	add	a3,sp,168
    bac8:	00072783          	lw	a5,0(a4)
    bacc:	00470713          	add	a4,a4,4
    bad0:	00468693          	add	a3,a3,4
    bad4:	fef6ae23          	sw	a5,-4(a3)
    bad8:	ff5718e3          	bne	a4,s5,bac8 <_ldtoa_r+0xc9c>
    badc:	00015ab7          	lui	s5,0x15
    bae0:	00001bb7          	lui	s7,0x1
    bae4:	318a8a93          	add	s5,s5,792 # 15318 <etens>
    bae8:	00015d37          	lui	s10,0x15
    baec:	0140006f          	j	bb00 <_ldtoa_r+0xcd4>
    baf0:	408d0793          	add	a5,s10,1032 # 15408 <etens+0xf0>
    baf4:	001bdb93          	srl	s7,s7,0x1
    baf8:	24fa8663          	beq	s5,a5,bd44 <_ldtoa_r+0xf18>
    bafc:	014a8a93          	add	s5,s5,20
    bb00:	000c8593          	mv	a1,s9
    bb04:	408d0513          	add	a0,s10,1032
    bb08:	824fe0ef          	jal	9b2c <ecmp>
    bb0c:	22a04c63          	bgtz	a0,bd44 <_ldtoa_r+0xf18>
    bb10:	000c8593          	mv	a1,s9
    bb14:	000a8513          	mv	a0,s5
    bb18:	814fe0ef          	jal	9b2c <ecmp>
    bb1c:	fca04ae3          	bgtz	a0,baf0 <_ldtoa_r+0xcc4>
    bb20:	000b0693          	mv	a3,s6
    bb24:	000c8613          	mv	a2,s9
    bb28:	000c8593          	mv	a1,s9
    bb2c:	000a8513          	mv	a0,s5
    bb30:	89dfe0ef          	jal	a3cc <ediv>
    bb34:	0a810613          	add	a2,sp,168
    bb38:	000b0693          	mv	a3,s6
    bb3c:	00060593          	mv	a1,a2
    bb40:	000a8513          	mv	a0,s5
    bb44:	e19fe0ef          	jal	a95c <emul>
    bb48:	01740433          	add	s0,s0,s7
    bb4c:	fa5ff06f          	j	baf0 <_ldtoa_r+0xcc4>
    bb50:	13710993          	add	s3,sp,311
    bb54:	00000493          	li	s1,0
    bb58:	92079ce3          	bnez	a5,b490 <_ldtoa_r+0x664>
    bb5c:	e94ff06f          	j	b1f0 <_ldtoa_r+0x3c4>
    bb60:	00812703          	lw	a4,8(sp)
    bb64:	02a00793          	li	a5,42
    bb68:	00e12223          	sw	a4,4(sp)
    bb6c:	84e7d6e3          	bge	a5,a4,b3b8 <_ldtoa_r+0x58c>
    bb70:	00f12223          	sw	a5,4(sp)
    bb74:	845ff06f          	j	b3b8 <_ldtoa_r+0x58c>
    bb78:	000d8793          	mv	a5,s11
    bb7c:	98dff06f          	j	b508 <_ldtoa_r+0x6dc>
    bb80:	00000613          	li	a2,0
    bb84:	805ff06f          	j	b388 <_ldtoa_r+0x55c>
    bb88:	00090793          	mv	a5,s2
    bb8c:	0140006f          	j	bba0 <_ldtoa_r+0xd74>
    bb90:	00260613          	add	a2,a2,2
    bb94:	06e10713          	add	a4,sp,110
    bb98:	00278793          	add	a5,a5,2
    bb9c:	e8c704e3          	beq	a4,a2,ba24 <_ldtoa_r+0xbf8>
    bba0:	00065683          	lhu	a3,0(a2)
    bba4:	0007d703          	lhu	a4,0(a5)
    bba8:	fee684e3          	beq	a3,a4,bb90 <_ldtoa_r+0xd64>
    bbac:	0f215783          	lhu	a5,242(sp)
    bbb0:	fff7c793          	not	a5,a5
    bbb4:	01179713          	sll	a4,a5,0x11
    bbb8:	3a070a63          	beqz	a4,bf6c <_ldtoa_r+0x1140>
    bbbc:	0fc10593          	add	a1,sp,252
    bbc0:	41cb8513          	add	a0,s7,1052 # 141c <__eqtf2+0x58>
    bbc4:	eb5fd0ef          	jal	9a78 <emovi>
    bbc8:	11810593          	add	a1,sp,280
    bbcc:	00090513          	mv	a0,s2
    bbd0:	ea9fd0ef          	jal	9a78 <emovi>
    bbd4:	0fc15783          	lhu	a5,252(sp)
    bbd8:	11a15603          	lhu	a2,282(sp)
    bbdc:	0fe15e83          	lhu	t4,254(sp)
    bbe0:	fff7c793          	not	a5,a5
    bbe4:	0ef11e23          	sh	a5,252(sp)
    bbe8:	40ce85b3          	sub	a1,t4,a2
    bbec:	00060693          	mv	a3,a2
    bbf0:	06b05e63          	blez	a1,bc6c <_ldtoa_r+0xe40>
    bbf4:	11810513          	add	a0,sp,280
    bbf8:	000d8693          	mv	a3,s11
    bbfc:	13010793          	add	a5,sp,304
    bc00:	000d8593          	mv	a1,s11
    bc04:	00050713          	mv	a4,a0
    bc08:	00072883          	lw	a7,0(a4)
    bc0c:	00470713          	add	a4,a4,4
    bc10:	00458593          	add	a1,a1,4
    bc14:	ff15ae23          	sw	a7,-4(a1)
    bc18:	fee798e3          	bne	a5,a4,bc08 <_ldtoa_r+0xddc>
    bc1c:	0fc10593          	add	a1,sp,252
    bc20:	14011623          	sh	zero,332(sp)
    bc24:	11410713          	add	a4,sp,276
    bc28:	00058793          	mv	a5,a1
    bc2c:	0007a883          	lw	a7,0(a5)
    bc30:	00478793          	add	a5,a5,4
    bc34:	00450513          	add	a0,a0,4
    bc38:	ff152e23          	sw	a7,-4(a0)
    bc3c:	fef718e3          	bne	a4,a5,bc2c <_ldtoa_r+0xe00>
    bc40:	12011823          	sh	zero,304(sp)
    bc44:	018d8793          	add	a5,s11,24
    bc48:	0006a703          	lw	a4,0(a3)
    bc4c:	00468693          	add	a3,a3,4
    bc50:	00458593          	add	a1,a1,4
    bc54:	fee5ae23          	sw	a4,-4(a1)
    bc58:	fed798e3          	bne	a5,a3,bc48 <_ldtoa_r+0xe1c>
    bc5c:	11a15683          	lhu	a3,282(sp)
    bc60:	41d605b3          	sub	a1,a2,t4
    bc64:	10011a23          	sh	zero,276(sp)
    bc68:	00068613          	mv	a2,a3
    bc6c:	32058e63          	beqz	a1,bfa8 <_ldtoa_r+0x117c>
    bc70:	02d12e23          	sw	a3,60(sp)
    bc74:	f6f00793          	li	a5,-145
    bc78:	06f5c663          	blt	a1,a5,bce4 <_ldtoa_r+0xeb8>
    bc7c:	0fc10513          	add	a0,sp,252
    bc80:	c3dfd0ef          	jal	98bc <eshift.part.0>
    bc84:	03c12683          	lw	a3,60(sp)
    bc88:	00050593          	mv	a1,a0
    bc8c:	13010793          	add	a5,sp,304
    bc90:	11410713          	add	a4,sp,276
    bc94:	0fc15503          	lhu	a0,252(sp)
    bc98:	11815603          	lhu	a2,280(sp)
    bc9c:	3ac50a63          	beq	a0,a2,c050 <_ldtoa_r+0x1224>
    bca0:	00000613          	li	a2,0
    bca4:	11a10e93          	add	t4,sp,282
    bca8:	0007d503          	lhu	a0,0(a5)
    bcac:	00075883          	lhu	a7,0(a4)
    bcb0:	ffe78793          	add	a5,a5,-2
    bcb4:	ffe70713          	add	a4,a4,-2
    bcb8:	41150533          	sub	a0,a0,a7
    bcbc:	40c50633          	sub	a2,a0,a2
    bcc0:	01065513          	srl	a0,a2,0x10
    bcc4:	00c79123          	sh	a2,2(a5)
    bcc8:	00157613          	and	a2,a0,1
    bccc:	fdd79ee3          	bne	a5,t4,bca8 <_ldtoa_r+0xe7c>
    bcd0:	00100613          	li	a2,1
    bcd4:	000b0793          	mv	a5,s6
    bcd8:	04000713          	li	a4,64
    bcdc:	11810513          	add	a0,sp,280
    bce0:	f99fd0ef          	jal	9c78 <emdnorm>
    bce4:	00090593          	mv	a1,s2
    bce8:	11810513          	add	a0,sp,280
    bcec:	9a1fd0ef          	jal	968c <emovo.constprop.0>
    bcf0:	d35ff06f          	j	ba24 <_ldtoa_r+0xbf8>
    bcf4:	00c12783          	lw	a5,12(sp)
    bcf8:	12010a23          	sb	zero,308(sp)
    bcfc:	000d8993          	mv	s3,s11
    bd00:	0007a023          	sw	zero,0(a5)
    bd04:	ab5ff06f          	j	b7b8 <_ldtoa_r+0x98c>
    bd08:	00090793          	mv	a5,s2
    bd0c:	00278793          	add	a5,a5,2
    bd10:	0f410713          	add	a4,sp,244
    bd14:	fe079f23          	sh	zero,-2(a5)
    bd18:	fee79ae3          	bne	a5,a4,bd0c <_ldtoa_r+0xee0>
    bd1c:	cfdff06f          	j	ba18 <_ldtoa_r+0xbec>
    bd20:	13410d93          	add	s11,sp,308
    bd24:	0e090863          	beqz	s2,be14 <_ldtoa_r+0xfe8>
    bd28:	000155b7          	lui	a1,0x15
    bd2c:	16858593          	add	a1,a1,360 # 15168 <blanks.1+0x10>
    bd30:	000d8513          	mv	a0,s11
    bd34:	5fc020ef          	jal	e330 <sprintf>
    bd38:	00002437          	lui	s0,0x2
    bd3c:	70f40413          	add	s0,s0,1807 # 270f <__multf3+0xfaf>
    bd40:	f64ff06f          	j	b4a4 <_ldtoa_r+0x678>
    bd44:	0f810493          	add	s1,sp,248
    bd48:	a74ff06f          	j	afbc <_ldtoa_r+0x190>
    bd4c:	00170713          	add	a4,a4,1
    bd50:	00e58023          	sb	a4,0(a1)
    bd54:	f3cff06f          	j	b490 <_ldtoa_r+0x664>
    bd58:	fff5c783          	lbu	a5,-1(a1)
    bd5c:	03800713          	li	a4,56
    bd60:	0cf77463          	bgeu	a4,a5,be28 <_ldtoa_r+0xffc>
    bd64:	03100793          	li	a5,49
    bd68:	00140413          	add	s0,s0,1
    bd6c:	fef58fa3          	sb	a5,-1(a1)
    bd70:	f20ff06f          	j	b490 <_ldtoa_r+0x664>
    bd74:	07010793          	add	a5,sp,112
    bd78:	08210693          	add	a3,sp,130
    bd7c:	0080006f          	j	bd84 <_ldtoa_r+0xf58>
    bd80:	f4d78063          	beq	a5,a3,b4c0 <_ldtoa_r+0x694>
    bd84:	0007d703          	lhu	a4,0(a5)
    bd88:	00278793          	add	a5,a5,2
    bd8c:	fe070ae3          	beqz	a4,bd80 <_ldtoa_r+0xf54>
    bd90:	00c12703          	lw	a4,12(sp)
    bd94:	000027b7          	lui	a5,0x2
    bd98:	70f78793          	add	a5,a5,1807 # 270f <__multf3+0xfaf>
    bd9c:	00f72023          	sw	a5,0(a4)
    bda0:	f6cff06f          	j	b50c <_ldtoa_r+0x6e0>
    bda4:	13410d93          	add	s11,sp,308
    bda8:	000155b7          	lui	a1,0x15
    bdac:	18058593          	add	a1,a1,384 # 15180 <blanks.1+0x28>
    bdb0:	000d8513          	mv	a0,s11
    bdb4:	57c020ef          	jal	e330 <sprintf>
    bdb8:	f81ff06f          	j	bd38 <_ldtoa_r+0xf0c>
    bdbc:	0a810593          	add	a1,sp,168
    bdc0:	08c10513          	add	a0,sp,140
    bdc4:	00f12c23          	sw	a5,24(sp)
    bdc8:	8c5fd0ef          	jal	968c <emovo.constprop.0>
    bdcc:	000155b7          	lui	a1,0x15
    bdd0:	43058593          	add	a1,a1,1072 # 15430 <ezero>
    bdd4:	0a810513          	add	a0,sp,168
    bdd8:	d55fd0ef          	jal	9b2c <ecmp>
    bddc:	01812783          	lw	a5,24(sp)
    bde0:	e6051663          	bnez	a0,b44c <_ldtoa_r+0x620>
    bde4:	ea04c663          	bltz	s1,b490 <_ldtoa_r+0x664>
    bde8:	ffe7c703          	lbu	a4,-2(a5)
    bdec:	ffe78593          	add	a1,a5,-2
    bdf0:	fd270613          	add	a2,a4,-46
    bdf4:	00163613          	seqz	a2,a2
    bdf8:	fff64613          	not	a2,a2
    bdfc:	00c98633          	add	a2,s3,a2
    be00:	00064603          	lbu	a2,0(a2)
    be04:	07f77713          	and	a4,a4,127
    be08:	00167613          	and	a2,a2,1
    be0c:	e4061863          	bnez	a2,b45c <_ldtoa_r+0x630>
    be10:	e80ff06f          	j	b490 <_ldtoa_r+0x664>
    be14:	000155b7          	lui	a1,0x15
    be18:	17458593          	add	a1,a1,372 # 15174 <blanks.1+0x1c>
    be1c:	000d8513          	mv	a0,s11
    be20:	510020ef          	jal	e330 <sprintf>
    be24:	f15ff06f          	j	bd38 <_ldtoa_r+0xf0c>
    be28:	00178793          	add	a5,a5,1
    be2c:	fef58fa3          	sb	a5,-1(a1)
    be30:	e60ff06f          	j	b490 <_ldtoa_r+0x664>
    be34:	0e010c13          	add	s8,sp,224
    be38:	000c0593          	mv	a1,s8
    be3c:	08c10513          	add	a0,sp,140
    be40:	00004d37          	lui	s10,0x4
    be44:	00e12e23          	sw	a4,28(sp)
    be48:	00000413          	li	s0,0
    be4c:	c2dfd0ef          	jal	9a78 <emovi>
    be50:	0f810493          	add	s1,sp,248
    be54:	0e210b13          	add	s6,sp,226
    be58:	ffed0d13          	add	s10,s10,-2 # 3ffe <__extenddftf2+0x14a>
    be5c:	0dc10c93          	add	s9,sp,220
    be60:	fd500d93          	li	s11,-43
    be64:	01212c23          	sw	s2,24(sp)
    be68:	03312023          	sw	s3,32(sp)
    be6c:	0f815783          	lhu	a5,248(sp)
    be70:	0077f793          	and	a5,a5,7
    be74:	0c079863          	bnez	a5,bf44 <_ldtoa_r+0x1118>
    be78:	0c410993          	add	s3,sp,196
    be7c:	000c0913          	mv	s2,s8
    be80:	00098713          	mv	a4,s3
    be84:	000c0793          	mv	a5,s8
    be88:	0007a683          	lw	a3,0(a5)
    be8c:	00478793          	add	a5,a5,4
    be90:	00470713          	add	a4,a4,4
    be94:	fed72e23          	sw	a3,-4(a4)
    be98:	fe9798e3          	bne	a5,s1,be88 <_ldtoa_r+0x105c>
    be9c:	0c410513          	add	a0,sp,196
    bea0:	0c011e23          	sh	zero,220(sp)
    bea4:	eb4fd0ef          	jal	9558 <eshdn1>
    bea8:	0c410513          	add	a0,sp,196
    beac:	eacfd0ef          	jal	9558 <eshdn1>
    beb0:	00000613          	li	a2,0
    beb4:	0dc10693          	add	a3,sp,220
    beb8:	00048713          	mv	a4,s1
    bebc:	0006d503          	lhu	a0,0(a3)
    bec0:	00075783          	lhu	a5,0(a4)
    bec4:	ffe68693          	add	a3,a3,-2
    bec8:	ffe70713          	add	a4,a4,-2
    becc:	00a787b3          	add	a5,a5,a0
    bed0:	00c787b3          	add	a5,a5,a2
    bed4:	0107d613          	srl	a2,a5,0x10
    bed8:	00f69123          	sh	a5,2(a3)
    bedc:	00167613          	and	a2,a2,1
    bee0:	fd671ee3          	bne	a4,s6,bebc <_ldtoa_r+0x1090>
    bee4:	0c615783          	lhu	a5,198(sp)
    bee8:	0c815703          	lhu	a4,200(sp)
    beec:	00378793          	add	a5,a5,3
    bef0:	0cf11323          	sh	a5,198(sp)
    bef4:	02070063          	beqz	a4,bf14 <_ldtoa_r+0x10e8>
    bef8:	0c410513          	add	a0,sp,196
    befc:	e5cfd0ef          	jal	9558 <eshdn1>
    bf00:	0c615783          	lhu	a5,198(sp)
    bf04:	0c815703          	lhu	a4,200(sp)
    bf08:	00178793          	add	a5,a5,1
    bf0c:	0cf11323          	sh	a5,198(sp)
    bf10:	fe0714e3          	bnez	a4,bef8 <_ldtoa_r+0x10cc>
    bf14:	0dc15783          	lhu	a5,220(sp)
    bf18:	02079663          	bnez	a5,bf44 <_ldtoa_r+0x1118>
    bf1c:	0c615783          	lhu	a5,198(sp)
    bf20:	02fd6263          	bltu	s10,a5,bf44 <_ldtoa_r+0x1118>
    bf24:	0009a783          	lw	a5,0(s3)
    bf28:	00498993          	add	s3,s3,4
    bf2c:	00490913          	add	s2,s2,4
    bf30:	fef92e23          	sw	a5,-4(s2)
    bf34:	ff9998e3          	bne	s3,s9,bf24 <_ldtoa_r+0x10f8>
    bf38:	0e011c23          	sh	zero,248(sp)
    bf3c:	fff40413          	add	s0,s0,-1
    bf40:	f3b416e3          	bne	s0,s11,be6c <_ldtoa_r+0x1040>
    bf44:	01c12703          	lw	a4,28(sp)
    bf48:	08c10593          	add	a1,sp,140
    bf4c:	000c0513          	mv	a0,s8
    bf50:	01812903          	lw	s2,24(sp)
    bf54:	02012983          	lw	s3,32(sp)
    bf58:	00e12c23          	sw	a4,24(sp)
    bf5c:	f30fd0ef          	jal	968c <emovo.constprop.0>
    bf60:	01812703          	lw	a4,24(sp)
    bf64:	17010b13          	add	s6,sp,368
    bf68:	f54ff06f          	j	b6bc <_ldtoa_r+0x890>
    bf6c:	00090793          	mv	a5,s2
    bf70:	0f210713          	add	a4,sp,242
    bf74:	0007d683          	lhu	a3,0(a5)
    bf78:	00278793          	add	a5,a5,2
    bf7c:	aa0694e3          	bnez	a3,ba24 <_ldtoa_r+0xbf8>
    bf80:	fee79ae3          	bne	a5,a4,bf74 <_ldtoa_r+0x1148>
    bf84:	00090793          	mv	a5,s2
    bf88:	0007d683          	lhu	a3,0(a5)
    bf8c:	00278793          	add	a5,a5,2
    bf90:	c20696e3          	bnez	a3,bbbc <_ldtoa_r+0xd90>
    bf94:	fee79ae3          	bne	a5,a4,bf88 <_ldtoa_r+0x115c>
    bf98:	a8dff06f          	j	ba24 <_ldtoa_r+0xbf8>
    bf9c:	0e010c13          	add	s8,sp,224
    bfa0:	0f810493          	add	s1,sp,248
    bfa4:	f18ff06f          	j	b6bc <_ldtoa_r+0x890>
    bfa8:	11c10713          	add	a4,sp,284
    bfac:	10010793          	add	a5,sp,256
    bfb0:	11610f13          	add	t5,sp,278
    bfb4:	0007de83          	lhu	t4,0(a5)
    bfb8:	00075503          	lhu	a0,0(a4)
    bfbc:	00278793          	add	a5,a5,2
    bfc0:	00270713          	add	a4,a4,2
    bfc4:	04ae9663          	bne	t4,a0,c010 <_ldtoa_r+0x11e4>
    bfc8:	ffe796e3          	bne	a5,t5,bfb4 <_ldtoa_r+0x1188>
    bfcc:	0fc15703          	lhu	a4,252(sp)
    bfd0:	11815783          	lhu	a5,280(sp)
    bfd4:	04f70663          	beq	a4,a5,c020 <_ldtoa_r+0x11f4>
    bfd8:	00090793          	mv	a5,s2
    bfdc:	0f410713          	add	a4,sp,244
    bfe0:	00278793          	add	a5,a5,2
    bfe4:	fe079f23          	sh	zero,-2(a5)
    bfe8:	fee79ce3          	bne	a5,a4,bfe0 <_ldtoa_r+0x11b4>
    bfec:	a39ff06f          	j	ba24 <_ldtoa_r+0xbf8>
    bff0:	000156b7          	lui	a3,0x15
    bff4:	000015b7          	lui	a1,0x1
    bff8:	00015537          	lui	a0,0x15
    bffc:	18868693          	add	a3,a3,392 # 15188 <blanks.1+0x30>
    c000:	00000613          	li	a2,0
    c004:	b6e58593          	add	a1,a1,-1170 # b6e <__divdf3+0x46e>
    c008:	19c50513          	add	a0,a0,412 # 1519c <blanks.1+0x44>
    c00c:	74c060ef          	jal	12758 <__assert_func>
    c010:	07d56c63          	bltu	a0,t4,c088 <_ldtoa_r+0x125c>
    c014:	13010793          	add	a5,sp,304
    c018:	11410713          	add	a4,sp,276
    c01c:	c79ff06f          	j	bc94 <_ldtoa_r+0xe68>
    c020:	00068793          	mv	a5,a3
    c024:	00069663          	bnez	a3,c030 <_ldtoa_r+0x1204>
    c028:	11e11703          	lh	a4,286(sp)
    c02c:	0c075663          	bgez	a4,c0f8 <_ldtoa_r+0x12cc>
    c030:	11a10713          	add	a4,sp,282
    c034:	13010793          	add	a5,sp,304
    c038:	00075583          	lhu	a1,0(a4)
    c03c:	10059663          	bnez	a1,c148 <_ldtoa_r+0x131c>
    c040:	00270713          	add	a4,a4,2
    c044:	fee79ae3          	bne	a5,a4,c038 <_ldtoa_r+0x120c>
    c048:	10c11d23          	sh	a2,282(sp)
    c04c:	c99ff06f          	j	bce4 <_ldtoa_r+0xeb8>
    c050:	00000613          	li	a2,0
    c054:	0fe10e93          	add	t4,sp,254
    c058:	0007d883          	lhu	a7,0(a5)
    c05c:	00075503          	lhu	a0,0(a4)
    c060:	ffe78793          	add	a5,a5,-2
    c064:	ffe70713          	add	a4,a4,-2
    c068:	01150533          	add	a0,a0,a7
    c06c:	00c50633          	add	a2,a0,a2
    c070:	01065513          	srl	a0,a2,0x10
    c074:	00c79123          	sh	a2,2(a5)
    c078:	00157613          	and	a2,a0,1
    c07c:	fdd71ee3          	bne	a4,t4,c058 <_ldtoa_r+0x122c>
    c080:	00000613          	li	a2,0
    c084:	c51ff06f          	j	bcd4 <_ldtoa_r+0xea8>
    c088:	11810f13          	add	t5,sp,280
    c08c:	000d8513          	mv	a0,s11
    c090:	13010793          	add	a5,sp,304
    c094:	000d8613          	mv	a2,s11
    c098:	000f0713          	mv	a4,t5
    c09c:	00072883          	lw	a7,0(a4)
    c0a0:	00470713          	add	a4,a4,4
    c0a4:	00460613          	add	a2,a2,4
    c0a8:	ff162e23          	sw	a7,-4(a2)
    c0ac:	fee798e3          	bne	a5,a4,c09c <_ldtoa_r+0x1270>
    c0b0:	0fc10613          	add	a2,sp,252
    c0b4:	14011623          	sh	zero,332(sp)
    c0b8:	11410713          	add	a4,sp,276
    c0bc:	00060e93          	mv	t4,a2
    c0c0:	000ea883          	lw	a7,0(t4)
    c0c4:	004e8e93          	add	t4,t4,4
    c0c8:	004f0f13          	add	t5,t5,4
    c0cc:	ff1f2e23          	sw	a7,-4(t5)
    c0d0:	ffd718e3          	bne	a4,t4,c0c0 <_ldtoa_r+0x1294>
    c0d4:	12011823          	sh	zero,304(sp)
    c0d8:	018d8e93          	add	t4,s11,24
    c0dc:	00052883          	lw	a7,0(a0)
    c0e0:	00450513          	add	a0,a0,4
    c0e4:	00460613          	add	a2,a2,4
    c0e8:	ff162e23          	sw	a7,-4(a2)
    c0ec:	feae98e3          	bne	t4,a0,c0dc <_ldtoa_r+0x12b0>
    c0f0:	10011a23          	sh	zero,276(sp)
    c0f4:	ba1ff06f          	j	bc94 <_ldtoa_r+0xe68>
    c0f8:	13010693          	add	a3,sp,304
    c0fc:	11a10e93          	add	t4,sp,282
    c100:	0006d703          	lhu	a4,0(a3)
    c104:	01071613          	sll	a2,a4,0x10
    c108:	41065613          	sra	a2,a2,0x10
    c10c:	00065463          	bgez	a2,c114 <_ldtoa_r+0x12e8>
    c110:	0017e793          	or	a5,a5,1
    c114:	00171713          	sll	a4,a4,0x1
    c118:	01071713          	sll	a4,a4,0x10
    c11c:	0027f613          	and	a2,a5,2
    c120:	01075713          	srl	a4,a4,0x10
    c124:	00060463          	beqz	a2,c12c <_ldtoa_r+0x1300>
    c128:	00176713          	or	a4,a4,1
    c12c:	00179793          	sll	a5,a5,0x1
    c130:	00e69023          	sh	a4,0(a3)
    c134:	01079793          	sll	a5,a5,0x10
    c138:	ffe68693          	add	a3,a3,-2
    c13c:	0107d793          	srl	a5,a5,0x10
    c140:	fdd690e3          	bne	a3,t4,c100 <_ldtoa_r+0x12d4>
    c144:	ba1ff06f          	j	bce4 <_ldtoa_r+0xeb8>
    c148:	00168613          	add	a2,a3,1
    c14c:	10c11d23          	sh	a2,282(sp)
    c150:	b95ff06f          	j	bce4 <_ldtoa_r+0xeb8>

0000c154 <_ldcheck>:
    c154:	00852703          	lw	a4,8(a0)
    c158:	00c52783          	lw	a5,12(a0)
    c15c:	00052603          	lw	a2,0(a0)
    c160:	00452683          	lw	a3,4(a0)
    c164:	fc010113          	add	sp,sp,-64
    c168:	00010513          	mv	a0,sp
    c16c:	01410593          	add	a1,sp,20
    c170:	00e12423          	sw	a4,8(sp)
    c174:	00f12623          	sw	a5,12(sp)
    c178:	02112e23          	sw	ra,60(sp)
    c17c:	00c12023          	sw	a2,0(sp)
    c180:	00d12223          	sw	a3,4(sp)
    c184:	8f4fe0ef          	jal	a278 <e113toe.isra.0>
    c188:	02615783          	lhu	a5,38(sp)
    c18c:	00000513          	li	a0,0
    c190:	fff7c793          	not	a5,a5
    c194:	01179713          	sll	a4,a5,0x11
    c198:	02071063          	bnez	a4,c1b8 <_ldcheck+0x64>
    c19c:	01410793          	add	a5,sp,20
    c1a0:	02610693          	add	a3,sp,38
    c1a4:	0007d703          	lhu	a4,0(a5)
    c1a8:	00278793          	add	a5,a5,2
    c1ac:	00071c63          	bnez	a4,c1c4 <_ldcheck+0x70>
    c1b0:	fed79ae3          	bne	a5,a3,c1a4 <_ldcheck+0x50>
    c1b4:	00200513          	li	a0,2
    c1b8:	03c12083          	lw	ra,60(sp)
    c1bc:	04010113          	add	sp,sp,64
    c1c0:	00008067          	ret
    c1c4:	00100513          	li	a0,1
    c1c8:	ff1ff06f          	j	c1b8 <_ldcheck+0x64>

0000c1cc <__localeconv_l>:
    c1cc:	0f050513          	add	a0,a0,240
    c1d0:	00008067          	ret

0000c1d4 <_localeconv_r>:
    c1d4:	00017537          	lui	a0,0x17
    c1d8:	6b850513          	add	a0,a0,1720 # 176b8 <__global_locale+0xf0>
    c1dc:	00008067          	ret

0000c1e0 <localeconv>:
    c1e0:	00017537          	lui	a0,0x17
    c1e4:	6b850513          	add	a0,a0,1720 # 176b8 <__global_locale+0xf0>
    c1e8:	00008067          	ret

0000c1ec <__smakebuf_r>:
    c1ec:	00c59783          	lh	a5,12(a1)
    c1f0:	f8010113          	add	sp,sp,-128
    c1f4:	06812c23          	sw	s0,120(sp)
    c1f8:	06112e23          	sw	ra,124(sp)
    c1fc:	06912a23          	sw	s1,116(sp)
    c200:	07212823          	sw	s2,112(sp)
    c204:	07312623          	sw	s3,108(sp)
    c208:	07412423          	sw	s4,104(sp)
    c20c:	0027f713          	and	a4,a5,2
    c210:	00058413          	mv	s0,a1
    c214:	02070c63          	beqz	a4,c24c <__smakebuf_r+0x60>
    c218:	04358793          	add	a5,a1,67
    c21c:	00f5a023          	sw	a5,0(a1)
    c220:	00f5a823          	sw	a5,16(a1)
    c224:	00100793          	li	a5,1
    c228:	00f5aa23          	sw	a5,20(a1)
    c22c:	07c12083          	lw	ra,124(sp)
    c230:	07812403          	lw	s0,120(sp)
    c234:	07412483          	lw	s1,116(sp)
    c238:	07012903          	lw	s2,112(sp)
    c23c:	06c12983          	lw	s3,108(sp)
    c240:	06812a03          	lw	s4,104(sp)
    c244:	08010113          	add	sp,sp,128
    c248:	00008067          	ret
    c24c:	00e59583          	lh	a1,14(a1)
    c250:	00050493          	mv	s1,a0
    c254:	0805cc63          	bltz	a1,c2ec <__smakebuf_r+0x100>
    c258:	00810613          	add	a2,sp,8
    c25c:	1e5060ef          	jal	12c40 <_fstat_r>
    c260:	08054463          	bltz	a0,c2e8 <__smakebuf_r+0xfc>
    c264:	00c12783          	lw	a5,12(sp)
    c268:	0000f937          	lui	s2,0xf
    c26c:	000019b7          	lui	s3,0x1
    c270:	00f97933          	and	s2,s2,a5
    c274:	ffffe7b7          	lui	a5,0xffffe
    c278:	00f90933          	add	s2,s2,a5
    c27c:	00193913          	seqz	s2,s2
    c280:	40000a13          	li	s4,1024
    c284:	80098993          	add	s3,s3,-2048 # 800 <__divdf3+0x100>
    c288:	000a0593          	mv	a1,s4
    c28c:	00048513          	mv	a0,s1
    c290:	ab9f80ef          	jal	4d48 <_malloc_r>
    c294:	00c41783          	lh	a5,12(s0)
    c298:	06050e63          	beqz	a0,c314 <__smakebuf_r+0x128>
    c29c:	00008737          	lui	a4,0x8
    c2a0:	74870713          	add	a4,a4,1864 # 8748 <_cleanup_r>
    c2a4:	02e4ae23          	sw	a4,60(s1)
    c2a8:	0807e793          	or	a5,a5,128
    c2ac:	00f41623          	sh	a5,12(s0)
    c2b0:	00a42023          	sw	a0,0(s0)
    c2b4:	00a42823          	sw	a0,16(s0)
    c2b8:	01442a23          	sw	s4,20(s0)
    c2bc:	08091863          	bnez	s2,c34c <__smakebuf_r+0x160>
    c2c0:	0137e7b3          	or	a5,a5,s3
    c2c4:	07c12083          	lw	ra,124(sp)
    c2c8:	00f41623          	sh	a5,12(s0)
    c2cc:	07812403          	lw	s0,120(sp)
    c2d0:	07412483          	lw	s1,116(sp)
    c2d4:	07012903          	lw	s2,112(sp)
    c2d8:	06c12983          	lw	s3,108(sp)
    c2dc:	06812a03          	lw	s4,104(sp)
    c2e0:	08010113          	add	sp,sp,128
    c2e4:	00008067          	ret
    c2e8:	00c41783          	lh	a5,12(s0)
    c2ec:	0807f793          	and	a5,a5,128
    c2f0:	00000913          	li	s2,0
    c2f4:	04078663          	beqz	a5,c340 <__smakebuf_r+0x154>
    c2f8:	04000a13          	li	s4,64
    c2fc:	000a0593          	mv	a1,s4
    c300:	00048513          	mv	a0,s1
    c304:	a45f80ef          	jal	4d48 <_malloc_r>
    c308:	00c41783          	lh	a5,12(s0)
    c30c:	00000993          	li	s3,0
    c310:	f80516e3          	bnez	a0,c29c <__smakebuf_r+0xb0>
    c314:	2007f713          	and	a4,a5,512
    c318:	f0071ae3          	bnez	a4,c22c <__smakebuf_r+0x40>
    c31c:	ffc7f793          	and	a5,a5,-4
    c320:	0027e793          	or	a5,a5,2
    c324:	04340713          	add	a4,s0,67
    c328:	00f41623          	sh	a5,12(s0)
    c32c:	00100793          	li	a5,1
    c330:	00e42023          	sw	a4,0(s0)
    c334:	00e42823          	sw	a4,16(s0)
    c338:	00f42a23          	sw	a5,20(s0)
    c33c:	ef1ff06f          	j	c22c <__smakebuf_r+0x40>
    c340:	40000a13          	li	s4,1024
    c344:	00000993          	li	s3,0
    c348:	f41ff06f          	j	c288 <__smakebuf_r+0x9c>
    c34c:	00e41583          	lh	a1,14(s0)
    c350:	00048513          	mv	a0,s1
    c354:	151060ef          	jal	12ca4 <_isatty_r>
    c358:	00051663          	bnez	a0,c364 <__smakebuf_r+0x178>
    c35c:	00c41783          	lh	a5,12(s0)
    c360:	f61ff06f          	j	c2c0 <__smakebuf_r+0xd4>
    c364:	00c45783          	lhu	a5,12(s0)
    c368:	ffc7f793          	and	a5,a5,-4
    c36c:	0017e793          	or	a5,a5,1
    c370:	01079793          	sll	a5,a5,0x10
    c374:	4107d793          	sra	a5,a5,0x10
    c378:	f49ff06f          	j	c2c0 <__smakebuf_r+0xd4>

0000c37c <__swhatbuf_r>:
    c37c:	f9010113          	add	sp,sp,-112
    c380:	06812423          	sw	s0,104(sp)
    c384:	00058413          	mv	s0,a1
    c388:	00e59583          	lh	a1,14(a1)
    c38c:	06912223          	sw	s1,100(sp)
    c390:	07212023          	sw	s2,96(sp)
    c394:	06112623          	sw	ra,108(sp)
    c398:	00060493          	mv	s1,a2
    c39c:	00068913          	mv	s2,a3
    c3a0:	0405ca63          	bltz	a1,c3f4 <__swhatbuf_r+0x78>
    c3a4:	00810613          	add	a2,sp,8
    c3a8:	099060ef          	jal	12c40 <_fstat_r>
    c3ac:	04054463          	bltz	a0,c3f4 <__swhatbuf_r+0x78>
    c3b0:	00c12703          	lw	a4,12(sp)
    c3b4:	0000f7b7          	lui	a5,0xf
    c3b8:	06c12083          	lw	ra,108(sp)
    c3bc:	00e7f7b3          	and	a5,a5,a4
    c3c0:	ffffe737          	lui	a4,0xffffe
    c3c4:	00e787b3          	add	a5,a5,a4
    c3c8:	06812403          	lw	s0,104(sp)
    c3cc:	0017b793          	seqz	a5,a5
    c3d0:	00f92023          	sw	a5,0(s2) # f000 <_svfprintf_r+0x990>
    c3d4:	40000713          	li	a4,1024
    c3d8:	00e4a023          	sw	a4,0(s1)
    c3dc:	00001537          	lui	a0,0x1
    c3e0:	06412483          	lw	s1,100(sp)
    c3e4:	06012903          	lw	s2,96(sp)
    c3e8:	80050513          	add	a0,a0,-2048 # 800 <__divdf3+0x100>
    c3ec:	07010113          	add	sp,sp,112
    c3f0:	00008067          	ret
    c3f4:	00c45783          	lhu	a5,12(s0)
    c3f8:	0807f793          	and	a5,a5,128
    c3fc:	02078863          	beqz	a5,c42c <__swhatbuf_r+0xb0>
    c400:	06c12083          	lw	ra,108(sp)
    c404:	06812403          	lw	s0,104(sp)
    c408:	00000793          	li	a5,0
    c40c:	00f92023          	sw	a5,0(s2)
    c410:	04000713          	li	a4,64
    c414:	00e4a023          	sw	a4,0(s1)
    c418:	06012903          	lw	s2,96(sp)
    c41c:	06412483          	lw	s1,100(sp)
    c420:	00000513          	li	a0,0
    c424:	07010113          	add	sp,sp,112
    c428:	00008067          	ret
    c42c:	06c12083          	lw	ra,108(sp)
    c430:	06812403          	lw	s0,104(sp)
    c434:	00f92023          	sw	a5,0(s2)
    c438:	40000713          	li	a4,1024
    c43c:	00e4a023          	sw	a4,0(s1)
    c440:	06012903          	lw	s2,96(sp)
    c444:	06412483          	lw	s1,100(sp)
    c448:	00000513          	li	a0,0
    c44c:	07010113          	add	sp,sp,112
    c450:	00008067          	ret

0000c454 <memchr>:
    c454:	00357793          	and	a5,a0,3
    c458:	0ff5f693          	zext.b	a3,a1
    c45c:	02078e63          	beqz	a5,c498 <memchr+0x44>
    c460:	fff60793          	add	a5,a2,-1
    c464:	02060663          	beqz	a2,c490 <memchr+0x3c>
    c468:	fff00613          	li	a2,-1
    c46c:	0180006f          	j	c484 <memchr+0x30>
    c470:	00150513          	add	a0,a0,1
    c474:	00357713          	and	a4,a0,3
    c478:	02070263          	beqz	a4,c49c <memchr+0x48>
    c47c:	fff78793          	add	a5,a5,-1 # efff <_svfprintf_r+0x98f>
    c480:	00c78863          	beq	a5,a2,c490 <memchr+0x3c>
    c484:	00054703          	lbu	a4,0(a0)
    c488:	fed714e3          	bne	a4,a3,c470 <memchr+0x1c>
    c48c:	00008067          	ret
    c490:	00000513          	li	a0,0
    c494:	00008067          	ret
    c498:	00060793          	mv	a5,a2
    c49c:	00300713          	li	a4,3
    c4a0:	04f77c63          	bgeu	a4,a5,c4f8 <memchr+0xa4>
    c4a4:	0ff5f593          	zext.b	a1,a1
    c4a8:	00859713          	sll	a4,a1,0x8
    c4ac:	00b705b3          	add	a1,a4,a1
    c4b0:	01059713          	sll	a4,a1,0x10
    c4b4:	feff08b7          	lui	a7,0xfeff0
    c4b8:	80808837          	lui	a6,0x80808
    c4bc:	00e585b3          	add	a1,a1,a4
    c4c0:	eff88893          	add	a7,a7,-257 # fefefeff <_end+0xfefd5f2f>
    c4c4:	08080813          	add	a6,a6,128 # 80808080 <_end+0x807ee0b0>
    c4c8:	00300313          	li	t1,3
    c4cc:	0100006f          	j	c4dc <memchr+0x88>
    c4d0:	ffc78793          	add	a5,a5,-4
    c4d4:	00450513          	add	a0,a0,4
    c4d8:	02f37063          	bgeu	t1,a5,c4f8 <memchr+0xa4>
    c4dc:	00052703          	lw	a4,0(a0)
    c4e0:	00e5c733          	xor	a4,a1,a4
    c4e4:	01170633          	add	a2,a4,a7
    c4e8:	fff74713          	not	a4,a4
    c4ec:	00e67733          	and	a4,a2,a4
    c4f0:	01077733          	and	a4,a4,a6
    c4f4:	fc070ee3          	beqz	a4,c4d0 <memchr+0x7c>
    c4f8:	00f50733          	add	a4,a0,a5
    c4fc:	00079863          	bnez	a5,c50c <memchr+0xb8>
    c500:	f91ff06f          	j	c490 <memchr+0x3c>
    c504:	00150513          	add	a0,a0,1
    c508:	f8a704e3          	beq	a4,a0,c490 <memchr+0x3c>
    c50c:	00054783          	lbu	a5,0(a0)
    c510:	fed79ae3          	bne	a5,a3,c504 <memchr+0xb0>
    c514:	00008067          	ret

0000c518 <memcpy>:
    c518:	00b547b3          	xor	a5,a0,a1
    c51c:	0037f793          	and	a5,a5,3
    c520:	00c508b3          	add	a7,a0,a2
    c524:	06079463          	bnez	a5,c58c <memcpy+0x74>
    c528:	00300793          	li	a5,3
    c52c:	06c7f063          	bgeu	a5,a2,c58c <memcpy+0x74>
    c530:	00357793          	and	a5,a0,3
    c534:	00050713          	mv	a4,a0
    c538:	06079a63          	bnez	a5,c5ac <memcpy+0x94>
    c53c:	ffc8f613          	and	a2,a7,-4
    c540:	40e606b3          	sub	a3,a2,a4
    c544:	02000793          	li	a5,32
    c548:	08d7ce63          	blt	a5,a3,c5e4 <memcpy+0xcc>
    c54c:	00058693          	mv	a3,a1
    c550:	00070793          	mv	a5,a4
    c554:	02c77863          	bgeu	a4,a2,c584 <memcpy+0x6c>
    c558:	0006a803          	lw	a6,0(a3)
    c55c:	00478793          	add	a5,a5,4
    c560:	00468693          	add	a3,a3,4
    c564:	ff07ae23          	sw	a6,-4(a5)
    c568:	fec7e8e3          	bltu	a5,a2,c558 <memcpy+0x40>
    c56c:	fff60793          	add	a5,a2,-1
    c570:	40e787b3          	sub	a5,a5,a4
    c574:	ffc7f793          	and	a5,a5,-4
    c578:	00478793          	add	a5,a5,4
    c57c:	00f70733          	add	a4,a4,a5
    c580:	00f585b3          	add	a1,a1,a5
    c584:	01176863          	bltu	a4,a7,c594 <memcpy+0x7c>
    c588:	00008067          	ret
    c58c:	00050713          	mv	a4,a0
    c590:	05157863          	bgeu	a0,a7,c5e0 <memcpy+0xc8>
    c594:	0005c783          	lbu	a5,0(a1)
    c598:	00170713          	add	a4,a4,1 # ffffe001 <_end+0xfffe4031>
    c59c:	00158593          	add	a1,a1,1
    c5a0:	fef70fa3          	sb	a5,-1(a4)
    c5a4:	fee898e3          	bne	a7,a4,c594 <memcpy+0x7c>
    c5a8:	00008067          	ret
    c5ac:	0005c683          	lbu	a3,0(a1)
    c5b0:	00170713          	add	a4,a4,1
    c5b4:	00377793          	and	a5,a4,3
    c5b8:	fed70fa3          	sb	a3,-1(a4)
    c5bc:	00158593          	add	a1,a1,1
    c5c0:	f6078ee3          	beqz	a5,c53c <memcpy+0x24>
    c5c4:	0005c683          	lbu	a3,0(a1)
    c5c8:	00170713          	add	a4,a4,1
    c5cc:	00377793          	and	a5,a4,3
    c5d0:	fed70fa3          	sb	a3,-1(a4)
    c5d4:	00158593          	add	a1,a1,1
    c5d8:	fc079ae3          	bnez	a5,c5ac <memcpy+0x94>
    c5dc:	f61ff06f          	j	c53c <memcpy+0x24>
    c5e0:	00008067          	ret
    c5e4:	ff010113          	add	sp,sp,-16
    c5e8:	00812623          	sw	s0,12(sp)
    c5ec:	02000413          	li	s0,32
    c5f0:	0005a383          	lw	t2,0(a1)
    c5f4:	0045a283          	lw	t0,4(a1)
    c5f8:	0085af83          	lw	t6,8(a1)
    c5fc:	00c5af03          	lw	t5,12(a1)
    c600:	0105ae83          	lw	t4,16(a1)
    c604:	0145ae03          	lw	t3,20(a1)
    c608:	0185a303          	lw	t1,24(a1)
    c60c:	01c5a803          	lw	a6,28(a1)
    c610:	0205a683          	lw	a3,32(a1)
    c614:	02470713          	add	a4,a4,36
    c618:	40e607b3          	sub	a5,a2,a4
    c61c:	fc772e23          	sw	t2,-36(a4)
    c620:	fe572023          	sw	t0,-32(a4)
    c624:	fff72223          	sw	t6,-28(a4)
    c628:	ffe72423          	sw	t5,-24(a4)
    c62c:	ffd72623          	sw	t4,-20(a4)
    c630:	ffc72823          	sw	t3,-16(a4)
    c634:	fe672a23          	sw	t1,-12(a4)
    c638:	ff072c23          	sw	a6,-8(a4)
    c63c:	fed72e23          	sw	a3,-4(a4)
    c640:	02458593          	add	a1,a1,36
    c644:	faf446e3          	blt	s0,a5,c5f0 <memcpy+0xd8>
    c648:	00058693          	mv	a3,a1
    c64c:	00070793          	mv	a5,a4
    c650:	02c77863          	bgeu	a4,a2,c680 <memcpy+0x168>
    c654:	0006a803          	lw	a6,0(a3)
    c658:	00478793          	add	a5,a5,4
    c65c:	00468693          	add	a3,a3,4
    c660:	ff07ae23          	sw	a6,-4(a5)
    c664:	fec7e8e3          	bltu	a5,a2,c654 <memcpy+0x13c>
    c668:	fff60793          	add	a5,a2,-1
    c66c:	40e787b3          	sub	a5,a5,a4
    c670:	ffc7f793          	and	a5,a5,-4
    c674:	00478793          	add	a5,a5,4
    c678:	00f70733          	add	a4,a4,a5
    c67c:	00f585b3          	add	a1,a1,a5
    c680:	01176863          	bltu	a4,a7,c690 <memcpy+0x178>
    c684:	00c12403          	lw	s0,12(sp)
    c688:	01010113          	add	sp,sp,16
    c68c:	00008067          	ret
    c690:	0005c783          	lbu	a5,0(a1)
    c694:	00170713          	add	a4,a4,1
    c698:	00158593          	add	a1,a1,1
    c69c:	fef70fa3          	sb	a5,-1(a4)
    c6a0:	fee882e3          	beq	a7,a4,c684 <memcpy+0x16c>
    c6a4:	0005c783          	lbu	a5,0(a1)
    c6a8:	00170713          	add	a4,a4,1
    c6ac:	00158593          	add	a1,a1,1
    c6b0:	fef70fa3          	sb	a5,-1(a4)
    c6b4:	fce89ee3          	bne	a7,a4,c690 <memcpy+0x178>
    c6b8:	fcdff06f          	j	c684 <memcpy+0x16c>

0000c6bc <memmove>:
    c6bc:	02a5f663          	bgeu	a1,a0,c6e8 <memmove+0x2c>
    c6c0:	00c58733          	add	a4,a1,a2
    c6c4:	02e57263          	bgeu	a0,a4,c6e8 <memmove+0x2c>
    c6c8:	00c507b3          	add	a5,a0,a2
    c6cc:	04060663          	beqz	a2,c718 <memmove+0x5c>
    c6d0:	fff74683          	lbu	a3,-1(a4)
    c6d4:	fff78793          	add	a5,a5,-1
    c6d8:	fff70713          	add	a4,a4,-1
    c6dc:	00d78023          	sb	a3,0(a5)
    c6e0:	fef518e3          	bne	a0,a5,c6d0 <memmove+0x14>
    c6e4:	00008067          	ret
    c6e8:	00f00793          	li	a5,15
    c6ec:	02c7e863          	bltu	a5,a2,c71c <memmove+0x60>
    c6f0:	00050793          	mv	a5,a0
    c6f4:	fff60693          	add	a3,a2,-1
    c6f8:	0c060a63          	beqz	a2,c7cc <memmove+0x110>
    c6fc:	00168693          	add	a3,a3,1
    c700:	00d786b3          	add	a3,a5,a3
    c704:	0005c703          	lbu	a4,0(a1)
    c708:	00178793          	add	a5,a5,1
    c70c:	00158593          	add	a1,a1,1
    c710:	fee78fa3          	sb	a4,-1(a5)
    c714:	fed798e3          	bne	a5,a3,c704 <memmove+0x48>
    c718:	00008067          	ret
    c71c:	00b567b3          	or	a5,a0,a1
    c720:	0037f793          	and	a5,a5,3
    c724:	08079e63          	bnez	a5,c7c0 <memmove+0x104>
    c728:	ff060893          	add	a7,a2,-16
    c72c:	ff08f893          	and	a7,a7,-16
    c730:	01088893          	add	a7,a7,16
    c734:	011507b3          	add	a5,a0,a7
    c738:	00058693          	mv	a3,a1
    c73c:	00050713          	mv	a4,a0
    c740:	0006a803          	lw	a6,0(a3)
    c744:	01068693          	add	a3,a3,16
    c748:	01070713          	add	a4,a4,16
    c74c:	ff072823          	sw	a6,-16(a4)
    c750:	ff46a803          	lw	a6,-12(a3)
    c754:	ff072a23          	sw	a6,-12(a4)
    c758:	ff86a803          	lw	a6,-8(a3)
    c75c:	ff072c23          	sw	a6,-8(a4)
    c760:	ffc6a803          	lw	a6,-4(a3)
    c764:	ff072e23          	sw	a6,-4(a4)
    c768:	fcf71ce3          	bne	a4,a5,c740 <memmove+0x84>
    c76c:	00c67713          	and	a4,a2,12
    c770:	011585b3          	add	a1,a1,a7
    c774:	00f67813          	and	a6,a2,15
    c778:	04070c63          	beqz	a4,c7d0 <memmove+0x114>
    c77c:	00058693          	mv	a3,a1
    c780:	00078713          	mv	a4,a5
    c784:	01078eb3          	add	t4,a5,a6
    c788:	00300e13          	li	t3,3
    c78c:	0006a303          	lw	t1,0(a3)
    c790:	00470713          	add	a4,a4,4
    c794:	40ee88b3          	sub	a7,t4,a4
    c798:	fe672e23          	sw	t1,-4(a4)
    c79c:	00468693          	add	a3,a3,4
    c7a0:	ff1e66e3          	bltu	t3,a7,c78c <memmove+0xd0>
    c7a4:	ffc80713          	add	a4,a6,-4
    c7a8:	ffc77713          	and	a4,a4,-4
    c7ac:	00470713          	add	a4,a4,4
    c7b0:	00367613          	and	a2,a2,3
    c7b4:	00e787b3          	add	a5,a5,a4
    c7b8:	00e585b3          	add	a1,a1,a4
    c7bc:	f39ff06f          	j	c6f4 <memmove+0x38>
    c7c0:	fff60693          	add	a3,a2,-1
    c7c4:	00050793          	mv	a5,a0
    c7c8:	f35ff06f          	j	c6fc <memmove+0x40>
    c7cc:	00008067          	ret
    c7d0:	00080613          	mv	a2,a6
    c7d4:	f21ff06f          	j	c6f4 <memmove+0x38>

0000c7d8 <_Balloc>:
    c7d8:	04c52783          	lw	a5,76(a0)
    c7dc:	ff010113          	add	sp,sp,-16
    c7e0:	00812423          	sw	s0,8(sp)
    c7e4:	00912223          	sw	s1,4(sp)
    c7e8:	00112623          	sw	ra,12(sp)
    c7ec:	01212023          	sw	s2,0(sp)
    c7f0:	00050413          	mv	s0,a0
    c7f4:	00058493          	mv	s1,a1
    c7f8:	02078e63          	beqz	a5,c834 <_Balloc+0x5c>
    c7fc:	00249713          	sll	a4,s1,0x2
    c800:	00e787b3          	add	a5,a5,a4
    c804:	0007a503          	lw	a0,0(a5)
    c808:	04050663          	beqz	a0,c854 <_Balloc+0x7c>
    c80c:	00052703          	lw	a4,0(a0)
    c810:	00e7a023          	sw	a4,0(a5)
    c814:	00052823          	sw	zero,16(a0)
    c818:	00052623          	sw	zero,12(a0)
    c81c:	00c12083          	lw	ra,12(sp)
    c820:	00812403          	lw	s0,8(sp)
    c824:	00412483          	lw	s1,4(sp)
    c828:	00012903          	lw	s2,0(sp)
    c82c:	01010113          	add	sp,sp,16
    c830:	00008067          	ret
    c834:	02100613          	li	a2,33
    c838:	00400593          	li	a1,4
    c83c:	785050ef          	jal	127c0 <_calloc_r>
    c840:	04a42623          	sw	a0,76(s0)
    c844:	00050793          	mv	a5,a0
    c848:	fa051ae3          	bnez	a0,c7fc <_Balloc+0x24>
    c84c:	00000513          	li	a0,0
    c850:	fcdff06f          	j	c81c <_Balloc+0x44>
    c854:	00100913          	li	s2,1
    c858:	00991933          	sll	s2,s2,s1
    c85c:	00590613          	add	a2,s2,5
    c860:	00261613          	sll	a2,a2,0x2
    c864:	00100593          	li	a1,1
    c868:	00040513          	mv	a0,s0
    c86c:	755050ef          	jal	127c0 <_calloc_r>
    c870:	fc050ee3          	beqz	a0,c84c <_Balloc+0x74>
    c874:	00952223          	sw	s1,4(a0)
    c878:	01252423          	sw	s2,8(a0)
    c87c:	f99ff06f          	j	c814 <_Balloc+0x3c>

0000c880 <_Bfree>:
    c880:	02058063          	beqz	a1,c8a0 <_Bfree+0x20>
    c884:	0045a703          	lw	a4,4(a1)
    c888:	04c52783          	lw	a5,76(a0)
    c88c:	00271713          	sll	a4,a4,0x2
    c890:	00e787b3          	add	a5,a5,a4
    c894:	0007a703          	lw	a4,0(a5)
    c898:	00e5a023          	sw	a4,0(a1)
    c89c:	00b7a023          	sw	a1,0(a5)
    c8a0:	00008067          	ret

0000c8a4 <__multadd>:
    c8a4:	fe010113          	add	sp,sp,-32
    c8a8:	00912a23          	sw	s1,20(sp)
    c8ac:	0105a483          	lw	s1,16(a1)
    c8b0:	00010337          	lui	t1,0x10
    c8b4:	00812c23          	sw	s0,24(sp)
    c8b8:	01212823          	sw	s2,16(sp)
    c8bc:	01312623          	sw	s3,12(sp)
    c8c0:	00112e23          	sw	ra,28(sp)
    c8c4:	01412423          	sw	s4,8(sp)
    c8c8:	00058913          	mv	s2,a1
    c8cc:	00050993          	mv	s3,a0
    c8d0:	00068413          	mv	s0,a3
    c8d4:	01458813          	add	a6,a1,20
    c8d8:	00000893          	li	a7,0
    c8dc:	fff30313          	add	t1,t1,-1 # ffff <_svfprintf_r+0x198f>
    c8e0:	00082783          	lw	a5,0(a6)
    c8e4:	00480813          	add	a6,a6,4
    c8e8:	00188893          	add	a7,a7,1
    c8ec:	0067f733          	and	a4,a5,t1
    c8f0:	02c70733          	mul	a4,a4,a2
    c8f4:	0107d693          	srl	a3,a5,0x10
    c8f8:	02c686b3          	mul	a3,a3,a2
    c8fc:	008707b3          	add	a5,a4,s0
    c900:	0107d713          	srl	a4,a5,0x10
    c904:	0067f7b3          	and	a5,a5,t1
    c908:	00e686b3          	add	a3,a3,a4
    c90c:	01069713          	sll	a4,a3,0x10
    c910:	00f707b3          	add	a5,a4,a5
    c914:	fef82e23          	sw	a5,-4(a6)
    c918:	0106d413          	srl	s0,a3,0x10
    c91c:	fc98c2e3          	blt	a7,s1,c8e0 <__multadd+0x3c>
    c920:	02040263          	beqz	s0,c944 <__multadd+0xa0>
    c924:	00892783          	lw	a5,8(s2)
    c928:	04f4d063          	bge	s1,a5,c968 <__multadd+0xc4>
    c92c:	00448793          	add	a5,s1,4
    c930:	00279793          	sll	a5,a5,0x2
    c934:	00f907b3          	add	a5,s2,a5
    c938:	0087a223          	sw	s0,4(a5)
    c93c:	00148493          	add	s1,s1,1
    c940:	00992823          	sw	s1,16(s2)
    c944:	01c12083          	lw	ra,28(sp)
    c948:	01812403          	lw	s0,24(sp)
    c94c:	01412483          	lw	s1,20(sp)
    c950:	00c12983          	lw	s3,12(sp)
    c954:	00812a03          	lw	s4,8(sp)
    c958:	00090513          	mv	a0,s2
    c95c:	01012903          	lw	s2,16(sp)
    c960:	02010113          	add	sp,sp,32
    c964:	00008067          	ret
    c968:	00492583          	lw	a1,4(s2)
    c96c:	00098513          	mv	a0,s3
    c970:	00158593          	add	a1,a1,1
    c974:	e65ff0ef          	jal	c7d8 <_Balloc>
    c978:	00050a13          	mv	s4,a0
    c97c:	04050c63          	beqz	a0,c9d4 <__multadd+0x130>
    c980:	01092603          	lw	a2,16(s2)
    c984:	00c90593          	add	a1,s2,12
    c988:	00c50513          	add	a0,a0,12
    c98c:	00260613          	add	a2,a2,2
    c990:	00261613          	sll	a2,a2,0x2
    c994:	b85ff0ef          	jal	c518 <memcpy>
    c998:	00492703          	lw	a4,4(s2)
    c99c:	04c9a783          	lw	a5,76(s3)
    c9a0:	00271713          	sll	a4,a4,0x2
    c9a4:	00e787b3          	add	a5,a5,a4
    c9a8:	0007a703          	lw	a4,0(a5)
    c9ac:	00e92023          	sw	a4,0(s2)
    c9b0:	0127a023          	sw	s2,0(a5)
    c9b4:	00448793          	add	a5,s1,4
    c9b8:	000a0913          	mv	s2,s4
    c9bc:	00279793          	sll	a5,a5,0x2
    c9c0:	00f907b3          	add	a5,s2,a5
    c9c4:	0087a223          	sw	s0,4(a5)
    c9c8:	00148493          	add	s1,s1,1
    c9cc:	00992823          	sw	s1,16(s2)
    c9d0:	f75ff06f          	j	c944 <__multadd+0xa0>
    c9d4:	000156b7          	lui	a3,0x15
    c9d8:	00015537          	lui	a0,0x15
    c9dc:	18868693          	add	a3,a3,392 # 15188 <blanks.1+0x30>
    c9e0:	00000613          	li	a2,0
    c9e4:	0b500593          	li	a1,181
    c9e8:	44450513          	add	a0,a0,1092 # 15444 <ezero+0x14>
    c9ec:	56d050ef          	jal	12758 <__assert_func>

0000c9f0 <__s2b>:
    c9f0:	fe010113          	add	sp,sp,-32
    c9f4:	00812c23          	sw	s0,24(sp)
    c9f8:	00912a23          	sw	s1,20(sp)
    c9fc:	01212823          	sw	s2,16(sp)
    ca00:	01312623          	sw	s3,12(sp)
    ca04:	01412423          	sw	s4,8(sp)
    ca08:	00068993          	mv	s3,a3
    ca0c:	00900793          	li	a5,9
    ca10:	00868693          	add	a3,a3,8
    ca14:	00112e23          	sw	ra,28(sp)
    ca18:	01512223          	sw	s5,4(sp)
    ca1c:	02f6c6b3          	div	a3,a3,a5
    ca20:	00050913          	mv	s2,a0
    ca24:	00058413          	mv	s0,a1
    ca28:	00060a13          	mv	s4,a2
    ca2c:	00070493          	mv	s1,a4
    ca30:	0d37d863          	bge	a5,s3,cb00 <__s2b+0x110>
    ca34:	00100793          	li	a5,1
    ca38:	00000593          	li	a1,0
    ca3c:	00179793          	sll	a5,a5,0x1
    ca40:	00158593          	add	a1,a1,1
    ca44:	fed7cce3          	blt	a5,a3,ca3c <__s2b+0x4c>
    ca48:	00090513          	mv	a0,s2
    ca4c:	d8dff0ef          	jal	c7d8 <_Balloc>
    ca50:	00050593          	mv	a1,a0
    ca54:	0a050a63          	beqz	a0,cb08 <__s2b+0x118>
    ca58:	00100793          	li	a5,1
    ca5c:	00f52823          	sw	a5,16(a0)
    ca60:	00952a23          	sw	s1,20(a0)
    ca64:	00900793          	li	a5,9
    ca68:	0947d663          	bge	a5,s4,caf4 <__s2b+0x104>
    ca6c:	00940a93          	add	s5,s0,9
    ca70:	000a8493          	mv	s1,s5
    ca74:	01440433          	add	s0,s0,s4
    ca78:	0004c683          	lbu	a3,0(s1)
    ca7c:	00a00613          	li	a2,10
    ca80:	00090513          	mv	a0,s2
    ca84:	fd068693          	add	a3,a3,-48
    ca88:	e1dff0ef          	jal	c8a4 <__multadd>
    ca8c:	00148493          	add	s1,s1,1
    ca90:	00050593          	mv	a1,a0
    ca94:	fe8492e3          	bne	s1,s0,ca78 <__s2b+0x88>
    ca98:	ff8a0413          	add	s0,s4,-8
    ca9c:	008a8433          	add	s0,s5,s0
    caa0:	033a5663          	bge	s4,s3,cacc <__s2b+0xdc>
    caa4:	414989b3          	sub	s3,s3,s4
    caa8:	013409b3          	add	s3,s0,s3
    caac:	00044683          	lbu	a3,0(s0)
    cab0:	00a00613          	li	a2,10
    cab4:	00090513          	mv	a0,s2
    cab8:	fd068693          	add	a3,a3,-48
    cabc:	de9ff0ef          	jal	c8a4 <__multadd>
    cac0:	00140413          	add	s0,s0,1
    cac4:	00050593          	mv	a1,a0
    cac8:	fe8992e3          	bne	s3,s0,caac <__s2b+0xbc>
    cacc:	01c12083          	lw	ra,28(sp)
    cad0:	01812403          	lw	s0,24(sp)
    cad4:	01412483          	lw	s1,20(sp)
    cad8:	01012903          	lw	s2,16(sp)
    cadc:	00c12983          	lw	s3,12(sp)
    cae0:	00812a03          	lw	s4,8(sp)
    cae4:	00412a83          	lw	s5,4(sp)
    cae8:	00058513          	mv	a0,a1
    caec:	02010113          	add	sp,sp,32
    caf0:	00008067          	ret
    caf4:	00a40413          	add	s0,s0,10
    caf8:	00900a13          	li	s4,9
    cafc:	fa5ff06f          	j	caa0 <__s2b+0xb0>
    cb00:	00000593          	li	a1,0
    cb04:	f45ff06f          	j	ca48 <__s2b+0x58>
    cb08:	000156b7          	lui	a3,0x15
    cb0c:	00015537          	lui	a0,0x15
    cb10:	18868693          	add	a3,a3,392 # 15188 <blanks.1+0x30>
    cb14:	00000613          	li	a2,0
    cb18:	0ce00593          	li	a1,206
    cb1c:	44450513          	add	a0,a0,1092 # 15444 <ezero+0x14>
    cb20:	439050ef          	jal	12758 <__assert_func>

0000cb24 <__hi0bits>:
    cb24:	00050793          	mv	a5,a0
    cb28:	00010737          	lui	a4,0x10
    cb2c:	00000513          	li	a0,0
    cb30:	00e7f663          	bgeu	a5,a4,cb3c <__hi0bits+0x18>
    cb34:	01079793          	sll	a5,a5,0x10
    cb38:	01000513          	li	a0,16
    cb3c:	01000737          	lui	a4,0x1000
    cb40:	00e7f663          	bgeu	a5,a4,cb4c <__hi0bits+0x28>
    cb44:	00850513          	add	a0,a0,8
    cb48:	00879793          	sll	a5,a5,0x8
    cb4c:	10000737          	lui	a4,0x10000
    cb50:	00e7f663          	bgeu	a5,a4,cb5c <__hi0bits+0x38>
    cb54:	00450513          	add	a0,a0,4
    cb58:	00479793          	sll	a5,a5,0x4
    cb5c:	40000737          	lui	a4,0x40000
    cb60:	00e7ea63          	bltu	a5,a4,cb74 <__hi0bits+0x50>
    cb64:	fff7c793          	not	a5,a5
    cb68:	01f7d793          	srl	a5,a5,0x1f
    cb6c:	00f50533          	add	a0,a0,a5
    cb70:	00008067          	ret
    cb74:	00279793          	sll	a5,a5,0x2
    cb78:	0007ca63          	bltz	a5,cb8c <__hi0bits+0x68>
    cb7c:	00e7f7b3          	and	a5,a5,a4
    cb80:	00079a63          	bnez	a5,cb94 <__hi0bits+0x70>
    cb84:	02000513          	li	a0,32
    cb88:	00008067          	ret
    cb8c:	00250513          	add	a0,a0,2
    cb90:	00008067          	ret
    cb94:	00350513          	add	a0,a0,3
    cb98:	00008067          	ret

0000cb9c <__lo0bits>:
    cb9c:	00052783          	lw	a5,0(a0)
    cba0:	00050713          	mv	a4,a0
    cba4:	0077f693          	and	a3,a5,7
    cba8:	02068463          	beqz	a3,cbd0 <__lo0bits+0x34>
    cbac:	0017f693          	and	a3,a5,1
    cbb0:	00000513          	li	a0,0
    cbb4:	04069e63          	bnez	a3,cc10 <__lo0bits+0x74>
    cbb8:	0027f693          	and	a3,a5,2
    cbbc:	0a068863          	beqz	a3,cc6c <__lo0bits+0xd0>
    cbc0:	0017d793          	srl	a5,a5,0x1
    cbc4:	00f72023          	sw	a5,0(a4) # 40000000 <_end+0x3ffe6030>
    cbc8:	00100513          	li	a0,1
    cbcc:	00008067          	ret
    cbd0:	01079693          	sll	a3,a5,0x10
    cbd4:	0106d693          	srl	a3,a3,0x10
    cbd8:	00000513          	li	a0,0
    cbdc:	06068e63          	beqz	a3,cc58 <__lo0bits+0xbc>
    cbe0:	0ff7f693          	zext.b	a3,a5
    cbe4:	06068063          	beqz	a3,cc44 <__lo0bits+0xa8>
    cbe8:	00f7f693          	and	a3,a5,15
    cbec:	04068263          	beqz	a3,cc30 <__lo0bits+0x94>
    cbf0:	0037f693          	and	a3,a5,3
    cbf4:	02068463          	beqz	a3,cc1c <__lo0bits+0x80>
    cbf8:	0017f693          	and	a3,a5,1
    cbfc:	00069c63          	bnez	a3,cc14 <__lo0bits+0x78>
    cc00:	0017d793          	srl	a5,a5,0x1
    cc04:	00150513          	add	a0,a0,1
    cc08:	00079663          	bnez	a5,cc14 <__lo0bits+0x78>
    cc0c:	02000513          	li	a0,32
    cc10:	00008067          	ret
    cc14:	00f72023          	sw	a5,0(a4)
    cc18:	00008067          	ret
    cc1c:	0027d793          	srl	a5,a5,0x2
    cc20:	0017f693          	and	a3,a5,1
    cc24:	00250513          	add	a0,a0,2
    cc28:	fe0696e3          	bnez	a3,cc14 <__lo0bits+0x78>
    cc2c:	fd5ff06f          	j	cc00 <__lo0bits+0x64>
    cc30:	0047d793          	srl	a5,a5,0x4
    cc34:	0037f693          	and	a3,a5,3
    cc38:	00450513          	add	a0,a0,4
    cc3c:	fa069ee3          	bnez	a3,cbf8 <__lo0bits+0x5c>
    cc40:	fddff06f          	j	cc1c <__lo0bits+0x80>
    cc44:	0087d793          	srl	a5,a5,0x8
    cc48:	00f7f693          	and	a3,a5,15
    cc4c:	00850513          	add	a0,a0,8
    cc50:	fa0690e3          	bnez	a3,cbf0 <__lo0bits+0x54>
    cc54:	fddff06f          	j	cc30 <__lo0bits+0x94>
    cc58:	0107d793          	srl	a5,a5,0x10
    cc5c:	0ff7f693          	zext.b	a3,a5
    cc60:	01000513          	li	a0,16
    cc64:	f80692e3          	bnez	a3,cbe8 <__lo0bits+0x4c>
    cc68:	fddff06f          	j	cc44 <__lo0bits+0xa8>
    cc6c:	0027d793          	srl	a5,a5,0x2
    cc70:	00f72023          	sw	a5,0(a4)
    cc74:	00200513          	li	a0,2
    cc78:	00008067          	ret

0000cc7c <__i2b>:
    cc7c:	04c52783          	lw	a5,76(a0)
    cc80:	ff010113          	add	sp,sp,-16
    cc84:	00812423          	sw	s0,8(sp)
    cc88:	00912223          	sw	s1,4(sp)
    cc8c:	00112623          	sw	ra,12(sp)
    cc90:	00050413          	mv	s0,a0
    cc94:	00058493          	mv	s1,a1
    cc98:	02078c63          	beqz	a5,ccd0 <__i2b+0x54>
    cc9c:	0047a503          	lw	a0,4(a5)
    cca0:	06050263          	beqz	a0,cd04 <__i2b+0x88>
    cca4:	00052703          	lw	a4,0(a0)
    cca8:	00e7a223          	sw	a4,4(a5)
    ccac:	00c12083          	lw	ra,12(sp)
    ccb0:	00812403          	lw	s0,8(sp)
    ccb4:	00100793          	li	a5,1
    ccb8:	00952a23          	sw	s1,20(a0)
    ccbc:	00052623          	sw	zero,12(a0)
    ccc0:	00f52823          	sw	a5,16(a0)
    ccc4:	00412483          	lw	s1,4(sp)
    ccc8:	01010113          	add	sp,sp,16
    cccc:	00008067          	ret
    ccd0:	02100613          	li	a2,33
    ccd4:	00400593          	li	a1,4
    ccd8:	2e9050ef          	jal	127c0 <_calloc_r>
    ccdc:	04a42623          	sw	a0,76(s0)
    cce0:	00050793          	mv	a5,a0
    cce4:	fa051ce3          	bnez	a0,cc9c <__i2b+0x20>
    cce8:	000156b7          	lui	a3,0x15
    ccec:	00015537          	lui	a0,0x15
    ccf0:	18868693          	add	a3,a3,392 # 15188 <blanks.1+0x30>
    ccf4:	00000613          	li	a2,0
    ccf8:	14000593          	li	a1,320
    ccfc:	44450513          	add	a0,a0,1092 # 15444 <ezero+0x14>
    cd00:	259050ef          	jal	12758 <__assert_func>
    cd04:	01c00613          	li	a2,28
    cd08:	00100593          	li	a1,1
    cd0c:	00040513          	mv	a0,s0
    cd10:	2b1050ef          	jal	127c0 <_calloc_r>
    cd14:	fc050ae3          	beqz	a0,cce8 <__i2b+0x6c>
    cd18:	00100793          	li	a5,1
    cd1c:	00f52223          	sw	a5,4(a0)
    cd20:	00200793          	li	a5,2
    cd24:	00f52423          	sw	a5,8(a0)
    cd28:	f85ff06f          	j	ccac <__i2b+0x30>

0000cd2c <__multiply>:
    cd2c:	fe010113          	add	sp,sp,-32
    cd30:	01212823          	sw	s2,16(sp)
    cd34:	01312623          	sw	s3,12(sp)
    cd38:	0105a903          	lw	s2,16(a1)
    cd3c:	01062983          	lw	s3,16(a2)
    cd40:	00912a23          	sw	s1,20(sp)
    cd44:	01412423          	sw	s4,8(sp)
    cd48:	00112e23          	sw	ra,28(sp)
    cd4c:	00812c23          	sw	s0,24(sp)
    cd50:	00058a13          	mv	s4,a1
    cd54:	00060493          	mv	s1,a2
    cd58:	01394c63          	blt	s2,s3,cd70 <__multiply+0x44>
    cd5c:	00098713          	mv	a4,s3
    cd60:	00058493          	mv	s1,a1
    cd64:	00090993          	mv	s3,s2
    cd68:	00060a13          	mv	s4,a2
    cd6c:	00070913          	mv	s2,a4
    cd70:	0084a783          	lw	a5,8(s1)
    cd74:	0044a583          	lw	a1,4(s1)
    cd78:	01298433          	add	s0,s3,s2
    cd7c:	0087a7b3          	slt	a5,a5,s0
    cd80:	00f585b3          	add	a1,a1,a5
    cd84:	a55ff0ef          	jal	c7d8 <_Balloc>
    cd88:	1a050e63          	beqz	a0,cf44 <__multiply+0x218>
    cd8c:	01450313          	add	t1,a0,20
    cd90:	00241893          	sll	a7,s0,0x2
    cd94:	011308b3          	add	a7,t1,a7
    cd98:	00030793          	mv	a5,t1
    cd9c:	01137863          	bgeu	t1,a7,cdac <__multiply+0x80>
    cda0:	0007a023          	sw	zero,0(a5)
    cda4:	00478793          	add	a5,a5,4
    cda8:	ff17ece3          	bltu	a5,a7,cda0 <__multiply+0x74>
    cdac:	014a0813          	add	a6,s4,20
    cdb0:	00291e13          	sll	t3,s2,0x2
    cdb4:	01448e93          	add	t4,s1,20
    cdb8:	00299593          	sll	a1,s3,0x2
    cdbc:	01c80e33          	add	t3,a6,t3
    cdc0:	00be85b3          	add	a1,t4,a1
    cdc4:	13c87663          	bgeu	a6,t3,cef0 <__multiply+0x1c4>
    cdc8:	01548793          	add	a5,s1,21
    cdcc:	00400f13          	li	t5,4
    cdd0:	16f5f063          	bgeu	a1,a5,cf30 <__multiply+0x204>
    cdd4:	000106b7          	lui	a3,0x10
    cdd8:	fff68693          	add	a3,a3,-1 # ffff <_svfprintf_r+0x198f>
    cddc:	0180006f          	j	cdf4 <__multiply+0xc8>
    cde0:	010fdf93          	srl	t6,t6,0x10
    cde4:	080f9863          	bnez	t6,ce74 <__multiply+0x148>
    cde8:	00480813          	add	a6,a6,4
    cdec:	00430313          	add	t1,t1,4
    cdf0:	11c87063          	bgeu	a6,t3,cef0 <__multiply+0x1c4>
    cdf4:	00082f83          	lw	t6,0(a6)
    cdf8:	00dff3b3          	and	t2,t6,a3
    cdfc:	fe0382e3          	beqz	t2,cde0 <__multiply+0xb4>
    ce00:	00030293          	mv	t0,t1
    ce04:	000e8f93          	mv	t6,t4
    ce08:	00000493          	li	s1,0
    ce0c:	000fa783          	lw	a5,0(t6)
    ce10:	0002a603          	lw	a2,0(t0)
    ce14:	00428293          	add	t0,t0,4
    ce18:	00d7f733          	and	a4,a5,a3
    ce1c:	02770733          	mul	a4,a4,t2
    ce20:	0107d793          	srl	a5,a5,0x10
    ce24:	00d67933          	and	s2,a2,a3
    ce28:	01065613          	srl	a2,a2,0x10
    ce2c:	004f8f93          	add	t6,t6,4
    ce30:	027787b3          	mul	a5,a5,t2
    ce34:	01270733          	add	a4,a4,s2
    ce38:	00970733          	add	a4,a4,s1
    ce3c:	01075493          	srl	s1,a4,0x10
    ce40:	00d77733          	and	a4,a4,a3
    ce44:	00c787b3          	add	a5,a5,a2
    ce48:	009787b3          	add	a5,a5,s1
    ce4c:	01079613          	sll	a2,a5,0x10
    ce50:	00e66733          	or	a4,a2,a4
    ce54:	fee2ae23          	sw	a4,-4(t0)
    ce58:	0107d493          	srl	s1,a5,0x10
    ce5c:	fabfe8e3          	bltu	t6,a1,ce0c <__multiply+0xe0>
    ce60:	01e307b3          	add	a5,t1,t5
    ce64:	0097a023          	sw	s1,0(a5)
    ce68:	00082f83          	lw	t6,0(a6)
    ce6c:	010fdf93          	srl	t6,t6,0x10
    ce70:	f60f8ce3          	beqz	t6,cde8 <__multiply+0xbc>
    ce74:	00032703          	lw	a4,0(t1)
    ce78:	00030293          	mv	t0,t1
    ce7c:	000e8613          	mv	a2,t4
    ce80:	00070493          	mv	s1,a4
    ce84:	00000393          	li	t2,0
    ce88:	00062783          	lw	a5,0(a2)
    ce8c:	0104d993          	srl	s3,s1,0x10
    ce90:	00d77733          	and	a4,a4,a3
    ce94:	00d7f7b3          	and	a5,a5,a3
    ce98:	03f787b3          	mul	a5,a5,t6
    ce9c:	0042a483          	lw	s1,4(t0)
    cea0:	00428293          	add	t0,t0,4
    cea4:	00460613          	add	a2,a2,4
    cea8:	00d4f933          	and	s2,s1,a3
    ceac:	007787b3          	add	a5,a5,t2
    ceb0:	013787b3          	add	a5,a5,s3
    ceb4:	01079393          	sll	t2,a5,0x10
    ceb8:	00e3e733          	or	a4,t2,a4
    cebc:	fee2ae23          	sw	a4,-4(t0)
    cec0:	ffe65703          	lhu	a4,-2(a2)
    cec4:	0107d793          	srl	a5,a5,0x10
    cec8:	03f70733          	mul	a4,a4,t6
    cecc:	01270733          	add	a4,a4,s2
    ced0:	00f70733          	add	a4,a4,a5
    ced4:	01075393          	srl	t2,a4,0x10
    ced8:	fab668e3          	bltu	a2,a1,ce88 <__multiply+0x15c>
    cedc:	01e307b3          	add	a5,t1,t5
    cee0:	00e7a023          	sw	a4,0(a5)
    cee4:	00480813          	add	a6,a6,4
    cee8:	00430313          	add	t1,t1,4
    ceec:	f1c864e3          	bltu	a6,t3,cdf4 <__multiply+0xc8>
    cef0:	00804863          	bgtz	s0,cf00 <__multiply+0x1d4>
    cef4:	0180006f          	j	cf0c <__multiply+0x1e0>
    cef8:	fff40413          	add	s0,s0,-1
    cefc:	00040863          	beqz	s0,cf0c <__multiply+0x1e0>
    cf00:	ffc8a783          	lw	a5,-4(a7)
    cf04:	ffc88893          	add	a7,a7,-4
    cf08:	fe0788e3          	beqz	a5,cef8 <__multiply+0x1cc>
    cf0c:	01c12083          	lw	ra,28(sp)
    cf10:	00852823          	sw	s0,16(a0)
    cf14:	01812403          	lw	s0,24(sp)
    cf18:	01412483          	lw	s1,20(sp)
    cf1c:	01012903          	lw	s2,16(sp)
    cf20:	00c12983          	lw	s3,12(sp)
    cf24:	00812a03          	lw	s4,8(sp)
    cf28:	02010113          	add	sp,sp,32
    cf2c:	00008067          	ret
    cf30:	409587b3          	sub	a5,a1,s1
    cf34:	feb78793          	add	a5,a5,-21
    cf38:	ffc7f793          	and	a5,a5,-4
    cf3c:	00478f13          	add	t5,a5,4
    cf40:	e95ff06f          	j	cdd4 <__multiply+0xa8>
    cf44:	000156b7          	lui	a3,0x15
    cf48:	00015537          	lui	a0,0x15
    cf4c:	18868693          	add	a3,a3,392 # 15188 <blanks.1+0x30>
    cf50:	00000613          	li	a2,0
    cf54:	15d00593          	li	a1,349
    cf58:	44450513          	add	a0,a0,1092 # 15444 <ezero+0x14>
    cf5c:	7fc050ef          	jal	12758 <__assert_func>

0000cf60 <__pow5mult>:
    cf60:	fe010113          	add	sp,sp,-32
    cf64:	00812c23          	sw	s0,24(sp)
    cf68:	01212823          	sw	s2,16(sp)
    cf6c:	01312623          	sw	s3,12(sp)
    cf70:	00112e23          	sw	ra,28(sp)
    cf74:	00912a23          	sw	s1,20(sp)
    cf78:	00367793          	and	a5,a2,3
    cf7c:	00060413          	mv	s0,a2
    cf80:	00050993          	mv	s3,a0
    cf84:	00058913          	mv	s2,a1
    cf88:	0a079a63          	bnez	a5,d03c <__pow5mult+0xdc>
    cf8c:	40245413          	sra	s0,s0,0x2
    cf90:	06040663          	beqz	s0,cffc <__pow5mult+0x9c>
    cf94:	0489a483          	lw	s1,72(s3)
    cf98:	0c048663          	beqz	s1,d064 <__pow5mult+0x104>
    cf9c:	00147793          	and	a5,s0,1
    cfa0:	02079063          	bnez	a5,cfc0 <__pow5mult+0x60>
    cfa4:	40145413          	sra	s0,s0,0x1
    cfa8:	04040a63          	beqz	s0,cffc <__pow5mult+0x9c>
    cfac:	0004a503          	lw	a0,0(s1)
    cfb0:	06050663          	beqz	a0,d01c <__pow5mult+0xbc>
    cfb4:	00050493          	mv	s1,a0
    cfb8:	00147793          	and	a5,s0,1
    cfbc:	fe0784e3          	beqz	a5,cfa4 <__pow5mult+0x44>
    cfc0:	00048613          	mv	a2,s1
    cfc4:	00090593          	mv	a1,s2
    cfc8:	00098513          	mv	a0,s3
    cfcc:	d61ff0ef          	jal	cd2c <__multiply>
    cfd0:	02090063          	beqz	s2,cff0 <__pow5mult+0x90>
    cfd4:	00492703          	lw	a4,4(s2)
    cfd8:	04c9a783          	lw	a5,76(s3)
    cfdc:	00271713          	sll	a4,a4,0x2
    cfe0:	00e787b3          	add	a5,a5,a4
    cfe4:	0007a703          	lw	a4,0(a5)
    cfe8:	00e92023          	sw	a4,0(s2)
    cfec:	0127a023          	sw	s2,0(a5)
    cff0:	40145413          	sra	s0,s0,0x1
    cff4:	00050913          	mv	s2,a0
    cff8:	fa041ae3          	bnez	s0,cfac <__pow5mult+0x4c>
    cffc:	01c12083          	lw	ra,28(sp)
    d000:	01812403          	lw	s0,24(sp)
    d004:	01412483          	lw	s1,20(sp)
    d008:	00c12983          	lw	s3,12(sp)
    d00c:	00090513          	mv	a0,s2
    d010:	01012903          	lw	s2,16(sp)
    d014:	02010113          	add	sp,sp,32
    d018:	00008067          	ret
    d01c:	00048613          	mv	a2,s1
    d020:	00048593          	mv	a1,s1
    d024:	00098513          	mv	a0,s3
    d028:	d05ff0ef          	jal	cd2c <__multiply>
    d02c:	00a4a023          	sw	a0,0(s1)
    d030:	00052023          	sw	zero,0(a0)
    d034:	00050493          	mv	s1,a0
    d038:	f81ff06f          	j	cfb8 <__pow5mult+0x58>
    d03c:	fff78793          	add	a5,a5,-1
    d040:	00015737          	lui	a4,0x15
    d044:	49070713          	add	a4,a4,1168 # 15490 <p05.0>
    d048:	00279793          	sll	a5,a5,0x2
    d04c:	00f707b3          	add	a5,a4,a5
    d050:	0007a603          	lw	a2,0(a5)
    d054:	00000693          	li	a3,0
    d058:	84dff0ef          	jal	c8a4 <__multadd>
    d05c:	00050913          	mv	s2,a0
    d060:	f2dff06f          	j	cf8c <__pow5mult+0x2c>
    d064:	00100593          	li	a1,1
    d068:	00098513          	mv	a0,s3
    d06c:	f6cff0ef          	jal	c7d8 <_Balloc>
    d070:	00050493          	mv	s1,a0
    d074:	02050063          	beqz	a0,d094 <__pow5mult+0x134>
    d078:	27100793          	li	a5,625
    d07c:	00f52a23          	sw	a5,20(a0)
    d080:	00100793          	li	a5,1
    d084:	00f52823          	sw	a5,16(a0)
    d088:	04a9a423          	sw	a0,72(s3)
    d08c:	00052023          	sw	zero,0(a0)
    d090:	f0dff06f          	j	cf9c <__pow5mult+0x3c>
    d094:	000156b7          	lui	a3,0x15
    d098:	00015537          	lui	a0,0x15
    d09c:	18868693          	add	a3,a3,392 # 15188 <blanks.1+0x30>
    d0a0:	00000613          	li	a2,0
    d0a4:	14000593          	li	a1,320
    d0a8:	44450513          	add	a0,a0,1092 # 15444 <ezero+0x14>
    d0ac:	6ac050ef          	jal	12758 <__assert_func>

0000d0b0 <__lshift>:
    d0b0:	fe010113          	add	sp,sp,-32
    d0b4:	01512223          	sw	s5,4(sp)
    d0b8:	0105aa83          	lw	s5,16(a1)
    d0bc:	0085a783          	lw	a5,8(a1)
    d0c0:	01312623          	sw	s3,12(sp)
    d0c4:	40565993          	sra	s3,a2,0x5
    d0c8:	01598ab3          	add	s5,s3,s5
    d0cc:	00812c23          	sw	s0,24(sp)
    d0d0:	00912a23          	sw	s1,20(sp)
    d0d4:	01212823          	sw	s2,16(sp)
    d0d8:	01412423          	sw	s4,8(sp)
    d0dc:	00112e23          	sw	ra,28(sp)
    d0e0:	001a8913          	add	s2,s5,1
    d0e4:	00058493          	mv	s1,a1
    d0e8:	00060413          	mv	s0,a2
    d0ec:	0045a583          	lw	a1,4(a1)
    d0f0:	00050a13          	mv	s4,a0
    d0f4:	0127d863          	bge	a5,s2,d104 <__lshift+0x54>
    d0f8:	00179793          	sll	a5,a5,0x1
    d0fc:	00158593          	add	a1,a1,1
    d100:	ff27cce3          	blt	a5,s2,d0f8 <__lshift+0x48>
    d104:	000a0513          	mv	a0,s4
    d108:	ed0ff0ef          	jal	c7d8 <_Balloc>
    d10c:	10050c63          	beqz	a0,d224 <__lshift+0x174>
    d110:	01450813          	add	a6,a0,20
    d114:	03305463          	blez	s3,d13c <__lshift+0x8c>
    d118:	00598993          	add	s3,s3,5
    d11c:	00299993          	sll	s3,s3,0x2
    d120:	01350733          	add	a4,a0,s3
    d124:	00080793          	mv	a5,a6
    d128:	00478793          	add	a5,a5,4
    d12c:	fe07ae23          	sw	zero,-4(a5)
    d130:	fee79ce3          	bne	a5,a4,d128 <__lshift+0x78>
    d134:	fec98993          	add	s3,s3,-20
    d138:	01380833          	add	a6,a6,s3
    d13c:	0104a883          	lw	a7,16(s1)
    d140:	01448793          	add	a5,s1,20
    d144:	01f47613          	and	a2,s0,31
    d148:	00289893          	sll	a7,a7,0x2
    d14c:	011788b3          	add	a7,a5,a7
    d150:	0a060463          	beqz	a2,d1f8 <__lshift+0x148>
    d154:	02000593          	li	a1,32
    d158:	40c585b3          	sub	a1,a1,a2
    d15c:	00080313          	mv	t1,a6
    d160:	00000693          	li	a3,0
    d164:	0007a703          	lw	a4,0(a5)
    d168:	00430313          	add	t1,t1,4
    d16c:	00478793          	add	a5,a5,4
    d170:	00c71733          	sll	a4,a4,a2
    d174:	00d76733          	or	a4,a4,a3
    d178:	fee32e23          	sw	a4,-4(t1)
    d17c:	ffc7a683          	lw	a3,-4(a5)
    d180:	00b6d6b3          	srl	a3,a3,a1
    d184:	ff17e0e3          	bltu	a5,a7,d164 <__lshift+0xb4>
    d188:	01548793          	add	a5,s1,21
    d18c:	00400713          	li	a4,4
    d190:	00f8ea63          	bltu	a7,a5,d1a4 <__lshift+0xf4>
    d194:	409887b3          	sub	a5,a7,s1
    d198:	feb78793          	add	a5,a5,-21
    d19c:	ffc7f793          	and	a5,a5,-4
    d1a0:	00478713          	add	a4,a5,4
    d1a4:	00e80833          	add	a6,a6,a4
    d1a8:	00d82023          	sw	a3,0(a6)
    d1ac:	00069463          	bnez	a3,d1b4 <__lshift+0x104>
    d1b0:	000a8913          	mv	s2,s5
    d1b4:	0044a703          	lw	a4,4(s1)
    d1b8:	04ca2783          	lw	a5,76(s4)
    d1bc:	01c12083          	lw	ra,28(sp)
    d1c0:	00271713          	sll	a4,a4,0x2
    d1c4:	00e787b3          	add	a5,a5,a4
    d1c8:	0007a703          	lw	a4,0(a5)
    d1cc:	01252823          	sw	s2,16(a0)
    d1d0:	01812403          	lw	s0,24(sp)
    d1d4:	00e4a023          	sw	a4,0(s1)
    d1d8:	0097a023          	sw	s1,0(a5)
    d1dc:	01012903          	lw	s2,16(sp)
    d1e0:	01412483          	lw	s1,20(sp)
    d1e4:	00c12983          	lw	s3,12(sp)
    d1e8:	00812a03          	lw	s4,8(sp)
    d1ec:	00412a83          	lw	s5,4(sp)
    d1f0:	02010113          	add	sp,sp,32
    d1f4:	00008067          	ret
    d1f8:	0007a703          	lw	a4,0(a5)
    d1fc:	00478793          	add	a5,a5,4
    d200:	00480813          	add	a6,a6,4
    d204:	fee82e23          	sw	a4,-4(a6)
    d208:	fb17f4e3          	bgeu	a5,a7,d1b0 <__lshift+0x100>
    d20c:	0007a703          	lw	a4,0(a5)
    d210:	00478793          	add	a5,a5,4
    d214:	00480813          	add	a6,a6,4
    d218:	fee82e23          	sw	a4,-4(a6)
    d21c:	fd17eee3          	bltu	a5,a7,d1f8 <__lshift+0x148>
    d220:	f91ff06f          	j	d1b0 <__lshift+0x100>
    d224:	000156b7          	lui	a3,0x15
    d228:	00015537          	lui	a0,0x15
    d22c:	18868693          	add	a3,a3,392 # 15188 <blanks.1+0x30>
    d230:	00000613          	li	a2,0
    d234:	1d900593          	li	a1,473
    d238:	44450513          	add	a0,a0,1092 # 15444 <ezero+0x14>
    d23c:	51c050ef          	jal	12758 <__assert_func>

0000d240 <__mcmp>:
    d240:	01052703          	lw	a4,16(a0)
    d244:	0105a783          	lw	a5,16(a1)
    d248:	00050813          	mv	a6,a0
    d24c:	40f70533          	sub	a0,a4,a5
    d250:	04f71263          	bne	a4,a5,d294 <__mcmp+0x54>
    d254:	00279793          	sll	a5,a5,0x2
    d258:	01480813          	add	a6,a6,20
    d25c:	01458593          	add	a1,a1,20
    d260:	00f80733          	add	a4,a6,a5
    d264:	00f587b3          	add	a5,a1,a5
    d268:	0080006f          	j	d270 <__mcmp+0x30>
    d26c:	02e87463          	bgeu	a6,a4,d294 <__mcmp+0x54>
    d270:	ffc72603          	lw	a2,-4(a4)
    d274:	ffc7a683          	lw	a3,-4(a5)
    d278:	ffc70713          	add	a4,a4,-4
    d27c:	ffc78793          	add	a5,a5,-4
    d280:	fed606e3          	beq	a2,a3,d26c <__mcmp+0x2c>
    d284:	00100513          	li	a0,1
    d288:	00d67663          	bgeu	a2,a3,d294 <__mcmp+0x54>
    d28c:	fff00513          	li	a0,-1
    d290:	00008067          	ret
    d294:	00008067          	ret

0000d298 <__mdiff>:
    d298:	0105a703          	lw	a4,16(a1)
    d29c:	01062783          	lw	a5,16(a2)
    d2a0:	ff010113          	add	sp,sp,-16
    d2a4:	00812423          	sw	s0,8(sp)
    d2a8:	00912223          	sw	s1,4(sp)
    d2ac:	01212023          	sw	s2,0(sp)
    d2b0:	00112623          	sw	ra,12(sp)
    d2b4:	00058493          	mv	s1,a1
    d2b8:	00060413          	mv	s0,a2
    d2bc:	40f70933          	sub	s2,a4,a5
    d2c0:	04f71663          	bne	a4,a5,d30c <__mdiff+0x74>
    d2c4:	00279693          	sll	a3,a5,0x2
    d2c8:	01458593          	add	a1,a1,20
    d2cc:	01460713          	add	a4,a2,20
    d2d0:	00d587b3          	add	a5,a1,a3
    d2d4:	00d70733          	add	a4,a4,a3
    d2d8:	0080006f          	j	d2e0 <__mdiff+0x48>
    d2dc:	18f5f463          	bgeu	a1,a5,d464 <__mdiff+0x1cc>
    d2e0:	ffc7a603          	lw	a2,-4(a5)
    d2e4:	ffc72683          	lw	a3,-4(a4)
    d2e8:	ffc78793          	add	a5,a5,-4
    d2ec:	ffc70713          	add	a4,a4,-4
    d2f0:	fed606e3          	beq	a2,a3,d2dc <__mdiff+0x44>
    d2f4:	02d67063          	bgeu	a2,a3,d314 <__mdiff+0x7c>
    d2f8:	00048793          	mv	a5,s1
    d2fc:	00100913          	li	s2,1
    d300:	00040493          	mv	s1,s0
    d304:	00078413          	mv	s0,a5
    d308:	00c0006f          	j	d314 <__mdiff+0x7c>
    d30c:	fe0946e3          	bltz	s2,d2f8 <__mdiff+0x60>
    d310:	00000913          	li	s2,0
    d314:	0044a583          	lw	a1,4(s1)
    d318:	cc0ff0ef          	jal	c7d8 <_Balloc>
    d31c:	1a050863          	beqz	a0,d4cc <__mdiff+0x234>
    d320:	0104a303          	lw	t1,16(s1)
    d324:	01042603          	lw	a2,16(s0)
    d328:	01448293          	add	t0,s1,20
    d32c:	00231e13          	sll	t3,t1,0x2
    d330:	01440813          	add	a6,s0,20
    d334:	00261613          	sll	a2,a2,0x2
    d338:	01450f93          	add	t6,a0,20
    d33c:	000108b7          	lui	a7,0x10
    d340:	01252623          	sw	s2,12(a0)
    d344:	01c28e33          	add	t3,t0,t3
    d348:	00c80633          	add	a2,a6,a2
    d34c:	000f8f13          	mv	t5,t6
    d350:	00028e93          	mv	t4,t0
    d354:	00000693          	li	a3,0
    d358:	fff88893          	add	a7,a7,-1 # ffff <_svfprintf_r+0x198f>
    d35c:	000ea703          	lw	a4,0(t4)
    d360:	00082583          	lw	a1,0(a6)
    d364:	004f0f13          	add	t5,t5,4
    d368:	011777b3          	and	a5,a4,a7
    d36c:	0115f3b3          	and	t2,a1,a7
    d370:	407787b3          	sub	a5,a5,t2
    d374:	00d787b3          	add	a5,a5,a3
    d378:	01075713          	srl	a4,a4,0x10
    d37c:	0105d593          	srl	a1,a1,0x10
    d380:	4107d693          	sra	a3,a5,0x10
    d384:	40b70733          	sub	a4,a4,a1
    d388:	00d70733          	add	a4,a4,a3
    d38c:	01071693          	sll	a3,a4,0x10
    d390:	0117f7b3          	and	a5,a5,a7
    d394:	00d7e7b3          	or	a5,a5,a3
    d398:	00480813          	add	a6,a6,4
    d39c:	feff2e23          	sw	a5,-4(t5)
    d3a0:	004e8e93          	add	t4,t4,4
    d3a4:	41075693          	sra	a3,a4,0x10
    d3a8:	fac86ae3          	bltu	a6,a2,d35c <__mdiff+0xc4>
    d3ac:	40860733          	sub	a4,a2,s0
    d3b0:	feb70713          	add	a4,a4,-21
    d3b4:	01540413          	add	s0,s0,21
    d3b8:	00275f13          	srl	t5,a4,0x2
    d3bc:	00400713          	li	a4,4
    d3c0:	00866663          	bltu	a2,s0,d3cc <__mdiff+0x134>
    d3c4:	001f0713          	add	a4,t5,1
    d3c8:	00271713          	sll	a4,a4,0x2
    d3cc:	00e282b3          	add	t0,t0,a4
    d3d0:	00ef8833          	add	a6,t6,a4
    d3d4:	00010eb7          	lui	t4,0x10
    d3d8:	00080893          	mv	a7,a6
    d3dc:	00028593          	mv	a1,t0
    d3e0:	fffe8e93          	add	t4,t4,-1 # ffff <_svfprintf_r+0x198f>
    d3e4:	0bc2f863          	bgeu	t0,t3,d494 <__mdiff+0x1fc>
    d3e8:	0005a783          	lw	a5,0(a1)
    d3ec:	00488893          	add	a7,a7,4
    d3f0:	00458593          	add	a1,a1,4
    d3f4:	01d7f733          	and	a4,a5,t4
    d3f8:	00d70733          	add	a4,a4,a3
    d3fc:	0107d613          	srl	a2,a5,0x10
    d400:	41075713          	sra	a4,a4,0x10
    d404:	00c70733          	add	a4,a4,a2
    d408:	00d787b3          	add	a5,a5,a3
    d40c:	01d7f7b3          	and	a5,a5,t4
    d410:	01071693          	sll	a3,a4,0x10
    d414:	00d7e7b3          	or	a5,a5,a3
    d418:	fef8ae23          	sw	a5,-4(a7)
    d41c:	41075693          	sra	a3,a4,0x10
    d420:	fdc5e4e3          	bltu	a1,t3,d3e8 <__mdiff+0x150>
    d424:	fffe0e13          	add	t3,t3,-1
    d428:	405e0e33          	sub	t3,t3,t0
    d42c:	ffce7e13          	and	t3,t3,-4
    d430:	01c80733          	add	a4,a6,t3
    d434:	00079a63          	bnez	a5,d448 <__mdiff+0x1b0>
    d438:	ffc72783          	lw	a5,-4(a4)
    d43c:	fff30313          	add	t1,t1,-1
    d440:	ffc70713          	add	a4,a4,-4
    d444:	fe078ae3          	beqz	a5,d438 <__mdiff+0x1a0>
    d448:	00c12083          	lw	ra,12(sp)
    d44c:	00812403          	lw	s0,8(sp)
    d450:	00652823          	sw	t1,16(a0)
    d454:	00412483          	lw	s1,4(sp)
    d458:	00012903          	lw	s2,0(sp)
    d45c:	01010113          	add	sp,sp,16
    d460:	00008067          	ret
    d464:	00000593          	li	a1,0
    d468:	b70ff0ef          	jal	c7d8 <_Balloc>
    d46c:	04050263          	beqz	a0,d4b0 <__mdiff+0x218>
    d470:	00c12083          	lw	ra,12(sp)
    d474:	00812403          	lw	s0,8(sp)
    d478:	00100793          	li	a5,1
    d47c:	00f52823          	sw	a5,16(a0)
    d480:	00052a23          	sw	zero,20(a0)
    d484:	00412483          	lw	s1,4(sp)
    d488:	00012903          	lw	s2,0(sp)
    d48c:	01010113          	add	sp,sp,16
    d490:	00008067          	ret
    d494:	00000713          	li	a4,0
    d498:	00867663          	bgeu	a2,s0,d4a4 <__mdiff+0x20c>
    d49c:	00ef8733          	add	a4,t6,a4
    d4a0:	f95ff06f          	j	d434 <__mdiff+0x19c>
    d4a4:	002f1713          	sll	a4,t5,0x2
    d4a8:	00ef8733          	add	a4,t6,a4
    d4ac:	f89ff06f          	j	d434 <__mdiff+0x19c>
    d4b0:	000156b7          	lui	a3,0x15
    d4b4:	00015537          	lui	a0,0x15
    d4b8:	18868693          	add	a3,a3,392 # 15188 <blanks.1+0x30>
    d4bc:	00000613          	li	a2,0
    d4c0:	23200593          	li	a1,562
    d4c4:	44450513          	add	a0,a0,1092 # 15444 <ezero+0x14>
    d4c8:	290050ef          	jal	12758 <__assert_func>
    d4cc:	000156b7          	lui	a3,0x15
    d4d0:	00015537          	lui	a0,0x15
    d4d4:	18868693          	add	a3,a3,392 # 15188 <blanks.1+0x30>
    d4d8:	00000613          	li	a2,0
    d4dc:	24000593          	li	a1,576
    d4e0:	44450513          	add	a0,a0,1092 # 15444 <ezero+0x14>
    d4e4:	274050ef          	jal	12758 <__assert_func>

0000d4e8 <__ulp>:
    d4e8:	7ff007b7          	lui	a5,0x7ff00
    d4ec:	00b7f5b3          	and	a1,a5,a1
    d4f0:	fcc007b7          	lui	a5,0xfcc00
    d4f4:	00f585b3          	add	a1,a1,a5
    d4f8:	00000793          	li	a5,0
    d4fc:	00b05663          	blez	a1,d508 <__ulp+0x20>
    d500:	00078513          	mv	a0,a5
    d504:	00008067          	ret
    d508:	40b005b3          	neg	a1,a1
    d50c:	4145d593          	sra	a1,a1,0x14
    d510:	01300793          	li	a5,19
    d514:	00b7cc63          	blt	a5,a1,d52c <__ulp+0x44>
    d518:	000807b7          	lui	a5,0x80
    d51c:	40b7d5b3          	sra	a1,a5,a1
    d520:	00000793          	li	a5,0
    d524:	00078513          	mv	a0,a5
    d528:	00008067          	ret
    d52c:	fec58593          	add	a1,a1,-20
    d530:	01e00713          	li	a4,30
    d534:	00100793          	li	a5,1
    d538:	00b74663          	blt	a4,a1,d544 <__ulp+0x5c>
    d53c:	800007b7          	lui	a5,0x80000
    d540:	00b7d7b3          	srl	a5,a5,a1
    d544:	00000593          	li	a1,0
    d548:	00078513          	mv	a0,a5
    d54c:	00008067          	ret

0000d550 <__b2d>:
    d550:	fe010113          	add	sp,sp,-32
    d554:	00912a23          	sw	s1,20(sp)
    d558:	01052483          	lw	s1,16(a0)
    d55c:	00812c23          	sw	s0,24(sp)
    d560:	01450413          	add	s0,a0,20
    d564:	00249493          	sll	s1,s1,0x2
    d568:	009404b3          	add	s1,s0,s1
    d56c:	01212823          	sw	s2,16(sp)
    d570:	ffc4a903          	lw	s2,-4(s1)
    d574:	01312623          	sw	s3,12(sp)
    d578:	01412423          	sw	s4,8(sp)
    d57c:	00090513          	mv	a0,s2
    d580:	00058993          	mv	s3,a1
    d584:	00112e23          	sw	ra,28(sp)
    d588:	d9cff0ef          	jal	cb24 <__hi0bits>
    d58c:	02000713          	li	a4,32
    d590:	40a707b3          	sub	a5,a4,a0
    d594:	00f9a023          	sw	a5,0(s3)
    d598:	00a00793          	li	a5,10
    d59c:	ffc48a13          	add	s4,s1,-4
    d5a0:	08a7dc63          	bge	a5,a0,d638 <__b2d+0xe8>
    d5a4:	ff550613          	add	a2,a0,-11
    d5a8:	05447063          	bgeu	s0,s4,d5e8 <__b2d+0x98>
    d5ac:	ff84a783          	lw	a5,-8(s1)
    d5b0:	04060c63          	beqz	a2,d608 <__b2d+0xb8>
    d5b4:	40c706b3          	sub	a3,a4,a2
    d5b8:	00d7d733          	srl	a4,a5,a3
    d5bc:	00c91933          	sll	s2,s2,a2
    d5c0:	00e96933          	or	s2,s2,a4
    d5c4:	ff848593          	add	a1,s1,-8
    d5c8:	3ff00737          	lui	a4,0x3ff00
    d5cc:	00e96733          	or	a4,s2,a4
    d5d0:	00c797b3          	sll	a5,a5,a2
    d5d4:	02b47e63          	bgeu	s0,a1,d610 <__b2d+0xc0>
    d5d8:	ff44a603          	lw	a2,-12(s1)
    d5dc:	00d656b3          	srl	a3,a2,a3
    d5e0:	00d7e7b3          	or	a5,a5,a3
    d5e4:	02c0006f          	j	d610 <__b2d+0xc0>
    d5e8:	00b00793          	li	a5,11
    d5ec:	00f50c63          	beq	a0,a5,d604 <__b2d+0xb4>
    d5f0:	00c91933          	sll	s2,s2,a2
    d5f4:	3ff00737          	lui	a4,0x3ff00
    d5f8:	00e96733          	or	a4,s2,a4
    d5fc:	00000793          	li	a5,0
    d600:	0100006f          	j	d610 <__b2d+0xc0>
    d604:	00000793          	li	a5,0
    d608:	3ff00737          	lui	a4,0x3ff00
    d60c:	00e96733          	or	a4,s2,a4
    d610:	01c12083          	lw	ra,28(sp)
    d614:	01812403          	lw	s0,24(sp)
    d618:	01412483          	lw	s1,20(sp)
    d61c:	01012903          	lw	s2,16(sp)
    d620:	00c12983          	lw	s3,12(sp)
    d624:	00812a03          	lw	s4,8(sp)
    d628:	00078513          	mv	a0,a5
    d62c:	00070593          	mv	a1,a4
    d630:	02010113          	add	sp,sp,32
    d634:	00008067          	ret
    d638:	00b00693          	li	a3,11
    d63c:	40a686b3          	sub	a3,a3,a0
    d640:	3ff007b7          	lui	a5,0x3ff00
    d644:	00d95733          	srl	a4,s2,a3
    d648:	00f76733          	or	a4,a4,a5
    d64c:	00000793          	li	a5,0
    d650:	01447663          	bgeu	s0,s4,d65c <__b2d+0x10c>
    d654:	ff84a783          	lw	a5,-8(s1)
    d658:	00d7d7b3          	srl	a5,a5,a3
    d65c:	01550513          	add	a0,a0,21
    d660:	00a91933          	sll	s2,s2,a0
    d664:	00f967b3          	or	a5,s2,a5
    d668:	fa9ff06f          	j	d610 <__b2d+0xc0>

0000d66c <__d2b>:
    d66c:	fd010113          	add	sp,sp,-48
    d670:	01512a23          	sw	s5,20(sp)
    d674:	00058a93          	mv	s5,a1
    d678:	00100593          	li	a1,1
    d67c:	02912223          	sw	s1,36(sp)
    d680:	01312e23          	sw	s3,28(sp)
    d684:	01412c23          	sw	s4,24(sp)
    d688:	02112623          	sw	ra,44(sp)
    d68c:	02812423          	sw	s0,40(sp)
    d690:	03212023          	sw	s2,32(sp)
    d694:	00060493          	mv	s1,a2
    d698:	00068a13          	mv	s4,a3
    d69c:	00070993          	mv	s3,a4
    d6a0:	938ff0ef          	jal	c7d8 <_Balloc>
    d6a4:	10050263          	beqz	a0,d7a8 <__d2b+0x13c>
    d6a8:	00100737          	lui	a4,0x100
    d6ac:	0144d913          	srl	s2,s1,0x14
    d6b0:	fff70793          	add	a5,a4,-1 # fffff <_end+0xe602f>
    d6b4:	7ff97913          	and	s2,s2,2047
    d6b8:	00050413          	mv	s0,a0
    d6bc:	0097f7b3          	and	a5,a5,s1
    d6c0:	00090463          	beqz	s2,d6c8 <__d2b+0x5c>
    d6c4:	00e7e7b3          	or	a5,a5,a4
    d6c8:	00f12623          	sw	a5,12(sp)
    d6cc:	060a9263          	bnez	s5,d730 <__d2b+0xc4>
    d6d0:	00c10513          	add	a0,sp,12
    d6d4:	cc8ff0ef          	jal	cb9c <__lo0bits>
    d6d8:	00c12703          	lw	a4,12(sp)
    d6dc:	00100493          	li	s1,1
    d6e0:	00942823          	sw	s1,16(s0)
    d6e4:	00e42a23          	sw	a4,20(s0)
    d6e8:	02050793          	add	a5,a0,32
    d6ec:	08090863          	beqz	s2,d77c <__d2b+0x110>
    d6f0:	bcd90913          	add	s2,s2,-1075
    d6f4:	00f90933          	add	s2,s2,a5
    d6f8:	03500493          	li	s1,53
    d6fc:	012a2023          	sw	s2,0(s4)
    d700:	40f48533          	sub	a0,s1,a5
    d704:	00a9a023          	sw	a0,0(s3)
    d708:	02c12083          	lw	ra,44(sp)
    d70c:	00040513          	mv	a0,s0
    d710:	02812403          	lw	s0,40(sp)
    d714:	02412483          	lw	s1,36(sp)
    d718:	02012903          	lw	s2,32(sp)
    d71c:	01c12983          	lw	s3,28(sp)
    d720:	01812a03          	lw	s4,24(sp)
    d724:	01412a83          	lw	s5,20(sp)
    d728:	03010113          	add	sp,sp,48
    d72c:	00008067          	ret
    d730:	00810513          	add	a0,sp,8
    d734:	01512423          	sw	s5,8(sp)
    d738:	c64ff0ef          	jal	cb9c <__lo0bits>
    d73c:	00c12703          	lw	a4,12(sp)
    d740:	00050793          	mv	a5,a0
    d744:	04050e63          	beqz	a0,d7a0 <__d2b+0x134>
    d748:	00812603          	lw	a2,8(sp)
    d74c:	02000693          	li	a3,32
    d750:	40a686b3          	sub	a3,a3,a0
    d754:	00d716b3          	sll	a3,a4,a3
    d758:	00a75733          	srl	a4,a4,a0
    d75c:	00c6e6b3          	or	a3,a3,a2
    d760:	00e12623          	sw	a4,12(sp)
    d764:	00e034b3          	snez	s1,a4
    d768:	00148493          	add	s1,s1,1
    d76c:	00d42a23          	sw	a3,20(s0)
    d770:	00e42c23          	sw	a4,24(s0)
    d774:	00942823          	sw	s1,16(s0)
    d778:	f6091ce3          	bnez	s2,d6f0 <__d2b+0x84>
    d77c:	00249713          	sll	a4,s1,0x2
    d780:	00e40733          	add	a4,s0,a4
    d784:	01072503          	lw	a0,16(a4)
    d788:	bce78793          	add	a5,a5,-1074 # 3feffbce <_end+0x3fee5bfe>
    d78c:	00fa2023          	sw	a5,0(s4)
    d790:	b94ff0ef          	jal	cb24 <__hi0bits>
    d794:	00549493          	sll	s1,s1,0x5
    d798:	40a48533          	sub	a0,s1,a0
    d79c:	f69ff06f          	j	d704 <__d2b+0x98>
    d7a0:	00812683          	lw	a3,8(sp)
    d7a4:	fc1ff06f          	j	d764 <__d2b+0xf8>
    d7a8:	000156b7          	lui	a3,0x15
    d7ac:	00015537          	lui	a0,0x15
    d7b0:	18868693          	add	a3,a3,392 # 15188 <blanks.1+0x30>
    d7b4:	00000613          	li	a2,0
    d7b8:	30a00593          	li	a1,778
    d7bc:	44450513          	add	a0,a0,1092 # 15444 <ezero+0x14>
    d7c0:	799040ef          	jal	12758 <__assert_func>

0000d7c4 <__ratio>:
    d7c4:	fd010113          	add	sp,sp,-48
    d7c8:	03212023          	sw	s2,32(sp)
    d7cc:	00058913          	mv	s2,a1
    d7d0:	00810593          	add	a1,sp,8
    d7d4:	02112623          	sw	ra,44(sp)
    d7d8:	02812423          	sw	s0,40(sp)
    d7dc:	02912223          	sw	s1,36(sp)
    d7e0:	01312e23          	sw	s3,28(sp)
    d7e4:	00050993          	mv	s3,a0
    d7e8:	d69ff0ef          	jal	d550 <__b2d>
    d7ec:	00050493          	mv	s1,a0
    d7f0:	00058413          	mv	s0,a1
    d7f4:	00090513          	mv	a0,s2
    d7f8:	00c10593          	add	a1,sp,12
    d7fc:	d55ff0ef          	jal	d550 <__b2d>
    d800:	01092703          	lw	a4,16(s2)
    d804:	0109a783          	lw	a5,16(s3)
    d808:	00c12683          	lw	a3,12(sp)
    d80c:	40e787b3          	sub	a5,a5,a4
    d810:	00812703          	lw	a4,8(sp)
    d814:	00579793          	sll	a5,a5,0x5
    d818:	40d70733          	sub	a4,a4,a3
    d81c:	00e787b3          	add	a5,a5,a4
    d820:	00050713          	mv	a4,a0
    d824:	02f05e63          	blez	a5,d860 <__ratio+0x9c>
    d828:	01479793          	sll	a5,a5,0x14
    d82c:	00878433          	add	s0,a5,s0
    d830:	00058693          	mv	a3,a1
    d834:	00048513          	mv	a0,s1
    d838:	00040593          	mv	a1,s0
    d83c:	00070613          	mv	a2,a4
    d840:	ec1f20ef          	jal	700 <__divdf3>
    d844:	02c12083          	lw	ra,44(sp)
    d848:	02812403          	lw	s0,40(sp)
    d84c:	02412483          	lw	s1,36(sp)
    d850:	02012903          	lw	s2,32(sp)
    d854:	01c12983          	lw	s3,28(sp)
    d858:	03010113          	add	sp,sp,48
    d85c:	00008067          	ret
    d860:	01479793          	sll	a5,a5,0x14
    d864:	40f585b3          	sub	a1,a1,a5
    d868:	fc9ff06f          	j	d830 <__ratio+0x6c>

0000d86c <_mprec_log10>:
    d86c:	ff010113          	add	sp,sp,-16
    d870:	01212023          	sw	s2,0(sp)
    d874:	00112623          	sw	ra,12(sp)
    d878:	00812423          	sw	s0,8(sp)
    d87c:	00912223          	sw	s1,4(sp)
    d880:	01700793          	li	a5,23
    d884:	00050913          	mv	s2,a0
    d888:	04a7d863          	bge	a5,a0,d8d8 <_mprec_log10+0x6c>
    d88c:	00017737          	lui	a4,0x17
    d890:	73872783          	lw	a5,1848(a4) # 17738 <__global_locale+0x170>
    d894:	73c72583          	lw	a1,1852(a4)
    d898:	8081a403          	lw	s0,-2040(gp) # 17740 <__global_locale+0x178>
    d89c:	80c1a483          	lw	s1,-2036(gp) # 17744 <__global_locale+0x17c>
    d8a0:	00078513          	mv	a0,a5
    d8a4:	00040613          	mv	a2,s0
    d8a8:	00048693          	mv	a3,s1
    d8ac:	d1cf30ef          	jal	dc8 <__muldf3>
    d8b0:	fff90913          	add	s2,s2,-1
    d8b4:	00050793          	mv	a5,a0
    d8b8:	fe0914e3          	bnez	s2,d8a0 <_mprec_log10+0x34>
    d8bc:	00c12083          	lw	ra,12(sp)
    d8c0:	00812403          	lw	s0,8(sp)
    d8c4:	00412483          	lw	s1,4(sp)
    d8c8:	00012903          	lw	s2,0(sp)
    d8cc:	00078513          	mv	a0,a5
    d8d0:	01010113          	add	sp,sp,16
    d8d4:	00008067          	ret
    d8d8:	00015737          	lui	a4,0x15
    d8dc:	00351913          	sll	s2,a0,0x3
    d8e0:	4f070713          	add	a4,a4,1264 # 154f0 <__mprec_tens>
    d8e4:	01270733          	add	a4,a4,s2
    d8e8:	00072783          	lw	a5,0(a4)
    d8ec:	00c12083          	lw	ra,12(sp)
    d8f0:	00812403          	lw	s0,8(sp)
    d8f4:	00472583          	lw	a1,4(a4)
    d8f8:	00412483          	lw	s1,4(sp)
    d8fc:	00012903          	lw	s2,0(sp)
    d900:	00078513          	mv	a0,a5
    d904:	01010113          	add	sp,sp,16
    d908:	00008067          	ret

0000d90c <__copybits>:
    d90c:	01062683          	lw	a3,16(a2)
    d910:	fff58593          	add	a1,a1,-1
    d914:	4055d593          	sra	a1,a1,0x5
    d918:	00158593          	add	a1,a1,1
    d91c:	01460793          	add	a5,a2,20
    d920:	00269693          	sll	a3,a3,0x2
    d924:	00259593          	sll	a1,a1,0x2
    d928:	00d786b3          	add	a3,a5,a3
    d92c:	00b505b3          	add	a1,a0,a1
    d930:	02d7f863          	bgeu	a5,a3,d960 <__copybits+0x54>
    d934:	00050713          	mv	a4,a0
    d938:	0007a803          	lw	a6,0(a5)
    d93c:	00478793          	add	a5,a5,4
    d940:	00470713          	add	a4,a4,4
    d944:	ff072e23          	sw	a6,-4(a4)
    d948:	fed7e8e3          	bltu	a5,a3,d938 <__copybits+0x2c>
    d94c:	40c687b3          	sub	a5,a3,a2
    d950:	feb78793          	add	a5,a5,-21
    d954:	ffc7f793          	and	a5,a5,-4
    d958:	00478793          	add	a5,a5,4
    d95c:	00f50533          	add	a0,a0,a5
    d960:	00b57863          	bgeu	a0,a1,d970 <__copybits+0x64>
    d964:	00450513          	add	a0,a0,4
    d968:	fe052e23          	sw	zero,-4(a0)
    d96c:	feb56ce3          	bltu	a0,a1,d964 <__copybits+0x58>
    d970:	00008067          	ret

0000d974 <__any_on>:
    d974:	01052703          	lw	a4,16(a0)
    d978:	4055d613          	sra	a2,a1,0x5
    d97c:	01450693          	add	a3,a0,20
    d980:	02c75263          	bge	a4,a2,d9a4 <__any_on+0x30>
    d984:	00271713          	sll	a4,a4,0x2
    d988:	00e687b3          	add	a5,a3,a4
    d98c:	04f6f263          	bgeu	a3,a5,d9d0 <__any_on+0x5c>
    d990:	ffc7a703          	lw	a4,-4(a5)
    d994:	ffc78793          	add	a5,a5,-4
    d998:	fe070ae3          	beqz	a4,d98c <__any_on+0x18>
    d99c:	00100513          	li	a0,1
    d9a0:	00008067          	ret
    d9a4:	00261793          	sll	a5,a2,0x2
    d9a8:	00f687b3          	add	a5,a3,a5
    d9ac:	fee650e3          	bge	a2,a4,d98c <__any_on+0x18>
    d9b0:	01f5f593          	and	a1,a1,31
    d9b4:	fc058ce3          	beqz	a1,d98c <__any_on+0x18>
    d9b8:	0007a603          	lw	a2,0(a5)
    d9bc:	00100513          	li	a0,1
    d9c0:	00b65733          	srl	a4,a2,a1
    d9c4:	00b71733          	sll	a4,a4,a1
    d9c8:	fce602e3          	beq	a2,a4,d98c <__any_on+0x18>
    d9cc:	00008067          	ret
    d9d0:	00000513          	li	a0,0
    d9d4:	00008067          	ret

0000d9d8 <_putc_r>:
    d9d8:	fe010113          	add	sp,sp,-32
    d9dc:	01212c23          	sw	s2,24(sp)
    d9e0:	00112e23          	sw	ra,28(sp)
    d9e4:	00050913          	mv	s2,a0
    d9e8:	00050663          	beqz	a0,d9f4 <_putc_r+0x1c>
    d9ec:	03852783          	lw	a5,56(a0)
    d9f0:	04078663          	beqz	a5,da3c <_putc_r+0x64>
    d9f4:	00862783          	lw	a5,8(a2)
    d9f8:	fff78793          	add	a5,a5,-1
    d9fc:	00f62423          	sw	a5,8(a2)
    da00:	0007dc63          	bgez	a5,da18 <_putc_r+0x40>
    da04:	01862703          	lw	a4,24(a2)
    da08:	04e7c663          	blt	a5,a4,da54 <_putc_r+0x7c>
    da0c:	0ff5f793          	zext.b	a5,a1
    da10:	00a00713          	li	a4,10
    da14:	04e78063          	beq	a5,a4,da54 <_putc_r+0x7c>
    da18:	00062783          	lw	a5,0(a2)
    da1c:	0ff5f513          	zext.b	a0,a1
    da20:	00178713          	add	a4,a5,1
    da24:	00e62023          	sw	a4,0(a2)
    da28:	00b78023          	sb	a1,0(a5)
    da2c:	01c12083          	lw	ra,28(sp)
    da30:	01812903          	lw	s2,24(sp)
    da34:	02010113          	add	sp,sp,32
    da38:	00008067          	ret
    da3c:	00c12623          	sw	a2,12(sp)
    da40:	00b12423          	sw	a1,8(sp)
    da44:	844fb0ef          	jal	8a88 <__sinit>
    da48:	00c12603          	lw	a2,12(sp)
    da4c:	00812583          	lw	a1,8(sp)
    da50:	fa5ff06f          	j	d9f4 <_putc_r+0x1c>
    da54:	01c12083          	lw	ra,28(sp)
    da58:	00090513          	mv	a0,s2
    da5c:	01812903          	lw	s2,24(sp)
    da60:	02010113          	add	sp,sp,32
    da64:	26d0406f          	j	124d0 <__swbuf_r>

0000da68 <putc>:
    da68:	ff010113          	add	sp,sp,-16
    da6c:	01212023          	sw	s2,0(sp)
    da70:	8201a903          	lw	s2,-2016(gp) # 17758 <_impure_ptr>
    da74:	00812423          	sw	s0,8(sp)
    da78:	00912223          	sw	s1,4(sp)
    da7c:	00112623          	sw	ra,12(sp)
    da80:	00050493          	mv	s1,a0
    da84:	00058413          	mv	s0,a1
    da88:	00090663          	beqz	s2,da94 <putc+0x2c>
    da8c:	03892783          	lw	a5,56(s2)
    da90:	04078a63          	beqz	a5,dae4 <putc+0x7c>
    da94:	00842783          	lw	a5,8(s0)
    da98:	fff78793          	add	a5,a5,-1
    da9c:	00f42423          	sw	a5,8(s0)
    daa0:	0007dc63          	bgez	a5,dab8 <putc+0x50>
    daa4:	01842703          	lw	a4,24(s0)
    daa8:	04e7c463          	blt	a5,a4,daf0 <putc+0x88>
    daac:	0ff4f793          	zext.b	a5,s1
    dab0:	00a00713          	li	a4,10
    dab4:	02e78e63          	beq	a5,a4,daf0 <putc+0x88>
    dab8:	00042783          	lw	a5,0(s0)
    dabc:	0ff4f513          	zext.b	a0,s1
    dac0:	00178713          	add	a4,a5,1
    dac4:	00e42023          	sw	a4,0(s0)
    dac8:	00978023          	sb	s1,0(a5)
    dacc:	00c12083          	lw	ra,12(sp)
    dad0:	00812403          	lw	s0,8(sp)
    dad4:	00412483          	lw	s1,4(sp)
    dad8:	00012903          	lw	s2,0(sp)
    dadc:	01010113          	add	sp,sp,16
    dae0:	00008067          	ret
    dae4:	00090513          	mv	a0,s2
    dae8:	fa1fa0ef          	jal	8a88 <__sinit>
    daec:	fa9ff06f          	j	da94 <putc+0x2c>
    daf0:	00040613          	mv	a2,s0
    daf4:	00812403          	lw	s0,8(sp)
    daf8:	00c12083          	lw	ra,12(sp)
    dafc:	00048593          	mv	a1,s1
    db00:	00090513          	mv	a0,s2
    db04:	00412483          	lw	s1,4(sp)
    db08:	00012903          	lw	s2,0(sp)
    db0c:	01010113          	add	sp,sp,16
    db10:	1c10406f          	j	124d0 <__swbuf_r>

0000db14 <_realloc_r>:
    db14:	fd010113          	add	sp,sp,-48
    db18:	02912223          	sw	s1,36(sp)
    db1c:	02112623          	sw	ra,44(sp)
    db20:	02812423          	sw	s0,40(sp)
    db24:	03212023          	sw	s2,32(sp)
    db28:	01312e23          	sw	s3,28(sp)
    db2c:	01412c23          	sw	s4,24(sp)
    db30:	01512a23          	sw	s5,20(sp)
    db34:	01612823          	sw	s6,16(sp)
    db38:	01712623          	sw	s7,12(sp)
    db3c:	01812423          	sw	s8,8(sp)
    db40:	00060493          	mv	s1,a2
    db44:	1c058263          	beqz	a1,dd08 <_realloc_r+0x1f4>
    db48:	00058413          	mv	s0,a1
    db4c:	00050913          	mv	s2,a0
    db50:	981f70ef          	jal	54d0 <__malloc_lock>
    db54:	ffc42703          	lw	a4,-4(s0)
    db58:	00b48793          	add	a5,s1,11
    db5c:	01600693          	li	a3,22
    db60:	ff840a93          	add	s5,s0,-8
    db64:	ffc77993          	and	s3,a4,-4
    db68:	0ef6f663          	bgeu	a3,a5,dc54 <_realloc_r+0x140>
    db6c:	ff87fa13          	and	s4,a5,-8
    db70:	0e07c663          	bltz	a5,dc5c <_realloc_r+0x148>
    db74:	0e9a6463          	bltu	s4,s1,dc5c <_realloc_r+0x148>
    db78:	1149d463          	bge	s3,s4,dc80 <_realloc_r+0x16c>
    db7c:	000177b7          	lui	a5,0x17
    db80:	1c078c13          	add	s8,a5,448 # 171c0 <__malloc_av_>
    db84:	008c2603          	lw	a2,8(s8)
    db88:	013a86b3          	add	a3,s5,s3
    db8c:	0046a783          	lw	a5,4(a3)
    db90:	1cd60e63          	beq	a2,a3,dd6c <_realloc_r+0x258>
    db94:	ffe7f613          	and	a2,a5,-2
    db98:	00c68633          	add	a2,a3,a2
    db9c:	00462603          	lw	a2,4(a2)
    dba0:	00167613          	and	a2,a2,1
    dba4:	14061463          	bnez	a2,dcec <_realloc_r+0x1d8>
    dba8:	ffc7f793          	and	a5,a5,-4
    dbac:	00f98633          	add	a2,s3,a5
    dbb0:	0b465e63          	bge	a2,s4,dc6c <_realloc_r+0x158>
    dbb4:	00177713          	and	a4,a4,1
    dbb8:	02071463          	bnez	a4,dbe0 <_realloc_r+0xcc>
    dbbc:	ff842b83          	lw	s7,-8(s0)
    dbc0:	417a8bb3          	sub	s7,s5,s7
    dbc4:	004ba703          	lw	a4,4(s7)
    dbc8:	ffc77713          	and	a4,a4,-4
    dbcc:	00e787b3          	add	a5,a5,a4
    dbd0:	01378b33          	add	s6,a5,s3
    dbd4:	334b5463          	bge	s6,s4,defc <_realloc_r+0x3e8>
    dbd8:	00e98b33          	add	s6,s3,a4
    dbdc:	294b5663          	bge	s6,s4,de68 <_realloc_r+0x354>
    dbe0:	00048593          	mv	a1,s1
    dbe4:	00090513          	mv	a0,s2
    dbe8:	960f70ef          	jal	4d48 <_malloc_r>
    dbec:	00050493          	mv	s1,a0
    dbf0:	40050263          	beqz	a0,dff4 <_realloc_r+0x4e0>
    dbf4:	ffc42783          	lw	a5,-4(s0)
    dbf8:	ff850713          	add	a4,a0,-8
    dbfc:	ffe7f793          	and	a5,a5,-2
    dc00:	00fa87b3          	add	a5,s5,a5
    dc04:	24e78a63          	beq	a5,a4,de58 <_realloc_r+0x344>
    dc08:	ffc98613          	add	a2,s3,-4
    dc0c:	02400793          	li	a5,36
    dc10:	2ec7e063          	bltu	a5,a2,def0 <_realloc_r+0x3dc>
    dc14:	01300713          	li	a4,19
    dc18:	20c76e63          	bltu	a4,a2,de34 <_realloc_r+0x320>
    dc1c:	00050793          	mv	a5,a0
    dc20:	00040713          	mv	a4,s0
    dc24:	00072683          	lw	a3,0(a4)
    dc28:	00d7a023          	sw	a3,0(a5)
    dc2c:	00472683          	lw	a3,4(a4)
    dc30:	00d7a223          	sw	a3,4(a5)
    dc34:	00872703          	lw	a4,8(a4)
    dc38:	00e7a423          	sw	a4,8(a5)
    dc3c:	00090513          	mv	a0,s2
    dc40:	00040593          	mv	a1,s0
    dc44:	81cfb0ef          	jal	8c60 <_free_r>
    dc48:	00090513          	mv	a0,s2
    dc4c:	889f70ef          	jal	54d4 <__malloc_unlock>
    dc50:	0680006f          	j	dcb8 <_realloc_r+0x1a4>
    dc54:	01000a13          	li	s4,16
    dc58:	f29a70e3          	bgeu	s4,s1,db78 <_realloc_r+0x64>
    dc5c:	00c00793          	li	a5,12
    dc60:	00f92023          	sw	a5,0(s2)
    dc64:	00000493          	li	s1,0
    dc68:	0500006f          	j	dcb8 <_realloc_r+0x1a4>
    dc6c:	00c6a783          	lw	a5,12(a3)
    dc70:	0086a703          	lw	a4,8(a3)
    dc74:	00060993          	mv	s3,a2
    dc78:	00f72623          	sw	a5,12(a4)
    dc7c:	00e7a423          	sw	a4,8(a5)
    dc80:	004aa783          	lw	a5,4(s5)
    dc84:	414986b3          	sub	a3,s3,s4
    dc88:	00f00613          	li	a2,15
    dc8c:	0017f793          	and	a5,a5,1
    dc90:	013a8733          	add	a4,s5,s3
    dc94:	0ad66463          	bltu	a2,a3,dd3c <_realloc_r+0x228>
    dc98:	0137e7b3          	or	a5,a5,s3
    dc9c:	00faa223          	sw	a5,4(s5)
    dca0:	00472783          	lw	a5,4(a4)
    dca4:	0017e793          	or	a5,a5,1
    dca8:	00f72223          	sw	a5,4(a4)
    dcac:	00090513          	mv	a0,s2
    dcb0:	825f70ef          	jal	54d4 <__malloc_unlock>
    dcb4:	00040493          	mv	s1,s0
    dcb8:	02c12083          	lw	ra,44(sp)
    dcbc:	02812403          	lw	s0,40(sp)
    dcc0:	02012903          	lw	s2,32(sp)
    dcc4:	01c12983          	lw	s3,28(sp)
    dcc8:	01812a03          	lw	s4,24(sp)
    dccc:	01412a83          	lw	s5,20(sp)
    dcd0:	01012b03          	lw	s6,16(sp)
    dcd4:	00c12b83          	lw	s7,12(sp)
    dcd8:	00812c03          	lw	s8,8(sp)
    dcdc:	00048513          	mv	a0,s1
    dce0:	02412483          	lw	s1,36(sp)
    dce4:	03010113          	add	sp,sp,48
    dce8:	00008067          	ret
    dcec:	00177713          	and	a4,a4,1
    dcf0:	ee0718e3          	bnez	a4,dbe0 <_realloc_r+0xcc>
    dcf4:	ff842b83          	lw	s7,-8(s0)
    dcf8:	417a8bb3          	sub	s7,s5,s7
    dcfc:	004ba703          	lw	a4,4(s7)
    dd00:	ffc77713          	and	a4,a4,-4
    dd04:	ed5ff06f          	j	dbd8 <_realloc_r+0xc4>
    dd08:	02812403          	lw	s0,40(sp)
    dd0c:	02c12083          	lw	ra,44(sp)
    dd10:	02412483          	lw	s1,36(sp)
    dd14:	02012903          	lw	s2,32(sp)
    dd18:	01c12983          	lw	s3,28(sp)
    dd1c:	01812a03          	lw	s4,24(sp)
    dd20:	01412a83          	lw	s5,20(sp)
    dd24:	01012b03          	lw	s6,16(sp)
    dd28:	00c12b83          	lw	s7,12(sp)
    dd2c:	00812c03          	lw	s8,8(sp)
    dd30:	00060593          	mv	a1,a2
    dd34:	03010113          	add	sp,sp,48
    dd38:	810f706f          	j	4d48 <_malloc_r>
    dd3c:	0147e7b3          	or	a5,a5,s4
    dd40:	00faa223          	sw	a5,4(s5)
    dd44:	014a85b3          	add	a1,s5,s4
    dd48:	0016e693          	or	a3,a3,1
    dd4c:	00d5a223          	sw	a3,4(a1)
    dd50:	00472783          	lw	a5,4(a4)
    dd54:	00858593          	add	a1,a1,8
    dd58:	00090513          	mv	a0,s2
    dd5c:	0017e793          	or	a5,a5,1
    dd60:	00f72223          	sw	a5,4(a4)
    dd64:	efdfa0ef          	jal	8c60 <_free_r>
    dd68:	f45ff06f          	j	dcac <_realloc_r+0x198>
    dd6c:	ffc7f793          	and	a5,a5,-4
    dd70:	013786b3          	add	a3,a5,s3
    dd74:	010a0613          	add	a2,s4,16
    dd78:	22c6de63          	bge	a3,a2,dfb4 <_realloc_r+0x4a0>
    dd7c:	00177713          	and	a4,a4,1
    dd80:	e60710e3          	bnez	a4,dbe0 <_realloc_r+0xcc>
    dd84:	ff842b83          	lw	s7,-8(s0)
    dd88:	417a8bb3          	sub	s7,s5,s7
    dd8c:	004ba703          	lw	a4,4(s7)
    dd90:	ffc77713          	and	a4,a4,-4
    dd94:	00e787b3          	add	a5,a5,a4
    dd98:	01378b33          	add	s6,a5,s3
    dd9c:	e2cb4ee3          	blt	s6,a2,dbd8 <_realloc_r+0xc4>
    dda0:	00cba783          	lw	a5,12(s7)
    dda4:	008ba703          	lw	a4,8(s7)
    dda8:	ffc98613          	add	a2,s3,-4
    ddac:	02400693          	li	a3,36
    ddb0:	00f72623          	sw	a5,12(a4)
    ddb4:	00e7a423          	sw	a4,8(a5)
    ddb8:	008b8493          	add	s1,s7,8
    ddbc:	26c6e263          	bltu	a3,a2,e020 <_realloc_r+0x50c>
    ddc0:	01300713          	li	a4,19
    ddc4:	00048793          	mv	a5,s1
    ddc8:	02c77263          	bgeu	a4,a2,ddec <_realloc_r+0x2d8>
    ddcc:	00042703          	lw	a4,0(s0)
    ddd0:	01b00793          	li	a5,27
    ddd4:	00eba423          	sw	a4,8(s7)
    ddd8:	00442703          	lw	a4,4(s0)
    dddc:	00eba623          	sw	a4,12(s7)
    dde0:	24c7e863          	bltu	a5,a2,e030 <_realloc_r+0x51c>
    dde4:	00840413          	add	s0,s0,8
    dde8:	010b8793          	add	a5,s7,16
    ddec:	00042703          	lw	a4,0(s0)
    ddf0:	00e7a023          	sw	a4,0(a5)
    ddf4:	00442703          	lw	a4,4(s0)
    ddf8:	00e7a223          	sw	a4,4(a5)
    ddfc:	00842703          	lw	a4,8(s0)
    de00:	00e7a423          	sw	a4,8(a5)
    de04:	014b8733          	add	a4,s7,s4
    de08:	414b0b33          	sub	s6,s6,s4
    de0c:	00ec2423          	sw	a4,8(s8)
    de10:	001b6793          	or	a5,s6,1
    de14:	00f72223          	sw	a5,4(a4)
    de18:	004ba783          	lw	a5,4(s7)
    de1c:	00090513          	mv	a0,s2
    de20:	0017f793          	and	a5,a5,1
    de24:	0147e7b3          	or	a5,a5,s4
    de28:	00fba223          	sw	a5,4(s7)
    de2c:	ea8f70ef          	jal	54d4 <__malloc_unlock>
    de30:	e89ff06f          	j	dcb8 <_realloc_r+0x1a4>
    de34:	00042683          	lw	a3,0(s0)
    de38:	01b00713          	li	a4,27
    de3c:	00d52023          	sw	a3,0(a0)
    de40:	00442683          	lw	a3,4(s0)
    de44:	00d52223          	sw	a3,4(a0)
    de48:	14c76663          	bltu	a4,a2,df94 <_realloc_r+0x480>
    de4c:	00840713          	add	a4,s0,8
    de50:	00850793          	add	a5,a0,8
    de54:	dd1ff06f          	j	dc24 <_realloc_r+0x110>
    de58:	ffc52783          	lw	a5,-4(a0)
    de5c:	ffc7f793          	and	a5,a5,-4
    de60:	00f989b3          	add	s3,s3,a5
    de64:	e1dff06f          	j	dc80 <_realloc_r+0x16c>
    de68:	00cba783          	lw	a5,12(s7)
    de6c:	008ba703          	lw	a4,8(s7)
    de70:	ffc98613          	add	a2,s3,-4
    de74:	02400693          	li	a3,36
    de78:	00f72623          	sw	a5,12(a4)
    de7c:	00e7a423          	sw	a4,8(a5)
    de80:	008b8493          	add	s1,s7,8
    de84:	10c6e063          	bltu	a3,a2,df84 <_realloc_r+0x470>
    de88:	01300713          	li	a4,19
    de8c:	00048793          	mv	a5,s1
    de90:	02c77c63          	bgeu	a4,a2,dec8 <_realloc_r+0x3b4>
    de94:	00042703          	lw	a4,0(s0)
    de98:	01b00793          	li	a5,27
    de9c:	00eba423          	sw	a4,8(s7)
    dea0:	00442703          	lw	a4,4(s0)
    dea4:	00eba623          	sw	a4,12(s7)
    dea8:	14c7f063          	bgeu	a5,a2,dfe8 <_realloc_r+0x4d4>
    deac:	00842783          	lw	a5,8(s0)
    deb0:	00fba823          	sw	a5,16(s7)
    deb4:	00c42783          	lw	a5,12(s0)
    deb8:	00fbaa23          	sw	a5,20(s7)
    debc:	0ad60663          	beq	a2,a3,df68 <_realloc_r+0x454>
    dec0:	01040413          	add	s0,s0,16
    dec4:	018b8793          	add	a5,s7,24
    dec8:	00042703          	lw	a4,0(s0)
    decc:	00e7a023          	sw	a4,0(a5)
    ded0:	00442703          	lw	a4,4(s0)
    ded4:	00e7a223          	sw	a4,4(a5)
    ded8:	00842703          	lw	a4,8(s0)
    dedc:	00e7a423          	sw	a4,8(a5)
    dee0:	00048413          	mv	s0,s1
    dee4:	000b0993          	mv	s3,s6
    dee8:	000b8a93          	mv	s5,s7
    deec:	d95ff06f          	j	dc80 <_realloc_r+0x16c>
    def0:	00040593          	mv	a1,s0
    def4:	fc8fe0ef          	jal	c6bc <memmove>
    def8:	d45ff06f          	j	dc3c <_realloc_r+0x128>
    defc:	00c6a783          	lw	a5,12(a3)
    df00:	0086a703          	lw	a4,8(a3)
    df04:	ffc98613          	add	a2,s3,-4
    df08:	02400693          	li	a3,36
    df0c:	00f72623          	sw	a5,12(a4)
    df10:	00e7a423          	sw	a4,8(a5)
    df14:	008ba703          	lw	a4,8(s7)
    df18:	00cba783          	lw	a5,12(s7)
    df1c:	008b8493          	add	s1,s7,8
    df20:	00f72623          	sw	a5,12(a4)
    df24:	00e7a423          	sw	a4,8(a5)
    df28:	04c6ee63          	bltu	a3,a2,df84 <_realloc_r+0x470>
    df2c:	01300713          	li	a4,19
    df30:	00048793          	mv	a5,s1
    df34:	f8c77ae3          	bgeu	a4,a2,dec8 <_realloc_r+0x3b4>
    df38:	00042703          	lw	a4,0(s0)
    df3c:	01b00793          	li	a5,27
    df40:	00eba423          	sw	a4,8(s7)
    df44:	00442703          	lw	a4,4(s0)
    df48:	00eba623          	sw	a4,12(s7)
    df4c:	08c7fe63          	bgeu	a5,a2,dfe8 <_realloc_r+0x4d4>
    df50:	00842703          	lw	a4,8(s0)
    df54:	02400793          	li	a5,36
    df58:	00eba823          	sw	a4,16(s7)
    df5c:	00c42703          	lw	a4,12(s0)
    df60:	00ebaa23          	sw	a4,20(s7)
    df64:	f4f61ee3          	bne	a2,a5,dec0 <_realloc_r+0x3ac>
    df68:	01042703          	lw	a4,16(s0)
    df6c:	020b8793          	add	a5,s7,32
    df70:	01840413          	add	s0,s0,24
    df74:	00ebac23          	sw	a4,24(s7)
    df78:	ffc42703          	lw	a4,-4(s0)
    df7c:	00ebae23          	sw	a4,28(s7)
    df80:	f49ff06f          	j	dec8 <_realloc_r+0x3b4>
    df84:	00040593          	mv	a1,s0
    df88:	00048513          	mv	a0,s1
    df8c:	f30fe0ef          	jal	c6bc <memmove>
    df90:	f51ff06f          	j	dee0 <_realloc_r+0x3cc>
    df94:	00842703          	lw	a4,8(s0)
    df98:	00e52423          	sw	a4,8(a0)
    df9c:	00c42703          	lw	a4,12(s0)
    dfa0:	00e52623          	sw	a4,12(a0)
    dfa4:	06f60063          	beq	a2,a5,e004 <_realloc_r+0x4f0>
    dfa8:	01040713          	add	a4,s0,16
    dfac:	01050793          	add	a5,a0,16
    dfb0:	c75ff06f          	j	dc24 <_realloc_r+0x110>
    dfb4:	014a8ab3          	add	s5,s5,s4
    dfb8:	414686b3          	sub	a3,a3,s4
    dfbc:	015c2423          	sw	s5,8(s8)
    dfc0:	0016e793          	or	a5,a3,1
    dfc4:	00faa223          	sw	a5,4(s5)
    dfc8:	ffc42783          	lw	a5,-4(s0)
    dfcc:	00090513          	mv	a0,s2
    dfd0:	00040493          	mv	s1,s0
    dfd4:	0017f793          	and	a5,a5,1
    dfd8:	0147e7b3          	or	a5,a5,s4
    dfdc:	fef42e23          	sw	a5,-4(s0)
    dfe0:	cf4f70ef          	jal	54d4 <__malloc_unlock>
    dfe4:	cd5ff06f          	j	dcb8 <_realloc_r+0x1a4>
    dfe8:	00840413          	add	s0,s0,8
    dfec:	010b8793          	add	a5,s7,16
    dff0:	ed9ff06f          	j	dec8 <_realloc_r+0x3b4>
    dff4:	00090513          	mv	a0,s2
    dff8:	cdcf70ef          	jal	54d4 <__malloc_unlock>
    dffc:	00000493          	li	s1,0
    e000:	cb9ff06f          	j	dcb8 <_realloc_r+0x1a4>
    e004:	01042683          	lw	a3,16(s0)
    e008:	01840713          	add	a4,s0,24
    e00c:	01850793          	add	a5,a0,24
    e010:	00d52823          	sw	a3,16(a0)
    e014:	01442683          	lw	a3,20(s0)
    e018:	00d52a23          	sw	a3,20(a0)
    e01c:	c09ff06f          	j	dc24 <_realloc_r+0x110>
    e020:	00040593          	mv	a1,s0
    e024:	00048513          	mv	a0,s1
    e028:	e94fe0ef          	jal	c6bc <memmove>
    e02c:	dd9ff06f          	j	de04 <_realloc_r+0x2f0>
    e030:	00842783          	lw	a5,8(s0)
    e034:	00fba823          	sw	a5,16(s7)
    e038:	00c42783          	lw	a5,12(s0)
    e03c:	00fbaa23          	sw	a5,20(s7)
    e040:	00d60863          	beq	a2,a3,e050 <_realloc_r+0x53c>
    e044:	01040413          	add	s0,s0,16
    e048:	018b8793          	add	a5,s7,24
    e04c:	da1ff06f          	j	ddec <_realloc_r+0x2d8>
    e050:	01042703          	lw	a4,16(s0)
    e054:	020b8793          	add	a5,s7,32
    e058:	01840413          	add	s0,s0,24
    e05c:	00ebac23          	sw	a4,24(s7)
    e060:	ffc42703          	lw	a4,-4(s0)
    e064:	00ebae23          	sw	a4,28(s7)
    e068:	d85ff06f          	j	ddec <_realloc_r+0x2d8>

0000e06c <cleanup_glue>:
    e06c:	fe010113          	add	sp,sp,-32
    e070:	01212823          	sw	s2,16(sp)
    e074:	0005a903          	lw	s2,0(a1)
    e078:	00812c23          	sw	s0,24(sp)
    e07c:	00912a23          	sw	s1,20(sp)
    e080:	00112e23          	sw	ra,28(sp)
    e084:	01312623          	sw	s3,12(sp)
    e088:	01412423          	sw	s4,8(sp)
    e08c:	00058413          	mv	s0,a1
    e090:	00050493          	mv	s1,a0
    e094:	04090263          	beqz	s2,e0d8 <cleanup_glue+0x6c>
    e098:	00092983          	lw	s3,0(s2)
    e09c:	02098863          	beqz	s3,e0cc <cleanup_glue+0x60>
    e0a0:	0009aa03          	lw	s4,0(s3)
    e0a4:	000a0e63          	beqz	s4,e0c0 <cleanup_glue+0x54>
    e0a8:	000a2583          	lw	a1,0(s4)
    e0ac:	00058463          	beqz	a1,e0b4 <cleanup_glue+0x48>
    e0b0:	fbdff0ef          	jal	e06c <cleanup_glue>
    e0b4:	000a0593          	mv	a1,s4
    e0b8:	00048513          	mv	a0,s1
    e0bc:	ba5fa0ef          	jal	8c60 <_free_r>
    e0c0:	00098593          	mv	a1,s3
    e0c4:	00048513          	mv	a0,s1
    e0c8:	b99fa0ef          	jal	8c60 <_free_r>
    e0cc:	00090593          	mv	a1,s2
    e0d0:	00048513          	mv	a0,s1
    e0d4:	b8dfa0ef          	jal	8c60 <_free_r>
    e0d8:	00040593          	mv	a1,s0
    e0dc:	01812403          	lw	s0,24(sp)
    e0e0:	01c12083          	lw	ra,28(sp)
    e0e4:	01012903          	lw	s2,16(sp)
    e0e8:	00c12983          	lw	s3,12(sp)
    e0ec:	00812a03          	lw	s4,8(sp)
    e0f0:	00048513          	mv	a0,s1
    e0f4:	01412483          	lw	s1,20(sp)
    e0f8:	02010113          	add	sp,sp,32
    e0fc:	b65fa06f          	j	8c60 <_free_r>

0000e100 <_reclaim_reent>:
    e100:	8201a783          	lw	a5,-2016(gp) # 17758 <_impure_ptr>
    e104:	10a78a63          	beq	a5,a0,e218 <_reclaim_reent+0x118>
    e108:	04c52583          	lw	a1,76(a0)
    e10c:	fe010113          	add	sp,sp,-32
    e110:	00912a23          	sw	s1,20(sp)
    e114:	00112e23          	sw	ra,28(sp)
    e118:	00812c23          	sw	s0,24(sp)
    e11c:	01212823          	sw	s2,16(sp)
    e120:	01312623          	sw	s3,12(sp)
    e124:	00050493          	mv	s1,a0
    e128:	04058063          	beqz	a1,e168 <_reclaim_reent+0x68>
    e12c:	00000913          	li	s2,0
    e130:	08000993          	li	s3,128
    e134:	012587b3          	add	a5,a1,s2
    e138:	0007a403          	lw	s0,0(a5)
    e13c:	00040e63          	beqz	s0,e158 <_reclaim_reent+0x58>
    e140:	00040593          	mv	a1,s0
    e144:	00042403          	lw	s0,0(s0)
    e148:	00048513          	mv	a0,s1
    e14c:	b15fa0ef          	jal	8c60 <_free_r>
    e150:	fe0418e3          	bnez	s0,e140 <_reclaim_reent+0x40>
    e154:	04c4a583          	lw	a1,76(s1)
    e158:	00490913          	add	s2,s2,4
    e15c:	fd391ce3          	bne	s2,s3,e134 <_reclaim_reent+0x34>
    e160:	00048513          	mv	a0,s1
    e164:	afdfa0ef          	jal	8c60 <_free_r>
    e168:	0404a583          	lw	a1,64(s1)
    e16c:	00058663          	beqz	a1,e178 <_reclaim_reent+0x78>
    e170:	00048513          	mv	a0,s1
    e174:	aedfa0ef          	jal	8c60 <_free_r>
    e178:	1484a403          	lw	s0,328(s1)
    e17c:	02040063          	beqz	s0,e19c <_reclaim_reent+0x9c>
    e180:	14c48913          	add	s2,s1,332
    e184:	01240c63          	beq	s0,s2,e19c <_reclaim_reent+0x9c>
    e188:	00040593          	mv	a1,s0
    e18c:	00042403          	lw	s0,0(s0)
    e190:	00048513          	mv	a0,s1
    e194:	acdfa0ef          	jal	8c60 <_free_r>
    e198:	fe8918e3          	bne	s2,s0,e188 <_reclaim_reent+0x88>
    e19c:	0544a583          	lw	a1,84(s1)
    e1a0:	00058663          	beqz	a1,e1ac <_reclaim_reent+0xac>
    e1a4:	00048513          	mv	a0,s1
    e1a8:	ab9fa0ef          	jal	8c60 <_free_r>
    e1ac:	0384a783          	lw	a5,56(s1)
    e1b0:	04078663          	beqz	a5,e1fc <_reclaim_reent+0xfc>
    e1b4:	03c4a783          	lw	a5,60(s1)
    e1b8:	00048513          	mv	a0,s1
    e1bc:	000780e7          	jalr	a5
    e1c0:	2e04a403          	lw	s0,736(s1)
    e1c4:	02040c63          	beqz	s0,e1fc <_reclaim_reent+0xfc>
    e1c8:	00042583          	lw	a1,0(s0)
    e1cc:	00058663          	beqz	a1,e1d8 <_reclaim_reent+0xd8>
    e1d0:	00048513          	mv	a0,s1
    e1d4:	e99ff0ef          	jal	e06c <cleanup_glue>
    e1d8:	00040593          	mv	a1,s0
    e1dc:	01812403          	lw	s0,24(sp)
    e1e0:	01c12083          	lw	ra,28(sp)
    e1e4:	01012903          	lw	s2,16(sp)
    e1e8:	00c12983          	lw	s3,12(sp)
    e1ec:	00048513          	mv	a0,s1
    e1f0:	01412483          	lw	s1,20(sp)
    e1f4:	02010113          	add	sp,sp,32
    e1f8:	a69fa06f          	j	8c60 <_free_r>
    e1fc:	01c12083          	lw	ra,28(sp)
    e200:	01812403          	lw	s0,24(sp)
    e204:	01412483          	lw	s1,20(sp)
    e208:	01012903          	lw	s2,16(sp)
    e20c:	00c12983          	lw	s3,12(sp)
    e210:	02010113          	add	sp,sp,32
    e214:	00008067          	ret
    e218:	00008067          	ret

0000e21c <frexp>:
    e21c:	ff010113          	add	sp,sp,-16
    e220:	00912223          	sw	s1,4(sp)
    e224:	800004b7          	lui	s1,0x80000
    e228:	00812423          	sw	s0,8(sp)
    e22c:	00112623          	sw	ra,12(sp)
    e230:	fff4c493          	not	s1,s1
    e234:	00060413          	mv	s0,a2
    e238:	00062023          	sw	zero,0(a2)
    e23c:	00b4f6b3          	and	a3,s1,a1
    e240:	7ff00637          	lui	a2,0x7ff00
    e244:	00058793          	mv	a5,a1
    e248:	00050713          	mv	a4,a0
    e24c:	02c6fe63          	bgeu	a3,a2,e288 <frexp+0x6c>
    e250:	00a6e8b3          	or	a7,a3,a0
    e254:	02088a63          	beqz	a7,e288 <frexp+0x6c>
    e258:	00c5f833          	and	a6,a1,a2
    e25c:	04080463          	beqz	a6,e2a4 <frexp+0x88>
    e260:	00000593          	li	a1,0
    e264:	4146d693          	sra	a3,a3,0x14
    e268:	80100637          	lui	a2,0x80100
    e26c:	fff60613          	add	a2,a2,-1 # 800fffff <_end+0x800e602f>
    e270:	c0268693          	add	a3,a3,-1022
    e274:	00c7f7b3          	and	a5,a5,a2
    e278:	00b686b3          	add	a3,a3,a1
    e27c:	3fe00637          	lui	a2,0x3fe00
    e280:	00c7e7b3          	or	a5,a5,a2
    e284:	00d42023          	sw	a3,0(s0)
    e288:	00c12083          	lw	ra,12(sp)
    e28c:	00812403          	lw	s0,8(sp)
    e290:	00412483          	lw	s1,4(sp)
    e294:	00070513          	mv	a0,a4
    e298:	00078593          	mv	a1,a5
    e29c:	01010113          	add	sp,sp,16
    e2a0:	00008067          	ret
    e2a4:	8141a683          	lw	a3,-2028(gp) # 1774c <__global_locale+0x184>
    e2a8:	8101a603          	lw	a2,-2032(gp) # 17748 <__global_locale+0x180>
    e2ac:	b1df20ef          	jal	dc8 <__muldf3>
    e2b0:	00058793          	mv	a5,a1
    e2b4:	00b4f6b3          	and	a3,s1,a1
    e2b8:	00050713          	mv	a4,a0
    e2bc:	fca00593          	li	a1,-54
    e2c0:	fa5ff06f          	j	e264 <frexp+0x48>

0000e2c4 <_sprintf_r>:
    e2c4:	f6010113          	add	sp,sp,-160
    e2c8:	08c10e93          	add	t4,sp,140
    e2cc:	08f12a23          	sw	a5,148(sp)
    e2d0:	80000337          	lui	t1,0x80000
    e2d4:	ffff07b7          	lui	a5,0xffff0
    e2d8:	00058e13          	mv	t3,a1
    e2dc:	fff34313          	not	t1,t1
    e2e0:	08d12623          	sw	a3,140(sp)
    e2e4:	20878793          	add	a5,a5,520 # ffff0208 <_end+0xfffd6238>
    e2e8:	00810593          	add	a1,sp,8
    e2ec:	000e8693          	mv	a3,t4
    e2f0:	06112e23          	sw	ra,124(sp)
    e2f4:	00f12a23          	sw	a5,20(sp)
    e2f8:	08e12823          	sw	a4,144(sp)
    e2fc:	09012c23          	sw	a6,152(sp)
    e300:	09112e23          	sw	a7,156(sp)
    e304:	01c12423          	sw	t3,8(sp)
    e308:	01c12c23          	sw	t3,24(sp)
    e30c:	00612823          	sw	t1,16(sp)
    e310:	00612e23          	sw	t1,28(sp)
    e314:	01d12223          	sw	t4,4(sp)
    e318:	358000ef          	jal	e670 <_svfprintf_r>
    e31c:	00812783          	lw	a5,8(sp)
    e320:	00078023          	sb	zero,0(a5)
    e324:	07c12083          	lw	ra,124(sp)
    e328:	0a010113          	add	sp,sp,160
    e32c:	00008067          	ret

0000e330 <sprintf>:
    e330:	00050e13          	mv	t3,a0
    e334:	f6010113          	add	sp,sp,-160
    e338:	8201a503          	lw	a0,-2016(gp) # 17758 <_impure_ptr>
    e33c:	08810e93          	add	t4,sp,136
    e340:	08f12a23          	sw	a5,148(sp)
    e344:	80000337          	lui	t1,0x80000
    e348:	ffff07b7          	lui	a5,0xffff0
    e34c:	fff34313          	not	t1,t1
    e350:	08c12423          	sw	a2,136(sp)
    e354:	08d12623          	sw	a3,140(sp)
    e358:	20878793          	add	a5,a5,520 # ffff0208 <_end+0xfffd6238>
    e35c:	00058613          	mv	a2,a1
    e360:	000e8693          	mv	a3,t4
    e364:	00810593          	add	a1,sp,8
    e368:	06112e23          	sw	ra,124(sp)
    e36c:	00f12a23          	sw	a5,20(sp)
    e370:	08e12823          	sw	a4,144(sp)
    e374:	09012c23          	sw	a6,152(sp)
    e378:	09112e23          	sw	a7,156(sp)
    e37c:	01c12423          	sw	t3,8(sp)
    e380:	01c12c23          	sw	t3,24(sp)
    e384:	00612823          	sw	t1,16(sp)
    e388:	00612e23          	sw	t1,28(sp)
    e38c:	01d12223          	sw	t4,4(sp)
    e390:	2e0000ef          	jal	e670 <_svfprintf_r>
    e394:	00812783          	lw	a5,8(sp)
    e398:	00078023          	sb	zero,0(a5)
    e39c:	07c12083          	lw	ra,124(sp)
    e3a0:	0a010113          	add	sp,sp,160
    e3a4:	00008067          	ret

0000e3a8 <__sread>:
    e3a8:	ff010113          	add	sp,sp,-16
    e3ac:	00812423          	sw	s0,8(sp)
    e3b0:	00058413          	mv	s0,a1
    e3b4:	00e59583          	lh	a1,14(a1)
    e3b8:	00112623          	sw	ra,12(sp)
    e3bc:	325040ef          	jal	12ee0 <_read_r>
    e3c0:	02054063          	bltz	a0,e3e0 <__sread+0x38>
    e3c4:	05042783          	lw	a5,80(s0)
    e3c8:	00c12083          	lw	ra,12(sp)
    e3cc:	00a787b3          	add	a5,a5,a0
    e3d0:	04f42823          	sw	a5,80(s0)
    e3d4:	00812403          	lw	s0,8(sp)
    e3d8:	01010113          	add	sp,sp,16
    e3dc:	00008067          	ret
    e3e0:	00c45783          	lhu	a5,12(s0)
    e3e4:	fffff737          	lui	a4,0xfffff
    e3e8:	fff70713          	add	a4,a4,-1 # ffffefff <_end+0xfffe502f>
    e3ec:	00e7f7b3          	and	a5,a5,a4
    e3f0:	00c12083          	lw	ra,12(sp)
    e3f4:	00f41623          	sh	a5,12(s0)
    e3f8:	00812403          	lw	s0,8(sp)
    e3fc:	01010113          	add	sp,sp,16
    e400:	00008067          	ret

0000e404 <__seofread>:
    e404:	00000513          	li	a0,0
    e408:	00008067          	ret

0000e40c <__swrite>:
    e40c:	00c59783          	lh	a5,12(a1)
    e410:	fe010113          	add	sp,sp,-32
    e414:	00812c23          	sw	s0,24(sp)
    e418:	00912a23          	sw	s1,20(sp)
    e41c:	01212823          	sw	s2,16(sp)
    e420:	01312623          	sw	s3,12(sp)
    e424:	00112e23          	sw	ra,28(sp)
    e428:	1007f713          	and	a4,a5,256
    e42c:	00058413          	mv	s0,a1
    e430:	00050493          	mv	s1,a0
    e434:	00060913          	mv	s2,a2
    e438:	00068993          	mv	s3,a3
    e43c:	04071063          	bnez	a4,e47c <__swrite+0x70>
    e440:	fffff737          	lui	a4,0xfffff
    e444:	fff70713          	add	a4,a4,-1 # ffffefff <_end+0xfffe502f>
    e448:	00e7f7b3          	and	a5,a5,a4
    e44c:	00e41583          	lh	a1,14(s0)
    e450:	00f41623          	sh	a5,12(s0)
    e454:	01812403          	lw	s0,24(sp)
    e458:	01c12083          	lw	ra,28(sp)
    e45c:	00098693          	mv	a3,s3
    e460:	00090613          	mv	a2,s2
    e464:	00c12983          	lw	s3,12(sp)
    e468:	01012903          	lw	s2,16(sp)
    e46c:	00048513          	mv	a0,s1
    e470:	01412483          	lw	s1,20(sp)
    e474:	02010113          	add	sp,sp,32
    e478:	1e00406f          	j	12658 <_write_r>
    e47c:	00e59583          	lh	a1,14(a1)
    e480:	00200693          	li	a3,2
    e484:	00000613          	li	a2,0
    e488:	17d040ef          	jal	12e04 <_lseek_r>
    e48c:	00c41783          	lh	a5,12(s0)
    e490:	fb1ff06f          	j	e440 <__swrite+0x34>

0000e494 <__sseek>:
    e494:	ff010113          	add	sp,sp,-16
    e498:	00812423          	sw	s0,8(sp)
    e49c:	00058413          	mv	s0,a1
    e4a0:	00e59583          	lh	a1,14(a1)
    e4a4:	00112623          	sw	ra,12(sp)
    e4a8:	15d040ef          	jal	12e04 <_lseek_r>
    e4ac:	fff00793          	li	a5,-1
    e4b0:	02f50863          	beq	a0,a5,e4e0 <__sseek+0x4c>
    e4b4:	00c45783          	lhu	a5,12(s0)
    e4b8:	00001737          	lui	a4,0x1
    e4bc:	00c12083          	lw	ra,12(sp)
    e4c0:	00e7e7b3          	or	a5,a5,a4
    e4c4:	01079793          	sll	a5,a5,0x10
    e4c8:	4107d793          	sra	a5,a5,0x10
    e4cc:	04a42823          	sw	a0,80(s0)
    e4d0:	00f41623          	sh	a5,12(s0)
    e4d4:	00812403          	lw	s0,8(sp)
    e4d8:	01010113          	add	sp,sp,16
    e4dc:	00008067          	ret
    e4e0:	00c45783          	lhu	a5,12(s0)
    e4e4:	fffff737          	lui	a4,0xfffff
    e4e8:	fff70713          	add	a4,a4,-1 # ffffefff <_end+0xfffe502f>
    e4ec:	00e7f7b3          	and	a5,a5,a4
    e4f0:	01079793          	sll	a5,a5,0x10
    e4f4:	4107d793          	sra	a5,a5,0x10
    e4f8:	00c12083          	lw	ra,12(sp)
    e4fc:	00f41623          	sh	a5,12(s0)
    e500:	00812403          	lw	s0,8(sp)
    e504:	01010113          	add	sp,sp,16
    e508:	00008067          	ret

0000e50c <__sclose>:
    e50c:	00e59583          	lh	a1,14(a1)
    e510:	3980406f          	j	128a8 <_close_r>

0000e514 <strcpy>:
    e514:	00b567b3          	or	a5,a0,a1
    e518:	0037f793          	and	a5,a5,3
    e51c:	08079263          	bnez	a5,e5a0 <strcpy+0x8c>
    e520:	0005a703          	lw	a4,0(a1)
    e524:	7f7f86b7          	lui	a3,0x7f7f8
    e528:	f7f68693          	add	a3,a3,-129 # 7f7f7f7f <_end+0x7f7ddfaf>
    e52c:	00d777b3          	and	a5,a4,a3
    e530:	00d787b3          	add	a5,a5,a3
    e534:	00e7e7b3          	or	a5,a5,a4
    e538:	00d7e7b3          	or	a5,a5,a3
    e53c:	fff00613          	li	a2,-1
    e540:	06c79e63          	bne	a5,a2,e5bc <strcpy+0xa8>
    e544:	00050613          	mv	a2,a0
    e548:	fff00813          	li	a6,-1
    e54c:	00e62023          	sw	a4,0(a2) # 3fe00000 <_end+0x3fde6030>
    e550:	0045a703          	lw	a4,4(a1)
    e554:	00458593          	add	a1,a1,4
    e558:	00460613          	add	a2,a2,4
    e55c:	00d777b3          	and	a5,a4,a3
    e560:	00d787b3          	add	a5,a5,a3
    e564:	00e7e7b3          	or	a5,a5,a4
    e568:	00d7e7b3          	or	a5,a5,a3
    e56c:	ff0780e3          	beq	a5,a6,e54c <strcpy+0x38>
    e570:	0005c783          	lbu	a5,0(a1)
    e574:	0015c703          	lbu	a4,1(a1)
    e578:	0025c683          	lbu	a3,2(a1)
    e57c:	00f60023          	sb	a5,0(a2)
    e580:	00078a63          	beqz	a5,e594 <strcpy+0x80>
    e584:	00e600a3          	sb	a4,1(a2)
    e588:	00070663          	beqz	a4,e594 <strcpy+0x80>
    e58c:	00d60123          	sb	a3,2(a2)
    e590:	00069463          	bnez	a3,e598 <strcpy+0x84>
    e594:	00008067          	ret
    e598:	000601a3          	sb	zero,3(a2)
    e59c:	00008067          	ret
    e5a0:	00050793          	mv	a5,a0
    e5a4:	0005c703          	lbu	a4,0(a1)
    e5a8:	00178793          	add	a5,a5,1
    e5ac:	00158593          	add	a1,a1,1
    e5b0:	fee78fa3          	sb	a4,-1(a5)
    e5b4:	fe0718e3          	bnez	a4,e5a4 <strcpy+0x90>
    e5b8:	00008067          	ret
    e5bc:	00050613          	mv	a2,a0
    e5c0:	fb1ff06f          	j	e570 <strcpy+0x5c>

0000e5c4 <strncpy>:
    e5c4:	00b567b3          	or	a5,a0,a1
    e5c8:	0037f793          	and	a5,a5,3
    e5cc:	00050713          	mv	a4,a0
    e5d0:	06079a63          	bnez	a5,e644 <strncpy+0x80>
    e5d4:	00300793          	li	a5,3
    e5d8:	06c7f663          	bgeu	a5,a2,e644 <strncpy+0x80>
    e5dc:	feff0337          	lui	t1,0xfeff0
    e5e0:	808088b7          	lui	a7,0x80808
    e5e4:	eff30313          	add	t1,t1,-257 # fefefeff <_end+0xfefd5f2f>
    e5e8:	08088893          	add	a7,a7,128 # 80808080 <_end+0x807ee0b0>
    e5ec:	00300e13          	li	t3,3
    e5f0:	0180006f          	j	e608 <strncpy+0x44>
    e5f4:	00d72023          	sw	a3,0(a4)
    e5f8:	ffc60613          	add	a2,a2,-4
    e5fc:	00470713          	add	a4,a4,4
    e600:	00458593          	add	a1,a1,4
    e604:	04ce7063          	bgeu	t3,a2,e644 <strncpy+0x80>
    e608:	0005a683          	lw	a3,0(a1)
    e60c:	006687b3          	add	a5,a3,t1
    e610:	fff6c813          	not	a6,a3
    e614:	0107f7b3          	and	a5,a5,a6
    e618:	0117f7b3          	and	a5,a5,a7
    e61c:	fc078ce3          	beqz	a5,e5f4 <strncpy+0x30>
    e620:	00158593          	add	a1,a1,1
    e624:	00170793          	add	a5,a4,1
    e628:	02060463          	beqz	a2,e650 <strncpy+0x8c>
    e62c:	fff5c683          	lbu	a3,-1(a1)
    e630:	fff60813          	add	a6,a2,-1
    e634:	fed78fa3          	sb	a3,-1(a5)
    e638:	00068e63          	beqz	a3,e654 <strncpy+0x90>
    e63c:	00078713          	mv	a4,a5
    e640:	00080613          	mv	a2,a6
    e644:	00158593          	add	a1,a1,1
    e648:	00170793          	add	a5,a4,1
    e64c:	fe0610e3          	bnez	a2,e62c <strncpy+0x68>
    e650:	00008067          	ret
    e654:	00c70733          	add	a4,a4,a2
    e658:	00080a63          	beqz	a6,e66c <strncpy+0xa8>
    e65c:	00178793          	add	a5,a5,1
    e660:	fe078fa3          	sb	zero,-1(a5)
    e664:	fee79ce3          	bne	a5,a4,e65c <strncpy+0x98>
    e668:	00008067          	ret
    e66c:	00008067          	ret

0000e670 <_svfprintf_r>:
    e670:	e1010113          	add	sp,sp,-496
    e674:	1e112623          	sw	ra,492(sp)
    e678:	1e812423          	sw	s0,488(sp)
    e67c:	00b12423          	sw	a1,8(sp)
    e680:	00058413          	mv	s0,a1
    e684:	00c12623          	sw	a2,12(sp)
    e688:	00d12c23          	sw	a3,24(sp)
    e68c:	1e912223          	sw	s1,484(sp)
    e690:	1f212023          	sw	s2,480(sp)
    e694:	1d312e23          	sw	s3,476(sp)
    e698:	1d412c23          	sw	s4,472(sp)
    e69c:	1d512a23          	sw	s5,468(sp)
    e6a0:	1d612823          	sw	s6,464(sp)
    e6a4:	1d712623          	sw	s7,460(sp)
    e6a8:	1d812423          	sw	s8,456(sp)
    e6ac:	1d912223          	sw	s9,452(sp)
    e6b0:	1da12023          	sw	s10,448(sp)
    e6b4:	1bb12e23          	sw	s11,444(sp)
    e6b8:	02a12823          	sw	a0,48(sp)
    e6bc:	b19fd0ef          	jal	c1d4 <_localeconv_r>
    e6c0:	00052783          	lw	a5,0(a0)
    e6c4:	00078513          	mv	a0,a5
    e6c8:	02f12c23          	sw	a5,56(sp)
    e6cc:	fedf60ef          	jal	56b8 <strlen>
    e6d0:	00c45783          	lhu	a5,12(s0)
    e6d4:	0e012823          	sw	zero,240(sp)
    e6d8:	0e012a23          	sw	zero,244(sp)
    e6dc:	0e012c23          	sw	zero,248(sp)
    e6e0:	0e012e23          	sw	zero,252(sp)
    e6e4:	0807f793          	and	a5,a5,128
    e6e8:	02a12a23          	sw	a0,52(sp)
    e6ec:	00c12283          	lw	t0,12(sp)
    e6f0:	00078863          	beqz	a5,e700 <_svfprintf_r+0x90>
    e6f4:	01042783          	lw	a5,16(s0)
    e6f8:	00079463          	bnez	a5,e700 <_svfprintf_r+0x90>
    e6fc:	3ec0106f          	j	fae8 <_svfprintf_r+0x1478>
    e700:	000157b7          	lui	a5,0x15
    e704:	5b878793          	add	a5,a5,1464 # 155b8 <__mprec_tens+0xc8>
    e708:	00f12e23          	sw	a5,28(sp)
    e70c:	000157b7          	lui	a5,0x15
    e710:	7bc78793          	add	a5,a5,1980 # 157bc <zeroes.0>
    e714:	00028c13          	mv	s8,t0
    e718:	00f12623          	sw	a5,12(sp)
    e71c:	000c4783          	lbu	a5,0(s8)
    e720:	10c10b13          	add	s6,sp,268
    e724:	0f612223          	sw	s6,228(sp)
    e728:	0e012623          	sw	zero,236(sp)
    e72c:	0e012423          	sw	zero,232(sp)
    e730:	02012223          	sw	zero,36(sp)
    e734:	02012e23          	sw	zero,60(sp)
    e738:	04012223          	sw	zero,68(sp)
    e73c:	04012023          	sw	zero,64(sp)
    e740:	04012623          	sw	zero,76(sp)
    e744:	04012423          	sw	zero,72(sp)
    e748:	00012823          	sw	zero,16(sp)
    e74c:	03012983          	lw	s3,48(sp)
    e750:	000b0413          	mv	s0,s6
    e754:	22078463          	beqz	a5,e97c <_svfprintf_r+0x30c>
    e758:	000c0493          	mv	s1,s8
    e75c:	02500713          	li	a4,37
    e760:	3ce78e63          	beq	a5,a4,eb3c <_svfprintf_r+0x4cc>
    e764:	0014c783          	lbu	a5,1(s1) # 80000001 <_end+0x7ffe6031>
    e768:	00148493          	add	s1,s1,1
    e76c:	fe079ae3          	bnez	a5,e760 <_svfprintf_r+0xf0>
    e770:	41848933          	sub	s2,s1,s8
    e774:	21848463          	beq	s1,s8,e97c <_svfprintf_r+0x30c>
    e778:	0ec12703          	lw	a4,236(sp)
    e77c:	0e812783          	lw	a5,232(sp)
    e780:	01842023          	sw	s8,0(s0)
    e784:	01270733          	add	a4,a4,s2
    e788:	00178793          	add	a5,a5,1
    e78c:	01242223          	sw	s2,4(s0)
    e790:	0ee12623          	sw	a4,236(sp)
    e794:	0ef12423          	sw	a5,232(sp)
    e798:	00700713          	li	a4,7
    e79c:	00840413          	add	s0,s0,8
    e7a0:	3af74663          	blt	a4,a5,eb4c <_svfprintf_r+0x4dc>
    e7a4:	01012703          	lw	a4,16(sp)
    e7a8:	0004c783          	lbu	a5,0(s1)
    e7ac:	01270733          	add	a4,a4,s2
    e7b0:	00e12823          	sw	a4,16(sp)
    e7b4:	1c078463          	beqz	a5,e97c <_svfprintf_r+0x30c>
    e7b8:	0014c883          	lbu	a7,1(s1)
    e7bc:	0c0103a3          	sb	zero,199(sp)
    e7c0:	00148493          	add	s1,s1,1
    e7c4:	fff00913          	li	s2,-1
    e7c8:	00000a13          	li	s4,0
    e7cc:	00000b93          	li	s7,0
    e7d0:	05a00c93          	li	s9,90
    e7d4:	00148493          	add	s1,s1,1
    e7d8:	fe088793          	add	a5,a7,-32
    e7dc:	04fce663          	bltu	s9,a5,e828 <_svfprintf_r+0x1b8>
    e7e0:	01c12703          	lw	a4,28(sp)
    e7e4:	00279793          	sll	a5,a5,0x2
    e7e8:	00e787b3          	add	a5,a5,a4
    e7ec:	0007a783          	lw	a5,0(a5)
    e7f0:	00078067          	jr	a5
    e7f4:	00000a13          	li	s4,0
    e7f8:	fd088793          	add	a5,a7,-48
    e7fc:	00900693          	li	a3,9
    e800:	0004c883          	lbu	a7,0(s1)
    e804:	002a1713          	sll	a4,s4,0x2
    e808:	01470a33          	add	s4,a4,s4
    e80c:	001a1a13          	sll	s4,s4,0x1
    e810:	01478a33          	add	s4,a5,s4
    e814:	fd088793          	add	a5,a7,-48
    e818:	00148493          	add	s1,s1,1
    e81c:	fef6f2e3          	bgeu	a3,a5,e800 <_svfprintf_r+0x190>
    e820:	fe088793          	add	a5,a7,-32
    e824:	fafcfee3          	bgeu	s9,a5,e7e0 <_svfprintf_r+0x170>
    e828:	14088a63          	beqz	a7,e97c <_svfprintf_r+0x30c>
    e82c:	15110623          	sb	a7,332(sp)
    e830:	0c0103a3          	sb	zero,199(sp)
    e834:	00100c93          	li	s9,1
    e838:	00100d13          	li	s10,1
    e83c:	14c10c13          	add	s8,sp,332
    e840:	00012a23          	sw	zero,20(sp)
    e844:	00000913          	li	s2,0
    e848:	02012423          	sw	zero,40(sp)
    e84c:	02012623          	sw	zero,44(sp)
    e850:	02012023          	sw	zero,32(sp)
    e854:	002bff93          	and	t6,s7,2
    e858:	000f8463          	beqz	t6,e860 <_svfprintf_r+0x1f0>
    e85c:	002c8c93          	add	s9,s9,2
    e860:	084bfd93          	and	s11,s7,132
    e864:	000d9663          	bnez	s11,e870 <_svfprintf_r+0x200>
    e868:	419a0733          	sub	a4,s4,s9
    e86c:	40e048e3          	bgtz	a4,f47c <_svfprintf_r+0xe0c>
    e870:	0c714703          	lbu	a4,199(sp)
    e874:	02070c63          	beqz	a4,e8ac <_svfprintf_r+0x23c>
    e878:	0ec12603          	lw	a2,236(sp)
    e87c:	0e812703          	lw	a4,232(sp)
    e880:	0c710593          	add	a1,sp,199
    e884:	00160613          	add	a2,a2,1
    e888:	00b42023          	sw	a1,0(s0)
    e88c:	00170713          	add	a4,a4,1
    e890:	00100593          	li	a1,1
    e894:	00b42223          	sw	a1,4(s0)
    e898:	0ec12623          	sw	a2,236(sp)
    e89c:	0ee12423          	sw	a4,232(sp)
    e8a0:	00700613          	li	a2,7
    e8a4:	00840413          	add	s0,s0,8
    e8a8:	3ce64463          	blt	a2,a4,ec70 <_svfprintf_r+0x600>
    e8ac:	020f8c63          	beqz	t6,e8e4 <_svfprintf_r+0x274>
    e8b0:	0ec12603          	lw	a2,236(sp)
    e8b4:	0e812703          	lw	a4,232(sp)
    e8b8:	0c810793          	add	a5,sp,200
    e8bc:	00260613          	add	a2,a2,2
    e8c0:	00170713          	add	a4,a4,1
    e8c4:	00200593          	li	a1,2
    e8c8:	00f42023          	sw	a5,0(s0)
    e8cc:	00b42223          	sw	a1,4(s0)
    e8d0:	0ec12623          	sw	a2,236(sp)
    e8d4:	0ee12423          	sw	a4,232(sp)
    e8d8:	00700613          	li	a2,7
    e8dc:	00840413          	add	s0,s0,8
    e8e0:	4ae640e3          	blt	a2,a4,f580 <_svfprintf_r+0xf10>
    e8e4:	08000713          	li	a4,128
    e8e8:	18ed88e3          	beq	s11,a4,f278 <_svfprintf_r+0xc08>
    e8ec:	41a90933          	sub	s2,s2,s10
    e8f0:	27204ce3          	bgtz	s2,f368 <_svfprintf_r+0xcf8>
    e8f4:	100bf713          	and	a4,s7,256
    e8f8:	7e071663          	bnez	a4,f0e4 <_svfprintf_r+0xa74>
    e8fc:	0ec12703          	lw	a4,236(sp)
    e900:	0e812603          	lw	a2,232(sp)
    e904:	01842023          	sw	s8,0(s0)
    e908:	00ed0733          	add	a4,s10,a4
    e90c:	00160613          	add	a2,a2,1
    e910:	01a42223          	sw	s10,4(s0)
    e914:	0ee12623          	sw	a4,236(sp)
    e918:	0ec12423          	sw	a2,232(sp)
    e91c:	00700593          	li	a1,7
    e920:	48c5c063          	blt	a1,a2,eda0 <_svfprintf_r+0x730>
    e924:	00840413          	add	s0,s0,8
    e928:	004bf793          	and	a5,s7,4
    e92c:	00078663          	beqz	a5,e938 <_svfprintf_r+0x2c8>
    e930:	419a0933          	sub	s2,s4,s9
    e934:	472048e3          	bgtz	s2,f5a4 <_svfprintf_r+0xf34>
    e938:	000a0313          	mv	t1,s4
    e93c:	019a5463          	bge	s4,s9,e944 <_svfprintf_r+0x2d4>
    e940:	000c8313          	mv	t1,s9
    e944:	01012783          	lw	a5,16(sp)
    e948:	006787b3          	add	a5,a5,t1
    e94c:	00f12823          	sw	a5,16(sp)
    e950:	2e071ce3          	bnez	a4,f448 <_svfprintf_r+0xdd8>
    e954:	01412783          	lw	a5,20(sp)
    e958:	0e012423          	sw	zero,232(sp)
    e95c:	00078863          	beqz	a5,e96c <_svfprintf_r+0x2fc>
    e960:	01412583          	lw	a1,20(sp)
    e964:	00098513          	mv	a0,s3
    e968:	af8fa0ef          	jal	8c60 <_free_r>
    e96c:	000b0413          	mv	s0,s6
    e970:	00048c13          	mv	s8,s1
    e974:	000c4783          	lbu	a5,0(s8)
    e978:	de0790e3          	bnez	a5,e758 <_svfprintf_r+0xe8>
    e97c:	0ec12783          	lw	a5,236(sp)
    e980:	00078463          	beqz	a5,e988 <_svfprintf_r+0x318>
    e984:	3e90106f          	j	1056c <_svfprintf_r+0x1efc>
    e988:	00812783          	lw	a5,8(sp)
    e98c:	00c7d783          	lhu	a5,12(a5)
    e990:	0407f793          	and	a5,a5,64
    e994:	00078463          	beqz	a5,e99c <_svfprintf_r+0x32c>
    e998:	4a00206f          	j	10e38 <_svfprintf_r+0x27c8>
    e99c:	1ec12083          	lw	ra,492(sp)
    e9a0:	1e812403          	lw	s0,488(sp)
    e9a4:	01012503          	lw	a0,16(sp)
    e9a8:	1e412483          	lw	s1,484(sp)
    e9ac:	1e012903          	lw	s2,480(sp)
    e9b0:	1dc12983          	lw	s3,476(sp)
    e9b4:	1d812a03          	lw	s4,472(sp)
    e9b8:	1d412a83          	lw	s5,468(sp)
    e9bc:	1d012b03          	lw	s6,464(sp)
    e9c0:	1cc12b83          	lw	s7,460(sp)
    e9c4:	1c812c03          	lw	s8,456(sp)
    e9c8:	1c412c83          	lw	s9,452(sp)
    e9cc:	1c012d03          	lw	s10,448(sp)
    e9d0:	1bc12d83          	lw	s11,444(sp)
    e9d4:	1f010113          	add	sp,sp,496
    e9d8:	00008067          	ret
    e9dc:	00098513          	mv	a0,s3
    e9e0:	ff4fd0ef          	jal	c1d4 <_localeconv_r>
    e9e4:	00452783          	lw	a5,4(a0)
    e9e8:	00078513          	mv	a0,a5
    e9ec:	04f12423          	sw	a5,72(sp)
    e9f0:	cc9f60ef          	jal	56b8 <strlen>
    e9f4:	00050793          	mv	a5,a0
    e9f8:	00098513          	mv	a0,s3
    e9fc:	00078a93          	mv	s5,a5
    ea00:	04f12623          	sw	a5,76(sp)
    ea04:	fd0fd0ef          	jal	c1d4 <_localeconv_r>
    ea08:	00852703          	lw	a4,8(a0)
    ea0c:	04e12023          	sw	a4,64(sp)
    ea10:	000a8463          	beqz	s5,ea18 <_svfprintf_r+0x3a8>
    ea14:	7d90006f          	j	f9ec <_svfprintf_r+0x137c>
    ea18:	0004c883          	lbu	a7,0(s1)
    ea1c:	db9ff06f          	j	e7d4 <_svfprintf_r+0x164>
    ea20:	0004c883          	lbu	a7,0(s1)
    ea24:	020beb93          	or	s7,s7,32
    ea28:	dadff06f          	j	e7d4 <_svfprintf_r+0x164>
    ea2c:	010beb93          	or	s7,s7,16
    ea30:	020bf713          	and	a4,s7,32
    ea34:	3a070e63          	beqz	a4,edf0 <_svfprintf_r+0x780>
    ea38:	01812783          	lw	a5,24(sp)
    ea3c:	00778a93          	add	s5,a5,7
    ea40:	ff8afa93          	and	s5,s5,-8
    ea44:	004aa703          	lw	a4,4(s5)
    ea48:	000aac83          	lw	s9,0(s5)
    ea4c:	008a8793          	add	a5,s5,8
    ea50:	00f12c23          	sw	a5,24(sp)
    ea54:	00070d13          	mv	s10,a4
    ea58:	3c074663          	bltz	a4,ee24 <_svfprintf_r+0x7b4>
    ea5c:	fff00713          	li	a4,-1
    ea60:	000b8d93          	mv	s11,s7
    ea64:	00e90a63          	beq	s2,a4,ea78 <_svfprintf_r+0x408>
    ea68:	01ace733          	or	a4,s9,s10
    ea6c:	f7fbfd93          	and	s11,s7,-129
    ea70:	00071463          	bnez	a4,ea78 <_svfprintf_r+0x408>
    ea74:	7ad0006f          	j	fa20 <_svfprintf_r+0x13b0>
    ea78:	000d0463          	beqz	s10,ea80 <_svfprintf_r+0x410>
    ea7c:	36c0106f          	j	fde8 <_svfprintf_r+0x1778>
    ea80:	00900793          	li	a5,9
    ea84:	0197f463          	bgeu	a5,s9,ea8c <_svfprintf_r+0x41c>
    ea88:	3600106f          	j	fde8 <_svfprintf_r+0x1778>
    ea8c:	030c8c93          	add	s9,s9,48
    ea90:	1b9107a3          	sb	s9,431(sp)
    ea94:	000d8b93          	mv	s7,s11
    ea98:	00100d13          	li	s10,1
    ea9c:	1af10c13          	add	s8,sp,431
    eaa0:	0c714703          	lbu	a4,199(sp)
    eaa4:	000d0c93          	mv	s9,s10
    eaa8:	012d5463          	bge	s10,s2,eab0 <_svfprintf_r+0x440>
    eaac:	00090c93          	mv	s9,s2
    eab0:	00012a23          	sw	zero,20(sp)
    eab4:	02012423          	sw	zero,40(sp)
    eab8:	02012623          	sw	zero,44(sp)
    eabc:	02012023          	sw	zero,32(sp)
    eac0:	d8070ae3          	beqz	a4,e854 <_svfprintf_r+0x1e4>
    eac4:	001c8c93          	add	s9,s9,1
    eac8:	d8dff06f          	j	e854 <_svfprintf_r+0x1e4>
    eacc:	010beb93          	or	s7,s7,16
    ead0:	020bf713          	and	a4,s7,32
    ead4:	2e070663          	beqz	a4,edc0 <_svfprintf_r+0x750>
    ead8:	01812783          	lw	a5,24(sp)
    eadc:	00778a93          	add	s5,a5,7
    eae0:	ff8afa93          	and	s5,s5,-8
    eae4:	000aac83          	lw	s9,0(s5)
    eae8:	004aad03          	lw	s10,4(s5)
    eaec:	008a8793          	add	a5,s5,8
    eaf0:	00f12c23          	sw	a5,24(sp)
    eaf4:	bffbfd93          	and	s11,s7,-1025
    eaf8:	00000693          	li	a3,0
    eafc:	00000793          	li	a5,0
    eb00:	0cf103a3          	sb	a5,199(sp)
    eb04:	fff00793          	li	a5,-1
    eb08:	34f90263          	beq	s2,a5,ee4c <_svfprintf_r+0x7dc>
    eb0c:	01ace733          	or	a4,s9,s10
    eb10:	f7fdfb93          	and	s7,s11,-129
    eb14:	160710e3          	bnez	a4,f474 <_svfprintf_r+0xe04>
    eb18:	70091263          	bnez	s2,f21c <_svfprintf_r+0xbac>
    eb1c:	5e0696e3          	bnez	a3,f908 <_svfprintf_r+0x1298>
    eb20:	001dfd13          	and	s10,s11,1
    eb24:	1b010c13          	add	s8,sp,432
    eb28:	f60d0ce3          	beqz	s10,eaa0 <_svfprintf_r+0x430>
    eb2c:	03000713          	li	a4,48
    eb30:	1ae107a3          	sb	a4,431(sp)
    eb34:	1af10c13          	add	s8,sp,431
    eb38:	f69ff06f          	j	eaa0 <_svfprintf_r+0x430>
    eb3c:	41848933          	sub	s2,s1,s8
    eb40:	c3849ce3          	bne	s1,s8,e778 <_svfprintf_r+0x108>
    eb44:	0004c783          	lbu	a5,0(s1)
    eb48:	c6dff06f          	j	e7b4 <_svfprintf_r+0x144>
    eb4c:	00812583          	lw	a1,8(sp)
    eb50:	0e410613          	add	a2,sp,228
    eb54:	00098513          	mv	a0,s3
    eb58:	3f0040ef          	jal	12f48 <__ssprint_r>
    eb5c:	e20516e3          	bnez	a0,e988 <_svfprintf_r+0x318>
    eb60:	000b0413          	mv	s0,s6
    eb64:	c41ff06f          	j	e7a4 <_svfprintf_r+0x134>
    eb68:	008bf713          	and	a4,s7,8
    eb6c:	620718e3          	bnez	a4,f99c <_svfprintf_r+0x132c>
    eb70:	01812783          	lw	a5,24(sp)
    eb74:	0b010513          	add	a0,sp,176
    eb78:	01112a23          	sw	a7,20(sp)
    eb7c:	00778a93          	add	s5,a5,7
    eb80:	ff8afa93          	and	s5,s5,-8
    eb84:	000aa583          	lw	a1,0(s5)
    eb88:	004aa603          	lw	a2,4(s5)
    eb8c:	008a8793          	add	a5,s5,8
    eb90:	00f12c23          	sw	a5,24(sp)
    eb94:	b20f50ef          	jal	3eb4 <__extenddftf2>
    eb98:	0b012583          	lw	a1,176(sp)
    eb9c:	0b412603          	lw	a2,180(sp)
    eba0:	0b812683          	lw	a3,184(sp)
    eba4:	0bc12703          	lw	a4,188(sp)
    eba8:	01412883          	lw	a7,20(sp)
    ebac:	0f010513          	add	a0,sp,240
    ebb0:	01112a23          	sw	a7,20(sp)
    ebb4:	0ee12e23          	sw	a4,252(sp)
    ebb8:	0eb12823          	sw	a1,240(sp)
    ebbc:	0ec12a23          	sw	a2,244(sp)
    ebc0:	0ed12c23          	sw	a3,248(sp)
    ebc4:	d90fd0ef          	jal	c154 <_ldcheck>
    ebc8:	0ca12623          	sw	a0,204(sp)
    ebcc:	00200713          	li	a4,2
    ebd0:	01412883          	lw	a7,20(sp)
    ebd4:	00e51463          	bne	a0,a4,ebdc <_svfprintf_r+0x56c>
    ebd8:	4540106f          	j	1002c <_svfprintf_r+0x19bc>
    ebdc:	00100713          	li	a4,1
    ebe0:	00e51463          	bne	a0,a4,ebe8 <_svfprintf_r+0x578>
    ebe4:	5c00106f          	j	101a4 <_svfprintf_r+0x1b34>
    ebe8:	06100713          	li	a4,97
    ebec:	00e89463          	bne	a7,a4,ebf4 <_svfprintf_r+0x584>
    ebf0:	6690106f          	j	10a58 <_svfprintf_r+0x23e8>
    ebf4:	04100713          	li	a4,65
    ebf8:	00e89463          	bne	a7,a4,ec00 <_svfprintf_r+0x590>
    ebfc:	0600206f          	j	10c5c <_svfprintf_r+0x25ec>
    ec00:	fff00713          	li	a4,-1
    ec04:	00e91463          	bne	s2,a4,ec0c <_svfprintf_r+0x59c>
    ec08:	1a90106f          	j	105b0 <_svfprintf_r+0x1f40>
    ec0c:	fdf8f713          	and	a4,a7,-33
    ec10:	04700693          	li	a3,71
    ec14:	00d71463          	bne	a4,a3,ec1c <_svfprintf_r+0x5ac>
    ec18:	22c0206f          	j	10e44 <_svfprintf_r+0x27d4>
    ec1c:	0fc12d83          	lw	s11,252(sp)
    ec20:	100be793          	or	a5,s7,256
    ec24:	04f12c23          	sw	a5,88(sp)
    ec28:	03712623          	sw	s7,44(sp)
    ec2c:	0f012f03          	lw	t5,240(sp)
    ec30:	0f412e83          	lw	t4,244(sp)
    ec34:	0f812e03          	lw	t3,248(sp)
    ec38:	000dd463          	bgez	s11,ec40 <_svfprintf_r+0x5d0>
    ec3c:	76d0106f          	j	10ba8 <_svfprintf_r+0x2538>
    ec40:	06012023          	sw	zero,96(sp)
    ec44:	00012a23          	sw	zero,20(sp)
    ec48:	fbf88793          	add	a5,a7,-65
    ec4c:	02500713          	li	a4,37
    ec50:	00f77463          	bgeu	a4,a5,ec58 <_svfprintf_r+0x5e8>
    ec54:	6bc0106f          	j	10310 <_svfprintf_r+0x1ca0>
    ec58:	00015737          	lui	a4,0x15
    ec5c:	00279793          	sll	a5,a5,0x2
    ec60:	72470713          	add	a4,a4,1828 # 15724 <__mprec_tens+0x234>
    ec64:	00e787b3          	add	a5,a5,a4
    ec68:	0007a783          	lw	a5,0(a5)
    ec6c:	00078067          	jr	a5
    ec70:	00812583          	lw	a1,8(sp)
    ec74:	0e410613          	add	a2,sp,228
    ec78:	00098513          	mv	a0,s3
    ec7c:	05112a23          	sw	a7,84(sp)
    ec80:	05f12823          	sw	t6,80(sp)
    ec84:	2c4040ef          	jal	12f48 <__ssprint_r>
    ec88:	7c051a63          	bnez	a0,f45c <_svfprintf_r+0xdec>
    ec8c:	05412883          	lw	a7,84(sp)
    ec90:	05012f83          	lw	t6,80(sp)
    ec94:	000b0413          	mv	s0,s6
    ec98:	c15ff06f          	j	e8ac <_svfprintf_r+0x23c>
    ec9c:	02412783          	lw	a5,36(sp)
    eca0:	00100593          	li	a1,1
    eca4:	00840d13          	add	s10,s0,8
    eca8:	32f5dce3          	bge	a1,a5,f7e0 <_svfprintf_r+0x1170>
    ecac:	0ec12703          	lw	a4,236(sp)
    ecb0:	0e812603          	lw	a2,232(sp)
    ecb4:	00100593          	li	a1,1
    ecb8:	00170713          	add	a4,a4,1
    ecbc:	00160613          	add	a2,a2,1
    ecc0:	00b42223          	sw	a1,4(s0)
    ecc4:	01842023          	sw	s8,0(s0)
    ecc8:	0ee12623          	sw	a4,236(sp)
    eccc:	0ec12423          	sw	a2,232(sp)
    ecd0:	00700593          	li	a1,7
    ecd4:	44c5c0e3          	blt	a1,a2,f914 <_svfprintf_r+0x12a4>
    ecd8:	03412783          	lw	a5,52(sp)
    ecdc:	00160913          	add	s2,a2,1
    ece0:	0f212423          	sw	s2,232(sp)
    ece4:	00e78db3          	add	s11,a5,a4
    ece8:	03812703          	lw	a4,56(sp)
    ecec:	00fd2223          	sw	a5,4(s10)
    ecf0:	0fb12623          	sw	s11,236(sp)
    ecf4:	00ed2023          	sw	a4,0(s10)
    ecf8:	00700713          	li	a4,7
    ecfc:	008d0d13          	add	s10,s10,8
    ed00:	43274ce3          	blt	a4,s2,f938 <_svfprintf_r+0x12c8>
    ed04:	0f012703          	lw	a4,240(sp)
    ed08:	0a010593          	add	a1,sp,160
    ed0c:	0b010513          	add	a0,sp,176
    ed10:	0ae12823          	sw	a4,176(sp)
    ed14:	0f412703          	lw	a4,244(sp)
    ed18:	0a012023          	sw	zero,160(sp)
    ed1c:	0a012223          	sw	zero,164(sp)
    ed20:	0ae12a23          	sw	a4,180(sp)
    ed24:	0f812703          	lw	a4,248(sp)
    ed28:	0a012423          	sw	zero,168(sp)
    ed2c:	0a012623          	sw	zero,172(sp)
    ed30:	0ae12c23          	sw	a4,184(sp)
    ed34:	0fc12703          	lw	a4,252(sp)
    ed38:	0ae12e23          	sw	a4,188(sp)
    ed3c:	e88f20ef          	jal	13c4 <__eqtf2>
    ed40:	02412783          	lw	a5,36(sp)
    ed44:	fff78413          	add	s0,a5,-1
    ed48:	2e0506e3          	beqz	a0,f834 <_svfprintf_r+0x11c4>
    ed4c:	001c0293          	add	t0,s8,1
    ed50:	00190913          	add	s2,s2,1
    ed54:	008d8db3          	add	s11,s11,s0
    ed58:	005d2023          	sw	t0,0(s10)
    ed5c:	008d2223          	sw	s0,4(s10)
    ed60:	0fb12623          	sw	s11,236(sp)
    ed64:	0f212423          	sw	s2,232(sp)
    ed68:	00700713          	li	a4,7
    ed6c:	008d0d13          	add	s10,s10,8
    ed70:	2b2740e3          	blt	a4,s2,f810 <_svfprintf_r+0x11a0>
    ed74:	04412783          	lw	a5,68(sp)
    ed78:	0d410593          	add	a1,sp,212
    ed7c:	00190613          	add	a2,s2,1
    ed80:	01b78733          	add	a4,a5,s11
    ed84:	00bd2023          	sw	a1,0(s10)
    ed88:	00fd2223          	sw	a5,4(s10)
    ed8c:	0ee12623          	sw	a4,236(sp)
    ed90:	0ec12423          	sw	a2,232(sp)
    ed94:	00700593          	li	a1,7
    ed98:	008d0413          	add	s0,s10,8
    ed9c:	b8c5d6e3          	bge	a1,a2,e928 <_svfprintf_r+0x2b8>
    eda0:	00812583          	lw	a1,8(sp)
    eda4:	0e410613          	add	a2,sp,228
    eda8:	00098513          	mv	a0,s3
    edac:	19c040ef          	jal	12f48 <__ssprint_r>
    edb0:	6a051663          	bnez	a0,f45c <_svfprintf_r+0xdec>
    edb4:	0ec12703          	lw	a4,236(sp)
    edb8:	000b0413          	mv	s0,s6
    edbc:	b6dff06f          	j	e928 <_svfprintf_r+0x2b8>
    edc0:	01812783          	lw	a5,24(sp)
    edc4:	010bf713          	and	a4,s7,16
    edc8:	0007ac83          	lw	s9,0(a5)
    edcc:	00478793          	add	a5,a5,4
    edd0:	00f12c23          	sw	a5,24(sp)
    edd4:	3c0710e3          	bnez	a4,f994 <_svfprintf_r+0x1324>
    edd8:	040bf713          	and	a4,s7,64
    eddc:	3a0708e3          	beqz	a4,f98c <_svfprintf_r+0x131c>
    ede0:	010c9c93          	sll	s9,s9,0x10
    ede4:	010cdc93          	srl	s9,s9,0x10
    ede8:	00000d13          	li	s10,0
    edec:	d09ff06f          	j	eaf4 <_svfprintf_r+0x484>
    edf0:	01812783          	lw	a5,24(sp)
    edf4:	010bf713          	and	a4,s7,16
    edf8:	0007ac83          	lw	s9,0(a5)
    edfc:	00478793          	add	a5,a5,4
    ee00:	00f12c23          	sw	a5,24(sp)
    ee04:	36071ee3          	bnez	a4,f980 <_svfprintf_r+0x1310>
    ee08:	040bf713          	and	a4,s7,64
    ee0c:	360706e3          	beqz	a4,f978 <_svfprintf_r+0x1308>
    ee10:	010c9c93          	sll	s9,s9,0x10
    ee14:	410cdc93          	sra	s9,s9,0x10
    ee18:	41fcdd13          	sra	s10,s9,0x1f
    ee1c:	000d0713          	mv	a4,s10
    ee20:	c2075ee3          	bgez	a4,ea5c <_svfprintf_r+0x3ec>
    ee24:	02d00793          	li	a5,45
    ee28:	01903733          	snez	a4,s9
    ee2c:	41a00d33          	neg	s10,s10
    ee30:	0cf103a3          	sb	a5,199(sp)
    ee34:	fff00793          	li	a5,-1
    ee38:	40ed0d33          	sub	s10,s10,a4
    ee3c:	41900cb3          	neg	s9,s9
    ee40:	000b8d93          	mv	s11,s7
    ee44:	00100693          	li	a3,1
    ee48:	ccf912e3          	bne	s2,a5,eb0c <_svfprintf_r+0x49c>
    ee4c:	00100793          	li	a5,1
    ee50:	c2f684e3          	beq	a3,a5,ea78 <_svfprintf_r+0x408>
    ee54:	00200793          	li	a5,2
    ee58:	3cf68e63          	beq	a3,a5,f234 <_svfprintf_r+0xbc4>
    ee5c:	1b010c13          	add	s8,sp,432
    ee60:	01dd1713          	sll	a4,s10,0x1d
    ee64:	007cf793          	and	a5,s9,7
    ee68:	003cdc93          	srl	s9,s9,0x3
    ee6c:	03078793          	add	a5,a5,48
    ee70:	01976cb3          	or	s9,a4,s9
    ee74:	003d5d13          	srl	s10,s10,0x3
    ee78:	fefc0fa3          	sb	a5,-1(s8)
    ee7c:	01ace733          	or	a4,s9,s10
    ee80:	000c0693          	mv	a3,s8
    ee84:	fffc0c13          	add	s8,s8,-1
    ee88:	fc071ce3          	bnez	a4,ee60 <_svfprintf_r+0x7f0>
    ee8c:	001df713          	and	a4,s11,1
    ee90:	3c070c63          	beqz	a4,f268 <_svfprintf_r+0xbf8>
    ee94:	03000713          	li	a4,48
    ee98:	3ce78863          	beq	a5,a4,f268 <_svfprintf_r+0xbf8>
    ee9c:	ffe68693          	add	a3,a3,-2
    eea0:	1b010793          	add	a5,sp,432
    eea4:	feec0fa3          	sb	a4,-1(s8)
    eea8:	40d78d33          	sub	s10,a5,a3
    eeac:	000d8b93          	mv	s7,s11
    eeb0:	00068c13          	mv	s8,a3
    eeb4:	bedff06f          	j	eaa0 <_svfprintf_r+0x430>
    eeb8:	01812783          	lw	a5,24(sp)
    eebc:	0c0103a3          	sb	zero,199(sp)
    eec0:	0007ac03          	lw	s8,0(a5)
    eec4:	00478a93          	add	s5,a5,4
    eec8:	000c1463          	bnez	s8,eed0 <_svfprintf_r+0x860>
    eecc:	1f80106f          	j	100c4 <_svfprintf_r+0x1a54>
    eed0:	fff00713          	li	a4,-1
    eed4:	44e904e3          	beq	s2,a4,fb1c <_svfprintf_r+0x14ac>
    eed8:	00090613          	mv	a2,s2
    eedc:	00000593          	li	a1,0
    eee0:	000c0513          	mv	a0,s8
    eee4:	01112c23          	sw	a7,24(sp)
    eee8:	d6cfd0ef          	jal	c454 <memchr>
    eeec:	00a12a23          	sw	a0,20(sp)
    eef0:	01812883          	lw	a7,24(sp)
    eef4:	00051463          	bnez	a0,eefc <_svfprintf_r+0x88c>
    eef8:	4fd0106f          	j	10bf4 <_svfprintf_r+0x2584>
    eefc:	01412783          	lw	a5,20(sp)
    ef00:	0c714703          	lbu	a4,199(sp)
    ef04:	01512c23          	sw	s5,24(sp)
    ef08:	41878d33          	sub	s10,a5,s8
    ef0c:	fffd4693          	not	a3,s10
    ef10:	41f6d693          	sra	a3,a3,0x1f
    ef14:	00012a23          	sw	zero,20(sp)
    ef18:	02012423          	sw	zero,40(sp)
    ef1c:	02012623          	sw	zero,44(sp)
    ef20:	02012023          	sw	zero,32(sp)
    ef24:	00dd7cb3          	and	s9,s10,a3
    ef28:	00000913          	li	s2,0
    ef2c:	b8071ce3          	bnez	a4,eac4 <_svfprintf_r+0x454>
    ef30:	925ff06f          	j	e854 <_svfprintf_r+0x1e4>
    ef34:	01812783          	lw	a5,24(sp)
    ef38:	0c0103a3          	sb	zero,199(sp)
    ef3c:	00100c93          	li	s9,1
    ef40:	0007a703          	lw	a4,0(a5)
    ef44:	00478793          	add	a5,a5,4
    ef48:	00f12c23          	sw	a5,24(sp)
    ef4c:	14e10623          	sb	a4,332(sp)
    ef50:	00100d13          	li	s10,1
    ef54:	14c10c13          	add	s8,sp,332
    ef58:	8e9ff06f          	j	e840 <_svfprintf_r+0x1d0>
    ef5c:	01812783          	lw	a5,24(sp)
    ef60:	0007aa03          	lw	s4,0(a5)
    ef64:	00478793          	add	a5,a5,4
    ef68:	200a52e3          	bgez	s4,f96c <_svfprintf_r+0x12fc>
    ef6c:	41400a33          	neg	s4,s4
    ef70:	00f12c23          	sw	a5,24(sp)
    ef74:	0004c883          	lbu	a7,0(s1)
    ef78:	004beb93          	or	s7,s7,4
    ef7c:	859ff06f          	j	e7d4 <_svfprintf_r+0x164>
    ef80:	02b00793          	li	a5,43
    ef84:	0004c883          	lbu	a7,0(s1)
    ef88:	0cf103a3          	sb	a5,199(sp)
    ef8c:	849ff06f          	j	e7d4 <_svfprintf_r+0x164>
    ef90:	0004c883          	lbu	a7,0(s1)
    ef94:	080beb93          	or	s7,s7,128
    ef98:	83dff06f          	j	e7d4 <_svfprintf_r+0x164>
    ef9c:	0004c883          	lbu	a7,0(s1)
    efa0:	02a00793          	li	a5,42
    efa4:	00148713          	add	a4,s1,1
    efa8:	00f89463          	bne	a7,a5,efb0 <_svfprintf_r+0x940>
    efac:	7550106f          	j	10f00 <_svfprintf_r+0x2890>
    efb0:	fd088793          	add	a5,a7,-48
    efb4:	00900613          	li	a2,9
    efb8:	00070493          	mv	s1,a4
    efbc:	00000913          	li	s2,0
    efc0:	00900693          	li	a3,9
    efc4:	80f66ae3          	bltu	a2,a5,e7d8 <_svfprintf_r+0x168>
    efc8:	0004c883          	lbu	a7,0(s1)
    efcc:	00291713          	sll	a4,s2,0x2
    efd0:	01270933          	add	s2,a4,s2
    efd4:	00191913          	sll	s2,s2,0x1
    efd8:	00f90933          	add	s2,s2,a5
    efdc:	fd088793          	add	a5,a7,-48
    efe0:	00148493          	add	s1,s1,1
    efe4:	fef6f2e3          	bgeu	a3,a5,efc8 <_svfprintf_r+0x958>
    efe8:	ff0ff06f          	j	e7d8 <_svfprintf_r+0x168>
    efec:	0004c883          	lbu	a7,0(s1)
    eff0:	001beb93          	or	s7,s7,1
    eff4:	fe0ff06f          	j	e7d4 <_svfprintf_r+0x164>
    eff8:	0c714783          	lbu	a5,199(sp)
    effc:	0004c883          	lbu	a7,0(s1)
    f000:	fc079a63          	bnez	a5,e7d4 <_svfprintf_r+0x164>
    f004:	02000793          	li	a5,32
    f008:	0cf103a3          	sb	a5,199(sp)
    f00c:	fc8ff06f          	j	e7d4 <_svfprintf_r+0x164>
    f010:	010bed93          	or	s11,s7,16
    f014:	020df793          	and	a5,s11,32
    f018:	0a0782e3          	beqz	a5,f8bc <_svfprintf_r+0x124c>
    f01c:	01812783          	lw	a5,24(sp)
    f020:	00100693          	li	a3,1
    f024:	00778a93          	add	s5,a5,7
    f028:	ff8afa93          	and	s5,s5,-8
    f02c:	008a8793          	add	a5,s5,8
    f030:	000aac83          	lw	s9,0(s5)
    f034:	004aad03          	lw	s10,4(s5)
    f038:	00f12c23          	sw	a5,24(sp)
    f03c:	ac1ff06f          	j	eafc <_svfprintf_r+0x48c>
    f040:	0004c883          	lbu	a7,0(s1)
    f044:	008beb93          	or	s7,s7,8
    f048:	f8cff06f          	j	e7d4 <_svfprintf_r+0x164>
    f04c:	01812703          	lw	a4,24(sp)
    f050:	ffff87b7          	lui	a5,0xffff8
    f054:	8307c793          	xor	a5,a5,-2000
    f058:	0cf11423          	sh	a5,200(sp)
    f05c:	00470793          	add	a5,a4,4
    f060:	00f12c23          	sw	a5,24(sp)
    f064:	000157b7          	lui	a5,0x15
    f068:	f1078793          	add	a5,a5,-240 # 14f10 <_getpid_r+0x5f4>
    f06c:	00072c83          	lw	s9,0(a4)
    f070:	00000d13          	li	s10,0
    f074:	002bed93          	or	s11,s7,2
    f078:	02f12e23          	sw	a5,60(sp)
    f07c:	00200693          	li	a3,2
    f080:	07800893          	li	a7,120
    f084:	a79ff06f          	j	eafc <_svfprintf_r+0x48c>
    f088:	020bf713          	and	a4,s7,32
    f08c:	12070ae3          	beqz	a4,f9c0 <_svfprintf_r+0x1350>
    f090:	01812783          	lw	a5,24(sp)
    f094:	01012683          	lw	a3,16(sp)
    f098:	0007a783          	lw	a5,0(a5)
    f09c:	41f6d713          	sra	a4,a3,0x1f
    f0a0:	00d7a023          	sw	a3,0(a5)
    f0a4:	00e7a223          	sw	a4,4(a5)
    f0a8:	01812783          	lw	a5,24(sp)
    f0ac:	00048c13          	mv	s8,s1
    f0b0:	00478793          	add	a5,a5,4
    f0b4:	00f12c23          	sw	a5,24(sp)
    f0b8:	8bdff06f          	j	e974 <_svfprintf_r+0x304>
    f0bc:	0004c883          	lbu	a7,0(s1)
    f0c0:	06c00793          	li	a5,108
    f0c4:	1ef882e3          	beq	a7,a5,faa8 <_svfprintf_r+0x1438>
    f0c8:	010beb93          	or	s7,s7,16
    f0cc:	f08ff06f          	j	e7d4 <_svfprintf_r+0x164>
    f0d0:	0004c883          	lbu	a7,0(s1)
    f0d4:	06800793          	li	a5,104
    f0d8:	1cf880e3          	beq	a7,a5,fa98 <_svfprintf_r+0x1428>
    f0dc:	040beb93          	or	s7,s7,64
    f0e0:	ef4ff06f          	j	e7d4 <_svfprintf_r+0x164>
    f0e4:	06500713          	li	a4,101
    f0e8:	bb175ae3          	bge	a4,a7,ec9c <_svfprintf_r+0x62c>
    f0ec:	0f012703          	lw	a4,240(sp)
    f0f0:	0a010593          	add	a1,sp,160
    f0f4:	0b010513          	add	a0,sp,176
    f0f8:	0ae12823          	sw	a4,176(sp)
    f0fc:	0f412703          	lw	a4,244(sp)
    f100:	0a012023          	sw	zero,160(sp)
    f104:	0a012223          	sw	zero,164(sp)
    f108:	0ae12a23          	sw	a4,180(sp)
    f10c:	0f812703          	lw	a4,248(sp)
    f110:	0a012423          	sw	zero,168(sp)
    f114:	0a012623          	sw	zero,172(sp)
    f118:	0ae12c23          	sw	a4,184(sp)
    f11c:	0fc12703          	lw	a4,252(sp)
    f120:	0ae12e23          	sw	a4,188(sp)
    f124:	aa0f20ef          	jal	13c4 <__eqtf2>
    f128:	52051663          	bnez	a0,f654 <_svfprintf_r+0xfe4>
    f12c:	0ec12703          	lw	a4,236(sp)
    f130:	0e812603          	lw	a2,232(sp)
    f134:	000155b7          	lui	a1,0x15
    f138:	f4058593          	add	a1,a1,-192 # 14f40 <_getpid_r+0x624>
    f13c:	00b42023          	sw	a1,0(s0)
    f140:	00170713          	add	a4,a4,1
    f144:	00100593          	li	a1,1
    f148:	00160613          	add	a2,a2,1
    f14c:	00b42223          	sw	a1,4(s0)
    f150:	0ee12623          	sw	a4,236(sp)
    f154:	0ec12423          	sw	a2,232(sp)
    f158:	00700593          	li	a1,7
    f15c:	00840413          	add	s0,s0,8
    f160:	66c5c0e3          	blt	a1,a2,ffc0 <_svfprintf_r+0x1950>
    f164:	0cc12603          	lw	a2,204(sp)
    f168:	02412783          	lw	a5,36(sp)
    f16c:	7ef65863          	bge	a2,a5,f95c <_svfprintf_r+0x12ec>
    f170:	03412783          	lw	a5,52(sp)
    f174:	0e812603          	lw	a2,232(sp)
    f178:	03812683          	lw	a3,56(sp)
    f17c:	00e78733          	add	a4,a5,a4
    f180:	00160613          	add	a2,a2,1
    f184:	00d42023          	sw	a3,0(s0)
    f188:	00f42223          	sw	a5,4(s0)
    f18c:	0ee12623          	sw	a4,236(sp)
    f190:	0ec12423          	sw	a2,232(sp)
    f194:	00700593          	li	a1,7
    f198:	00840413          	add	s0,s0,8
    f19c:	10c5cee3          	blt	a1,a2,fab8 <_svfprintf_r+0x1448>
    f1a0:	02412783          	lw	a5,36(sp)
    f1a4:	fff78913          	add	s2,a5,-1
    f1a8:	f9205063          	blez	s2,e928 <_svfprintf_r+0x2b8>
    f1ac:	00015837          	lui	a6,0x15
    f1b0:	01000593          	li	a1,16
    f1b4:	0e812603          	lw	a2,232(sp)
    f1b8:	7bc80a93          	add	s5,a6,1980 # 157bc <zeroes.0>
    f1bc:	6325d2e3          	bge	a1,s2,ffe0 <_svfprintf_r+0x1970>
    f1c0:	00812c03          	lw	s8,8(sp)
    f1c4:	01000d13          	li	s10,16
    f1c8:	00700d93          	li	s11,7
    f1cc:	00c0006f          	j	f1d8 <_svfprintf_r+0xb68>
    f1d0:	ff090913          	add	s2,s2,-16
    f1d4:	612d56e3          	bge	s10,s2,ffe0 <_svfprintf_r+0x1970>
    f1d8:	01070713          	add	a4,a4,16
    f1dc:	00160613          	add	a2,a2,1
    f1e0:	01542023          	sw	s5,0(s0)
    f1e4:	01a42223          	sw	s10,4(s0)
    f1e8:	0ee12623          	sw	a4,236(sp)
    f1ec:	0ec12423          	sw	a2,232(sp)
    f1f0:	00840413          	add	s0,s0,8
    f1f4:	fccddee3          	bge	s11,a2,f1d0 <_svfprintf_r+0xb60>
    f1f8:	0e410613          	add	a2,sp,228
    f1fc:	000c0593          	mv	a1,s8
    f200:	00098513          	mv	a0,s3
    f204:	545030ef          	jal	12f48 <__ssprint_r>
    f208:	24051a63          	bnez	a0,f45c <_svfprintf_r+0xdec>
    f20c:	0ec12703          	lw	a4,236(sp)
    f210:	0e812603          	lw	a2,232(sp)
    f214:	000b0413          	mv	s0,s6
    f218:	fb9ff06f          	j	f1d0 <_svfprintf_r+0xb60>
    f21c:	00100713          	li	a4,1
    f220:	00e69463          	bne	a3,a4,f228 <_svfprintf_r+0xbb8>
    f224:	2810106f          	j	10ca4 <_svfprintf_r+0x2634>
    f228:	00200713          	li	a4,2
    f22c:	000b8d93          	mv	s11,s7
    f230:	c2e696e3          	bne	a3,a4,ee5c <_svfprintf_r+0x7ec>
    f234:	03c12683          	lw	a3,60(sp)
    f238:	1b010c13          	add	s8,sp,432
    f23c:	00fcf793          	and	a5,s9,15
    f240:	00f687b3          	add	a5,a3,a5
    f244:	0007c703          	lbu	a4,0(a5)
    f248:	004cdc93          	srl	s9,s9,0x4
    f24c:	01cd1793          	sll	a5,s10,0x1c
    f250:	0197ecb3          	or	s9,a5,s9
    f254:	004d5d13          	srl	s10,s10,0x4
    f258:	feec0fa3          	sb	a4,-1(s8)
    f25c:	01ace7b3          	or	a5,s9,s10
    f260:	fffc0c13          	add	s8,s8,-1
    f264:	fc079ce3          	bnez	a5,f23c <_svfprintf_r+0xbcc>
    f268:	1b010793          	add	a5,sp,432
    f26c:	41878d33          	sub	s10,a5,s8
    f270:	000d8b93          	mv	s7,s11
    f274:	82dff06f          	j	eaa0 <_svfprintf_r+0x430>
    f278:	419a0db3          	sub	s11,s4,s9
    f27c:	e7b05863          	blez	s11,e8ec <_svfprintf_r+0x27c>
    f280:	00015837          	lui	a6,0x15
    f284:	01000513          	li	a0,16
    f288:	0ec12583          	lw	a1,236(sp)
    f28c:	0e812603          	lw	a2,232(sp)
    f290:	7bc80a93          	add	s5,a6,1980 # 157bc <zeroes.0>
    f294:	09b55463          	bge	a0,s11,f31c <_svfprintf_r+0xcac>
    f298:	00040793          	mv	a5,s0
    f29c:	01000e93          	li	t4,16
    f2a0:	000a8413          	mv	s0,s5
    f2a4:	00700f13          	li	t5,7
    f2a8:	00090a93          	mv	s5,s2
    f2ac:	00088913          	mv	s2,a7
    f2b0:	00c0006f          	j	f2bc <_svfprintf_r+0xc4c>
    f2b4:	ff0d8d93          	add	s11,s11,-16
    f2b8:	05beda63          	bge	t4,s11,f30c <_svfprintf_r+0xc9c>
    f2bc:	01058593          	add	a1,a1,16
    f2c0:	00160613          	add	a2,a2,1
    f2c4:	0087a023          	sw	s0,0(a5)
    f2c8:	01d7a223          	sw	t4,4(a5)
    f2cc:	0eb12623          	sw	a1,236(sp)
    f2d0:	0ec12423          	sw	a2,232(sp)
    f2d4:	00878793          	add	a5,a5,8
    f2d8:	fccf5ee3          	bge	t5,a2,f2b4 <_svfprintf_r+0xc44>
    f2dc:	00812583          	lw	a1,8(sp)
    f2e0:	0e410613          	add	a2,sp,228
    f2e4:	00098513          	mv	a0,s3
    f2e8:	461030ef          	jal	12f48 <__ssprint_r>
    f2ec:	16051863          	bnez	a0,f45c <_svfprintf_r+0xdec>
    f2f0:	01000e93          	li	t4,16
    f2f4:	ff0d8d93          	add	s11,s11,-16
    f2f8:	0ec12583          	lw	a1,236(sp)
    f2fc:	0e812603          	lw	a2,232(sp)
    f300:	000b0793          	mv	a5,s6
    f304:	00700f13          	li	t5,7
    f308:	fbbecae3          	blt	t4,s11,f2bc <_svfprintf_r+0xc4c>
    f30c:	00090893          	mv	a7,s2
    f310:	000a8913          	mv	s2,s5
    f314:	00040a93          	mv	s5,s0
    f318:	00078413          	mv	s0,a5
    f31c:	00bd85b3          	add	a1,s11,a1
    f320:	00160613          	add	a2,a2,1
    f324:	01542023          	sw	s5,0(s0)
    f328:	01b42223          	sw	s11,4(s0)
    f32c:	0eb12623          	sw	a1,236(sp)
    f330:	0ec12423          	sw	a2,232(sp)
    f334:	00700713          	li	a4,7
    f338:	00840413          	add	s0,s0,8
    f33c:	dac75863          	bge	a4,a2,e8ec <_svfprintf_r+0x27c>
    f340:	00812583          	lw	a1,8(sp)
    f344:	0e410613          	add	a2,sp,228
    f348:	00098513          	mv	a0,s3
    f34c:	05112823          	sw	a7,80(sp)
    f350:	3f9030ef          	jal	12f48 <__ssprint_r>
    f354:	10051463          	bnez	a0,f45c <_svfprintf_r+0xdec>
    f358:	41a90933          	sub	s2,s2,s10
    f35c:	05012883          	lw	a7,80(sp)
    f360:	000b0413          	mv	s0,s6
    f364:	d9205863          	blez	s2,e8f4 <_svfprintf_r+0x284>
    f368:	00015837          	lui	a6,0x15
    f36c:	01000713          	li	a4,16
    f370:	0ec12583          	lw	a1,236(sp)
    f374:	0e812603          	lw	a2,232(sp)
    f378:	7bc80a93          	add	s5,a6,1980 # 157bc <zeroes.0>
    f37c:	09275263          	bge	a4,s2,f400 <_svfprintf_r+0xd90>
    f380:	00040793          	mv	a5,s0
    f384:	00c12a83          	lw	s5,12(sp)
    f388:	00090413          	mv	s0,s2
    f38c:	01000713          	li	a4,16
    f390:	00700d93          	li	s11,7
    f394:	00088913          	mv	s2,a7
    f398:	00c0006f          	j	f3a4 <_svfprintf_r+0xd34>
    f39c:	ff040413          	add	s0,s0,-16
    f3a0:	04875a63          	bge	a4,s0,f3f4 <_svfprintf_r+0xd84>
    f3a4:	00c12683          	lw	a3,12(sp)
    f3a8:	01058593          	add	a1,a1,16
    f3ac:	00160613          	add	a2,a2,1
    f3b0:	00d7a023          	sw	a3,0(a5)
    f3b4:	00e7a223          	sw	a4,4(a5)
    f3b8:	0eb12623          	sw	a1,236(sp)
    f3bc:	0ec12423          	sw	a2,232(sp)
    f3c0:	00878793          	add	a5,a5,8
    f3c4:	fccddce3          	bge	s11,a2,f39c <_svfprintf_r+0xd2c>
    f3c8:	00812583          	lw	a1,8(sp)
    f3cc:	0e410613          	add	a2,sp,228
    f3d0:	00098513          	mv	a0,s3
    f3d4:	375030ef          	jal	12f48 <__ssprint_r>
    f3d8:	08051263          	bnez	a0,f45c <_svfprintf_r+0xdec>
    f3dc:	01000713          	li	a4,16
    f3e0:	ff040413          	add	s0,s0,-16
    f3e4:	0ec12583          	lw	a1,236(sp)
    f3e8:	0e812603          	lw	a2,232(sp)
    f3ec:	000b0793          	mv	a5,s6
    f3f0:	fa874ae3          	blt	a4,s0,f3a4 <_svfprintf_r+0xd34>
    f3f4:	00090893          	mv	a7,s2
    f3f8:	00040913          	mv	s2,s0
    f3fc:	00078413          	mv	s0,a5
    f400:	00b905b3          	add	a1,s2,a1
    f404:	00160613          	add	a2,a2,1
    f408:	01542023          	sw	s5,0(s0)
    f40c:	01242223          	sw	s2,4(s0)
    f410:	0eb12623          	sw	a1,236(sp)
    f414:	0ec12423          	sw	a2,232(sp)
    f418:	00700713          	li	a4,7
    f41c:	00840413          	add	s0,s0,8
    f420:	ccc75a63          	bge	a4,a2,e8f4 <_svfprintf_r+0x284>
    f424:	00812583          	lw	a1,8(sp)
    f428:	0e410613          	add	a2,sp,228
    f42c:	00098513          	mv	a0,s3
    f430:	05112823          	sw	a7,80(sp)
    f434:	315030ef          	jal	12f48 <__ssprint_r>
    f438:	02051263          	bnez	a0,f45c <_svfprintf_r+0xdec>
    f43c:	05012883          	lw	a7,80(sp)
    f440:	000b0413          	mv	s0,s6
    f444:	cb0ff06f          	j	e8f4 <_svfprintf_r+0x284>
    f448:	00812583          	lw	a1,8(sp)
    f44c:	0e410613          	add	a2,sp,228
    f450:	00098513          	mv	a0,s3
    f454:	2f5030ef          	jal	12f48 <__ssprint_r>
    f458:	ce050e63          	beqz	a0,e954 <_svfprintf_r+0x2e4>
    f45c:	01412f03          	lw	t5,20(sp)
    f460:	d20f0463          	beqz	t5,e988 <_svfprintf_r+0x318>
    f464:	03012503          	lw	a0,48(sp)
    f468:	000f0593          	mv	a1,t5
    f46c:	ff4f90ef          	jal	8c60 <_free_r>
    f470:	d18ff06f          	j	e988 <_svfprintf_r+0x318>
    f474:	000b8d93          	mv	s11,s7
    f478:	9d5ff06f          	j	ee4c <_svfprintf_r+0x7dc>
    f47c:	00015837          	lui	a6,0x15
    f480:	01000513          	li	a0,16
    f484:	0ec12583          	lw	a1,236(sp)
    f488:	0e812603          	lw	a2,232(sp)
    f48c:	7cc80a93          	add	s5,a6,1996 # 157cc <blanks.1>
    f490:	0ae55063          	bge	a0,a4,f530 <_svfprintf_r+0xec0>
    f494:	04912823          	sw	s1,80(sp)
    f498:	00040793          	mv	a5,s0
    f49c:	000a8493          	mv	s1,s5
    f4a0:	01000e93          	li	t4,16
    f4a4:	00090a93          	mv	s5,s2
    f4a8:	00700393          	li	t2,7
    f4ac:	05f12a23          	sw	t6,84(sp)
    f4b0:	00070413          	mv	s0,a4
    f4b4:	00088913          	mv	s2,a7
    f4b8:	00c0006f          	j	f4c4 <_svfprintf_r+0xe54>
    f4bc:	ff040413          	add	s0,s0,-16
    f4c0:	048eda63          	bge	t4,s0,f514 <_svfprintf_r+0xea4>
    f4c4:	01058593          	add	a1,a1,16
    f4c8:	00160613          	add	a2,a2,1
    f4cc:	0097a023          	sw	s1,0(a5)
    f4d0:	01d7a223          	sw	t4,4(a5)
    f4d4:	0eb12623          	sw	a1,236(sp)
    f4d8:	0ec12423          	sw	a2,232(sp)
    f4dc:	00878793          	add	a5,a5,8
    f4e0:	fcc3dee3          	bge	t2,a2,f4bc <_svfprintf_r+0xe4c>
    f4e4:	00812583          	lw	a1,8(sp)
    f4e8:	0e410613          	add	a2,sp,228
    f4ec:	00098513          	mv	a0,s3
    f4f0:	259030ef          	jal	12f48 <__ssprint_r>
    f4f4:	f60514e3          	bnez	a0,f45c <_svfprintf_r+0xdec>
    f4f8:	01000e93          	li	t4,16
    f4fc:	ff040413          	add	s0,s0,-16
    f500:	0ec12583          	lw	a1,236(sp)
    f504:	0e812603          	lw	a2,232(sp)
    f508:	000b0793          	mv	a5,s6
    f50c:	00700393          	li	t2,7
    f510:	fa8ecae3          	blt	t4,s0,f4c4 <_svfprintf_r+0xe54>
    f514:	00090893          	mv	a7,s2
    f518:	05412f83          	lw	t6,84(sp)
    f51c:	000a8913          	mv	s2,s5
    f520:	00048a93          	mv	s5,s1
    f524:	05012483          	lw	s1,80(sp)
    f528:	00040713          	mv	a4,s0
    f52c:	00078413          	mv	s0,a5
    f530:	00b705b3          	add	a1,a4,a1
    f534:	00160613          	add	a2,a2,1
    f538:	00e42223          	sw	a4,4(s0)
    f53c:	01542023          	sw	s5,0(s0)
    f540:	0eb12623          	sw	a1,236(sp)
    f544:	0ec12423          	sw	a2,232(sp)
    f548:	00700713          	li	a4,7
    f54c:	00840413          	add	s0,s0,8
    f550:	b2c75063          	bge	a4,a2,e870 <_svfprintf_r+0x200>
    f554:	00812583          	lw	a1,8(sp)
    f558:	0e410613          	add	a2,sp,228
    f55c:	00098513          	mv	a0,s3
    f560:	05112a23          	sw	a7,84(sp)
    f564:	05f12823          	sw	t6,80(sp)
    f568:	1e1030ef          	jal	12f48 <__ssprint_r>
    f56c:	ee0518e3          	bnez	a0,f45c <_svfprintf_r+0xdec>
    f570:	05412883          	lw	a7,84(sp)
    f574:	05012f83          	lw	t6,80(sp)
    f578:	000b0413          	mv	s0,s6
    f57c:	af4ff06f          	j	e870 <_svfprintf_r+0x200>
    f580:	00812583          	lw	a1,8(sp)
    f584:	0e410613          	add	a2,sp,228
    f588:	00098513          	mv	a0,s3
    f58c:	05112823          	sw	a7,80(sp)
    f590:	1b9030ef          	jal	12f48 <__ssprint_r>
    f594:	ec0514e3          	bnez	a0,f45c <_svfprintf_r+0xdec>
    f598:	05012883          	lw	a7,80(sp)
    f59c:	000b0413          	mv	s0,s6
    f5a0:	b44ff06f          	j	e8e4 <_svfprintf_r+0x274>
    f5a4:	00015837          	lui	a6,0x15
    f5a8:	01000613          	li	a2,16
    f5ac:	0e812783          	lw	a5,232(sp)
    f5b0:	7cc80a93          	add	s5,a6,1996 # 157cc <blanks.1>
    f5b4:	07265263          	bge	a2,s2,f618 <_svfprintf_r+0xfa8>
    f5b8:	00812b83          	lw	s7,8(sp)
    f5bc:	01000d13          	li	s10,16
    f5c0:	00700d93          	li	s11,7
    f5c4:	00c0006f          	j	f5d0 <_svfprintf_r+0xf60>
    f5c8:	ff090913          	add	s2,s2,-16
    f5cc:	052d5663          	bge	s10,s2,f618 <_svfprintf_r+0xfa8>
    f5d0:	01070713          	add	a4,a4,16
    f5d4:	00178793          	add	a5,a5,1
    f5d8:	01542023          	sw	s5,0(s0)
    f5dc:	01a42223          	sw	s10,4(s0)
    f5e0:	0ee12623          	sw	a4,236(sp)
    f5e4:	0ef12423          	sw	a5,232(sp)
    f5e8:	00840413          	add	s0,s0,8
    f5ec:	fcfddee3          	bge	s11,a5,f5c8 <_svfprintf_r+0xf58>
    f5f0:	0e410613          	add	a2,sp,228
    f5f4:	000b8593          	mv	a1,s7
    f5f8:	00098513          	mv	a0,s3
    f5fc:	14d030ef          	jal	12f48 <__ssprint_r>
    f600:	e4051ee3          	bnez	a0,f45c <_svfprintf_r+0xdec>
    f604:	ff090913          	add	s2,s2,-16
    f608:	0ec12703          	lw	a4,236(sp)
    f60c:	0e812783          	lw	a5,232(sp)
    f610:	000b0413          	mv	s0,s6
    f614:	fb2d4ee3          	blt	s10,s2,f5d0 <_svfprintf_r+0xf60>
    f618:	01270733          	add	a4,a4,s2
    f61c:	00178793          	add	a5,a5,1
    f620:	01542023          	sw	s5,0(s0)
    f624:	01242223          	sw	s2,4(s0)
    f628:	0ee12623          	sw	a4,236(sp)
    f62c:	0ef12423          	sw	a5,232(sp)
    f630:	00700613          	li	a2,7
    f634:	b0f65263          	bge	a2,a5,e938 <_svfprintf_r+0x2c8>
    f638:	00812583          	lw	a1,8(sp)
    f63c:	0e410613          	add	a2,sp,228
    f640:	00098513          	mv	a0,s3
    f644:	105030ef          	jal	12f48 <__ssprint_r>
    f648:	e0051ae3          	bnez	a0,f45c <_svfprintf_r+0xdec>
    f64c:	0ec12703          	lw	a4,236(sp)
    f650:	ae8ff06f          	j	e938 <_svfprintf_r+0x2c8>
    f654:	0cc12503          	lw	a0,204(sp)
    f658:	08a05ce3          	blez	a0,fef0 <_svfprintf_r+0x1880>
    f65c:	02412783          	lw	a5,36(sp)
    f660:	00fc0733          	add	a4,s8,a5
    f664:	04e12823          	sw	a4,80(sp)
    f668:	02012703          	lw	a4,32(sp)
    f66c:	00070913          	mv	s2,a4
    f670:	3ae7c063          	blt	a5,a4,fa10 <_svfprintf_r+0x13a0>
    f674:	0ec12703          	lw	a4,236(sp)
    f678:	03205663          	blez	s2,f6a4 <_svfprintf_r+0x1034>
    f67c:	0e812603          	lw	a2,232(sp)
    f680:	01270733          	add	a4,a4,s2
    f684:	01842023          	sw	s8,0(s0)
    f688:	00160613          	add	a2,a2,1
    f68c:	01242223          	sw	s2,4(s0)
    f690:	0ee12623          	sw	a4,236(sp)
    f694:	0ec12423          	sw	a2,232(sp)
    f698:	00700593          	li	a1,7
    f69c:	00840413          	add	s0,s0,8
    f6a0:	40c5cee3          	blt	a1,a2,102bc <_svfprintf_r+0x1c4c>
    f6a4:	fff94613          	not	a2,s2
    f6a8:	02012783          	lw	a5,32(sp)
    f6ac:	41f65613          	sra	a2,a2,0x1f
    f6b0:	00c97833          	and	a6,s2,a2
    f6b4:	41078933          	sub	s2,a5,a6
    f6b8:	4b204663          	bgtz	s2,fb64 <_svfprintf_r+0x14f4>
    f6bc:	02012783          	lw	a5,32(sp)
    f6c0:	400bf613          	and	a2,s7,1024
    f6c4:	00fc0c33          	add	s8,s8,a5
    f6c8:	50061863          	bnez	a2,fbd8 <_svfprintf_r+0x1568>
    f6cc:	0cc12603          	lw	a2,204(sp)
    f6d0:	02412783          	lw	a5,36(sp)
    f6d4:	00f64663          	blt	a2,a5,f6e0 <_svfprintf_r+0x1070>
    f6d8:	001bf593          	and	a1,s7,1
    f6dc:	400584e3          	beqz	a1,102e4 <_svfprintf_r+0x1c74>
    f6e0:	03412783          	lw	a5,52(sp)
    f6e4:	0e812583          	lw	a1,232(sp)
    f6e8:	03812683          	lw	a3,56(sp)
    f6ec:	00e78733          	add	a4,a5,a4
    f6f0:	00158593          	add	a1,a1,1
    f6f4:	00d42023          	sw	a3,0(s0)
    f6f8:	00f42223          	sw	a5,4(s0)
    f6fc:	0ee12623          	sw	a4,236(sp)
    f700:	0eb12423          	sw	a1,232(sp)
    f704:	00700513          	li	a0,7
    f708:	00840413          	add	s0,s0,8
    f70c:	00b55463          	bge	a0,a1,f714 <_svfprintf_r+0x10a4>
    f710:	4b00106f          	j	10bc0 <_svfprintf_r+0x2550>
    f714:	02412783          	lw	a5,36(sp)
    f718:	40c78633          	sub	a2,a5,a2
    f71c:	05012783          	lw	a5,80(sp)
    f720:	41878933          	sub	s2,a5,s8
    f724:	01265463          	bge	a2,s2,f72c <_svfprintf_r+0x10bc>
    f728:	00060913          	mv	s2,a2
    f72c:	03205863          	blez	s2,f75c <_svfprintf_r+0x10ec>
    f730:	0e812583          	lw	a1,232(sp)
    f734:	01270733          	add	a4,a4,s2
    f738:	01842023          	sw	s8,0(s0)
    f73c:	00158593          	add	a1,a1,1
    f740:	01242223          	sw	s2,4(s0)
    f744:	0ee12623          	sw	a4,236(sp)
    f748:	0eb12423          	sw	a1,232(sp)
    f74c:	00700513          	li	a0,7
    f750:	00840413          	add	s0,s0,8
    f754:	00b55463          	bge	a0,a1,f75c <_svfprintf_r+0x10ec>
    f758:	4c80106f          	j	10c20 <_svfprintf_r+0x25b0>
    f75c:	fff94593          	not	a1,s2
    f760:	41f5d593          	sra	a1,a1,0x1f
    f764:	00b97d33          	and	s10,s2,a1
    f768:	41a60933          	sub	s2,a2,s10
    f76c:	9b205e63          	blez	s2,e928 <_svfprintf_r+0x2b8>
    f770:	00015837          	lui	a6,0x15
    f774:	01000593          	li	a1,16
    f778:	0e812603          	lw	a2,232(sp)
    f77c:	7bc80a93          	add	s5,a6,1980 # 157bc <zeroes.0>
    f780:	0725d0e3          	bge	a1,s2,ffe0 <_svfprintf_r+0x1970>
    f784:	00812c03          	lw	s8,8(sp)
    f788:	01000d13          	li	s10,16
    f78c:	00700d93          	li	s11,7
    f790:	00c0006f          	j	f79c <_svfprintf_r+0x112c>
    f794:	ff090913          	add	s2,s2,-16
    f798:	052d54e3          	bge	s10,s2,ffe0 <_svfprintf_r+0x1970>
    f79c:	01070713          	add	a4,a4,16
    f7a0:	00160613          	add	a2,a2,1
    f7a4:	01542023          	sw	s5,0(s0)
    f7a8:	01a42223          	sw	s10,4(s0)
    f7ac:	0ee12623          	sw	a4,236(sp)
    f7b0:	0ec12423          	sw	a2,232(sp)
    f7b4:	00840413          	add	s0,s0,8
    f7b8:	fccddee3          	bge	s11,a2,f794 <_svfprintf_r+0x1124>
    f7bc:	0e410613          	add	a2,sp,228
    f7c0:	000c0593          	mv	a1,s8
    f7c4:	00098513          	mv	a0,s3
    f7c8:	780030ef          	jal	12f48 <__ssprint_r>
    f7cc:	c80518e3          	bnez	a0,f45c <_svfprintf_r+0xdec>
    f7d0:	0ec12703          	lw	a4,236(sp)
    f7d4:	0e812603          	lw	a2,232(sp)
    f7d8:	000b0413          	mv	s0,s6
    f7dc:	fb9ff06f          	j	f794 <_svfprintf_r+0x1124>
    f7e0:	001bf713          	and	a4,s7,1
    f7e4:	cc071463          	bnez	a4,ecac <_svfprintf_r+0x63c>
    f7e8:	0ec12703          	lw	a4,236(sp)
    f7ec:	0e812603          	lw	a2,232(sp)
    f7f0:	01842023          	sw	s8,0(s0)
    f7f4:	00170d93          	add	s11,a4,1
    f7f8:	00160913          	add	s2,a2,1
    f7fc:	00b42223          	sw	a1,4(s0)
    f800:	0fb12623          	sw	s11,236(sp)
    f804:	0f212423          	sw	s2,232(sp)
    f808:	00700713          	li	a4,7
    f80c:	d7275463          	bge	a4,s2,ed74 <_svfprintf_r+0x704>
    f810:	00812583          	lw	a1,8(sp)
    f814:	0e410613          	add	a2,sp,228
    f818:	00098513          	mv	a0,s3
    f81c:	72c030ef          	jal	12f48 <__ssprint_r>
    f820:	c2051ee3          	bnez	a0,f45c <_svfprintf_r+0xdec>
    f824:	0ec12d83          	lw	s11,236(sp)
    f828:	0e812903          	lw	s2,232(sp)
    f82c:	000b0d13          	mv	s10,s6
    f830:	d44ff06f          	j	ed74 <_svfprintf_r+0x704>
    f834:	02412783          	lw	a5,36(sp)
    f838:	00100713          	li	a4,1
    f83c:	d2f75c63          	bge	a4,a5,ed74 <_svfprintf_r+0x704>
    f840:	00015837          	lui	a6,0x15
    f844:	01100713          	li	a4,17
    f848:	7bc80a93          	add	s5,a6,1980 # 157bc <zeroes.0>
    f84c:	14f754e3          	bge	a4,a5,10194 <_svfprintf_r+0x1b24>
    f850:	000a8793          	mv	a5,s5
    f854:	01000713          	li	a4,16
    f858:	000a0a93          	mv	s5,s4
    f85c:	00700c13          	li	s8,7
    f860:	00048a13          	mv	s4,s1
    f864:	00078493          	mv	s1,a5
    f868:	00c0006f          	j	f874 <_svfprintf_r+0x1204>
    f86c:	ff040413          	add	s0,s0,-16
    f870:	10875ae3          	bge	a4,s0,10184 <_svfprintf_r+0x1b14>
    f874:	010d8d93          	add	s11,s11,16
    f878:	00190913          	add	s2,s2,1
    f87c:	009d2023          	sw	s1,0(s10)
    f880:	00ed2223          	sw	a4,4(s10)
    f884:	0fb12623          	sw	s11,236(sp)
    f888:	0f212423          	sw	s2,232(sp)
    f88c:	008d0d13          	add	s10,s10,8
    f890:	fd2c5ee3          	bge	s8,s2,f86c <_svfprintf_r+0x11fc>
    f894:	00812583          	lw	a1,8(sp)
    f898:	0e410613          	add	a2,sp,228
    f89c:	00098513          	mv	a0,s3
    f8a0:	6a8030ef          	jal	12f48 <__ssprint_r>
    f8a4:	ba051ce3          	bnez	a0,f45c <_svfprintf_r+0xdec>
    f8a8:	0ec12d83          	lw	s11,236(sp)
    f8ac:	0e812903          	lw	s2,232(sp)
    f8b0:	000b0d13          	mv	s10,s6
    f8b4:	01000713          	li	a4,16
    f8b8:	fb5ff06f          	j	f86c <_svfprintf_r+0x11fc>
    f8bc:	01812703          	lw	a4,24(sp)
    f8c0:	010df793          	and	a5,s11,16
    f8c4:	00072c83          	lw	s9,0(a4)
    f8c8:	00470713          	add	a4,a4,4
    f8cc:	00e12c23          	sw	a4,24(sp)
    f8d0:	02079663          	bnez	a5,f8fc <_svfprintf_r+0x128c>
    f8d4:	040df793          	and	a5,s11,64
    f8d8:	00078c63          	beqz	a5,f8f0 <_svfprintf_r+0x1280>
    f8dc:	010c9c93          	sll	s9,s9,0x10
    f8e0:	010cdc93          	srl	s9,s9,0x10
    f8e4:	00000d13          	li	s10,0
    f8e8:	00100693          	li	a3,1
    f8ec:	a10ff06f          	j	eafc <_svfprintf_r+0x48c>
    f8f0:	200df793          	and	a5,s11,512
    f8f4:	00078463          	beqz	a5,f8fc <_svfprintf_r+0x128c>
    f8f8:	0ffcfc93          	zext.b	s9,s9
    f8fc:	00000d13          	li	s10,0
    f900:	00100693          	li	a3,1
    f904:	9f8ff06f          	j	eafc <_svfprintf_r+0x48c>
    f908:	00000d13          	li	s10,0
    f90c:	1b010c13          	add	s8,sp,432
    f910:	990ff06f          	j	eaa0 <_svfprintf_r+0x430>
    f914:	00812583          	lw	a1,8(sp)
    f918:	0e410613          	add	a2,sp,228
    f91c:	00098513          	mv	a0,s3
    f920:	628030ef          	jal	12f48 <__ssprint_r>
    f924:	b2051ce3          	bnez	a0,f45c <_svfprintf_r+0xdec>
    f928:	0ec12703          	lw	a4,236(sp)
    f92c:	0e812603          	lw	a2,232(sp)
    f930:	000b0d13          	mv	s10,s6
    f934:	ba4ff06f          	j	ecd8 <_svfprintf_r+0x668>
    f938:	00812583          	lw	a1,8(sp)
    f93c:	0e410613          	add	a2,sp,228
    f940:	00098513          	mv	a0,s3
    f944:	604030ef          	jal	12f48 <__ssprint_r>
    f948:	b0051ae3          	bnez	a0,f45c <_svfprintf_r+0xdec>
    f94c:	0ec12d83          	lw	s11,236(sp)
    f950:	0e812903          	lw	s2,232(sp)
    f954:	000b0d13          	mv	s10,s6
    f958:	bacff06f          	j	ed04 <_svfprintf_r+0x694>
    f95c:	001bf613          	and	a2,s7,1
    f960:	00061463          	bnez	a2,f968 <_svfprintf_r+0x12f8>
    f964:	fc5fe06f          	j	e928 <_svfprintf_r+0x2b8>
    f968:	809ff06f          	j	f170 <_svfprintf_r+0xb00>
    f96c:	0004c883          	lbu	a7,0(s1)
    f970:	00f12c23          	sw	a5,24(sp)
    f974:	e61fe06f          	j	e7d4 <_svfprintf_r+0x164>
    f978:	200bf713          	and	a4,s7,512
    f97c:	3c0714e3          	bnez	a4,10544 <_svfprintf_r+0x1ed4>
    f980:	41fcdd13          	sra	s10,s9,0x1f
    f984:	000d0713          	mv	a4,s10
    f988:	8d0ff06f          	j	ea58 <_svfprintf_r+0x3e8>
    f98c:	200bf713          	and	a4,s7,512
    f990:	3a0714e3          	bnez	a4,10538 <_svfprintf_r+0x1ec8>
    f994:	00000d13          	li	s10,0
    f998:	95cff06f          	j	eaf4 <_svfprintf_r+0x484>
    f99c:	01812783          	lw	a5,24(sp)
    f9a0:	0007a703          	lw	a4,0(a5)
    f9a4:	00478793          	add	a5,a5,4
    f9a8:	00f12c23          	sw	a5,24(sp)
    f9ac:	00072583          	lw	a1,0(a4)
    f9b0:	00472603          	lw	a2,4(a4)
    f9b4:	00872683          	lw	a3,8(a4)
    f9b8:	00c72703          	lw	a4,12(a4)
    f9bc:	9f0ff06f          	j	ebac <_svfprintf_r+0x53c>
    f9c0:	010bf713          	and	a4,s7,16
    f9c4:	6e071663          	bnez	a4,100b0 <_svfprintf_r+0x1a40>
    f9c8:	040bf713          	and	a4,s7,64
    f9cc:	120718e3          	bnez	a4,102fc <_svfprintf_r+0x1c8c>
    f9d0:	200bf793          	and	a5,s7,512
    f9d4:	6c078e63          	beqz	a5,100b0 <_svfprintf_r+0x1a40>
    f9d8:	01812783          	lw	a5,24(sp)
    f9dc:	01012703          	lw	a4,16(sp)
    f9e0:	0007a783          	lw	a5,0(a5)
    f9e4:	00e78023          	sb	a4,0(a5)
    f9e8:	ec0ff06f          	j	f0a8 <_svfprintf_r+0xa38>
    f9ec:	04012783          	lw	a5,64(sp)
    f9f0:	0004c883          	lbu	a7,0(s1)
    f9f4:	00079463          	bnez	a5,f9fc <_svfprintf_r+0x138c>
    f9f8:	dddfe06f          	j	e7d4 <_svfprintf_r+0x164>
    f9fc:	0007c783          	lbu	a5,0(a5)
    fa00:	00079463          	bnez	a5,fa08 <_svfprintf_r+0x1398>
    fa04:	dd1fe06f          	j	e7d4 <_svfprintf_r+0x164>
    fa08:	400beb93          	or	s7,s7,1024
    fa0c:	dc9fe06f          	j	e7d4 <_svfprintf_r+0x164>
    fa10:	00078913          	mv	s2,a5
    fa14:	0ec12703          	lw	a4,236(sp)
    fa18:	c72042e3          	bgtz	s2,f67c <_svfprintf_r+0x100c>
    fa1c:	c89ff06f          	j	f6a4 <_svfprintf_r+0x1034>
    fa20:	86091663          	bnez	s2,ea8c <_svfprintf_r+0x41c>
    fa24:	00000d13          	li	s10,0
    fa28:	000d8b93          	mv	s7,s11
    fa2c:	1b010c13          	add	s8,sp,432
    fa30:	870ff06f          	j	eaa0 <_svfprintf_r+0x430>
    fa34:	00015737          	lui	a4,0x15
    fa38:	f2470793          	add	a5,a4,-220 # 14f24 <_getpid_r+0x608>
    fa3c:	02f12e23          	sw	a5,60(sp)
    fa40:	020bf713          	and	a4,s7,32
    fa44:	34070263          	beqz	a4,fd88 <_svfprintf_r+0x1718>
    fa48:	01812783          	lw	a5,24(sp)
    fa4c:	00778a93          	add	s5,a5,7
    fa50:	ff8afa93          	and	s5,s5,-8
    fa54:	000aac83          	lw	s9,0(s5)
    fa58:	004aad03          	lw	s10,4(s5)
    fa5c:	008a8793          	add	a5,s5,8
    fa60:	00f12c23          	sw	a5,24(sp)
    fa64:	001bf713          	and	a4,s7,1
    fa68:	00070e63          	beqz	a4,fa84 <_svfprintf_r+0x1414>
    fa6c:	01ace733          	or	a4,s9,s10
    fa70:	00070a63          	beqz	a4,fa84 <_svfprintf_r+0x1414>
    fa74:	03000713          	li	a4,48
    fa78:	0ce10423          	sb	a4,200(sp)
    fa7c:	0d1104a3          	sb	a7,201(sp)
    fa80:	002beb93          	or	s7,s7,2
    fa84:	bffbfd93          	and	s11,s7,-1025
    fa88:	00200693          	li	a3,2
    fa8c:	870ff06f          	j	eafc <_svfprintf_r+0x48c>
    fa90:	000b8d93          	mv	s11,s7
    fa94:	d80ff06f          	j	f014 <_svfprintf_r+0x9a4>
    fa98:	0014c883          	lbu	a7,1(s1)
    fa9c:	200beb93          	or	s7,s7,512
    faa0:	00148493          	add	s1,s1,1
    faa4:	d31fe06f          	j	e7d4 <_svfprintf_r+0x164>
    faa8:	0014c883          	lbu	a7,1(s1)
    faac:	020beb93          	or	s7,s7,32
    fab0:	00148493          	add	s1,s1,1
    fab4:	d21fe06f          	j	e7d4 <_svfprintf_r+0x164>
    fab8:	00812583          	lw	a1,8(sp)
    fabc:	0e410613          	add	a2,sp,228
    fac0:	00098513          	mv	a0,s3
    fac4:	484030ef          	jal	12f48 <__ssprint_r>
    fac8:	98051ae3          	bnez	a0,f45c <_svfprintf_r+0xdec>
    facc:	0ec12703          	lw	a4,236(sp)
    fad0:	000b0413          	mv	s0,s6
    fad4:	eccff06f          	j	f1a0 <_svfprintf_r+0xb30>
    fad8:	00015737          	lui	a4,0x15
    fadc:	f1070793          	add	a5,a4,-240 # 14f10 <_getpid_r+0x5f4>
    fae0:	02f12e23          	sw	a5,60(sp)
    fae4:	f5dff06f          	j	fa40 <_svfprintf_r+0x13d0>
    fae8:	03012503          	lw	a0,48(sp)
    faec:	04000593          	li	a1,64
    faf0:	a58f50ef          	jal	4d48 <_malloc_r>
    faf4:	00812783          	lw	a5,8(sp)
    faf8:	00c12283          	lw	t0,12(sp)
    fafc:	00a7a023          	sw	a0,0(a5)
    fb00:	00a7a823          	sw	a0,16(a5)
    fb04:	00051463          	bnez	a0,fb0c <_svfprintf_r+0x149c>
    fb08:	3240106f          	j	10e2c <_svfprintf_r+0x27bc>
    fb0c:	00812703          	lw	a4,8(sp)
    fb10:	04000793          	li	a5,64
    fb14:	00f72a23          	sw	a5,20(a4)
    fb18:	be9fe06f          	j	e700 <_svfprintf_r+0x90>
    fb1c:	000c0513          	mv	a0,s8
    fb20:	05112823          	sw	a7,80(sp)
    fb24:	b95f50ef          	jal	56b8 <strlen>
    fb28:	0c714703          	lbu	a4,199(sp)
    fb2c:	fff54693          	not	a3,a0
    fb30:	41f6d693          	sra	a3,a3,0x1f
    fb34:	01512c23          	sw	s5,24(sp)
    fb38:	00012a23          	sw	zero,20(sp)
    fb3c:	02012423          	sw	zero,40(sp)
    fb40:	02012623          	sw	zero,44(sp)
    fb44:	02012023          	sw	zero,32(sp)
    fb48:	05012883          	lw	a7,80(sp)
    fb4c:	00050d13          	mv	s10,a0
    fb50:	00d57cb3          	and	s9,a0,a3
    fb54:	00000913          	li	s2,0
    fb58:	00070463          	beqz	a4,fb60 <_svfprintf_r+0x14f0>
    fb5c:	f69fe06f          	j	eac4 <_svfprintf_r+0x454>
    fb60:	cf5fe06f          	j	e854 <_svfprintf_r+0x1e4>
    fb64:	00015837          	lui	a6,0x15
    fb68:	01000593          	li	a1,16
    fb6c:	0e812603          	lw	a2,232(sp)
    fb70:	7bc80a93          	add	s5,a6,1980 # 157bc <zeroes.0>
    fb74:	6525da63          	bge	a1,s2,101c8 <_svfprintf_r+0x1b58>
    fb78:	00812d83          	lw	s11,8(sp)
    fb7c:	01000e13          	li	t3,16
    fb80:	00700d13          	li	s10,7
    fb84:	00c0006f          	j	fb90 <_svfprintf_r+0x1520>
    fb88:	ff090913          	add	s2,s2,-16
    fb8c:	632e5e63          	bge	t3,s2,101c8 <_svfprintf_r+0x1b58>
    fb90:	01070713          	add	a4,a4,16
    fb94:	00160613          	add	a2,a2,1
    fb98:	01542023          	sw	s5,0(s0)
    fb9c:	01c42223          	sw	t3,4(s0)
    fba0:	0ee12623          	sw	a4,236(sp)
    fba4:	0ec12423          	sw	a2,232(sp)
    fba8:	00840413          	add	s0,s0,8
    fbac:	fccd5ee3          	bge	s10,a2,fb88 <_svfprintf_r+0x1518>
    fbb0:	0e410613          	add	a2,sp,228
    fbb4:	000d8593          	mv	a1,s11
    fbb8:	00098513          	mv	a0,s3
    fbbc:	38c030ef          	jal	12f48 <__ssprint_r>
    fbc0:	88051ee3          	bnez	a0,f45c <_svfprintf_r+0xdec>
    fbc4:	0ec12703          	lw	a4,236(sp)
    fbc8:	0e812603          	lw	a2,232(sp)
    fbcc:	000b0413          	mv	s0,s6
    fbd0:	01000e13          	li	t3,16
    fbd4:	fb5ff06f          	j	fb88 <_svfprintf_r+0x1518>
    fbd8:	02c12d03          	lw	s10,44(sp)
    fbdc:	00015e37          	lui	t3,0x15
    fbe0:	04912a23          	sw	s1,84(sp)
    fbe4:	05712c23          	sw	s7,88(sp)
    fbe8:	03912623          	sw	s9,44(sp)
    fbec:	05412e23          	sw	s4,92(sp)
    fbf0:	00040613          	mv	a2,s0
    fbf4:	000c0c93          	mv	s9,s8
    fbf8:	04012b83          	lw	s7,64(sp)
    fbfc:	04c12403          	lw	s0,76(sp)
    fc00:	02812c03          	lw	s8,40(sp)
    fc04:	00812483          	lw	s1,8(sp)
    fc08:	00700913          	li	s2,7
    fc0c:	01000d93          	li	s11,16
    fc10:	7bce0a93          	add	s5,t3,1980 # 157bc <zeroes.0>
    fc14:	080d0863          	beqz	s10,fca4 <_svfprintf_r+0x1634>
    fc18:	160c0263          	beqz	s8,fd7c <_svfprintf_r+0x170c>
    fc1c:	fffc0c13          	add	s8,s8,-1
    fc20:	04812783          	lw	a5,72(sp)
    fc24:	00870733          	add	a4,a4,s0
    fc28:	00862223          	sw	s0,4(a2)
    fc2c:	00f62023          	sw	a5,0(a2)
    fc30:	0e812783          	lw	a5,232(sp)
    fc34:	0ee12623          	sw	a4,236(sp)
    fc38:	00860613          	add	a2,a2,8
    fc3c:	00178793          	add	a5,a5,1
    fc40:	0ef12423          	sw	a5,232(sp)
    fc44:	16f94a63          	blt	s2,a5,fdb8 <_svfprintf_r+0x1748>
    fc48:	05012783          	lw	a5,80(sp)
    fc4c:	000bc683          	lbu	a3,0(s7)
    fc50:	41978a33          	sub	s4,a5,s9
    fc54:	0146d463          	bge	a3,s4,fc5c <_svfprintf_r+0x15ec>
    fc58:	00068a13          	mv	s4,a3
    fc5c:	03405663          	blez	s4,fc88 <_svfprintf_r+0x1618>
    fc60:	0e812683          	lw	a3,232(sp)
    fc64:	01470733          	add	a4,a4,s4
    fc68:	01962023          	sw	s9,0(a2)
    fc6c:	00168693          	add	a3,a3,1
    fc70:	01462223          	sw	s4,4(a2)
    fc74:	0ee12623          	sw	a4,236(sp)
    fc78:	0ed12423          	sw	a3,232(sp)
    fc7c:	38d94663          	blt	s2,a3,10008 <_svfprintf_r+0x1998>
    fc80:	000bc683          	lbu	a3,0(s7)
    fc84:	00860613          	add	a2,a2,8
    fc88:	fffa4593          	not	a1,s4
    fc8c:	41f5d593          	sra	a1,a1,0x1f
    fc90:	00ba77b3          	and	a5,s4,a1
    fc94:	40f68a33          	sub	s4,a3,a5
    fc98:	03404e63          	bgtz	s4,fcd4 <_svfprintf_r+0x1664>
    fc9c:	00dc8cb3          	add	s9,s9,a3
    fca0:	f60d1ce3          	bnez	s10,fc18 <_svfprintf_r+0x15a8>
    fca4:	f60c1ce3          	bnez	s8,fc1c <_svfprintf_r+0x15ac>
    fca8:	05012783          	lw	a5,80(sp)
    fcac:	05712023          	sw	s7,64(sp)
    fcb0:	000c8c13          	mv	s8,s9
    fcb4:	05412483          	lw	s1,84(sp)
    fcb8:	05812b83          	lw	s7,88(sp)
    fcbc:	05c12a03          	lw	s4,92(sp)
    fcc0:	02c12c83          	lw	s9,44(sp)
    fcc4:	00060413          	mv	s0,a2
    fcc8:	a187f2e3          	bgeu	a5,s8,f6cc <_svfprintf_r+0x105c>
    fccc:	00078c13          	mv	s8,a5
    fcd0:	9fdff06f          	j	f6cc <_svfprintf_r+0x105c>
    fcd4:	000155b7          	lui	a1,0x15
    fcd8:	0e812683          	lw	a3,232(sp)
    fcdc:	7bc58593          	add	a1,a1,1980 # 157bc <zeroes.0>
    fce0:	074dd863          	bge	s11,s4,fd50 <_svfprintf_r+0x16e0>
    fce4:	02812023          	sw	s0,32(sp)
    fce8:	000a0413          	mv	s0,s4
    fcec:	000a8a13          	mv	s4,s5
    fcf0:	00c0006f          	j	fcfc <_svfprintf_r+0x168c>
    fcf4:	ff040413          	add	s0,s0,-16
    fcf8:	048dd663          	bge	s11,s0,fd44 <_svfprintf_r+0x16d4>
    fcfc:	01070713          	add	a4,a4,16
    fd00:	00168693          	add	a3,a3,1
    fd04:	01562023          	sw	s5,0(a2)
    fd08:	01b62223          	sw	s11,4(a2)
    fd0c:	0ee12623          	sw	a4,236(sp)
    fd10:	0ed12423          	sw	a3,232(sp)
    fd14:	00860613          	add	a2,a2,8
    fd18:	fcd95ee3          	bge	s2,a3,fcf4 <_svfprintf_r+0x1684>
    fd1c:	0e410613          	add	a2,sp,228
    fd20:	00048593          	mv	a1,s1
    fd24:	00098513          	mv	a0,s3
    fd28:	220030ef          	jal	12f48 <__ssprint_r>
    fd2c:	f2051863          	bnez	a0,f45c <_svfprintf_r+0xdec>
    fd30:	ff040413          	add	s0,s0,-16
    fd34:	0ec12703          	lw	a4,236(sp)
    fd38:	0e812683          	lw	a3,232(sp)
    fd3c:	000b0613          	mv	a2,s6
    fd40:	fa8dcee3          	blt	s11,s0,fcfc <_svfprintf_r+0x168c>
    fd44:	000a0593          	mv	a1,s4
    fd48:	00040a13          	mv	s4,s0
    fd4c:	02012403          	lw	s0,32(sp)
    fd50:	00ea0733          	add	a4,s4,a4
    fd54:	00168693          	add	a3,a3,1
    fd58:	00b62023          	sw	a1,0(a2)
    fd5c:	01462223          	sw	s4,4(a2)
    fd60:	0ee12623          	sw	a4,236(sp)
    fd64:	0ed12423          	sw	a3,232(sp)
    fd68:	4ad94ce3          	blt	s2,a3,10a20 <_svfprintf_r+0x23b0>
    fd6c:	000bc683          	lbu	a3,0(s7)
    fd70:	00860613          	add	a2,a2,8
    fd74:	00dc8cb3          	add	s9,s9,a3
    fd78:	f29ff06f          	j	fca0 <_svfprintf_r+0x1630>
    fd7c:	fffb8b93          	add	s7,s7,-1
    fd80:	fffd0d13          	add	s10,s10,-1
    fd84:	e9dff06f          	j	fc20 <_svfprintf_r+0x15b0>
    fd88:	01812783          	lw	a5,24(sp)
    fd8c:	010bf713          	and	a4,s7,16
    fd90:	0007ac83          	lw	s9,0(a5)
    fd94:	00478793          	add	a5,a5,4
    fd98:	00f12c23          	sw	a5,24(sp)
    fd9c:	04071263          	bnez	a4,fde0 <_svfprintf_r+0x1770>
    fda0:	040bf713          	and	a4,s7,64
    fda4:	02070a63          	beqz	a4,fdd8 <_svfprintf_r+0x1768>
    fda8:	010c9c93          	sll	s9,s9,0x10
    fdac:	010cdc93          	srl	s9,s9,0x10
    fdb0:	00000d13          	li	s10,0
    fdb4:	cb1ff06f          	j	fa64 <_svfprintf_r+0x13f4>
    fdb8:	0e410613          	add	a2,sp,228
    fdbc:	00048593          	mv	a1,s1
    fdc0:	00098513          	mv	a0,s3
    fdc4:	184030ef          	jal	12f48 <__ssprint_r>
    fdc8:	e8051a63          	bnez	a0,f45c <_svfprintf_r+0xdec>
    fdcc:	0ec12703          	lw	a4,236(sp)
    fdd0:	000b0613          	mv	a2,s6
    fdd4:	e75ff06f          	j	fc48 <_svfprintf_r+0x15d8>
    fdd8:	200bf713          	and	a4,s7,512
    fddc:	76071e63          	bnez	a4,10558 <_svfprintf_r+0x1ee8>
    fde0:	00000d13          	li	s10,0
    fde4:	c81ff06f          	j	fa64 <_svfprintf_r+0x13f4>
    fde8:	ccccde37          	lui	t3,0xccccd
    fdec:	04012703          	lw	a4,64(sp)
    fdf0:	400dfe93          	and	t4,s11,1024
    fdf4:	00000593          	li	a1,0
    fdf8:	1b010613          	add	a2,sp,432
    fdfc:	00500813          	li	a6,5
    fe00:	ccde0693          	add	a3,t3,-819 # cccccccd <_end+0xcccb2cfd>
    fe04:	ccce0b93          	add	s7,t3,-820
    fe08:	0ff00a93          	li	s5,255
    fe0c:	0540006f          	j	fe60 <_svfprintf_r+0x17f0>
    fe10:	019c37b3          	sltu	a5,s8,s9
    fe14:	00fc07b3          	add	a5,s8,a5
    fe18:	0307f7b3          	remu	a5,a5,a6
    fe1c:	40fc87b3          	sub	a5,s9,a5
    fe20:	00fcb633          	sltu	a2,s9,a5
    fe24:	40cd0633          	sub	a2,s10,a2
    fe28:	03778e33          	mul	t3,a5,s7
    fe2c:	02d60633          	mul	a2,a2,a3
    fe30:	02d7b533          	mulhu	a0,a5,a3
    fe34:	01c60633          	add	a2,a2,t3
    fe38:	02d787b3          	mul	a5,a5,a3
    fe3c:	00a60633          	add	a2,a2,a0
    fe40:	01f61513          	sll	a0,a2,0x1f
    fe44:	00165613          	srl	a2,a2,0x1
    fe48:	0017d793          	srl	a5,a5,0x1
    fe4c:	00f567b3          	or	a5,a0,a5
    fe50:	3e0d0ee3          	beqz	s10,10a4c <_svfprintf_r+0x23dc>
    fe54:	00060d13          	mv	s10,a2
    fe58:	00078c93          	mv	s9,a5
    fe5c:	00030613          	mv	a2,t1
    fe60:	01ac8c33          	add	s8,s9,s10
    fe64:	019c37b3          	sltu	a5,s8,s9
    fe68:	00fc07b3          	add	a5,s8,a5
    fe6c:	0307f7b3          	remu	a5,a5,a6
    fe70:	fff60313          	add	t1,a2,-1
    fe74:	00158593          	add	a1,a1,1
    fe78:	40fc87b3          	sub	a5,s9,a5
    fe7c:	00fcb533          	sltu	a0,s9,a5
    fe80:	40ad0533          	sub	a0,s10,a0
    fe84:	02d7be33          	mulhu	t3,a5,a3
    fe88:	02d50533          	mul	a0,a0,a3
    fe8c:	02d787b3          	mul	a5,a5,a3
    fe90:	01c50533          	add	a0,a0,t3
    fe94:	01f51513          	sll	a0,a0,0x1f
    fe98:	0017d793          	srl	a5,a5,0x1
    fe9c:	00f567b3          	or	a5,a0,a5
    fea0:	00279513          	sll	a0,a5,0x2
    fea4:	00f507b3          	add	a5,a0,a5
    fea8:	00179793          	sll	a5,a5,0x1
    feac:	40fc87b3          	sub	a5,s9,a5
    feb0:	03078793          	add	a5,a5,48
    feb4:	fef60fa3          	sb	a5,-1(a2)
    feb8:	f40e8ce3          	beqz	t4,fe10 <_svfprintf_r+0x17a0>
    febc:	00074783          	lbu	a5,0(a4)
    fec0:	f4f598e3          	bne	a1,a5,fe10 <_svfprintf_r+0x17a0>
    fec4:	f55586e3          	beq	a1,s5,fe10 <_svfprintf_r+0x17a0>
    fec8:	340d1263          	bnez	s10,1020c <_svfprintf_r+0x1b9c>
    fecc:	00900793          	li	a5,9
    fed0:	3397ee63          	bltu	a5,s9,1020c <_svfprintf_r+0x1b9c>
    fed4:	00030c13          	mv	s8,t1
    fed8:	1b010793          	add	a5,sp,432
    fedc:	04e12023          	sw	a4,64(sp)
    fee0:	02b12223          	sw	a1,36(sp)
    fee4:	41878d33          	sub	s10,a5,s8
    fee8:	000d8b93          	mv	s7,s11
    feec:	bb5fe06f          	j	eaa0 <_svfprintf_r+0x430>
    fef0:	0ec12703          	lw	a4,236(sp)
    fef4:	0e812603          	lw	a2,232(sp)
    fef8:	000155b7          	lui	a1,0x15
    fefc:	f4058593          	add	a1,a1,-192 # 14f40 <_getpid_r+0x624>
    ff00:	00b42023          	sw	a1,0(s0)
    ff04:	00170713          	add	a4,a4,1
    ff08:	00100593          	li	a1,1
    ff0c:	00160613          	add	a2,a2,1
    ff10:	00b42223          	sw	a1,4(s0)
    ff14:	0ee12623          	sw	a4,236(sp)
    ff18:	0ec12423          	sw	a2,232(sp)
    ff1c:	00700593          	li	a1,7
    ff20:	00840413          	add	s0,s0,8
    ff24:	06c5cc63          	blt	a1,a2,ff9c <_svfprintf_r+0x192c>
    ff28:	1a051e63          	bnez	a0,100e4 <_svfprintf_r+0x1a74>
    ff2c:	02412783          	lw	a5,36(sp)
    ff30:	001bf613          	and	a2,s7,1
    ff34:	00f66633          	or	a2,a2,a5
    ff38:	00061463          	bnez	a2,ff40 <_svfprintf_r+0x18d0>
    ff3c:	9edfe06f          	j	e928 <_svfprintf_r+0x2b8>
    ff40:	03412783          	lw	a5,52(sp)
    ff44:	0e812603          	lw	a2,232(sp)
    ff48:	03812683          	lw	a3,56(sp)
    ff4c:	00e78733          	add	a4,a5,a4
    ff50:	00160613          	add	a2,a2,1
    ff54:	00d42023          	sw	a3,0(s0)
    ff58:	00f42223          	sw	a5,4(s0)
    ff5c:	0ee12623          	sw	a4,236(sp)
    ff60:	0ec12423          	sw	a2,232(sp)
    ff64:	00700593          	li	a1,7
    ff68:	60c5cc63          	blt	a1,a2,10580 <_svfprintf_r+0x1f10>
    ff6c:	00840413          	add	s0,s0,8
    ff70:	02412783          	lw	a5,36(sp)
    ff74:	00160613          	add	a2,a2,1
    ff78:	01842023          	sw	s8,0(s0)
    ff7c:	00e78733          	add	a4,a5,a4
    ff80:	00f42223          	sw	a5,4(s0)
    ff84:	0ee12623          	sw	a4,236(sp)
    ff88:	0ec12423          	sw	a2,232(sp)
    ff8c:	00700593          	li	a1,7
    ff90:	00c5c463          	blt	a1,a2,ff98 <_svfprintf_r+0x1928>
    ff94:	991fe06f          	j	e924 <_svfprintf_r+0x2b4>
    ff98:	e09fe06f          	j	eda0 <_svfprintf_r+0x730>
    ff9c:	00812583          	lw	a1,8(sp)
    ffa0:	0e410613          	add	a2,sp,228
    ffa4:	00098513          	mv	a0,s3
    ffa8:	7a1020ef          	jal	12f48 <__ssprint_r>
    ffac:	ca051863          	bnez	a0,f45c <_svfprintf_r+0xdec>
    ffb0:	0cc12503          	lw	a0,204(sp)
    ffb4:	0ec12703          	lw	a4,236(sp)
    ffb8:	000b0413          	mv	s0,s6
    ffbc:	f6dff06f          	j	ff28 <_svfprintf_r+0x18b8>
    ffc0:	00812583          	lw	a1,8(sp)
    ffc4:	0e410613          	add	a2,sp,228
    ffc8:	00098513          	mv	a0,s3
    ffcc:	77d020ef          	jal	12f48 <__ssprint_r>
    ffd0:	c8051663          	bnez	a0,f45c <_svfprintf_r+0xdec>
    ffd4:	0ec12703          	lw	a4,236(sp)
    ffd8:	000b0413          	mv	s0,s6
    ffdc:	988ff06f          	j	f164 <_svfprintf_r+0xaf4>
    ffe0:	01542023          	sw	s5,0(s0)
    ffe4:	01242223          	sw	s2,4(s0)
    ffe8:	01270733          	add	a4,a4,s2
    ffec:	00160613          	add	a2,a2,1
    fff0:	0ee12623          	sw	a4,236(sp)
    fff4:	0ec12423          	sw	a2,232(sp)
    fff8:	00700593          	li	a1,7
    fffc:	00c5c463          	blt	a1,a2,10004 <_svfprintf_r+0x1994>
   10000:	925fe06f          	j	e924 <_svfprintf_r+0x2b4>
   10004:	d9dfe06f          	j	eda0 <_svfprintf_r+0x730>
   10008:	0e410613          	add	a2,sp,228
   1000c:	00048593          	mv	a1,s1
   10010:	00098513          	mv	a0,s3
   10014:	735020ef          	jal	12f48 <__ssprint_r>
   10018:	c4051263          	bnez	a0,f45c <_svfprintf_r+0xdec>
   1001c:	000bc683          	lbu	a3,0(s7)
   10020:	0ec12703          	lw	a4,236(sp)
   10024:	000b0613          	mv	a2,s6
   10028:	c61ff06f          	j	fc88 <_svfprintf_r+0x1618>
   1002c:	0f012703          	lw	a4,240(sp)
   10030:	0a010593          	add	a1,sp,160
   10034:	0b010513          	add	a0,sp,176
   10038:	0ae12823          	sw	a4,176(sp)
   1003c:	0f412703          	lw	a4,244(sp)
   10040:	0a012023          	sw	zero,160(sp)
   10044:	0a012223          	sw	zero,164(sp)
   10048:	0ae12a23          	sw	a4,180(sp)
   1004c:	0f812703          	lw	a4,248(sp)
   10050:	0a012423          	sw	zero,168(sp)
   10054:	0a012623          	sw	zero,172(sp)
   10058:	0ae12c23          	sw	a4,184(sp)
   1005c:	0fc12703          	lw	a4,252(sp)
   10060:	0ae12e23          	sw	a4,188(sp)
   10064:	d98f10ef          	jal	15fc <__letf2>
   10068:	01412883          	lw	a7,20(sp)
   1006c:	36054ee3          	bltz	a0,10be8 <_svfprintf_r+0x2578>
   10070:	0c714703          	lbu	a4,199(sp)
   10074:	04700693          	li	a3,71
   10078:	2316dc63          	bge	a3,a7,102b0 <_svfprintf_r+0x1c40>
   1007c:	000152b7          	lui	t0,0x15
   10080:	f0428c13          	add	s8,t0,-252 # 14f04 <_getpid_r+0x5e8>
   10084:	00012a23          	sw	zero,20(sp)
   10088:	02012423          	sw	zero,40(sp)
   1008c:	02012623          	sw	zero,44(sp)
   10090:	02012023          	sw	zero,32(sp)
   10094:	f7fbfb93          	and	s7,s7,-129
   10098:	00300c93          	li	s9,3
   1009c:	00300d13          	li	s10,3
   100a0:	00000913          	li	s2,0
   100a4:	00070463          	beqz	a4,100ac <_svfprintf_r+0x1a3c>
   100a8:	a1dfe06f          	j	eac4 <_svfprintf_r+0x454>
   100ac:	fa8fe06f          	j	e854 <_svfprintf_r+0x1e4>
   100b0:	01812783          	lw	a5,24(sp)
   100b4:	01012703          	lw	a4,16(sp)
   100b8:	0007a783          	lw	a5,0(a5)
   100bc:	00e7a023          	sw	a4,0(a5)
   100c0:	fe9fe06f          	j	f0a8 <_svfprintf_r+0xa38>
   100c4:	00600713          	li	a4,6
   100c8:	00090d13          	mv	s10,s2
   100cc:	21276863          	bltu	a4,s2,102dc <_svfprintf_r+0x1c6c>
   100d0:	000152b7          	lui	t0,0x15
   100d4:	000d0c93          	mv	s9,s10
   100d8:	01512c23          	sw	s5,24(sp)
   100dc:	f3828c13          	add	s8,t0,-200 # 14f38 <_getpid_r+0x61c>
   100e0:	f60fe06f          	j	e840 <_svfprintf_r+0x1d0>
   100e4:	03412783          	lw	a5,52(sp)
   100e8:	0e812603          	lw	a2,232(sp)
   100ec:	03812683          	lw	a3,56(sp)
   100f0:	00e78733          	add	a4,a5,a4
   100f4:	00160613          	add	a2,a2,1
   100f8:	00d42023          	sw	a3,0(s0)
   100fc:	00f42223          	sw	a5,4(s0)
   10100:	0ee12623          	sw	a4,236(sp)
   10104:	0ec12423          	sw	a2,232(sp)
   10108:	00700593          	li	a1,7
   1010c:	00840413          	add	s0,s0,8
   10110:	46c5c863          	blt	a1,a2,10580 <_svfprintf_r+0x1f10>
   10114:	e4055ee3          	bgez	a0,ff70 <_svfprintf_r+0x1900>
   10118:	00015837          	lui	a6,0x15
   1011c:	ff000593          	li	a1,-16
   10120:	40a00933          	neg	s2,a0
   10124:	7bc80a93          	add	s5,a6,1980 # 157bc <zeroes.0>
   10128:	01000d13          	li	s10,16
   1012c:	00700d93          	li	s11,7
   10130:	00b54863          	blt	a0,a1,10140 <_svfprintf_r+0x1ad0>
   10134:	3ad0006f          	j	10ce0 <_svfprintf_r+0x2670>
   10138:	ff090913          	add	s2,s2,-16
   1013c:	3b2d52e3          	bge	s10,s2,10ce0 <_svfprintf_r+0x2670>
   10140:	01070713          	add	a4,a4,16
   10144:	00160613          	add	a2,a2,1
   10148:	01542023          	sw	s5,0(s0)
   1014c:	01a42223          	sw	s10,4(s0)
   10150:	0ee12623          	sw	a4,236(sp)
   10154:	0ec12423          	sw	a2,232(sp)
   10158:	00840413          	add	s0,s0,8
   1015c:	fccddee3          	bge	s11,a2,10138 <_svfprintf_r+0x1ac8>
   10160:	00812583          	lw	a1,8(sp)
   10164:	0e410613          	add	a2,sp,228
   10168:	00098513          	mv	a0,s3
   1016c:	5dd020ef          	jal	12f48 <__ssprint_r>
   10170:	ae051663          	bnez	a0,f45c <_svfprintf_r+0xdec>
   10174:	0ec12703          	lw	a4,236(sp)
   10178:	0e812603          	lw	a2,232(sp)
   1017c:	000b0413          	mv	s0,s6
   10180:	fb9ff06f          	j	10138 <_svfprintf_r+0x1ac8>
   10184:	00048793          	mv	a5,s1
   10188:	000a0493          	mv	s1,s4
   1018c:	000a8a13          	mv	s4,s5
   10190:	00078a93          	mv	s5,a5
   10194:	008d8db3          	add	s11,s11,s0
   10198:	00190913          	add	s2,s2,1
   1019c:	015d2023          	sw	s5,0(s10)
   101a0:	bbdfe06f          	j	ed5c <_svfprintf_r+0x6ec>
   101a4:	0fc12703          	lw	a4,252(sp)
   101a8:	3a075e63          	bgez	a4,10564 <_svfprintf_r+0x1ef4>
   101ac:	02d00713          	li	a4,45
   101b0:	0ce103a3          	sb	a4,199(sp)
   101b4:	04700693          	li	a3,71
   101b8:	2916dce3          	bge	a3,a7,10c50 <_svfprintf_r+0x25e0>
   101bc:	000152b7          	lui	t0,0x15
   101c0:	f0c28c13          	add	s8,t0,-244 # 14f0c <_getpid_r+0x5f0>
   101c4:	ec1ff06f          	j	10084 <_svfprintf_r+0x1a14>
   101c8:	00e90733          	add	a4,s2,a4
   101cc:	00160613          	add	a2,a2,1
   101d0:	01542023          	sw	s5,0(s0)
   101d4:	01242223          	sw	s2,4(s0)
   101d8:	0ee12623          	sw	a4,236(sp)
   101dc:	0ec12423          	sw	a2,232(sp)
   101e0:	00700593          	li	a1,7
   101e4:	00840413          	add	s0,s0,8
   101e8:	ccc5da63          	bge	a1,a2,f6bc <_svfprintf_r+0x104c>
   101ec:	00812583          	lw	a1,8(sp)
   101f0:	0e410613          	add	a2,sp,228
   101f4:	00098513          	mv	a0,s3
   101f8:	551020ef          	jal	12f48 <__ssprint_r>
   101fc:	a6051063          	bnez	a0,f45c <_svfprintf_r+0xdec>
   10200:	0ec12703          	lw	a4,236(sp)
   10204:	000b0413          	mv	s0,s6
   10208:	cb4ff06f          	j	f6bc <_svfprintf_r+0x104c>
   1020c:	04c12783          	lw	a5,76(sp)
   10210:	04812583          	lw	a1,72(sp)
   10214:	03d12423          	sw	t4,40(sp)
   10218:	40f30333          	sub	t1,t1,a5
   1021c:	00078613          	mv	a2,a5
   10220:	00030513          	mv	a0,t1
   10224:	03112223          	sw	a7,36(sp)
   10228:	02e12023          	sw	a4,32(sp)
   1022c:	00612a23          	sw	t1,20(sp)
   10230:	b94fe0ef          	jal	e5c4 <strncpy>
   10234:	019c37b3          	sltu	a5,s8,s9
   10238:	00500613          	li	a2,5
   1023c:	00fc07b3          	add	a5,s8,a5
   10240:	02c7f7b3          	remu	a5,a5,a2
   10244:	02012703          	lw	a4,32(sp)
   10248:	ccccd637          	lui	a2,0xccccd
   1024c:	ccd60e13          	add	t3,a2,-819 # cccccccd <_end+0xcccb2cfd>
   10250:	ccc60513          	add	a0,a2,-820
   10254:	00174603          	lbu	a2,1(a4)
   10258:	01412303          	lw	t1,20(sp)
   1025c:	02412883          	lw	a7,36(sp)
   10260:	00c03633          	snez	a2,a2
   10264:	00c70733          	add	a4,a4,a2
   10268:	02812e83          	lw	t4,40(sp)
   1026c:	00000593          	li	a1,0
   10270:	00500813          	li	a6,5
   10274:	000e0693          	mv	a3,t3
   10278:	40fc87b3          	sub	a5,s9,a5
   1027c:	00fcb633          	sltu	a2,s9,a5
   10280:	40cd0633          	sub	a2,s10,a2
   10284:	02a78533          	mul	a0,a5,a0
   10288:	03c60633          	mul	a2,a2,t3
   1028c:	03c7bf33          	mulhu	t5,a5,t3
   10290:	00a60633          	add	a2,a2,a0
   10294:	03c78533          	mul	a0,a5,t3
   10298:	01e60633          	add	a2,a2,t5
   1029c:	01f61793          	sll	a5,a2,0x1f
   102a0:	00165613          	srl	a2,a2,0x1
   102a4:	00155513          	srl	a0,a0,0x1
   102a8:	00a7e7b3          	or	a5,a5,a0
   102ac:	ba9ff06f          	j	fe54 <_svfprintf_r+0x17e4>
   102b0:	000152b7          	lui	t0,0x15
   102b4:	f0028c13          	add	s8,t0,-256 # 14f00 <_getpid_r+0x5e4>
   102b8:	dcdff06f          	j	10084 <_svfprintf_r+0x1a14>
   102bc:	00812583          	lw	a1,8(sp)
   102c0:	0e410613          	add	a2,sp,228
   102c4:	00098513          	mv	a0,s3
   102c8:	481020ef          	jal	12f48 <__ssprint_r>
   102cc:	98051863          	bnez	a0,f45c <_svfprintf_r+0xdec>
   102d0:	0ec12703          	lw	a4,236(sp)
   102d4:	000b0413          	mv	s0,s6
   102d8:	bccff06f          	j	f6a4 <_svfprintf_r+0x1034>
   102dc:	00600d13          	li	s10,6
   102e0:	df1ff06f          	j	100d0 <_svfprintf_r+0x1a60>
   102e4:	40c78633          	sub	a2,a5,a2
   102e8:	05012783          	lw	a5,80(sp)
   102ec:	41878933          	sub	s2,a5,s8
   102f0:	c7265663          	bge	a2,s2,f75c <_svfprintf_r+0x10ec>
   102f4:	00060913          	mv	s2,a2
   102f8:	c64ff06f          	j	f75c <_svfprintf_r+0x10ec>
   102fc:	01812783          	lw	a5,24(sp)
   10300:	01012703          	lw	a4,16(sp)
   10304:	0007a783          	lw	a5,0(a5)
   10308:	00e79023          	sh	a4,0(a5)
   1030c:	d9dfe06f          	j	f0a8 <_svfprintf_r+0xa38>
   10310:	00090693          	mv	a3,s2
   10314:	00200613          	li	a2,2
   10318:	0b010b93          	add	s7,sp,176
   1031c:	0d010793          	add	a5,sp,208
   10320:	0dc10813          	add	a6,sp,220
   10324:	0cc10713          	add	a4,sp,204
   10328:	000b8593          	mv	a1,s7
   1032c:	00098513          	mv	a0,s3
   10330:	05112a23          	sw	a7,84(sp)
   10334:	04d12823          	sw	a3,80(sp)
   10338:	0be12823          	sw	t5,176(sp)
   1033c:	03e12423          	sw	t5,40(sp)
   10340:	0bd12a23          	sw	t4,180(sp)
   10344:	03d12223          	sw	t4,36(sp)
   10348:	0bc12c23          	sw	t3,184(sp)
   1034c:	03c12023          	sw	t3,32(sp)
   10350:	0bb12e23          	sw	s11,188(sp)
   10354:	ad9fa0ef          	jal	ae2c <_ldtoa_r>
   10358:	05412883          	lw	a7,84(sp)
   1035c:	06700793          	li	a5,103
   10360:	02012e03          	lw	t3,32(sp)
   10364:	02412e83          	lw	t4,36(sp)
   10368:	02812f03          	lw	t5,40(sp)
   1036c:	05012683          	lw	a3,80(sp)
   10370:	00050c13          	mv	s8,a0
   10374:	60f88263          	beq	a7,a5,10978 <_svfprintf_r+0x2308>
   10378:	04700793          	li	a5,71
   1037c:	5ef88e63          	beq	a7,a5,10978 <_svfprintf_r+0x2308>
   10380:	fdf8fa93          	and	s5,a7,-33
   10384:	04600613          	li	a2,70
   10388:	00d50cb3          	add	s9,a0,a3
   1038c:	0a010d13          	add	s10,sp,160
   10390:	00ca9c63          	bne	s5,a2,103a8 <_svfprintf_r+0x1d38>
   10394:	00054583          	lbu	a1,0(a0)
   10398:	03000613          	li	a2,48
   1039c:	20c58e63          	beq	a1,a2,105b8 <_svfprintf_r+0x1f48>
   103a0:	0cc12683          	lw	a3,204(sp)
   103a4:	00dc8cb3          	add	s9,s9,a3
   103a8:	000b8513          	mv	a0,s7
   103ac:	000d0593          	mv	a1,s10
   103b0:	03112023          	sw	a7,32(sp)
   103b4:	0be12823          	sw	t5,176(sp)
   103b8:	0bd12a23          	sw	t4,180(sp)
   103bc:	0bc12c23          	sw	t3,184(sp)
   103c0:	0bb12e23          	sw	s11,188(sp)
   103c4:	0a012023          	sw	zero,160(sp)
   103c8:	0a012223          	sw	zero,164(sp)
   103cc:	0a012423          	sw	zero,168(sp)
   103d0:	0a012623          	sw	zero,172(sp)
   103d4:	ff1f00ef          	jal	13c4 <__eqtf2>
   103d8:	02012883          	lw	a7,32(sp)
   103dc:	000c8b93          	mv	s7,s9
   103e0:	02050263          	beqz	a0,10404 <_svfprintf_r+0x1d94>
   103e4:	0dc12b83          	lw	s7,220(sp)
   103e8:	019bfe63          	bgeu	s7,s9,10404 <_svfprintf_r+0x1d94>
   103ec:	03000613          	li	a2,48
   103f0:	001b8793          	add	a5,s7,1
   103f4:	0cf12e23          	sw	a5,220(sp)
   103f8:	00cb8023          	sb	a2,0(s7)
   103fc:	0dc12b83          	lw	s7,220(sp)
   10400:	ff9be8e3          	bltu	s7,s9,103f0 <_svfprintf_r+0x1d80>
   10404:	418b87b3          	sub	a5,s7,s8
   10408:	02f12223          	sw	a5,36(sp)
   1040c:	0cc12683          	lw	a3,204(sp)
   10410:	04700793          	li	a5,71
   10414:	02d12023          	sw	a3,32(sp)
   10418:	56fa8e63          	beq	s5,a5,10994 <_svfprintf_r+0x2324>
   1041c:	04600793          	li	a5,70
   10420:	04fa82e3          	beq	s5,a5,10c64 <_svfprintf_r+0x25f4>
   10424:	fff68793          	add	a5,a3,-1
   10428:	0cf12623          	sw	a5,204(sp)
   1042c:	06100713          	li	a4,97
   10430:	2ae88ee3          	beq	a7,a4,10eec <_svfprintf_r+0x287c>
   10434:	04100613          	li	a2,65
   10438:	05000713          	li	a4,80
   1043c:	56c89a63          	bne	a7,a2,109b0 <_svfprintf_r+0x2340>
   10440:	00100613          	li	a2,1
   10444:	0ce10a23          	sb	a4,212(sp)
   10448:	02b00713          	li	a4,43
   1044c:	0007d863          	bgez	a5,1045c <_svfprintf_r+0x1dec>
   10450:	00100793          	li	a5,1
   10454:	40d787b3          	sub	a5,a5,a3
   10458:	02d00713          	li	a4,45
   1045c:	0ce10aa3          	sb	a4,213(sp)
   10460:	00900713          	li	a4,9
   10464:	0cf75ae3          	bge	a4,a5,10d38 <_svfprintf_r+0x26c8>
   10468:	0e310813          	add	a6,sp,227
   1046c:	00080613          	mv	a2,a6
   10470:	00a00593          	li	a1,10
   10474:	06300e13          	li	t3,99
   10478:	02b7e733          	rem	a4,a5,a1
   1047c:	00060693          	mv	a3,a2
   10480:	00078513          	mv	a0,a5
   10484:	fff60613          	add	a2,a2,-1
   10488:	03070713          	add	a4,a4,48
   1048c:	fee68fa3          	sb	a4,-1(a3)
   10490:	02b7c7b3          	div	a5,a5,a1
   10494:	feae42e3          	blt	t3,a0,10478 <_svfprintf_r+0x1e08>
   10498:	03078793          	add	a5,a5,48
   1049c:	ffe68713          	add	a4,a3,-2
   104a0:	fef60fa3          	sb	a5,-1(a2)
   104a4:	250778e3          	bgeu	a4,a6,10ef4 <_svfprintf_r+0x2884>
   104a8:	0d610793          	add	a5,sp,214
   104ac:	00074603          	lbu	a2,0(a4)
   104b0:	00170713          	add	a4,a4,1
   104b4:	00178793          	add	a5,a5,1
   104b8:	fec78fa3          	sb	a2,-1(a5)
   104bc:	ff0718e3          	bne	a4,a6,104ac <_svfprintf_r+0x1e3c>
   104c0:	0e510793          	add	a5,sp,229
   104c4:	0d610713          	add	a4,sp,214
   104c8:	40d787b3          	sub	a5,a5,a3
   104cc:	00f707b3          	add	a5,a4,a5
   104d0:	0d410713          	add	a4,sp,212
   104d4:	40e787b3          	sub	a5,a5,a4
   104d8:	04f12223          	sw	a5,68(sp)
   104dc:	04412683          	lw	a3,68(sp)
   104e0:	02412703          	lw	a4,36(sp)
   104e4:	00100793          	li	a5,1
   104e8:	00e68d33          	add	s10,a3,a4
   104ec:	0ee7dee3          	bge	a5,a4,10de8 <_svfprintf_r+0x2778>
   104f0:	03412783          	lw	a5,52(sp)
   104f4:	00fd0d33          	add	s10,s10,a5
   104f8:	02c12783          	lw	a5,44(sp)
   104fc:	fffd4693          	not	a3,s10
   10500:	41f6d693          	sra	a3,a3,0x1f
   10504:	bff7f793          	and	a5,a5,-1025
   10508:	1007eb93          	or	s7,a5,256
   1050c:	00dd7cb3          	and	s9,s10,a3
   10510:	02012423          	sw	zero,40(sp)
   10514:	02012623          	sw	zero,44(sp)
   10518:	02012023          	sw	zero,32(sp)
   1051c:	06012783          	lw	a5,96(sp)
   10520:	48078e63          	beqz	a5,109bc <_svfprintf_r+0x234c>
   10524:	02d00713          	li	a4,45
   10528:	0ce103a3          	sb	a4,199(sp)
   1052c:	00000913          	li	s2,0
   10530:	001c8c93          	add	s9,s9,1
   10534:	b20fe06f          	j	e854 <_svfprintf_r+0x1e4>
   10538:	0ffcfc93          	zext.b	s9,s9
   1053c:	00000d13          	li	s10,0
   10540:	db4fe06f          	j	eaf4 <_svfprintf_r+0x484>
   10544:	018c9c93          	sll	s9,s9,0x18
   10548:	418cdc93          	sra	s9,s9,0x18
   1054c:	41fcdd13          	sra	s10,s9,0x1f
   10550:	000d0713          	mv	a4,s10
   10554:	d04fe06f          	j	ea58 <_svfprintf_r+0x3e8>
   10558:	0ffcfc93          	zext.b	s9,s9
   1055c:	00000d13          	li	s10,0
   10560:	d04ff06f          	j	fa64 <_svfprintf_r+0x13f4>
   10564:	0c714703          	lbu	a4,199(sp)
   10568:	c4dff06f          	j	101b4 <_svfprintf_r+0x1b44>
   1056c:	00812583          	lw	a1,8(sp)
   10570:	03012503          	lw	a0,48(sp)
   10574:	0e410613          	add	a2,sp,228
   10578:	1d1020ef          	jal	12f48 <__ssprint_r>
   1057c:	c0cfe06f          	j	e988 <_svfprintf_r+0x318>
   10580:	00812583          	lw	a1,8(sp)
   10584:	0e410613          	add	a2,sp,228
   10588:	00098513          	mv	a0,s3
   1058c:	1bd020ef          	jal	12f48 <__ssprint_r>
   10590:	00050463          	beqz	a0,10598 <_svfprintf_r+0x1f28>
   10594:	ec9fe06f          	j	f45c <_svfprintf_r+0xdec>
   10598:	0cc12503          	lw	a0,204(sp)
   1059c:	0ec12703          	lw	a4,236(sp)
   105a0:	0e812603          	lw	a2,232(sp)
   105a4:	000b0413          	mv	s0,s6
   105a8:	9c0554e3          	bgez	a0,ff70 <_svfprintf_r+0x1900>
   105ac:	b6dff06f          	j	10118 <_svfprintf_r+0x1aa8>
   105b0:	00600913          	li	s2,6
   105b4:	e68fe06f          	j	ec1c <_svfprintf_r+0x5ac>
   105b8:	000d0593          	mv	a1,s10
   105bc:	000b8513          	mv	a0,s7
   105c0:	05112823          	sw	a7,80(sp)
   105c4:	0be12823          	sw	t5,176(sp)
   105c8:	03e12423          	sw	t5,40(sp)
   105cc:	0bd12a23          	sw	t4,180(sp)
   105d0:	03d12223          	sw	t4,36(sp)
   105d4:	0bc12c23          	sw	t3,184(sp)
   105d8:	03c12023          	sw	t3,32(sp)
   105dc:	04d12a23          	sw	a3,84(sp)
   105e0:	0bb12e23          	sw	s11,188(sp)
   105e4:	0a012023          	sw	zero,160(sp)
   105e8:	0a012223          	sw	zero,164(sp)
   105ec:	0a012423          	sw	zero,168(sp)
   105f0:	0a012623          	sw	zero,172(sp)
   105f4:	dd1f00ef          	jal	13c4 <__eqtf2>
   105f8:	02012e03          	lw	t3,32(sp)
   105fc:	02412e83          	lw	t4,36(sp)
   10600:	02812f03          	lw	t5,40(sp)
   10604:	05012883          	lw	a7,80(sp)
   10608:	d8050ce3          	beqz	a0,103a0 <_svfprintf_r+0x1d30>
   1060c:	05412683          	lw	a3,84(sp)
   10610:	00100613          	li	a2,1
   10614:	40d606b3          	sub	a3,a2,a3
   10618:	0cd12623          	sw	a3,204(sp)
   1061c:	d89ff06f          	j	103a4 <_svfprintf_r+0x1d34>
   10620:	00190693          	add	a3,s2,1
   10624:	00200613          	li	a2,2
   10628:	cf1ff06f          	j	10318 <_svfprintf_r+0x1ca8>
   1062c:	00090693          	mv	a3,s2
   10630:	00300613          	li	a2,3
   10634:	ce5ff06f          	j	10318 <_svfprintf_r+0x1ca8>
   10638:	0b010b93          	add	s7,sp,176
   1063c:	000b8513          	mv	a0,s7
   10640:	07112223          	sw	a7,100(sp)
   10644:	0be12823          	sw	t5,176(sp)
   10648:	0bd12a23          	sw	t4,180(sp)
   1064c:	0bc12c23          	sw	t3,184(sp)
   10650:	0bb12e23          	sw	s11,188(sp)
   10654:	a6df30ef          	jal	40c0 <__trunctfdf2>
   10658:	0cc10613          	add	a2,sp,204
   1065c:	bc1fd0ef          	jal	e21c <frexp>
   10660:	00058613          	mv	a2,a1
   10664:	00050593          	mv	a1,a0
   10668:	000b8513          	mv	a0,s7
   1066c:	849f30ef          	jal	3eb4 <__extenddftf2>
   10670:	09010793          	add	a5,sp,144
   10674:	00078593          	mv	a1,a5
   10678:	02f12023          	sw	a5,32(sp)
   1067c:	0b012783          	lw	a5,176(sp)
   10680:	0a010d13          	add	s10,sp,160
   10684:	08010613          	add	a2,sp,128
   10688:	08f12823          	sw	a5,144(sp)
   1068c:	0b412783          	lw	a5,180(sp)
   10690:	000d0513          	mv	a0,s10
   10694:	04c12a23          	sw	a2,84(sp)
   10698:	08f12a23          	sw	a5,148(sp)
   1069c:	0b812783          	lw	a5,184(sp)
   106a0:	08012023          	sw	zero,128(sp)
   106a4:	08012223          	sw	zero,132(sp)
   106a8:	08f12c23          	sw	a5,152(sp)
   106ac:	0bc12783          	lw	a5,188(sp)
   106b0:	08012423          	sw	zero,136(sp)
   106b4:	08f12e23          	sw	a5,156(sp)
   106b8:	3ffc07b7          	lui	a5,0x3ffc0
   106bc:	08f12623          	sw	a5,140(sp)
   106c0:	8a0f10ef          	jal	1760 <__multf3>
   106c4:	0a012703          	lw	a4,160(sp)
   106c8:	0a412683          	lw	a3,164(sp)
   106cc:	0a812803          	lw	a6,168(sp)
   106d0:	0ac12e03          	lw	t3,172(sp)
   106d4:	000d0593          	mv	a1,s10
   106d8:	000b8513          	mv	a0,s7
   106dc:	0ae12823          	sw	a4,176(sp)
   106e0:	04e12e23          	sw	a4,92(sp)
   106e4:	0ad12a23          	sw	a3,180(sp)
   106e8:	04d12823          	sw	a3,80(sp)
   106ec:	0b012c23          	sw	a6,184(sp)
   106f0:	03012423          	sw	a6,40(sp)
   106f4:	0bc12e23          	sw	t3,188(sp)
   106f8:	03c12223          	sw	t3,36(sp)
   106fc:	0a012023          	sw	zero,160(sp)
   10700:	0a012223          	sw	zero,164(sp)
   10704:	0a012423          	sw	zero,168(sp)
   10708:	0a012623          	sw	zero,172(sp)
   1070c:	cb9f00ef          	jal	13c4 <__eqtf2>
   10710:	02412e03          	lw	t3,36(sp)
   10714:	02812803          	lw	a6,40(sp)
   10718:	05012683          	lw	a3,80(sp)
   1071c:	05c12703          	lw	a4,92(sp)
   10720:	06412883          	lw	a7,100(sp)
   10724:	00051a63          	bnez	a0,10738 <_svfprintf_r+0x20c8>
   10728:	00100793          	li	a5,1
   1072c:	0cf12623          	sw	a5,204(sp)
   10730:	06100793          	li	a5,97
   10734:	46f88463          	beq	a7,a5,10b9c <_svfprintf_r+0x252c>
   10738:	000157b7          	lui	a5,0x15
   1073c:	f2478393          	add	t2,a5,-220 # 14f24 <_getpid_r+0x608>
   10740:	fff90c93          	add	s9,s2,-1
   10744:	07212823          	sw	s2,112(sp)
   10748:	06812a23          	sw	s0,116(sp)
   1074c:	000c0913          	mv	s2,s8
   10750:	07312c23          	sw	s3,120(sp)
   10754:	07812e23          	sw	s8,124(sp)
   10758:	06912223          	sw	s1,100(sp)
   1075c:	07112423          	sw	a7,104(sp)
   10760:	07412623          	sw	s4,108(sp)
   10764:	04712823          	sw	t2,80(sp)
   10768:	00070993          	mv	s3,a4
   1076c:	00068a93          	mv	s5,a3
   10770:	00080c13          	mv	s8,a6
   10774:	000e0413          	mv	s0,t3
   10778:	04c0006f          	j	107c4 <_svfprintf_r+0x2154>
   1077c:	000d0593          	mv	a1,s10
   10780:	000b8513          	mv	a0,s7
   10784:	02f12423          	sw	a5,40(sp)
   10788:	02c12223          	sw	a2,36(sp)
   1078c:	0ac12c23          	sw	a2,184(sp)
   10790:	0af12e23          	sw	a5,188(sp)
   10794:	0a912823          	sw	s1,176(sp)
   10798:	0b412a23          	sw	s4,180(sp)
   1079c:	0a012023          	sw	zero,160(sp)
   107a0:	0a012223          	sw	zero,164(sp)
   107a4:	0a012423          	sw	zero,168(sp)
   107a8:	0a012623          	sw	zero,172(sp)
   107ac:	c19f00ef          	jal	13c4 <__eqtf2>
   107b0:	fffc8593          	add	a1,s9,-1
   107b4:	000c0613          	mv	a2,s8
   107b8:	00040793          	mv	a5,s0
   107bc:	62050e63          	beqz	a0,10df8 <_svfprintf_r+0x2788>
   107c0:	00058c93          	mv	s9,a1
   107c4:	02012603          	lw	a2,32(sp)
   107c8:	400307b7          	lui	a5,0x40030
   107cc:	000d0593          	mv	a1,s10
   107d0:	000b8513          	mv	a0,s7
   107d4:	08f12e23          	sw	a5,156(sp)
   107d8:	0b312023          	sw	s3,160(sp)
   107dc:	0b512223          	sw	s5,164(sp)
   107e0:	0b812423          	sw	s8,168(sp)
   107e4:	0a812623          	sw	s0,172(sp)
   107e8:	08012823          	sw	zero,144(sp)
   107ec:	08012a23          	sw	zero,148(sp)
   107f0:	08012c23          	sw	zero,152(sp)
   107f4:	f6df00ef          	jal	1760 <__multf3>
   107f8:	000b8513          	mv	a0,s7
   107fc:	c70f30ef          	jal	3c6c <__fixtfsi>
   10800:	00050593          	mv	a1,a0
   10804:	00050d93          	mv	s11,a0
   10808:	000b8513          	mv	a0,s7
   1080c:	0b012a03          	lw	s4,176(sp)
   10810:	0b412983          	lw	s3,180(sp)
   10814:	0b812483          	lw	s1,184(sp)
   10818:	0bc12403          	lw	s0,188(sp)
   1081c:	d44f30ef          	jal	3d60 <__floatsitf>
   10820:	0b012783          	lw	a5,176(sp)
   10824:	05412603          	lw	a2,84(sp)
   10828:	02012583          	lw	a1,32(sp)
   1082c:	08f12023          	sw	a5,128(sp)
   10830:	0b412783          	lw	a5,180(sp)
   10834:	000d0513          	mv	a0,s10
   10838:	09412823          	sw	s4,144(sp)
   1083c:	08f12223          	sw	a5,132(sp)
   10840:	0b812783          	lw	a5,184(sp)
   10844:	09312a23          	sw	s3,148(sp)
   10848:	08912c23          	sw	s1,152(sp)
   1084c:	08f12423          	sw	a5,136(sp)
   10850:	0bc12783          	lw	a5,188(sp)
   10854:	08812e23          	sw	s0,156(sp)
   10858:	08f12623          	sw	a5,140(sp)
   1085c:	f5df10ef          	jal	27b8 <__subtf3>
   10860:	05012783          	lw	a5,80(sp)
   10864:	0a012483          	lw	s1,160(sp)
   10868:	0a412a03          	lw	s4,164(sp)
   1086c:	01b787b3          	add	a5,a5,s11
   10870:	0007c703          	lbu	a4,0(a5) # 40030000 <_end+0x40016030>
   10874:	0a812603          	lw	a2,168(sp)
   10878:	0ac12783          	lw	a5,172(sp)
   1087c:	05212e23          	sw	s2,92(sp)
   10880:	00e90023          	sb	a4,0(s2)
   10884:	fff00713          	li	a4,-1
   10888:	00190913          	add	s2,s2,1
   1088c:	00048993          	mv	s3,s1
   10890:	000a0a93          	mv	s5,s4
   10894:	00060c13          	mv	s8,a2
   10898:	00078413          	mv	s0,a5
   1089c:	eeec90e3          	bne	s9,a4,1077c <_svfprintf_r+0x210c>
   108a0:	00090a93          	mv	s5,s2
   108a4:	00048f13          	mv	t5,s1
   108a8:	000a0e93          	mv	t4,s4
   108ac:	06812883          	lw	a7,104(sp)
   108b0:	07412403          	lw	s0,116(sp)
   108b4:	07012903          	lw	s2,112(sp)
   108b8:	05012383          	lw	t2,80(sp)
   108bc:	07812983          	lw	s3,120(sp)
   108c0:	07c12c03          	lw	s8,124(sp)
   108c4:	06412483          	lw	s1,100(sp)
   108c8:	06c12a03          	lw	s4,108(sp)
   108cc:	fff00713          	li	a4,-1
   108d0:	3ffe06b7          	lui	a3,0x3ffe0
   108d4:	000d0593          	mv	a1,s10
   108d8:	000b8513          	mv	a0,s7
   108dc:	02712223          	sw	t2,36(sp)
   108e0:	03112023          	sw	a7,32(sp)
   108e4:	06e12423          	sw	a4,104(sp)
   108e8:	0be12823          	sw	t5,176(sp)
   108ec:	07e12223          	sw	t5,100(sp)
   108f0:	0bd12a23          	sw	t4,180(sp)
   108f4:	05d12a23          	sw	t4,84(sp)
   108f8:	0ac12c23          	sw	a2,184(sp)
   108fc:	04c12823          	sw	a2,80(sp)
   10900:	0af12e23          	sw	a5,188(sp)
   10904:	02f12423          	sw	a5,40(sp)
   10908:	0a012023          	sw	zero,160(sp)
   1090c:	0a012223          	sw	zero,164(sp)
   10910:	0a012423          	sw	zero,168(sp)
   10914:	0ad12623          	sw	a3,172(sp)
   10918:	b81f00ef          	jal	1498 <__getf2>
   1091c:	02012883          	lw	a7,32(sp)
   10920:	02412383          	lw	t2,36(sp)
   10924:	44a04263          	bgtz	a0,10d68 <_svfprintf_r+0x26f8>
   10928:	000d0593          	mv	a1,s10
   1092c:	000b8513          	mv	a0,s7
   10930:	a95f00ef          	jal	13c4 <__eqtf2>
   10934:	02012883          	lw	a7,32(sp)
   10938:	02412383          	lw	t2,36(sp)
   1093c:	06812703          	lw	a4,104(sp)
   10940:	00051663          	bnez	a0,1094c <_svfprintf_r+0x22dc>
   10944:	001dfd93          	and	s11,s11,1
   10948:	420d9063          	bnez	s11,10d68 <_svfprintf_r+0x26f8>
   1094c:	00170b93          	add	s7,a4,1
   10950:	017a8bb3          	add	s7,s5,s7
   10954:	03000693          	li	a3,48
   10958:	44074c63          	bltz	a4,10db0 <_svfprintf_r+0x2740>
   1095c:	001a8a93          	add	s5,s5,1
   10960:	feda8fa3          	sb	a3,-1(s5)
   10964:	ff5b9ce3          	bne	s7,s5,1095c <_svfprintf_r+0x22ec>
   10968:	418b87b3          	sub	a5,s7,s8
   1096c:	02f12223          	sw	a5,36(sp)
   10970:	fdf8fa93          	and	s5,a7,-33
   10974:	a99ff06f          	j	1040c <_svfprintf_r+0x1d9c>
   10978:	02c12783          	lw	a5,44(sp)
   1097c:	0017f793          	and	a5,a5,1
   10980:	3a079463          	bnez	a5,10d28 <_svfprintf_r+0x26b8>
   10984:	0dc12b83          	lw	s7,220(sp)
   10988:	0cc12683          	lw	a3,204(sp)
   1098c:	418b87b3          	sub	a5,s7,s8
   10990:	02f12223          	sw	a5,36(sp)
   10994:	ffd00793          	li	a5,-3
   10998:	02d12023          	sw	a3,32(sp)
   1099c:	00f6c463          	blt	a3,a5,109a4 <_svfprintf_r+0x2334>
   109a0:	02d95863          	bge	s2,a3,109d0 <_svfprintf_r+0x2360>
   109a4:	fff68793          	add	a5,a3,-1 # 3ffdffff <_end+0x3ffc602f>
   109a8:	ffe88893          	add	a7,a7,-2
   109ac:	0cf12623          	sw	a5,204(sp)
   109b0:	0ff8f713          	zext.b	a4,a7
   109b4:	00000613          	li	a2,0
   109b8:	a8dff06f          	j	10444 <_svfprintf_r+0x1dd4>
   109bc:	0c714703          	lbu	a4,199(sp)
   109c0:	00000913          	li	s2,0
   109c4:	00070463          	beqz	a4,109cc <_svfprintf_r+0x235c>
   109c8:	8fcfe06f          	j	eac4 <_svfprintf_r+0x454>
   109cc:	e89fd06f          	j	e854 <_svfprintf_r+0x1e4>
   109d0:	02412783          	lw	a5,36(sp)
   109d4:	2cf6cc63          	blt	a3,a5,10cac <_svfprintf_r+0x263c>
   109d8:	02c12783          	lw	a5,44(sp)
   109dc:	00068d13          	mv	s10,a3
   109e0:	0017f793          	and	a5,a5,1
   109e4:	00078663          	beqz	a5,109f0 <_svfprintf_r+0x2380>
   109e8:	03412783          	lw	a5,52(sp)
   109ec:	00f68d33          	add	s10,a3,a5
   109f0:	02c12783          	lw	a5,44(sp)
   109f4:	4007f793          	and	a5,a5,1024
   109f8:	00078463          	beqz	a5,10a00 <_svfprintf_r+0x2390>
   109fc:	44d04c63          	bgtz	a3,10e54 <_svfprintf_r+0x27e4>
   10a00:	fffd4693          	not	a3,s10
   10a04:	05812b83          	lw	s7,88(sp)
   10a08:	41f6d693          	sra	a3,a3,0x1f
   10a0c:	00dd7cb3          	and	s9,s10,a3
   10a10:	06700893          	li	a7,103
   10a14:	02012423          	sw	zero,40(sp)
   10a18:	02012623          	sw	zero,44(sp)
   10a1c:	b01ff06f          	j	1051c <_svfprintf_r+0x1eac>
   10a20:	0e410613          	add	a2,sp,228
   10a24:	00048593          	mv	a1,s1
   10a28:	00098513          	mv	a0,s3
   10a2c:	51c020ef          	jal	12f48 <__ssprint_r>
   10a30:	00050463          	beqz	a0,10a38 <_svfprintf_r+0x23c8>
   10a34:	a29fe06f          	j	f45c <_svfprintf_r+0xdec>
   10a38:	000bc683          	lbu	a3,0(s7)
   10a3c:	0ec12703          	lw	a4,236(sp)
   10a40:	000b0613          	mv	a2,s6
   10a44:	00dc8cb3          	add	s9,s9,a3
   10a48:	a58ff06f          	j	fca0 <_svfprintf_r+0x1630>
   10a4c:	00900513          	li	a0,9
   10a50:	c1956263          	bltu	a0,s9,fe54 <_svfprintf_r+0x17e4>
   10a54:	c80ff06f          	j	fed4 <_svfprintf_r+0x1864>
   10a58:	07800713          	li	a4,120
   10a5c:	03000693          	li	a3,48
   10a60:	002be793          	or	a5,s7,2
   10a64:	0ce104a3          	sb	a4,201(sp)
   10a68:	0cd10423          	sb	a3,200(sp)
   10a6c:	06300713          	li	a4,99
   10a70:	02f12623          	sw	a5,44(sp)
   10a74:	00012a23          	sw	zero,20(sp)
   10a78:	14c10c13          	add	s8,sp,332
   10a7c:	35274463          	blt	a4,s2,10dc4 <_svfprintf_r+0x2754>
   10a80:	0fc12d83          	lw	s11,252(sp)
   10a84:	102be793          	or	a5,s7,258
   10a88:	04f12c23          	sw	a5,88(sp)
   10a8c:	06012023          	sw	zero,96(sp)
   10a90:	0f012f03          	lw	t5,240(sp)
   10a94:	0f412e83          	lw	t4,244(sp)
   10a98:	0f812e03          	lw	t3,248(sp)
   10a9c:	100dc863          	bltz	s11,10bac <_svfprintf_r+0x253c>
   10aa0:	06100793          	li	a5,97
   10aa4:	00f88463          	beq	a7,a5,10aac <_svfprintf_r+0x243c>
   10aa8:	9a0fe06f          	j	ec48 <_svfprintf_r+0x5d8>
   10aac:	0b010b93          	add	s7,sp,176
   10ab0:	000b8513          	mv	a0,s7
   10ab4:	07112223          	sw	a7,100(sp)
   10ab8:	0be12823          	sw	t5,176(sp)
   10abc:	0bd12a23          	sw	t4,180(sp)
   10ac0:	0bc12c23          	sw	t3,184(sp)
   10ac4:	0bb12e23          	sw	s11,188(sp)
   10ac8:	df8f30ef          	jal	40c0 <__trunctfdf2>
   10acc:	0cc10613          	add	a2,sp,204
   10ad0:	f4cfd0ef          	jal	e21c <frexp>
   10ad4:	00058613          	mv	a2,a1
   10ad8:	00050593          	mv	a1,a0
   10adc:	000b8513          	mv	a0,s7
   10ae0:	bd4f30ef          	jal	3eb4 <__extenddftf2>
   10ae4:	09010793          	add	a5,sp,144
   10ae8:	00078593          	mv	a1,a5
   10aec:	02f12023          	sw	a5,32(sp)
   10af0:	0b012783          	lw	a5,176(sp)
   10af4:	0a010d13          	add	s10,sp,160
   10af8:	08010613          	add	a2,sp,128
   10afc:	08f12823          	sw	a5,144(sp)
   10b00:	0b412783          	lw	a5,180(sp)
   10b04:	000d0513          	mv	a0,s10
   10b08:	04c12a23          	sw	a2,84(sp)
   10b0c:	08f12a23          	sw	a5,148(sp)
   10b10:	0b812783          	lw	a5,184(sp)
   10b14:	08012023          	sw	zero,128(sp)
   10b18:	08012223          	sw	zero,132(sp)
   10b1c:	08f12c23          	sw	a5,152(sp)
   10b20:	0bc12783          	lw	a5,188(sp)
   10b24:	08012423          	sw	zero,136(sp)
   10b28:	08f12e23          	sw	a5,156(sp)
   10b2c:	3ffc07b7          	lui	a5,0x3ffc0
   10b30:	08f12623          	sw	a5,140(sp)
   10b34:	c2df00ef          	jal	1760 <__multf3>
   10b38:	0a012703          	lw	a4,160(sp)
   10b3c:	0a412683          	lw	a3,164(sp)
   10b40:	0a812803          	lw	a6,168(sp)
   10b44:	0ac12e03          	lw	t3,172(sp)
   10b48:	000d0593          	mv	a1,s10
   10b4c:	000b8513          	mv	a0,s7
   10b50:	0ae12823          	sw	a4,176(sp)
   10b54:	04e12e23          	sw	a4,92(sp)
   10b58:	0ad12a23          	sw	a3,180(sp)
   10b5c:	04d12823          	sw	a3,80(sp)
   10b60:	0b012c23          	sw	a6,184(sp)
   10b64:	03012423          	sw	a6,40(sp)
   10b68:	0bc12e23          	sw	t3,188(sp)
   10b6c:	03c12223          	sw	t3,36(sp)
   10b70:	0a012023          	sw	zero,160(sp)
   10b74:	0a012223          	sw	zero,164(sp)
   10b78:	0a012423          	sw	zero,168(sp)
   10b7c:	0a012623          	sw	zero,172(sp)
   10b80:	845f00ef          	jal	13c4 <__eqtf2>
   10b84:	02412e03          	lw	t3,36(sp)
   10b88:	02812803          	lw	a6,40(sp)
   10b8c:	05012683          	lw	a3,80(sp)
   10b90:	05c12703          	lw	a4,92(sp)
   10b94:	06412883          	lw	a7,100(sp)
   10b98:	b80508e3          	beqz	a0,10728 <_svfprintf_r+0x20b8>
   10b9c:	000157b7          	lui	a5,0x15
   10ba0:	f1078393          	add	t2,a5,-240 # 14f10 <_getpid_r+0x5f4>
   10ba4:	b9dff06f          	j	10740 <_svfprintf_r+0x20d0>
   10ba8:	00012a23          	sw	zero,20(sp)
   10bac:	800007b7          	lui	a5,0x80000
   10bb0:	01b7cdb3          	xor	s11,a5,s11
   10bb4:	02d00793          	li	a5,45
   10bb8:	06f12023          	sw	a5,96(sp)
   10bbc:	ee5ff06f          	j	10aa0 <_svfprintf_r+0x2430>
   10bc0:	00812583          	lw	a1,8(sp)
   10bc4:	0e410613          	add	a2,sp,228
   10bc8:	00098513          	mv	a0,s3
   10bcc:	37c020ef          	jal	12f48 <__ssprint_r>
   10bd0:	00050463          	beqz	a0,10bd8 <_svfprintf_r+0x2568>
   10bd4:	889fe06f          	j	f45c <_svfprintf_r+0xdec>
   10bd8:	0cc12603          	lw	a2,204(sp)
   10bdc:	0ec12703          	lw	a4,236(sp)
   10be0:	000b0413          	mv	s0,s6
   10be4:	b31fe06f          	j	f714 <_svfprintf_r+0x10a4>
   10be8:	02d00713          	li	a4,45
   10bec:	0ce103a3          	sb	a4,199(sp)
   10bf0:	c84ff06f          	j	10074 <_svfprintf_r+0x1a04>
   10bf4:	0c714703          	lbu	a4,199(sp)
   10bf8:	01512c23          	sw	s5,24(sp)
   10bfc:	02012423          	sw	zero,40(sp)
   10c00:	02012623          	sw	zero,44(sp)
   10c04:	02012023          	sw	zero,32(sp)
   10c08:	00090c93          	mv	s9,s2
   10c0c:	00090d13          	mv	s10,s2
   10c10:	00000913          	li	s2,0
   10c14:	00070463          	beqz	a4,10c1c <_svfprintf_r+0x25ac>
   10c18:	eadfd06f          	j	eac4 <_svfprintf_r+0x454>
   10c1c:	c39fd06f          	j	e854 <_svfprintf_r+0x1e4>
   10c20:	00812583          	lw	a1,8(sp)
   10c24:	0e410613          	add	a2,sp,228
   10c28:	00098513          	mv	a0,s3
   10c2c:	31c020ef          	jal	12f48 <__ssprint_r>
   10c30:	00050463          	beqz	a0,10c38 <_svfprintf_r+0x25c8>
   10c34:	829fe06f          	j	f45c <_svfprintf_r+0xdec>
   10c38:	0cc12603          	lw	a2,204(sp)
   10c3c:	02412783          	lw	a5,36(sp)
   10c40:	0ec12703          	lw	a4,236(sp)
   10c44:	000b0413          	mv	s0,s6
   10c48:	40c78633          	sub	a2,a5,a2
   10c4c:	b11fe06f          	j	f75c <_svfprintf_r+0x10ec>
   10c50:	000152b7          	lui	t0,0x15
   10c54:	f0828c13          	add	s8,t0,-248 # 14f08 <_getpid_r+0x5ec>
   10c58:	c2cff06f          	j	10084 <_svfprintf_r+0x1a14>
   10c5c:	05800713          	li	a4,88
   10c60:	dfdff06f          	j	10a5c <_svfprintf_r+0x23ec>
   10c64:	02c12783          	lw	a5,44(sp)
   10c68:	02012703          	lw	a4,32(sp)
   10c6c:	0017f793          	and	a5,a5,1
   10c70:	0127e7b3          	or	a5,a5,s2
   10c74:	2ae05863          	blez	a4,10f24 <_svfprintf_r+0x28b4>
   10c78:	26079063          	bnez	a5,10ed8 <_svfprintf_r+0x2868>
   10c7c:	02012d03          	lw	s10,32(sp)
   10c80:	06600893          	li	a7,102
   10c84:	02c12783          	lw	a5,44(sp)
   10c88:	4007f793          	and	a5,a5,1024
   10c8c:	1c079663          	bnez	a5,10e58 <_svfprintf_r+0x27e8>
   10c90:	fffd4693          	not	a3,s10
   10c94:	41f6d693          	sra	a3,a3,0x1f
   10c98:	05812b83          	lw	s7,88(sp)
   10c9c:	00dd7cb3          	and	s9,s10,a3
   10ca0:	d75ff06f          	j	10a14 <_svfprintf_r+0x23a4>
   10ca4:	000b8d93          	mv	s11,s7
   10ca8:	de5fd06f          	j	ea8c <_svfprintf_r+0x41c>
   10cac:	02412783          	lw	a5,36(sp)
   10cb0:	03412703          	lw	a4,52(sp)
   10cb4:	06700893          	li	a7,103
   10cb8:	00e78d33          	add	s10,a5,a4
   10cbc:	02012783          	lw	a5,32(sp)
   10cc0:	fcf042e3          	bgtz	a5,10c84 <_svfprintf_r+0x2614>
   10cc4:	40fd0e33          	sub	t3,s10,a5
   10cc8:	001e0d13          	add	s10,t3,1
   10ccc:	fffd4693          	not	a3,s10
   10cd0:	41f6d693          	sra	a3,a3,0x1f
   10cd4:	05812b83          	lw	s7,88(sp)
   10cd8:	00dd7cb3          	and	s9,s10,a3
   10cdc:	d39ff06f          	j	10a14 <_svfprintf_r+0x23a4>
   10ce0:	01270733          	add	a4,a4,s2
   10ce4:	00160613          	add	a2,a2,1
   10ce8:	01542023          	sw	s5,0(s0)
   10cec:	01242223          	sw	s2,4(s0)
   10cf0:	0ee12623          	sw	a4,236(sp)
   10cf4:	0ec12423          	sw	a2,232(sp)
   10cf8:	00700593          	li	a1,7
   10cfc:	a6c5d863          	bge	a1,a2,ff6c <_svfprintf_r+0x18fc>
   10d00:	00812583          	lw	a1,8(sp)
   10d04:	0e410613          	add	a2,sp,228
   10d08:	00098513          	mv	a0,s3
   10d0c:	23c020ef          	jal	12f48 <__ssprint_r>
   10d10:	00050463          	beqz	a0,10d18 <_svfprintf_r+0x26a8>
   10d14:	f48fe06f          	j	f45c <_svfprintf_r+0xdec>
   10d18:	0ec12703          	lw	a4,236(sp)
   10d1c:	0e812603          	lw	a2,232(sp)
   10d20:	000b0413          	mv	s0,s6
   10d24:	a4cff06f          	j	ff70 <_svfprintf_r+0x1900>
   10d28:	00dc0cb3          	add	s9,s8,a3
   10d2c:	04700a93          	li	s5,71
   10d30:	0a010d13          	add	s10,sp,160
   10d34:	e74ff06f          	j	103a8 <_svfprintf_r+0x1d38>
   10d38:	0d610713          	add	a4,sp,214
   10d3c:	00061863          	bnez	a2,10d4c <_svfprintf_r+0x26dc>
   10d40:	03000713          	li	a4,48
   10d44:	0ce10b23          	sb	a4,214(sp)
   10d48:	0d710713          	add	a4,sp,215
   10d4c:	1b010693          	add	a3,sp,432
   10d50:	03078793          	add	a5,a5,48 # 80000030 <_end+0x7ffe6060>
   10d54:	40d706b3          	sub	a3,a4,a3
   10d58:	00f70023          	sb	a5,0(a4)
   10d5c:	0dd68793          	add	a5,a3,221
   10d60:	04f12223          	sw	a5,68(sp)
   10d64:	f78ff06f          	j	104dc <_svfprintf_r+0x1e6c>
   10d68:	05c12783          	lw	a5,92(sp)
   10d6c:	00f3c603          	lbu	a2,15(t2)
   10d70:	000a8713          	mv	a4,s5
   10d74:	0cf12e23          	sw	a5,220(sp)
   10d78:	fffac683          	lbu	a3,-1(s5)
   10d7c:	02c69063          	bne	a3,a2,10d9c <_svfprintf_r+0x272c>
   10d80:	03000593          	li	a1,48
   10d84:	feb70fa3          	sb	a1,-1(a4)
   10d88:	0dc12703          	lw	a4,220(sp)
   10d8c:	fff70793          	add	a5,a4,-1
   10d90:	0cf12e23          	sw	a5,220(sp)
   10d94:	fff74683          	lbu	a3,-1(a4)
   10d98:	fed606e3          	beq	a2,a3,10d84 <_svfprintf_r+0x2714>
   10d9c:	00168613          	add	a2,a3,1
   10da0:	03900593          	li	a1,57
   10da4:	0ff67613          	zext.b	a2,a2
   10da8:	00b68863          	beq	a3,a1,10db8 <_svfprintf_r+0x2748>
   10dac:	fec70fa3          	sb	a2,-1(a4)
   10db0:	000a8b93          	mv	s7,s5
   10db4:	bb5ff06f          	j	10968 <_svfprintf_r+0x22f8>
   10db8:	00a3c603          	lbu	a2,10(t2)
   10dbc:	fec70fa3          	sb	a2,-1(a4)
   10dc0:	ff1ff06f          	j	10db0 <_svfprintf_r+0x2740>
   10dc4:	00190593          	add	a1,s2,1
   10dc8:	00098513          	mv	a0,s3
   10dcc:	01112a23          	sw	a7,20(sp)
   10dd0:	f79f30ef          	jal	4d48 <_malloc_r>
   10dd4:	01412883          	lw	a7,20(sp)
   10dd8:	00050c13          	mv	s8,a0
   10ddc:	18050863          	beqz	a0,10f6c <_svfprintf_r+0x28fc>
   10de0:	00a12a23          	sw	a0,20(sp)
   10de4:	c9dff06f          	j	10a80 <_svfprintf_r+0x2410>
   10de8:	02c12783          	lw	a5,44(sp)
   10dec:	0017f793          	and	a5,a5,1
   10df0:	f0078463          	beqz	a5,104f8 <_svfprintf_r+0x1e88>
   10df4:	efcff06f          	j	104f0 <_svfprintf_r+0x1e80>
   10df8:	00090a93          	mv	s5,s2
   10dfc:	00048f13          	mv	t5,s1
   10e00:	000a0e93          	mv	t4,s4
   10e04:	06812883          	lw	a7,104(sp)
   10e08:	07412403          	lw	s0,116(sp)
   10e0c:	07012903          	lw	s2,112(sp)
   10e10:	05012383          	lw	t2,80(sp)
   10e14:	07812983          	lw	s3,120(sp)
   10e18:	07c12c03          	lw	s8,124(sp)
   10e1c:	06412483          	lw	s1,100(sp)
   10e20:	06c12a03          	lw	s4,108(sp)
   10e24:	000c8713          	mv	a4,s9
   10e28:	aa9ff06f          	j	108d0 <_svfprintf_r+0x2260>
   10e2c:	03012703          	lw	a4,48(sp)
   10e30:	00c00793          	li	a5,12
   10e34:	00f72023          	sw	a5,0(a4)
   10e38:	fff00793          	li	a5,-1
   10e3c:	00f12823          	sw	a5,16(sp)
   10e40:	b5dfd06f          	j	e99c <_svfprintf_r+0x32c>
   10e44:	00090463          	beqz	s2,10e4c <_svfprintf_r+0x27dc>
   10e48:	dd5fd06f          	j	ec1c <_svfprintf_r+0x5ac>
   10e4c:	00100913          	li	s2,1
   10e50:	dcdfd06f          	j	ec1c <_svfprintf_r+0x5ac>
   10e54:	06700893          	li	a7,103
   10e58:	04012603          	lw	a2,64(sp)
   10e5c:	0ff00713          	li	a4,255
   10e60:	00064783          	lbu	a5,0(a2)
   10e64:	0ee78e63          	beq	a5,a4,10f60 <_svfprintf_r+0x28f0>
   10e68:	02012683          	lw	a3,32(sp)
   10e6c:	00000593          	li	a1,0
   10e70:	00000513          	li	a0,0
   10e74:	00d7de63          	bge	a5,a3,10e90 <_svfprintf_r+0x2820>
   10e78:	40f686b3          	sub	a3,a3,a5
   10e7c:	00164783          	lbu	a5,1(a2)
   10e80:	04078663          	beqz	a5,10ecc <_svfprintf_r+0x285c>
   10e84:	00150513          	add	a0,a0,1
   10e88:	00160613          	add	a2,a2,1
   10e8c:	fee794e3          	bne	a5,a4,10e74 <_svfprintf_r+0x2804>
   10e90:	04c12023          	sw	a2,64(sp)
   10e94:	02b12423          	sw	a1,40(sp)
   10e98:	02d12023          	sw	a3,32(sp)
   10e9c:	02a12623          	sw	a0,44(sp)
   10ea0:	02812783          	lw	a5,40(sp)
   10ea4:	02c12703          	lw	a4,44(sp)
   10ea8:	05812b83          	lw	s7,88(sp)
   10eac:	00e78733          	add	a4,a5,a4
   10eb0:	04c12783          	lw	a5,76(sp)
   10eb4:	02f70733          	mul	a4,a4,a5
   10eb8:	01a70d33          	add	s10,a4,s10
   10ebc:	fffd4693          	not	a3,s10
   10ec0:	41f6d693          	sra	a3,a3,0x1f
   10ec4:	00dd7cb3          	and	s9,s10,a3
   10ec8:	e54ff06f          	j	1051c <_svfprintf_r+0x1eac>
   10ecc:	00064783          	lbu	a5,0(a2)
   10ed0:	00158593          	add	a1,a1,1
   10ed4:	fb9ff06f          	j	10e8c <_svfprintf_r+0x281c>
   10ed8:	03412783          	lw	a5,52(sp)
   10edc:	06600893          	li	a7,102
   10ee0:	00f70e33          	add	t3,a4,a5
   10ee4:	012e0d33          	add	s10,t3,s2
   10ee8:	d9dff06f          	j	10c84 <_svfprintf_r+0x2614>
   10eec:	07000713          	li	a4,112
   10ef0:	d50ff06f          	j	10440 <_svfprintf_r+0x1dd0>
   10ef4:	00200793          	li	a5,2
   10ef8:	04f12223          	sw	a5,68(sp)
   10efc:	de0ff06f          	j	104dc <_svfprintf_r+0x1e6c>
   10f00:	01812783          	lw	a5,24(sp)
   10f04:	0007a903          	lw	s2,0(a5)
   10f08:	00478793          	add	a5,a5,4
   10f0c:	00095463          	bgez	s2,10f14 <_svfprintf_r+0x28a4>
   10f10:	fff00913          	li	s2,-1
   10f14:	0014c883          	lbu	a7,1(s1)
   10f18:	00f12c23          	sw	a5,24(sp)
   10f1c:	00070493          	mv	s1,a4
   10f20:	8b5fd06f          	j	e7d4 <_svfprintf_r+0x164>
   10f24:	00079c63          	bnez	a5,10f3c <_svfprintf_r+0x28cc>
   10f28:	05812b83          	lw	s7,88(sp)
   10f2c:	00100c93          	li	s9,1
   10f30:	06600893          	li	a7,102
   10f34:	00100d13          	li	s10,1
   10f38:	addff06f          	j	10a14 <_svfprintf_r+0x23a4>
   10f3c:	03412783          	lw	a5,52(sp)
   10f40:	05812b83          	lw	s7,88(sp)
   10f44:	06600893          	li	a7,102
   10f48:	00178e13          	add	t3,a5,1
   10f4c:	012e0d33          	add	s10,t3,s2
   10f50:	fffd4693          	not	a3,s10
   10f54:	41f6d693          	sra	a3,a3,0x1f
   10f58:	00dd7cb3          	and	s9,s10,a3
   10f5c:	ab9ff06f          	j	10a14 <_svfprintf_r+0x23a4>
   10f60:	02012423          	sw	zero,40(sp)
   10f64:	02012623          	sw	zero,44(sp)
   10f68:	f39ff06f          	j	10ea0 <_svfprintf_r+0x2830>
   10f6c:	00812703          	lw	a4,8(sp)
   10f70:	00c75783          	lhu	a5,12(a4)
   10f74:	0407e793          	or	a5,a5,64
   10f78:	00f71623          	sh	a5,12(a4)
   10f7c:	a0dfd06f          	j	e988 <_svfprintf_r+0x318>

00010f80 <__sprint_r.part.0>:
   10f80:	0645a703          	lw	a4,100(a1)
   10f84:	fd010113          	add	sp,sp,-48
   10f88:	000027b7          	lui	a5,0x2
   10f8c:	01612823          	sw	s6,16(sp)
   10f90:	02112623          	sw	ra,44(sp)
   10f94:	02812423          	sw	s0,40(sp)
   10f98:	02912223          	sw	s1,36(sp)
   10f9c:	03212023          	sw	s2,32(sp)
   10fa0:	01312e23          	sw	s3,28(sp)
   10fa4:	01412c23          	sw	s4,24(sp)
   10fa8:	01512a23          	sw	s5,20(sp)
   10fac:	01712623          	sw	s7,12(sp)
   10fb0:	01812423          	sw	s8,8(sp)
   10fb4:	00e7f7b3          	and	a5,a5,a4
   10fb8:	00060b13          	mv	s6,a2
   10fbc:	0a078863          	beqz	a5,1106c <__sprint_r.part.0+0xec>
   10fc0:	00862783          	lw	a5,8(a2)
   10fc4:	00062b83          	lw	s7,0(a2)
   10fc8:	00058913          	mv	s2,a1
   10fcc:	00050993          	mv	s3,a0
   10fd0:	fff00a93          	li	s5,-1
   10fd4:	08078863          	beqz	a5,11064 <__sprint_r.part.0+0xe4>
   10fd8:	004bac03          	lw	s8,4(s7)
   10fdc:	000ba403          	lw	s0,0(s7)
   10fe0:	002c5a13          	srl	s4,s8,0x2
   10fe4:	060a0663          	beqz	s4,11050 <__sprint_r.part.0+0xd0>
   10fe8:	00000493          	li	s1,0
   10fec:	00c0006f          	j	10ff8 <__sprint_r.part.0+0x78>
   10ff0:	00440413          	add	s0,s0,4
   10ff4:	049a0c63          	beq	s4,s1,1104c <__sprint_r.part.0+0xcc>
   10ff8:	00042583          	lw	a1,0(s0)
   10ffc:	00090613          	mv	a2,s2
   11000:	00098513          	mv	a0,s3
   11004:	395010ef          	jal	12b98 <_fputwc_r>
   11008:	00148493          	add	s1,s1,1
   1100c:	ff5512e3          	bne	a0,s5,10ff0 <__sprint_r.part.0+0x70>
   11010:	fff00513          	li	a0,-1
   11014:	02c12083          	lw	ra,44(sp)
   11018:	02812403          	lw	s0,40(sp)
   1101c:	000b2423          	sw	zero,8(s6)
   11020:	000b2223          	sw	zero,4(s6)
   11024:	02412483          	lw	s1,36(sp)
   11028:	02012903          	lw	s2,32(sp)
   1102c:	01c12983          	lw	s3,28(sp)
   11030:	01812a03          	lw	s4,24(sp)
   11034:	01412a83          	lw	s5,20(sp)
   11038:	01012b03          	lw	s6,16(sp)
   1103c:	00c12b83          	lw	s7,12(sp)
   11040:	00812c03          	lw	s8,8(sp)
   11044:	03010113          	add	sp,sp,48
   11048:	00008067          	ret
   1104c:	008b2783          	lw	a5,8(s6)
   11050:	ffcc7c13          	and	s8,s8,-4
   11054:	418787b3          	sub	a5,a5,s8
   11058:	00fb2423          	sw	a5,8(s6)
   1105c:	008b8b93          	add	s7,s7,8
   11060:	f6079ce3          	bnez	a5,10fd8 <__sprint_r.part.0+0x58>
   11064:	00000513          	li	a0,0
   11068:	fadff06f          	j	11014 <__sprint_r.part.0+0x94>
   1106c:	ef9f70ef          	jal	8f64 <__sfvwrite_r>
   11070:	fa5ff06f          	j	11014 <__sprint_r.part.0+0x94>

00011074 <__sprint_r>:
   11074:	00862703          	lw	a4,8(a2)
   11078:	00070463          	beqz	a4,11080 <__sprint_r+0xc>
   1107c:	f05ff06f          	j	10f80 <__sprint_r.part.0>
   11080:	00062223          	sw	zero,4(a2)
   11084:	00000513          	li	a0,0
   11088:	00008067          	ret

0001108c <_vfiprintf_r>:
   1108c:	ed010113          	add	sp,sp,-304
   11090:	13212023          	sw	s2,288(sp)
   11094:	11612823          	sw	s6,272(sp)
   11098:	11712623          	sw	s7,268(sp)
   1109c:	11812423          	sw	s8,264(sp)
   110a0:	12112623          	sw	ra,300(sp)
   110a4:	12812423          	sw	s0,296(sp)
   110a8:	12912223          	sw	s1,292(sp)
   110ac:	11312e23          	sw	s3,284(sp)
   110b0:	11412c23          	sw	s4,280(sp)
   110b4:	11512a23          	sw	s5,276(sp)
   110b8:	11912223          	sw	s9,260(sp)
   110bc:	11a12023          	sw	s10,256(sp)
   110c0:	0fb12e23          	sw	s11,252(sp)
   110c4:	00050c13          	mv	s8,a0
   110c8:	00058b13          	mv	s6,a1
   110cc:	00060913          	mv	s2,a2
   110d0:	00068b93          	mv	s7,a3
   110d4:	00050663          	beqz	a0,110e0 <_vfiprintf_r+0x54>
   110d8:	03852783          	lw	a5,56(a0)
   110dc:	60078663          	beqz	a5,116e8 <_vfiprintf_r+0x65c>
   110e0:	00cb1783          	lh	a5,12(s6)
   110e4:	01279713          	sll	a4,a5,0x12
   110e8:	02074663          	bltz	a4,11114 <_vfiprintf_r+0x88>
   110ec:	064b2703          	lw	a4,100(s6)
   110f0:	000026b7          	lui	a3,0x2
   110f4:	00d7e7b3          	or	a5,a5,a3
   110f8:	ffffe6b7          	lui	a3,0xffffe
   110fc:	01079793          	sll	a5,a5,0x10
   11100:	fff68693          	add	a3,a3,-1 # ffffdfff <_end+0xfffe402f>
   11104:	4107d793          	sra	a5,a5,0x10
   11108:	00d77733          	and	a4,a4,a3
   1110c:	00fb1623          	sh	a5,12(s6)
   11110:	06eb2223          	sw	a4,100(s6)
   11114:	0087f713          	and	a4,a5,8
   11118:	10070e63          	beqz	a4,11234 <_vfiprintf_r+0x1a8>
   1111c:	010b2703          	lw	a4,16(s6)
   11120:	10070a63          	beqz	a4,11234 <_vfiprintf_r+0x1a8>
   11124:	01a7f793          	and	a5,a5,26
   11128:	00a00713          	li	a4,10
   1112c:	12e78663          	beq	a5,a4,11258 <_vfiprintf_r+0x1cc>
   11130:	000157b7          	lui	a5,0x15
   11134:	04c10a93          	add	s5,sp,76
   11138:	00000d13          	li	s10,0
   1113c:	7dc78793          	add	a5,a5,2012 # 157dc <blanks.1+0x10>
   11140:	00016cb7          	lui	s9,0x16
   11144:	000d0993          	mv	s3,s10
   11148:	05512023          	sw	s5,64(sp)
   1114c:	04012423          	sw	zero,72(sp)
   11150:	04012223          	sw	zero,68(sp)
   11154:	000a8413          	mv	s0,s5
   11158:	00012423          	sw	zero,8(sp)
   1115c:	00012c23          	sw	zero,24(sp)
   11160:	00012e23          	sw	zero,28(sp)
   11164:	02012023          	sw	zero,32(sp)
   11168:	00f12223          	sw	a5,4(sp)
   1116c:	01000a13          	li	s4,16
   11170:	948c8c93          	add	s9,s9,-1720 # 15948 <zeroes.0>
   11174:	000b8d13          	mv	s10,s7
   11178:	00094783          	lbu	a5,0(s2)
   1117c:	34078463          	beqz	a5,114c4 <_vfiprintf_r+0x438>
   11180:	00090493          	mv	s1,s2
   11184:	02500713          	li	a4,37
   11188:	3ce78663          	beq	a5,a4,11554 <_vfiprintf_r+0x4c8>
   1118c:	0014c783          	lbu	a5,1(s1)
   11190:	00148493          	add	s1,s1,1
   11194:	fe079ae3          	bnez	a5,11188 <_vfiprintf_r+0xfc>
   11198:	41248bb3          	sub	s7,s1,s2
   1119c:	33248463          	beq	s1,s2,114c4 <_vfiprintf_r+0x438>
   111a0:	04812703          	lw	a4,72(sp)
   111a4:	04412783          	lw	a5,68(sp)
   111a8:	01242023          	sw	s2,0(s0)
   111ac:	00eb8733          	add	a4,s7,a4
   111b0:	00178793          	add	a5,a5,1
   111b4:	01742223          	sw	s7,4(s0)
   111b8:	04e12423          	sw	a4,72(sp)
   111bc:	04f12223          	sw	a5,68(sp)
   111c0:	00700693          	li	a3,7
   111c4:	00840413          	add	s0,s0,8
   111c8:	02f6d063          	bge	a3,a5,111e8 <_vfiprintf_r+0x15c>
   111cc:	4e0706e3          	beqz	a4,11eb8 <_vfiprintf_r+0xe2c>
   111d0:	04010613          	add	a2,sp,64
   111d4:	000b0593          	mv	a1,s6
   111d8:	000c0513          	mv	a0,s8
   111dc:	da5ff0ef          	jal	10f80 <__sprint_r.part.0>
   111e0:	0e051063          	bnez	a0,112c0 <_vfiprintf_r+0x234>
   111e4:	000a8413          	mv	s0,s5
   111e8:	0004c783          	lbu	a5,0(s1)
   111ec:	017989b3          	add	s3,s3,s7
   111f0:	2c078a63          	beqz	a5,114c4 <_vfiprintf_r+0x438>
   111f4:	0014c783          	lbu	a5,1(s1)
   111f8:	00148913          	add	s2,s1,1
   111fc:	02010da3          	sb	zero,59(sp)
   11200:	fff00d93          	li	s11,-1
   11204:	00000b93          	li	s7,0
   11208:	00000893          	li	a7,0
   1120c:	05a00493          	li	s1,90
   11210:	00190913          	add	s2,s2,1
   11214:	00078693          	mv	a3,a5
   11218:	fe068713          	add	a4,a3,-32
   1121c:	12e4e663          	bltu	s1,a4,11348 <_vfiprintf_r+0x2bc>
   11220:	00412783          	lw	a5,4(sp)
   11224:	00271713          	sll	a4,a4,0x2
   11228:	00f70733          	add	a4,a4,a5
   1122c:	00072783          	lw	a5,0(a4)
   11230:	00078067          	jr	a5
   11234:	000b0593          	mv	a1,s6
   11238:	000c0513          	mv	a0,s8
   1123c:	f69f60ef          	jal	81a4 <__swsetup_r>
   11240:	00050463          	beqz	a0,11248 <_vfiprintf_r+0x1bc>
   11244:	1740106f          	j	123b8 <_vfiprintf_r+0x132c>
   11248:	00cb1783          	lh	a5,12(s6)
   1124c:	00a00713          	li	a4,10
   11250:	01a7f793          	and	a5,a5,26
   11254:	ece79ee3          	bne	a5,a4,11130 <_vfiprintf_r+0xa4>
   11258:	00eb1783          	lh	a5,14(s6)
   1125c:	ec07cae3          	bltz	a5,11130 <_vfiprintf_r+0xa4>
   11260:	12812403          	lw	s0,296(sp)
   11264:	12c12083          	lw	ra,300(sp)
   11268:	12412483          	lw	s1,292(sp)
   1126c:	11c12983          	lw	s3,284(sp)
   11270:	11812a03          	lw	s4,280(sp)
   11274:	11412a83          	lw	s5,276(sp)
   11278:	10412c83          	lw	s9,260(sp)
   1127c:	10012d03          	lw	s10,256(sp)
   11280:	0fc12d83          	lw	s11,252(sp)
   11284:	000b8693          	mv	a3,s7
   11288:	00090613          	mv	a2,s2
   1128c:	10c12b83          	lw	s7,268(sp)
   11290:	12012903          	lw	s2,288(sp)
   11294:	000b0593          	mv	a1,s6
   11298:	000c0513          	mv	a0,s8
   1129c:	11012b03          	lw	s6,272(sp)
   112a0:	10812c03          	lw	s8,264(sp)
   112a4:	13010113          	add	sp,sp,304
   112a8:	15c0106f          	j	12404 <__sbprintf>
   112ac:	04010613          	add	a2,sp,64
   112b0:	000b0593          	mv	a1,s6
   112b4:	000c0513          	mv	a0,s8
   112b8:	cc9ff0ef          	jal	10f80 <__sprint_r.part.0>
   112bc:	1e050c63          	beqz	a0,114b4 <_vfiprintf_r+0x428>
   112c0:	00098d13          	mv	s10,s3
   112c4:	00cb5783          	lhu	a5,12(s6)
   112c8:	0407f793          	and	a5,a5,64
   112cc:	00078463          	beqz	a5,112d4 <_vfiprintf_r+0x248>
   112d0:	0e80106f          	j	123b8 <_vfiprintf_r+0x132c>
   112d4:	12c12083          	lw	ra,300(sp)
   112d8:	12812403          	lw	s0,296(sp)
   112dc:	12412483          	lw	s1,292(sp)
   112e0:	12012903          	lw	s2,288(sp)
   112e4:	11c12983          	lw	s3,284(sp)
   112e8:	11812a03          	lw	s4,280(sp)
   112ec:	11412a83          	lw	s5,276(sp)
   112f0:	11012b03          	lw	s6,272(sp)
   112f4:	10c12b83          	lw	s7,268(sp)
   112f8:	10812c03          	lw	s8,264(sp)
   112fc:	10412c83          	lw	s9,260(sp)
   11300:	0fc12d83          	lw	s11,252(sp)
   11304:	000d0513          	mv	a0,s10
   11308:	10012d03          	lw	s10,256(sp)
   1130c:	13010113          	add	sp,sp,304
   11310:	00008067          	ret
   11314:	00000b93          	li	s7,0
   11318:	fd068793          	add	a5,a3,-48
   1131c:	00900613          	li	a2,9
   11320:	00094683          	lbu	a3,0(s2)
   11324:	002b9713          	sll	a4,s7,0x2
   11328:	01770bb3          	add	s7,a4,s7
   1132c:	001b9b93          	sll	s7,s7,0x1
   11330:	01778bb3          	add	s7,a5,s7
   11334:	fd068793          	add	a5,a3,-48
   11338:	00190913          	add	s2,s2,1
   1133c:	fef672e3          	bgeu	a2,a5,11320 <_vfiprintf_r+0x294>
   11340:	fe068713          	add	a4,a3,-32
   11344:	ece4fee3          	bgeu	s1,a4,11220 <_vfiprintf_r+0x194>
   11348:	16068e63          	beqz	a3,114c4 <_vfiprintf_r+0x438>
   1134c:	08d10623          	sb	a3,140(sp)
   11350:	02010da3          	sb	zero,59(sp)
   11354:	00100313          	li	t1,1
   11358:	00100e13          	li	t3,1
   1135c:	08c10493          	add	s1,sp,140
   11360:	00000d93          	li	s11,0
   11364:	0028ff93          	and	t6,a7,2
   11368:	000f8463          	beqz	t6,11370 <_vfiprintf_r+0x2e4>
   1136c:	00230313          	add	t1,t1,2
   11370:	04412703          	lw	a4,68(sp)
   11374:	0848f293          	and	t0,a7,132
   11378:	04812783          	lw	a5,72(sp)
   1137c:	00170613          	add	a2,a4,1
   11380:	00060593          	mv	a1,a2
   11384:	00029663          	bnez	t0,11390 <_vfiprintf_r+0x304>
   11388:	406b86b3          	sub	a3,s7,t1
   1138c:	1cd048e3          	bgtz	a3,11d5c <_vfiprintf_r+0xcd0>
   11390:	03b14683          	lbu	a3,59(sp)
   11394:	02068a63          	beqz	a3,113c8 <_vfiprintf_r+0x33c>
   11398:	03b10713          	add	a4,sp,59
   1139c:	00178793          	add	a5,a5,1
   113a0:	00e42023          	sw	a4,0(s0)
   113a4:	00100713          	li	a4,1
   113a8:	00e42223          	sw	a4,4(s0)
   113ac:	04f12423          	sw	a5,72(sp)
   113b0:	04b12223          	sw	a1,68(sp)
   113b4:	00700713          	li	a4,7
   113b8:	0cb746e3          	blt	a4,a1,11c84 <_vfiprintf_r+0xbf8>
   113bc:	00058713          	mv	a4,a1
   113c0:	00840413          	add	s0,s0,8
   113c4:	00158593          	add	a1,a1,1
   113c8:	060f8863          	beqz	t6,11438 <_vfiprintf_r+0x3ac>
   113cc:	03c10713          	add	a4,sp,60
   113d0:	00278793          	add	a5,a5,2
   113d4:	00e42023          	sw	a4,0(s0)
   113d8:	00200713          	li	a4,2
   113dc:	00e42223          	sw	a4,4(s0)
   113e0:	04f12423          	sw	a5,72(sp)
   113e4:	04b12223          	sw	a1,68(sp)
   113e8:	00700713          	li	a4,7
   113ec:	10b754e3          	bge	a4,a1,11cf4 <_vfiprintf_r+0xc68>
   113f0:	32078ae3          	beqz	a5,11f24 <_vfiprintf_r+0xe98>
   113f4:	04010613          	add	a2,sp,64
   113f8:	000b0593          	mv	a1,s6
   113fc:	000c0513          	mv	a0,s8
   11400:	02612223          	sw	t1,36(sp)
   11404:	01112a23          	sw	a7,20(sp)
   11408:	01c12823          	sw	t3,16(sp)
   1140c:	00512623          	sw	t0,12(sp)
   11410:	b71ff0ef          	jal	10f80 <__sprint_r.part.0>
   11414:	ea0516e3          	bnez	a0,112c0 <_vfiprintf_r+0x234>
   11418:	04412703          	lw	a4,68(sp)
   1141c:	04812783          	lw	a5,72(sp)
   11420:	02412303          	lw	t1,36(sp)
   11424:	01412883          	lw	a7,20(sp)
   11428:	01012e03          	lw	t3,16(sp)
   1142c:	00c12283          	lw	t0,12(sp)
   11430:	000a8413          	mv	s0,s5
   11434:	00170593          	add	a1,a4,1
   11438:	08000693          	li	a3,128
   1143c:	62d28863          	beq	t0,a3,11a6c <_vfiprintf_r+0x9e0>
   11440:	41cd8db3          	sub	s11,s11,t3
   11444:	75b04863          	bgtz	s11,11b94 <_vfiprintf_r+0xb08>
   11448:	00fe07b3          	add	a5,t3,a5
   1144c:	00942023          	sw	s1,0(s0)
   11450:	01c42223          	sw	t3,4(s0)
   11454:	04f12423          	sw	a5,72(sp)
   11458:	04b12223          	sw	a1,68(sp)
   1145c:	00700713          	li	a4,7
   11460:	5eb75a63          	bge	a4,a1,11a54 <_vfiprintf_r+0x9c8>
   11464:	10078063          	beqz	a5,11564 <_vfiprintf_r+0x4d8>
   11468:	04010613          	add	a2,sp,64
   1146c:	000b0593          	mv	a1,s6
   11470:	000c0513          	mv	a0,s8
   11474:	00612823          	sw	t1,16(sp)
   11478:	01112623          	sw	a7,12(sp)
   1147c:	b05ff0ef          	jal	10f80 <__sprint_r.part.0>
   11480:	e40510e3          	bnez	a0,112c0 <_vfiprintf_r+0x234>
   11484:	04812783          	lw	a5,72(sp)
   11488:	01012303          	lw	t1,16(sp)
   1148c:	00c12883          	lw	a7,12(sp)
   11490:	000a8413          	mv	s0,s5
   11494:	0048f893          	and	a7,a7,4
   11498:	00088663          	beqz	a7,114a4 <_vfiprintf_r+0x418>
   1149c:	406b84b3          	sub	s1,s7,t1
   114a0:	0c904e63          	bgtz	s1,1157c <_vfiprintf_r+0x4f0>
   114a4:	006bd463          	bge	s7,t1,114ac <_vfiprintf_r+0x420>
   114a8:	00030b93          	mv	s7,t1
   114ac:	017989b3          	add	s3,s3,s7
   114b0:	de079ee3          	bnez	a5,112ac <_vfiprintf_r+0x220>
   114b4:	00094783          	lbu	a5,0(s2)
   114b8:	04012223          	sw	zero,68(sp)
   114bc:	000a8413          	mv	s0,s5
   114c0:	cc0790e3          	bnez	a5,11180 <_vfiprintf_r+0xf4>
   114c4:	04812783          	lw	a5,72(sp)
   114c8:	00098d13          	mv	s10,s3
   114cc:	de078ce3          	beqz	a5,112c4 <_vfiprintf_r+0x238>
   114d0:	04010613          	add	a2,sp,64
   114d4:	000b0593          	mv	a1,s6
   114d8:	000c0513          	mv	a0,s8
   114dc:	aa5ff0ef          	jal	10f80 <__sprint_r.part.0>
   114e0:	de5ff06f          	j	112c4 <_vfiprintf_r+0x238>
   114e4:	000d2b83          	lw	s7,0(s10)
   114e8:	004d0d13          	add	s10,s10,4
   114ec:	280bc263          	bltz	s7,11770 <_vfiprintf_r+0x6e4>
   114f0:	00094783          	lbu	a5,0(s2)
   114f4:	d1dff06f          	j	11210 <_vfiprintf_r+0x184>
   114f8:	00094783          	lbu	a5,0(s2)
   114fc:	0208e893          	or	a7,a7,32
   11500:	d11ff06f          	j	11210 <_vfiprintf_r+0x184>
   11504:	0108e893          	or	a7,a7,16
   11508:	0208f793          	and	a5,a7,32
   1150c:	14078863          	beqz	a5,1165c <_vfiprintf_r+0x5d0>
   11510:	007d0d13          	add	s10,s10,7
   11514:	ff8d7d13          	and	s10,s10,-8
   11518:	004d2703          	lw	a4,4(s10)
   1151c:	000d2783          	lw	a5,0(s10)
   11520:	008d0d13          	add	s10,s10,8
   11524:	00070293          	mv	t0,a4
   11528:	16074063          	bltz	a4,11688 <_vfiprintf_r+0x5fc>
   1152c:	fff00713          	li	a4,-1
   11530:	16ed8e63          	beq	s11,a4,116ac <_vfiprintf_r+0x620>
   11534:	0057e733          	or	a4,a5,t0
   11538:	f7f8f893          	and	a7,a7,-129
   1153c:	16071863          	bnez	a4,116ac <_vfiprintf_r+0x620>
   11540:	640d90e3          	bnez	s11,12380 <_vfiprintf_r+0x12f4>
   11544:	00000313          	li	t1,0
   11548:	00000e13          	li	t3,0
   1154c:	0f010493          	add	s1,sp,240
   11550:	1880006f          	j	116d8 <_vfiprintf_r+0x64c>
   11554:	41248bb3          	sub	s7,s1,s2
   11558:	c52494e3          	bne	s1,s2,111a0 <_vfiprintf_r+0x114>
   1155c:	0004c783          	lbu	a5,0(s1)
   11560:	c91ff06f          	j	111f0 <_vfiprintf_r+0x164>
   11564:	04012223          	sw	zero,68(sp)
   11568:	0048f893          	and	a7,a7,4
   1156c:	0e088ce3          	beqz	a7,11e64 <_vfiprintf_r+0xdd8>
   11570:	406b84b3          	sub	s1,s7,t1
   11574:	0e9058e3          	blez	s1,11e64 <_vfiprintf_r+0xdd8>
   11578:	000a8413          	mv	s0,s5
   1157c:	01000713          	li	a4,16
   11580:	04412683          	lw	a3,68(sp)
   11584:	629752e3          	bge	a4,s1,123a8 <_vfiprintf_r+0x131c>
   11588:	00016eb7          	lui	t4,0x16
   1158c:	958e8e93          	add	t4,t4,-1704 # 15958 <blanks.1>
   11590:	00040593          	mv	a1,s0
   11594:	01000d93          	li	s11,16
   11598:	00700893          	li	a7,7
   1159c:	00612623          	sw	t1,12(sp)
   115a0:	000e8413          	mv	s0,t4
   115a4:	0180006f          	j	115bc <_vfiprintf_r+0x530>
   115a8:	00268613          	add	a2,a3,2
   115ac:	00858593          	add	a1,a1,8
   115b0:	00070693          	mv	a3,a4
   115b4:	ff048493          	add	s1,s1,-16
   115b8:	049dda63          	bge	s11,s1,1160c <_vfiprintf_r+0x580>
   115bc:	01078793          	add	a5,a5,16
   115c0:	00168713          	add	a4,a3,1
   115c4:	0085a023          	sw	s0,0(a1)
   115c8:	01b5a223          	sw	s11,4(a1)
   115cc:	04f12423          	sw	a5,72(sp)
   115d0:	04e12223          	sw	a4,68(sp)
   115d4:	fce8dae3          	bge	a7,a4,115a8 <_vfiprintf_r+0x51c>
   115d8:	48078263          	beqz	a5,11a5c <_vfiprintf_r+0x9d0>
   115dc:	04010613          	add	a2,sp,64
   115e0:	000b0593          	mv	a1,s6
   115e4:	000c0513          	mv	a0,s8
   115e8:	999ff0ef          	jal	10f80 <__sprint_r.part.0>
   115ec:	cc051ae3          	bnez	a0,112c0 <_vfiprintf_r+0x234>
   115f0:	04412683          	lw	a3,68(sp)
   115f4:	ff048493          	add	s1,s1,-16
   115f8:	04812783          	lw	a5,72(sp)
   115fc:	000a8593          	mv	a1,s5
   11600:	00168613          	add	a2,a3,1
   11604:	00700893          	li	a7,7
   11608:	fa9dcae3          	blt	s11,s1,115bc <_vfiprintf_r+0x530>
   1160c:	00c12303          	lw	t1,12(sp)
   11610:	00040e93          	mv	t4,s0
   11614:	00058413          	mv	s0,a1
   11618:	009787b3          	add	a5,a5,s1
   1161c:	01d42023          	sw	t4,0(s0)
   11620:	00942223          	sw	s1,4(s0)
   11624:	04f12423          	sw	a5,72(sp)
   11628:	04c12223          	sw	a2,68(sp)
   1162c:	00700713          	li	a4,7
   11630:	e6c75ae3          	bge	a4,a2,114a4 <_vfiprintf_r+0x418>
   11634:	020788e3          	beqz	a5,11e64 <_vfiprintf_r+0xdd8>
   11638:	04010613          	add	a2,sp,64
   1163c:	000b0593          	mv	a1,s6
   11640:	000c0513          	mv	a0,s8
   11644:	00612623          	sw	t1,12(sp)
   11648:	939ff0ef          	jal	10f80 <__sprint_r.part.0>
   1164c:	c6051ae3          	bnez	a0,112c0 <_vfiprintf_r+0x234>
   11650:	04812783          	lw	a5,72(sp)
   11654:	00c12303          	lw	t1,12(sp)
   11658:	e4dff06f          	j	114a4 <_vfiprintf_r+0x418>
   1165c:	0108f713          	and	a4,a7,16
   11660:	000d2783          	lw	a5,0(s10)
   11664:	004d0d13          	add	s10,s10,4
   11668:	0e071e63          	bnez	a4,11764 <_vfiprintf_r+0x6d8>
   1166c:	0408f713          	and	a4,a7,64
   11670:	0e070663          	beqz	a4,1175c <_vfiprintf_r+0x6d0>
   11674:	01079793          	sll	a5,a5,0x10
   11678:	4107d793          	sra	a5,a5,0x10
   1167c:	41f7d293          	sra	t0,a5,0x1f
   11680:	00028713          	mv	a4,t0
   11684:	ea0754e3          	bgez	a4,1152c <_vfiprintf_r+0x4a0>
   11688:	02d00693          	li	a3,45
   1168c:	00f03733          	snez	a4,a5
   11690:	405002b3          	neg	t0,t0
   11694:	02d10da3          	sb	a3,59(sp)
   11698:	fff00693          	li	a3,-1
   1169c:	40e282b3          	sub	t0,t0,a4
   116a0:	40f007b3          	neg	a5,a5
   116a4:	00dd8463          	beq	s11,a3,116ac <_vfiprintf_r+0x620>
   116a8:	f7f8f893          	and	a7,a7,-129
   116ac:	0c029ee3          	bnez	t0,11f88 <_vfiprintf_r+0xefc>
   116b0:	00900713          	li	a4,9
   116b4:	0cf76ae3          	bltu	a4,a5,11f88 <_vfiprintf_r+0xefc>
   116b8:	03078793          	add	a5,a5,48
   116bc:	0ff7f793          	zext.b	a5,a5
   116c0:	0ef107a3          	sb	a5,239(sp)
   116c4:	000d8313          	mv	t1,s11
   116c8:	01b04463          	bgtz	s11,116d0 <_vfiprintf_r+0x644>
   116cc:	00100313          	li	t1,1
   116d0:	00100e13          	li	t3,1
   116d4:	0ef10493          	add	s1,sp,239
   116d8:	03b14783          	lbu	a5,59(sp)
   116dc:	00f037b3          	snez	a5,a5
   116e0:	00f30333          	add	t1,t1,a5
   116e4:	c81ff06f          	j	11364 <_vfiprintf_r+0x2d8>
   116e8:	ba0f70ef          	jal	8a88 <__sinit>
   116ec:	9f5ff06f          	j	110e0 <_vfiprintf_r+0x54>
   116f0:	000d2483          	lw	s1,0(s10)
   116f4:	02010da3          	sb	zero,59(sp)
   116f8:	004d0d13          	add	s10,s10,4
   116fc:	3c048ee3          	beqz	s1,122d8 <_vfiprintf_r+0x124c>
   11700:	fff00793          	li	a5,-1
   11704:	01112623          	sw	a7,12(sp)
   11708:	26fd8ce3          	beq	s11,a5,12180 <_vfiprintf_r+0x10f4>
   1170c:	000d8613          	mv	a2,s11
   11710:	00000593          	li	a1,0
   11714:	00048513          	mv	a0,s1
   11718:	d3dfa0ef          	jal	c454 <memchr>
   1171c:	00c12883          	lw	a7,12(sp)
   11720:	460504e3          	beqz	a0,12388 <_vfiprintf_r+0x12fc>
   11724:	40950e33          	sub	t3,a0,s1
   11728:	fffe4313          	not	t1,t3
   1172c:	41f35313          	sra	t1,t1,0x1f
   11730:	006e7333          	and	t1,t3,t1
   11734:	00000d93          	li	s11,0
   11738:	fa1ff06f          	j	116d8 <_vfiprintf_r+0x64c>
   1173c:	000d2783          	lw	a5,0(s10)
   11740:	02010da3          	sb	zero,59(sp)
   11744:	004d0d13          	add	s10,s10,4
   11748:	08f10623          	sb	a5,140(sp)
   1174c:	00100313          	li	t1,1
   11750:	00100e13          	li	t3,1
   11754:	08c10493          	add	s1,sp,140
   11758:	c09ff06f          	j	11360 <_vfiprintf_r+0x2d4>
   1175c:	2008f713          	and	a4,a7,512
   11760:	3e0718e3          	bnez	a4,12350 <_vfiprintf_r+0x12c4>
   11764:	41f7d293          	sra	t0,a5,0x1f
   11768:	00028713          	mv	a4,t0
   1176c:	dbdff06f          	j	11528 <_vfiprintf_r+0x49c>
   11770:	41700bb3          	neg	s7,s7
   11774:	00094783          	lbu	a5,0(s2)
   11778:	0048e893          	or	a7,a7,4
   1177c:	a95ff06f          	j	11210 <_vfiprintf_r+0x184>
   11780:	02b00713          	li	a4,43
   11784:	00094783          	lbu	a5,0(s2)
   11788:	02e10da3          	sb	a4,59(sp)
   1178c:	a85ff06f          	j	11210 <_vfiprintf_r+0x184>
   11790:	00094783          	lbu	a5,0(s2)
   11794:	0808e893          	or	a7,a7,128
   11798:	a79ff06f          	j	11210 <_vfiprintf_r+0x184>
   1179c:	00094683          	lbu	a3,0(s2)
   117a0:	02a00793          	li	a5,42
   117a4:	00190713          	add	a4,s2,1
   117a8:	42f684e3          	beq	a3,a5,123d0 <_vfiprintf_r+0x1344>
   117ac:	fd068793          	add	a5,a3,-48
   117b0:	00900593          	li	a1,9
   117b4:	00070913          	mv	s2,a4
   117b8:	00000d93          	li	s11,0
   117bc:	00900613          	li	a2,9
   117c0:	a4f5ece3          	bltu	a1,a5,11218 <_vfiprintf_r+0x18c>
   117c4:	00094683          	lbu	a3,0(s2)
   117c8:	002d9713          	sll	a4,s11,0x2
   117cc:	01b70db3          	add	s11,a4,s11
   117d0:	001d9d93          	sll	s11,s11,0x1
   117d4:	00fd8db3          	add	s11,s11,a5
   117d8:	fd068793          	add	a5,a3,-48
   117dc:	00190913          	add	s2,s2,1
   117e0:	fef672e3          	bgeu	a2,a5,117c4 <_vfiprintf_r+0x738>
   117e4:	a35ff06f          	j	11218 <_vfiprintf_r+0x18c>
   117e8:	000c0513          	mv	a0,s8
   117ec:	01112623          	sw	a7,12(sp)
   117f0:	9e5fa0ef          	jal	c1d4 <_localeconv_r>
   117f4:	00452783          	lw	a5,4(a0)
   117f8:	00078513          	mv	a0,a5
   117fc:	02f12023          	sw	a5,32(sp)
   11800:	eb9f30ef          	jal	56b8 <strlen>
   11804:	00050793          	mv	a5,a0
   11808:	000c0513          	mv	a0,s8
   1180c:	00f12e23          	sw	a5,28(sp)
   11810:	9c5fa0ef          	jal	c1d4 <_localeconv_r>
   11814:	00852703          	lw	a4,8(a0)
   11818:	01c12783          	lw	a5,28(sp)
   1181c:	00c12883          	lw	a7,12(sp)
   11820:	00e12c23          	sw	a4,24(sp)
   11824:	cc0786e3          	beqz	a5,114f0 <_vfiprintf_r+0x464>
   11828:	01812703          	lw	a4,24(sp)
   1182c:	00094783          	lbu	a5,0(s2)
   11830:	9e0700e3          	beqz	a4,11210 <_vfiprintf_r+0x184>
   11834:	00074703          	lbu	a4,0(a4)
   11838:	9c070ce3          	beqz	a4,11210 <_vfiprintf_r+0x184>
   1183c:	4008e893          	or	a7,a7,1024
   11840:	9d1ff06f          	j	11210 <_vfiprintf_r+0x184>
   11844:	00094783          	lbu	a5,0(s2)
   11848:	0018e893          	or	a7,a7,1
   1184c:	9c5ff06f          	j	11210 <_vfiprintf_r+0x184>
   11850:	03b14703          	lbu	a4,59(sp)
   11854:	00094783          	lbu	a5,0(s2)
   11858:	9a071ce3          	bnez	a4,11210 <_vfiprintf_r+0x184>
   1185c:	02000713          	li	a4,32
   11860:	02e10da3          	sb	a4,59(sp)
   11864:	9adff06f          	j	11210 <_vfiprintf_r+0x184>
   11868:	0108e713          	or	a4,a7,16
   1186c:	02077793          	and	a5,a4,32
   11870:	64078a63          	beqz	a5,11ec4 <_vfiprintf_r+0xe38>
   11874:	007d0d13          	add	s10,s10,7
   11878:	ff8d7d13          	and	s10,s10,-8
   1187c:	000d2783          	lw	a5,0(s10)
   11880:	004d2603          	lw	a2,4(s10)
   11884:	008d0d13          	add	s10,s10,8
   11888:	02010da3          	sb	zero,59(sp)
   1188c:	fff00693          	li	a3,-1
   11890:	bff77893          	and	a7,a4,-1025
   11894:	0add8863          	beq	s11,a3,11944 <_vfiprintf_r+0x8b8>
   11898:	00c7e6b3          	or	a3,a5,a2
   1189c:	b7f77713          	and	a4,a4,-1153
   118a0:	1e069ce3          	bnez	a3,12298 <_vfiprintf_r+0x120c>
   118a4:	00088e13          	mv	t3,a7
   118a8:	00000793          	li	a5,0
   118ac:	00070893          	mv	a7,a4
   118b0:	060d9e63          	bnez	s11,1192c <_vfiprintf_r+0x8a0>
   118b4:	c80798e3          	bnez	a5,11544 <_vfiprintf_r+0x4b8>
   118b8:	001e7e13          	and	t3,t3,1
   118bc:	7c0e0c63          	beqz	t3,12094 <_vfiprintf_r+0x1008>
   118c0:	03000793          	li	a5,48
   118c4:	0ef107a3          	sb	a5,239(sp)
   118c8:	000e0313          	mv	t1,t3
   118cc:	0ef10493          	add	s1,sp,239
   118d0:	e09ff06f          	j	116d8 <_vfiprintf_r+0x64c>
   118d4:	00094783          	lbu	a5,0(s2)
   118d8:	06c00713          	li	a4,108
   118dc:	1ce78ee3          	beq	a5,a4,122b8 <_vfiprintf_r+0x122c>
   118e0:	0108e893          	or	a7,a7,16
   118e4:	92dff06f          	j	11210 <_vfiprintf_r+0x184>
   118e8:	0108ee13          	or	t3,a7,16
   118ec:	020e7793          	and	a5,t3,32
   118f0:	60078663          	beqz	a5,11efc <_vfiprintf_r+0xe70>
   118f4:	007d0d13          	add	s10,s10,7
   118f8:	ff8d7d13          	and	s10,s10,-8
   118fc:	000d2783          	lw	a5,0(s10)
   11900:	004d2283          	lw	t0,4(s10)
   11904:	008d0d13          	add	s10,s10,8
   11908:	02010da3          	sb	zero,59(sp)
   1190c:	fff00713          	li	a4,-1
   11910:	000e0893          	mv	a7,t3
   11914:	d8ed8ce3          	beq	s11,a4,116ac <_vfiprintf_r+0x620>
   11918:	0057e733          	or	a4,a5,t0
   1191c:	f7fe7893          	and	a7,t3,-129
   11920:	d80716e3          	bnez	a4,116ac <_vfiprintf_r+0x620>
   11924:	00100793          	li	a5,1
   11928:	f80d86e3          	beqz	s11,118b4 <_vfiprintf_r+0x828>
   1192c:	00100713          	li	a4,1
   11930:	24e788e3          	beq	a5,a4,12380 <_vfiprintf_r+0x12f4>
   11934:	00200713          	li	a4,2
   11938:	1ae78ee3          	beq	a5,a4,122f4 <_vfiprintf_r+0x1268>
   1193c:	00000793          	li	a5,0
   11940:	00000613          	li	a2,0
   11944:	0f010493          	add	s1,sp,240
   11948:	01d61693          	sll	a3,a2,0x1d
   1194c:	0077f713          	and	a4,a5,7
   11950:	0037d793          	srl	a5,a5,0x3
   11954:	03070713          	add	a4,a4,48
   11958:	00f6e7b3          	or	a5,a3,a5
   1195c:	00365613          	srl	a2,a2,0x3
   11960:	fee48fa3          	sb	a4,-1(s1)
   11964:	00c7e6b3          	or	a3,a5,a2
   11968:	00048593          	mv	a1,s1
   1196c:	fff48493          	add	s1,s1,-1
   11970:	fc069ce3          	bnez	a3,11948 <_vfiprintf_r+0x8bc>
   11974:	0018f793          	and	a5,a7,1
   11978:	3c078663          	beqz	a5,11d44 <_vfiprintf_r+0xcb8>
   1197c:	03000793          	li	a5,48
   11980:	3cf70263          	beq	a4,a5,11d44 <_vfiprintf_r+0xcb8>
   11984:	ffe58593          	add	a1,a1,-2
   11988:	0f010713          	add	a4,sp,240
   1198c:	40b70e33          	sub	t3,a4,a1
   11990:	fef48fa3          	sb	a5,-1(s1)
   11994:	000e0313          	mv	t1,t3
   11998:	75be4063          	blt	t3,s11,120d8 <_vfiprintf_r+0x104c>
   1199c:	00058493          	mv	s1,a1
   119a0:	d39ff06f          	j	116d8 <_vfiprintf_r+0x64c>
   119a4:	00094783          	lbu	a5,0(s2)
   119a8:	06800713          	li	a4,104
   119ac:	0ee78ee3          	beq	a5,a4,122a8 <_vfiprintf_r+0x121c>
   119b0:	0408e893          	or	a7,a7,64
   119b4:	85dff06f          	j	11210 <_vfiprintf_r+0x184>
   119b8:	ffff8737          	lui	a4,0xffff8
   119bc:	83074713          	xor	a4,a4,-2000
   119c0:	02e11e23          	sh	a4,60(sp)
   119c4:	00015737          	lui	a4,0x15
   119c8:	f1070713          	add	a4,a4,-240 # 14f10 <_getpid_r+0x5f4>
   119cc:	000d2783          	lw	a5,0(s10)
   119d0:	00000613          	li	a2,0
   119d4:	0028e893          	or	a7,a7,2
   119d8:	004d0d13          	add	s10,s10,4
   119dc:	00e12423          	sw	a4,8(sp)
   119e0:	02010da3          	sb	zero,59(sp)
   119e4:	fff00713          	li	a4,-1
   119e8:	32ed8463          	beq	s11,a4,11d10 <_vfiprintf_r+0xc84>
   119ec:	00c7e733          	or	a4,a5,a2
   119f0:	f7f8f693          	and	a3,a7,-129
   119f4:	30071863          	bnez	a4,11d04 <_vfiprintf_r+0xc78>
   119f8:	00088e13          	mv	t3,a7
   119fc:	00200793          	li	a5,2
   11a00:	00068893          	mv	a7,a3
   11a04:	eadff06f          	j	118b0 <_vfiprintf_r+0x824>
   11a08:	0208f793          	and	a5,a7,32
   11a0c:	6a079263          	bnez	a5,120b0 <_vfiprintf_r+0x1024>
   11a10:	0108f793          	and	a5,a7,16
   11a14:	0a079ae3          	bnez	a5,122c8 <_vfiprintf_r+0x123c>
   11a18:	0408f793          	and	a5,a7,64
   11a1c:	14079ae3          	bnez	a5,12370 <_vfiprintf_r+0x12e4>
   11a20:	2008f893          	and	a7,a7,512
   11a24:	0a0882e3          	beqz	a7,122c8 <_vfiprintf_r+0x123c>
   11a28:	000d2783          	lw	a5,0(s10)
   11a2c:	004d0d13          	add	s10,s10,4
   11a30:	01378023          	sb	s3,0(a5)
   11a34:	f44ff06f          	j	11178 <_vfiprintf_r+0xec>
   11a38:	00100713          	li	a4,1
   11a3c:	000e0793          	mv	a5,t3
   11a40:	04912623          	sw	s1,76(sp)
   11a44:	05c12823          	sw	t3,80(sp)
   11a48:	05c12423          	sw	t3,72(sp)
   11a4c:	04e12223          	sw	a4,68(sp)
   11a50:	000a8413          	mv	s0,s5
   11a54:	00840413          	add	s0,s0,8
   11a58:	a3dff06f          	j	11494 <_vfiprintf_r+0x408>
   11a5c:	00100613          	li	a2,1
   11a60:	00000693          	li	a3,0
   11a64:	000a8593          	mv	a1,s5
   11a68:	b4dff06f          	j	115b4 <_vfiprintf_r+0x528>
   11a6c:	406b8eb3          	sub	t4,s7,t1
   11a70:	9dd058e3          	blez	t4,11440 <_vfiprintf_r+0x3b4>
   11a74:	01000693          	li	a3,16
   11a78:	15d6d4e3          	bge	a3,t4,123c0 <_vfiprintf_r+0x1334>
   11a7c:	00016f37          	lui	t5,0x16
   11a80:	948f0f13          	add	t5,t5,-1720 # 15948 <zeroes.0>
   11a84:	00912623          	sw	s1,12(sp)
   11a88:	00040593          	mv	a1,s0
   11a8c:	01000f93          	li	t6,16
   11a90:	00700293          	li	t0,7
   11a94:	01c12823          	sw	t3,16(sp)
   11a98:	01112a23          	sw	a7,20(sp)
   11a9c:	02612223          	sw	t1,36(sp)
   11aa0:	000e8413          	mv	s0,t4
   11aa4:	000f0493          	mv	s1,t5
   11aa8:	0180006f          	j	11ac0 <_vfiprintf_r+0xa34>
   11aac:	00270613          	add	a2,a4,2
   11ab0:	00858593          	add	a1,a1,8
   11ab4:	00068713          	mv	a4,a3
   11ab8:	ff040413          	add	s0,s0,-16
   11abc:	048fdc63          	bge	t6,s0,11b14 <_vfiprintf_r+0xa88>
   11ac0:	01078793          	add	a5,a5,16
   11ac4:	00170693          	add	a3,a4,1
   11ac8:	0095a023          	sw	s1,0(a1)
   11acc:	01f5a223          	sw	t6,4(a1)
   11ad0:	04f12423          	sw	a5,72(sp)
   11ad4:	04d12223          	sw	a3,68(sp)
   11ad8:	fcd2dae3          	bge	t0,a3,11aac <_vfiprintf_r+0xa20>
   11adc:	18078c63          	beqz	a5,11c74 <_vfiprintf_r+0xbe8>
   11ae0:	04010613          	add	a2,sp,64
   11ae4:	000b0593          	mv	a1,s6
   11ae8:	000c0513          	mv	a0,s8
   11aec:	c94ff0ef          	jal	10f80 <__sprint_r.part.0>
   11af0:	fc051863          	bnez	a0,112c0 <_vfiprintf_r+0x234>
   11af4:	04412703          	lw	a4,68(sp)
   11af8:	01000f93          	li	t6,16
   11afc:	ff040413          	add	s0,s0,-16
   11b00:	04812783          	lw	a5,72(sp)
   11b04:	000a8593          	mv	a1,s5
   11b08:	00170613          	add	a2,a4,1
   11b0c:	00700293          	li	t0,7
   11b10:	fa8fc8e3          	blt	t6,s0,11ac0 <_vfiprintf_r+0xa34>
   11b14:	00048f13          	mv	t5,s1
   11b18:	01012e03          	lw	t3,16(sp)
   11b1c:	01412883          	lw	a7,20(sp)
   11b20:	02412303          	lw	t1,36(sp)
   11b24:	00c12483          	lw	s1,12(sp)
   11b28:	00040e93          	mv	t4,s0
   11b2c:	00058413          	mv	s0,a1
   11b30:	01d787b3          	add	a5,a5,t4
   11b34:	01e42023          	sw	t5,0(s0)
   11b38:	01d42223          	sw	t4,4(s0)
   11b3c:	04f12423          	sw	a5,72(sp)
   11b40:	04c12223          	sw	a2,68(sp)
   11b44:	00700713          	li	a4,7
   11b48:	54c75c63          	bge	a4,a2,120a0 <_vfiprintf_r+0x1014>
   11b4c:	7c078463          	beqz	a5,12314 <_vfiprintf_r+0x1288>
   11b50:	04010613          	add	a2,sp,64
   11b54:	000b0593          	mv	a1,s6
   11b58:	000c0513          	mv	a0,s8
   11b5c:	00612a23          	sw	t1,20(sp)
   11b60:	01112823          	sw	a7,16(sp)
   11b64:	01c12623          	sw	t3,12(sp)
   11b68:	c18ff0ef          	jal	10f80 <__sprint_r.part.0>
   11b6c:	f4051a63          	bnez	a0,112c0 <_vfiprintf_r+0x234>
   11b70:	00c12e03          	lw	t3,12(sp)
   11b74:	04412703          	lw	a4,68(sp)
   11b78:	04812783          	lw	a5,72(sp)
   11b7c:	41cd8db3          	sub	s11,s11,t3
   11b80:	01412303          	lw	t1,20(sp)
   11b84:	01012883          	lw	a7,16(sp)
   11b88:	000a8413          	mv	s0,s5
   11b8c:	00170593          	add	a1,a4,1
   11b90:	8bb05ce3          	blez	s11,11448 <_vfiprintf_r+0x3bc>
   11b94:	00016f37          	lui	t5,0x16
   11b98:	948f0f13          	add	t5,t5,-1720 # 15948 <zeroes.0>
   11b9c:	0bba5063          	bge	s4,s11,11c3c <_vfiprintf_r+0xbb0>
   11ba0:	00040613          	mv	a2,s0
   11ba4:	00700e93          	li	t4,7
   11ba8:	000d8413          	mv	s0,s11
   11bac:	01c12623          	sw	t3,12(sp)
   11bb0:	01112823          	sw	a7,16(sp)
   11bb4:	00612a23          	sw	t1,20(sp)
   11bb8:	000c8d93          	mv	s11,s9
   11bbc:	0180006f          	j	11bd4 <_vfiprintf_r+0xb48>
   11bc0:	00270593          	add	a1,a4,2
   11bc4:	00860613          	add	a2,a2,8
   11bc8:	00068713          	mv	a4,a3
   11bcc:	ff040413          	add	s0,s0,-16
   11bd0:	048a5a63          	bge	s4,s0,11c24 <_vfiprintf_r+0xb98>
   11bd4:	01078793          	add	a5,a5,16
   11bd8:	00170693          	add	a3,a4,1
   11bdc:	01962023          	sw	s9,0(a2)
   11be0:	01462223          	sw	s4,4(a2)
   11be4:	04f12423          	sw	a5,72(sp)
   11be8:	04d12223          	sw	a3,68(sp)
   11bec:	fcdedae3          	bge	t4,a3,11bc0 <_vfiprintf_r+0xb34>
   11bf0:	06078a63          	beqz	a5,11c64 <_vfiprintf_r+0xbd8>
   11bf4:	04010613          	add	a2,sp,64
   11bf8:	000b0593          	mv	a1,s6
   11bfc:	000c0513          	mv	a0,s8
   11c00:	b80ff0ef          	jal	10f80 <__sprint_r.part.0>
   11c04:	ea051e63          	bnez	a0,112c0 <_vfiprintf_r+0x234>
   11c08:	04412703          	lw	a4,68(sp)
   11c0c:	ff040413          	add	s0,s0,-16
   11c10:	04812783          	lw	a5,72(sp)
   11c14:	000a8613          	mv	a2,s5
   11c18:	00170593          	add	a1,a4,1
   11c1c:	00700e93          	li	t4,7
   11c20:	fa8a4ae3          	blt	s4,s0,11bd4 <_vfiprintf_r+0xb48>
   11c24:	00c12e03          	lw	t3,12(sp)
   11c28:	01012883          	lw	a7,16(sp)
   11c2c:	01412303          	lw	t1,20(sp)
   11c30:	000d8f13          	mv	t5,s11
   11c34:	00040d93          	mv	s11,s0
   11c38:	00060413          	mv	s0,a2
   11c3c:	01b787b3          	add	a5,a5,s11
   11c40:	01e42023          	sw	t5,0(s0)
   11c44:	01b42223          	sw	s11,4(s0)
   11c48:	04f12423          	sw	a5,72(sp)
   11c4c:	04b12223          	sw	a1,68(sp)
   11c50:	00700713          	li	a4,7
   11c54:	22b74063          	blt	a4,a1,11e74 <_vfiprintf_r+0xde8>
   11c58:	00840413          	add	s0,s0,8
   11c5c:	00158593          	add	a1,a1,1
   11c60:	fe8ff06f          	j	11448 <_vfiprintf_r+0x3bc>
   11c64:	00100593          	li	a1,1
   11c68:	00000713          	li	a4,0
   11c6c:	000a8613          	mv	a2,s5
   11c70:	f5dff06f          	j	11bcc <_vfiprintf_r+0xb40>
   11c74:	00100613          	li	a2,1
   11c78:	00000713          	li	a4,0
   11c7c:	000a8593          	mv	a1,s5
   11c80:	e39ff06f          	j	11ab8 <_vfiprintf_r+0xa2c>
   11c84:	04078a63          	beqz	a5,11cd8 <_vfiprintf_r+0xc4c>
   11c88:	04010613          	add	a2,sp,64
   11c8c:	000b0593          	mv	a1,s6
   11c90:	000c0513          	mv	a0,s8
   11c94:	02612423          	sw	t1,40(sp)
   11c98:	03112223          	sw	a7,36(sp)
   11c9c:	01c12a23          	sw	t3,20(sp)
   11ca0:	00512823          	sw	t0,16(sp)
   11ca4:	01f12623          	sw	t6,12(sp)
   11ca8:	ad8ff0ef          	jal	10f80 <__sprint_r.part.0>
   11cac:	e0051a63          	bnez	a0,112c0 <_vfiprintf_r+0x234>
   11cb0:	04412703          	lw	a4,68(sp)
   11cb4:	04812783          	lw	a5,72(sp)
   11cb8:	02812303          	lw	t1,40(sp)
   11cbc:	02412883          	lw	a7,36(sp)
   11cc0:	01412e03          	lw	t3,20(sp)
   11cc4:	01012283          	lw	t0,16(sp)
   11cc8:	00c12f83          	lw	t6,12(sp)
   11ccc:	000a8413          	mv	s0,s5
   11cd0:	00170593          	add	a1,a4,1
   11cd4:	ef4ff06f          	j	113c8 <_vfiprintf_r+0x33c>
   11cd8:	3e0f8863          	beqz	t6,120c8 <_vfiprintf_r+0x103c>
   11cdc:	03c10793          	add	a5,sp,60
   11ce0:	04f12623          	sw	a5,76(sp)
   11ce4:	00200793          	li	a5,2
   11ce8:	04f12823          	sw	a5,80(sp)
   11cec:	00100593          	li	a1,1
   11cf0:	000a8413          	mv	s0,s5
   11cf4:	00058713          	mv	a4,a1
   11cf8:	00840413          	add	s0,s0,8
   11cfc:	00158593          	add	a1,a1,1
   11d00:	f38ff06f          	j	11438 <_vfiprintf_r+0x3ac>
   11d04:	00200713          	li	a4,2
   11d08:	00068893          	mv	a7,a3
   11d0c:	c2070ce3          	beqz	a4,11944 <_vfiprintf_r+0x8b8>
   11d10:	00812583          	lw	a1,8(sp)
   11d14:	0f010493          	add	s1,sp,240
   11d18:	00f7f713          	and	a4,a5,15
   11d1c:	00e58733          	add	a4,a1,a4
   11d20:	00074683          	lbu	a3,0(a4)
   11d24:	0047d793          	srl	a5,a5,0x4
   11d28:	01c61713          	sll	a4,a2,0x1c
   11d2c:	00f767b3          	or	a5,a4,a5
   11d30:	00465613          	srl	a2,a2,0x4
   11d34:	fed48fa3          	sb	a3,-1(s1)
   11d38:	00c7e733          	or	a4,a5,a2
   11d3c:	fff48493          	add	s1,s1,-1
   11d40:	fc071ce3          	bnez	a4,11d18 <_vfiprintf_r+0xc8c>
   11d44:	0f010793          	add	a5,sp,240
   11d48:	40978e33          	sub	t3,a5,s1
   11d4c:	000e0313          	mv	t1,t3
   11d50:	99be54e3          	bge	t3,s11,116d8 <_vfiprintf_r+0x64c>
   11d54:	000d8313          	mv	t1,s11
   11d58:	981ff06f          	j	116d8 <_vfiprintf_r+0x64c>
   11d5c:	01000593          	li	a1,16
   11d60:	62d5dc63          	bge	a1,a3,12398 <_vfiprintf_r+0x130c>
   11d64:	00016eb7          	lui	t4,0x16
   11d68:	958e8e93          	add	t4,t4,-1704 # 15958 <blanks.1>
   11d6c:	00912a23          	sw	s1,20(sp)
   11d70:	00040593          	mv	a1,s0
   11d74:	01000f13          	li	t5,16
   11d78:	00700393          	li	t2,7
   11d7c:	01f12623          	sw	t6,12(sp)
   11d80:	00512823          	sw	t0,16(sp)
   11d84:	03c12223          	sw	t3,36(sp)
   11d88:	03112423          	sw	a7,40(sp)
   11d8c:	02612623          	sw	t1,44(sp)
   11d90:	00068413          	mv	s0,a3
   11d94:	000e8493          	mv	s1,t4
   11d98:	01c0006f          	j	11db4 <_vfiprintf_r+0xd28>
   11d9c:	00270513          	add	a0,a4,2
   11da0:	00858593          	add	a1,a1,8
   11da4:	00060713          	mv	a4,a2
   11da8:	ff040413          	add	s0,s0,-16
   11dac:	048f5c63          	bge	t5,s0,11e04 <_vfiprintf_r+0xd78>
   11db0:	00170613          	add	a2,a4,1
   11db4:	01078793          	add	a5,a5,16
   11db8:	0095a023          	sw	s1,0(a1)
   11dbc:	01e5a223          	sw	t5,4(a1)
   11dc0:	04f12423          	sw	a5,72(sp)
   11dc4:	04c12223          	sw	a2,68(sp)
   11dc8:	fcc3dae3          	bge	t2,a2,11d9c <_vfiprintf_r+0xd10>
   11dcc:	08078463          	beqz	a5,11e54 <_vfiprintf_r+0xdc8>
   11dd0:	04010613          	add	a2,sp,64
   11dd4:	000b0593          	mv	a1,s6
   11dd8:	000c0513          	mv	a0,s8
   11ddc:	9a4ff0ef          	jal	10f80 <__sprint_r.part.0>
   11de0:	ce051063          	bnez	a0,112c0 <_vfiprintf_r+0x234>
   11de4:	04412703          	lw	a4,68(sp)
   11de8:	01000f13          	li	t5,16
   11dec:	ff040413          	add	s0,s0,-16
   11df0:	04812783          	lw	a5,72(sp)
   11df4:	000a8593          	mv	a1,s5
   11df8:	00170513          	add	a0,a4,1
   11dfc:	00700393          	li	t2,7
   11e00:	fa8f48e3          	blt	t5,s0,11db0 <_vfiprintf_r+0xd24>
   11e04:	00048e93          	mv	t4,s1
   11e08:	00c12f83          	lw	t6,12(sp)
   11e0c:	01012283          	lw	t0,16(sp)
   11e10:	02412e03          	lw	t3,36(sp)
   11e14:	02812883          	lw	a7,40(sp)
   11e18:	02c12303          	lw	t1,44(sp)
   11e1c:	01412483          	lw	s1,20(sp)
   11e20:	00040693          	mv	a3,s0
   11e24:	00058413          	mv	s0,a1
   11e28:	00d787b3          	add	a5,a5,a3
   11e2c:	01d42023          	sw	t4,0(s0)
   11e30:	00d42223          	sw	a3,4(s0)
   11e34:	04f12423          	sw	a5,72(sp)
   11e38:	04a12223          	sw	a0,68(sp)
   11e3c:	00700713          	li	a4,7
   11e40:	0ea74a63          	blt	a4,a0,11f34 <_vfiprintf_r+0xea8>
   11e44:	00840413          	add	s0,s0,8
   11e48:	00150593          	add	a1,a0,1
   11e4c:	00050713          	mv	a4,a0
   11e50:	d40ff06f          	j	11390 <_vfiprintf_r+0x304>
   11e54:	00000713          	li	a4,0
   11e58:	00100513          	li	a0,1
   11e5c:	000a8593          	mv	a1,s5
   11e60:	f49ff06f          	j	11da8 <_vfiprintf_r+0xd1c>
   11e64:	006bd463          	bge	s7,t1,11e6c <_vfiprintf_r+0xde0>
   11e68:	00030b93          	mv	s7,t1
   11e6c:	017989b3          	add	s3,s3,s7
   11e70:	e44ff06f          	j	114b4 <_vfiprintf_r+0x428>
   11e74:	bc0782e3          	beqz	a5,11a38 <_vfiprintf_r+0x9ac>
   11e78:	04010613          	add	a2,sp,64
   11e7c:	000b0593          	mv	a1,s6
   11e80:	000c0513          	mv	a0,s8
   11e84:	00612a23          	sw	t1,20(sp)
   11e88:	01112823          	sw	a7,16(sp)
   11e8c:	01c12623          	sw	t3,12(sp)
   11e90:	8f0ff0ef          	jal	10f80 <__sprint_r.part.0>
   11e94:	c2051663          	bnez	a0,112c0 <_vfiprintf_r+0x234>
   11e98:	04412583          	lw	a1,68(sp)
   11e9c:	04812783          	lw	a5,72(sp)
   11ea0:	01412303          	lw	t1,20(sp)
   11ea4:	01012883          	lw	a7,16(sp)
   11ea8:	00c12e03          	lw	t3,12(sp)
   11eac:	000a8413          	mv	s0,s5
   11eb0:	00158593          	add	a1,a1,1
   11eb4:	d94ff06f          	j	11448 <_vfiprintf_r+0x3bc>
   11eb8:	04012223          	sw	zero,68(sp)
   11ebc:	000a8413          	mv	s0,s5
   11ec0:	b28ff06f          	j	111e8 <_vfiprintf_r+0x15c>
   11ec4:	01077693          	and	a3,a4,16
   11ec8:	000d2783          	lw	a5,0(s10)
   11ecc:	004d0d13          	add	s10,s10,4
   11ed0:	02069263          	bnez	a3,11ef4 <_vfiprintf_r+0xe68>
   11ed4:	04077693          	and	a3,a4,64
   11ed8:	00068a63          	beqz	a3,11eec <_vfiprintf_r+0xe60>
   11edc:	01079793          	sll	a5,a5,0x10
   11ee0:	0107d793          	srl	a5,a5,0x10
   11ee4:	00000613          	li	a2,0
   11ee8:	9a1ff06f          	j	11888 <_vfiprintf_r+0x7fc>
   11eec:	20077693          	and	a3,a4,512
   11ef0:	44069a63          	bnez	a3,12344 <_vfiprintf_r+0x12b8>
   11ef4:	00000613          	li	a2,0
   11ef8:	991ff06f          	j	11888 <_vfiprintf_r+0x7fc>
   11efc:	010e7713          	and	a4,t3,16
   11f00:	000d2783          	lw	a5,0(s10)
   11f04:	004d0d13          	add	s10,s10,4
   11f08:	00071a63          	bnez	a4,11f1c <_vfiprintf_r+0xe90>
   11f0c:	040e7713          	and	a4,t3,64
   11f10:	3e070863          	beqz	a4,12300 <_vfiprintf_r+0x1274>
   11f14:	01079793          	sll	a5,a5,0x10
   11f18:	0107d793          	srl	a5,a5,0x10
   11f1c:	00000293          	li	t0,0
   11f20:	9e9ff06f          	j	11908 <_vfiprintf_r+0x87c>
   11f24:	00100593          	li	a1,1
   11f28:	00000713          	li	a4,0
   11f2c:	000a8413          	mv	s0,s5
   11f30:	d08ff06f          	j	11438 <_vfiprintf_r+0x3ac>
   11f34:	26078863          	beqz	a5,121a4 <_vfiprintf_r+0x1118>
   11f38:	04010613          	add	a2,sp,64
   11f3c:	000b0593          	mv	a1,s6
   11f40:	000c0513          	mv	a0,s8
   11f44:	02612423          	sw	t1,40(sp)
   11f48:	03112223          	sw	a7,36(sp)
   11f4c:	01c12a23          	sw	t3,20(sp)
   11f50:	00512823          	sw	t0,16(sp)
   11f54:	01f12623          	sw	t6,12(sp)
   11f58:	828ff0ef          	jal	10f80 <__sprint_r.part.0>
   11f5c:	b6051263          	bnez	a0,112c0 <_vfiprintf_r+0x234>
   11f60:	04412703          	lw	a4,68(sp)
   11f64:	04812783          	lw	a5,72(sp)
   11f68:	02812303          	lw	t1,40(sp)
   11f6c:	02412883          	lw	a7,36(sp)
   11f70:	01412e03          	lw	t3,20(sp)
   11f74:	01012283          	lw	t0,16(sp)
   11f78:	00c12f83          	lw	t6,12(sp)
   11f7c:	000a8413          	mv	s0,s5
   11f80:	00170593          	add	a1,a4,1
   11f84:	c0cff06f          	j	11390 <_vfiprintf_r+0x304>
   11f88:	ccccdeb7          	lui	t4,0xccccd
   11f8c:	ccde8313          	add	t1,t4,-819 # cccccccd <_end+0xcccb2cfd>
   11f90:	01812803          	lw	a6,24(sp)
   11f94:	4008ff13          	and	t5,a7,1024
   11f98:	00000613          	li	a2,0
   11f9c:	0f010593          	add	a1,sp,240
   11fa0:	00500e13          	li	t3,5
   11fa4:	ccce8e93          	add	t4,t4,-820
   11fa8:	0ff00f93          	li	t6,255
   11fac:	0540006f          	j	12000 <_vfiprintf_r+0xf74>
   11fb0:	00f4b733          	sltu	a4,s1,a5
   11fb4:	00e48733          	add	a4,s1,a4
   11fb8:	03c77733          	remu	a4,a4,t3
   11fbc:	40e78733          	sub	a4,a5,a4
   11fc0:	00e7b5b3          	sltu	a1,a5,a4
   11fc4:	40b285b3          	sub	a1,t0,a1
   11fc8:	03d703b3          	mul	t2,a4,t4
   11fcc:	026585b3          	mul	a1,a1,t1
   11fd0:	02673533          	mulhu	a0,a4,t1
   11fd4:	007585b3          	add	a1,a1,t2
   11fd8:	02670733          	mul	a4,a4,t1
   11fdc:	00a585b3          	add	a1,a1,a0
   11fe0:	01f59513          	sll	a0,a1,0x1f
   11fe4:	0015d593          	srl	a1,a1,0x1
   11fe8:	00175713          	srl	a4,a4,0x1
   11fec:	00e56733          	or	a4,a0,a4
   11ff0:	32028a63          	beqz	t0,12324 <_vfiprintf_r+0x1298>
   11ff4:	00058293          	mv	t0,a1
   11ff8:	00070793          	mv	a5,a4
   11ffc:	00068593          	mv	a1,a3
   12000:	005784b3          	add	s1,a5,t0
   12004:	00f4b733          	sltu	a4,s1,a5
   12008:	00e48733          	add	a4,s1,a4
   1200c:	03c77733          	remu	a4,a4,t3
   12010:	fff58693          	add	a3,a1,-1
   12014:	00160613          	add	a2,a2,1
   12018:	40e78733          	sub	a4,a5,a4
   1201c:	00e7b3b3          	sltu	t2,a5,a4
   12020:	407283b3          	sub	t2,t0,t2
   12024:	02673533          	mulhu	a0,a4,t1
   12028:	026383b3          	mul	t2,t2,t1
   1202c:	02670733          	mul	a4,a4,t1
   12030:	00a383b3          	add	t2,t2,a0
   12034:	01f39393          	sll	t2,t2,0x1f
   12038:	00175513          	srl	a0,a4,0x1
   1203c:	00a3e533          	or	a0,t2,a0
   12040:	00251713          	sll	a4,a0,0x2
   12044:	00a70733          	add	a4,a4,a0
   12048:	00171713          	sll	a4,a4,0x1
   1204c:	40e78733          	sub	a4,a5,a4
   12050:	03070713          	add	a4,a4,48
   12054:	fee58fa3          	sb	a4,-1(a1)
   12058:	f40f0ce3          	beqz	t5,11fb0 <_vfiprintf_r+0xf24>
   1205c:	00084703          	lbu	a4,0(a6)
   12060:	f4c718e3          	bne	a4,a2,11fb0 <_vfiprintf_r+0xf24>
   12064:	f5f606e3          	beq	a2,t6,11fb0 <_vfiprintf_r+0xf24>
   12068:	16029063          	bnez	t0,121c8 <_vfiprintf_r+0x113c>
   1206c:	00900713          	li	a4,9
   12070:	14f76c63          	bltu	a4,a5,121c8 <_vfiprintf_r+0x113c>
   12074:	0f010793          	add	a5,sp,240
   12078:	40d78e33          	sub	t3,a5,a3
   1207c:	01012c23          	sw	a6,24(sp)
   12080:	00068493          	mv	s1,a3
   12084:	000e0313          	mv	t1,t3
   12088:	e5be5863          	bge	t3,s11,116d8 <_vfiprintf_r+0x64c>
   1208c:	000d8313          	mv	t1,s11
   12090:	e48ff06f          	j	116d8 <_vfiprintf_r+0x64c>
   12094:	00000313          	li	t1,0
   12098:	0f010493          	add	s1,sp,240
   1209c:	e3cff06f          	j	116d8 <_vfiprintf_r+0x64c>
   120a0:	00840413          	add	s0,s0,8
   120a4:	00160593          	add	a1,a2,1
   120a8:	00060713          	mv	a4,a2
   120ac:	b94ff06f          	j	11440 <_vfiprintf_r+0x3b4>
   120b0:	000d2783          	lw	a5,0(s10)
   120b4:	41f9d713          	sra	a4,s3,0x1f
   120b8:	004d0d13          	add	s10,s10,4
   120bc:	0137a023          	sw	s3,0(a5)
   120c0:	00e7a223          	sw	a4,4(a5)
   120c4:	8b4ff06f          	j	11178 <_vfiprintf_r+0xec>
   120c8:	00000713          	li	a4,0
   120cc:	00100593          	li	a1,1
   120d0:	000a8413          	mv	s0,s5
   120d4:	b64ff06f          	j	11438 <_vfiprintf_r+0x3ac>
   120d8:	000d8313          	mv	t1,s11
   120dc:	00058493          	mv	s1,a1
   120e0:	df8ff06f          	j	116d8 <_vfiprintf_r+0x64c>
   120e4:	00088e13          	mv	t3,a7
   120e8:	805ff06f          	j	118ec <_vfiprintf_r+0x860>
   120ec:	000157b7          	lui	a5,0x15
   120f0:	f2478793          	add	a5,a5,-220 # 14f24 <_getpid_r+0x608>
   120f4:	00f12423          	sw	a5,8(sp)
   120f8:	0208f793          	and	a5,a7,32
   120fc:	04078e63          	beqz	a5,12158 <_vfiprintf_r+0x10cc>
   12100:	007d0d13          	add	s10,s10,7
   12104:	ff8d7d13          	and	s10,s10,-8
   12108:	000d2783          	lw	a5,0(s10)
   1210c:	004d2603          	lw	a2,4(s10)
   12110:	008d0d13          	add	s10,s10,8
   12114:	0018f713          	and	a4,a7,1
   12118:	00070e63          	beqz	a4,12134 <_vfiprintf_r+0x10a8>
   1211c:	00c7e733          	or	a4,a5,a2
   12120:	00070a63          	beqz	a4,12134 <_vfiprintf_r+0x10a8>
   12124:	03000713          	li	a4,48
   12128:	02e10e23          	sb	a4,60(sp)
   1212c:	02d10ea3          	sb	a3,61(sp)
   12130:	0028e893          	or	a7,a7,2
   12134:	bff8f893          	and	a7,a7,-1025
   12138:	8a9ff06f          	j	119e0 <_vfiprintf_r+0x954>
   1213c:	00088713          	mv	a4,a7
   12140:	f2cff06f          	j	1186c <_vfiprintf_r+0x7e0>
   12144:	000157b7          	lui	a5,0x15
   12148:	f1078793          	add	a5,a5,-240 # 14f10 <_getpid_r+0x5f4>
   1214c:	00f12423          	sw	a5,8(sp)
   12150:	0208f793          	and	a5,a7,32
   12154:	fa0796e3          	bnez	a5,12100 <_vfiprintf_r+0x1074>
   12158:	0108f713          	and	a4,a7,16
   1215c:	000d2783          	lw	a5,0(s10)
   12160:	004d0d13          	add	s10,s10,4
   12164:	12071663          	bnez	a4,12290 <_vfiprintf_r+0x1204>
   12168:	0408f713          	and	a4,a7,64
   1216c:	10070e63          	beqz	a4,12288 <_vfiprintf_r+0x11fc>
   12170:	01079793          	sll	a5,a5,0x10
   12174:	0107d793          	srl	a5,a5,0x10
   12178:	00000613          	li	a2,0
   1217c:	f99ff06f          	j	12114 <_vfiprintf_r+0x1088>
   12180:	00048513          	mv	a0,s1
   12184:	d34f30ef          	jal	56b8 <strlen>
   12188:	fff54313          	not	t1,a0
   1218c:	41f35313          	sra	t1,t1,0x1f
   12190:	00c12883          	lw	a7,12(sp)
   12194:	00050e13          	mv	t3,a0
   12198:	00657333          	and	t1,a0,t1
   1219c:	00000d93          	li	s11,0
   121a0:	d38ff06f          	j	116d8 <_vfiprintf_r+0x64c>
   121a4:	03b14703          	lbu	a4,59(sp)
   121a8:	18070863          	beqz	a4,12338 <_vfiprintf_r+0x12ac>
   121ac:	03b10793          	add	a5,sp,59
   121b0:	04f12623          	sw	a5,76(sp)
   121b4:	00100793          	li	a5,1
   121b8:	04f12823          	sw	a5,80(sp)
   121bc:	00100593          	li	a1,1
   121c0:	000a8413          	mv	s0,s5
   121c4:	9f8ff06f          	j	113bc <_vfiprintf_r+0x330>
   121c8:	02f12223          	sw	a5,36(sp)
   121cc:	01c12783          	lw	a5,28(sp)
   121d0:	02012583          	lw	a1,32(sp)
   121d4:	02512423          	sw	t0,40(sp)
   121d8:	40f686b3          	sub	a3,a3,a5
   121dc:	00078613          	mv	a2,a5
   121e0:	00068513          	mv	a0,a3
   121e4:	01e12c23          	sw	t5,24(sp)
   121e8:	01112a23          	sw	a7,20(sp)
   121ec:	01012823          	sw	a6,16(sp)
   121f0:	00d12623          	sw	a3,12(sp)
   121f4:	bd0fc0ef          	jal	e5c4 <strncpy>
   121f8:	02412783          	lw	a5,36(sp)
   121fc:	00500613          	li	a2,5
   12200:	01012803          	lw	a6,16(sp)
   12204:	00f4b733          	sltu	a4,s1,a5
   12208:	00e48733          	add	a4,s1,a4
   1220c:	02c77733          	remu	a4,a4,a2
   12210:	00184583          	lbu	a1,1(a6)
   12214:	02812283          	lw	t0,40(sp)
   12218:	ccccd3b7          	lui	t2,0xccccd
   1221c:	00b035b3          	snez	a1,a1
   12220:	00b80833          	add	a6,a6,a1
   12224:	ccd38513          	add	a0,t2,-819 # cccccccd <_end+0xcccb2cfd>
   12228:	ccc38393          	add	t2,t2,-820
   1222c:	00c12683          	lw	a3,12(sp)
   12230:	01412883          	lw	a7,20(sp)
   12234:	01812f03          	lw	t5,24(sp)
   12238:	00000613          	li	a2,0
   1223c:	00500e13          	li	t3,5
   12240:	00050313          	mv	t1,a0
   12244:	0ff00f93          	li	t6,255
   12248:	40e78733          	sub	a4,a5,a4
   1224c:	00e7b5b3          	sltu	a1,a5,a4
   12250:	40b285b3          	sub	a1,t0,a1
   12254:	027703b3          	mul	t2,a4,t2
   12258:	02a585b3          	mul	a1,a1,a0
   1225c:	02a732b3          	mulhu	t0,a4,a0
   12260:	007585b3          	add	a1,a1,t2
   12264:	02a707b3          	mul	a5,a4,a0
   12268:	005585b3          	add	a1,a1,t0
   1226c:	01f59713          	sll	a4,a1,0x1f
   12270:	0015d593          	srl	a1,a1,0x1
   12274:	0017d793          	srl	a5,a5,0x1
   12278:	00f76733          	or	a4,a4,a5
   1227c:	ccccd7b7          	lui	a5,0xccccd
   12280:	ccc78e93          	add	t4,a5,-820 # cccccccc <_end+0xcccb2cfc>
   12284:	d71ff06f          	j	11ff4 <_vfiprintf_r+0xf68>
   12288:	2008f713          	and	a4,a7,512
   1228c:	0c071c63          	bnez	a4,12364 <_vfiprintf_r+0x12d8>
   12290:	00000613          	li	a2,0
   12294:	e81ff06f          	j	12114 <_vfiprintf_r+0x1088>
   12298:	00070893          	mv	a7,a4
   1229c:	00000713          	li	a4,0
   122a0:	ea070263          	beqz	a4,11944 <_vfiprintf_r+0x8b8>
   122a4:	a6dff06f          	j	11d10 <_vfiprintf_r+0xc84>
   122a8:	00194783          	lbu	a5,1(s2)
   122ac:	2008e893          	or	a7,a7,512
   122b0:	00190913          	add	s2,s2,1
   122b4:	f5dfe06f          	j	11210 <_vfiprintf_r+0x184>
   122b8:	00194783          	lbu	a5,1(s2)
   122bc:	0208e893          	or	a7,a7,32
   122c0:	00190913          	add	s2,s2,1
   122c4:	f4dfe06f          	j	11210 <_vfiprintf_r+0x184>
   122c8:	000d2783          	lw	a5,0(s10)
   122cc:	004d0d13          	add	s10,s10,4
   122d0:	0137a023          	sw	s3,0(a5)
   122d4:	ea5fe06f          	j	11178 <_vfiprintf_r+0xec>
   122d8:	00600793          	li	a5,6
   122dc:	000d8e13          	mv	t3,s11
   122e0:	05b7e863          	bltu	a5,s11,12330 <_vfiprintf_r+0x12a4>
   122e4:	000154b7          	lui	s1,0x15
   122e8:	000e0313          	mv	t1,t3
   122ec:	f3848493          	add	s1,s1,-200 # 14f38 <_getpid_r+0x61c>
   122f0:	870ff06f          	j	11360 <_vfiprintf_r+0x2d4>
   122f4:	00000793          	li	a5,0
   122f8:	00000613          	li	a2,0
   122fc:	a15ff06f          	j	11d10 <_vfiprintf_r+0xc84>
   12300:	200e7713          	and	a4,t3,512
   12304:	c0070ce3          	beqz	a4,11f1c <_vfiprintf_r+0xe90>
   12308:	0ff7f793          	zext.b	a5,a5
   1230c:	00000293          	li	t0,0
   12310:	df8ff06f          	j	11908 <_vfiprintf_r+0x87c>
   12314:	00100593          	li	a1,1
   12318:	00000713          	li	a4,0
   1231c:	000a8413          	mv	s0,s5
   12320:	920ff06f          	j	11440 <_vfiprintf_r+0x3b4>
   12324:	00900513          	li	a0,9
   12328:	ccf566e3          	bltu	a0,a5,11ff4 <_vfiprintf_r+0xf68>
   1232c:	d49ff06f          	j	12074 <_vfiprintf_r+0xfe8>
   12330:	00600e13          	li	t3,6
   12334:	fb1ff06f          	j	122e4 <_vfiprintf_r+0x1258>
   12338:	00100593          	li	a1,1
   1233c:	000a8413          	mv	s0,s5
   12340:	888ff06f          	j	113c8 <_vfiprintf_r+0x33c>
   12344:	0ff7f793          	zext.b	a5,a5
   12348:	00000613          	li	a2,0
   1234c:	d3cff06f          	j	11888 <_vfiprintf_r+0x7fc>
   12350:	01879793          	sll	a5,a5,0x18
   12354:	4187d793          	sra	a5,a5,0x18
   12358:	41f7d293          	sra	t0,a5,0x1f
   1235c:	00028713          	mv	a4,t0
   12360:	9c8ff06f          	j	11528 <_vfiprintf_r+0x49c>
   12364:	0ff7f793          	zext.b	a5,a5
   12368:	00000613          	li	a2,0
   1236c:	da9ff06f          	j	12114 <_vfiprintf_r+0x1088>
   12370:	000d2783          	lw	a5,0(s10)
   12374:	004d0d13          	add	s10,s10,4
   12378:	01379023          	sh	s3,0(a5)
   1237c:	dfdfe06f          	j	11178 <_vfiprintf_r+0xec>
   12380:	03000793          	li	a5,48
   12384:	b3cff06f          	j	116c0 <_vfiprintf_r+0x634>
   12388:	000d8313          	mv	t1,s11
   1238c:	000d8e13          	mv	t3,s11
   12390:	00000d93          	li	s11,0
   12394:	b44ff06f          	j	116d8 <_vfiprintf_r+0x64c>
   12398:	00016eb7          	lui	t4,0x16
   1239c:	00060513          	mv	a0,a2
   123a0:	958e8e93          	add	t4,t4,-1704 # 15958 <blanks.1>
   123a4:	a85ff06f          	j	11e28 <_vfiprintf_r+0xd9c>
   123a8:	00016eb7          	lui	t4,0x16
   123ac:	00168613          	add	a2,a3,1
   123b0:	958e8e93          	add	t4,t4,-1704 # 15958 <blanks.1>
   123b4:	a64ff06f          	j	11618 <_vfiprintf_r+0x58c>
   123b8:	fff00d13          	li	s10,-1
   123bc:	f19fe06f          	j	112d4 <_vfiprintf_r+0x248>
   123c0:	00016f37          	lui	t5,0x16
   123c4:	00058613          	mv	a2,a1
   123c8:	948f0f13          	add	t5,t5,-1720 # 15948 <zeroes.0>
   123cc:	f64ff06f          	j	11b30 <_vfiprintf_r+0xaa4>
   123d0:	000d2d83          	lw	s11,0(s10)
   123d4:	004d0d13          	add	s10,s10,4
   123d8:	000dd463          	bgez	s11,123e0 <_vfiprintf_r+0x1354>
   123dc:	fff00d93          	li	s11,-1
   123e0:	00194783          	lbu	a5,1(s2)
   123e4:	00070913          	mv	s2,a4
   123e8:	e29fe06f          	j	11210 <_vfiprintf_r+0x184>

000123ec <vfiprintf>:
   123ec:	00050793          	mv	a5,a0
   123f0:	8201a503          	lw	a0,-2016(gp) # 17758 <_impure_ptr>
   123f4:	00060693          	mv	a3,a2
   123f8:	00058613          	mv	a2,a1
   123fc:	00078593          	mv	a1,a5
   12400:	c8dfe06f          	j	1108c <_vfiprintf_r>

00012404 <__sbprintf>:
   12404:	00c59783          	lh	a5,12(a1)
   12408:	00e5d703          	lhu	a4,14(a1)
   1240c:	0645a303          	lw	t1,100(a1)
   12410:	ffd7f793          	and	a5,a5,-3
   12414:	01079793          	sll	a5,a5,0x10
   12418:	01c5a883          	lw	a7,28(a1)
   1241c:	0245a803          	lw	a6,36(a1)
   12420:	01071713          	sll	a4,a4,0x10
   12424:	0107d793          	srl	a5,a5,0x10
   12428:	b8010113          	add	sp,sp,-1152
   1242c:	00e7e7b3          	or	a5,a5,a4
   12430:	46812c23          	sw	s0,1144(sp)
   12434:	40000713          	li	a4,1024
   12438:	00f12a23          	sw	a5,20(sp)
   1243c:	00058413          	mv	s0,a1
   12440:	07010793          	add	a5,sp,112
   12444:	00810593          	add	a1,sp,8
   12448:	46912a23          	sw	s1,1140(sp)
   1244c:	47212823          	sw	s2,1136(sp)
   12450:	46112e23          	sw	ra,1148(sp)
   12454:	00050913          	mv	s2,a0
   12458:	06612623          	sw	t1,108(sp)
   1245c:	03112223          	sw	a7,36(sp)
   12460:	03012623          	sw	a6,44(sp)
   12464:	00f12423          	sw	a5,8(sp)
   12468:	00f12c23          	sw	a5,24(sp)
   1246c:	00e12823          	sw	a4,16(sp)
   12470:	00e12e23          	sw	a4,28(sp)
   12474:	02012023          	sw	zero,32(sp)
   12478:	c15fe0ef          	jal	1108c <_vfiprintf_r>
   1247c:	00050493          	mv	s1,a0
   12480:	02055c63          	bgez	a0,124b8 <__sbprintf+0xb4>
   12484:	01415783          	lhu	a5,20(sp)
   12488:	0407f793          	and	a5,a5,64
   1248c:	00078863          	beqz	a5,1249c <__sbprintf+0x98>
   12490:	00c45783          	lhu	a5,12(s0)
   12494:	0407e793          	or	a5,a5,64
   12498:	00f41623          	sh	a5,12(s0)
   1249c:	47c12083          	lw	ra,1148(sp)
   124a0:	47812403          	lw	s0,1144(sp)
   124a4:	47012903          	lw	s2,1136(sp)
   124a8:	00048513          	mv	a0,s1
   124ac:	47412483          	lw	s1,1140(sp)
   124b0:	48010113          	add	sp,sp,1152
   124b4:	00008067          	ret
   124b8:	00810593          	add	a1,sp,8
   124bc:	00090513          	mv	a0,s2
   124c0:	9a4f60ef          	jal	8664 <_fflush_r>
   124c4:	fc0500e3          	beqz	a0,12484 <__sbprintf+0x80>
   124c8:	fff00493          	li	s1,-1
   124cc:	fb9ff06f          	j	12484 <__sbprintf+0x80>

000124d0 <__swbuf_r>:
   124d0:	fe010113          	add	sp,sp,-32
   124d4:	00812c23          	sw	s0,24(sp)
   124d8:	00912a23          	sw	s1,20(sp)
   124dc:	01212823          	sw	s2,16(sp)
   124e0:	00112e23          	sw	ra,28(sp)
   124e4:	01312623          	sw	s3,12(sp)
   124e8:	00050913          	mv	s2,a0
   124ec:	00058493          	mv	s1,a1
   124f0:	00060413          	mv	s0,a2
   124f4:	00050663          	beqz	a0,12500 <__swbuf_r+0x30>
   124f8:	03852783          	lw	a5,56(a0)
   124fc:	14078063          	beqz	a5,1263c <__swbuf_r+0x16c>
   12500:	01842783          	lw	a5,24(s0)
   12504:	00c41703          	lh	a4,12(s0)
   12508:	00f42423          	sw	a5,8(s0)
   1250c:	00877793          	and	a5,a4,8
   12510:	08078263          	beqz	a5,12594 <__swbuf_r+0xc4>
   12514:	01042783          	lw	a5,16(s0)
   12518:	06078e63          	beqz	a5,12594 <__swbuf_r+0xc4>
   1251c:	01271693          	sll	a3,a4,0x12
   12520:	0ff4f993          	zext.b	s3,s1
   12524:	0ff4f493          	zext.b	s1,s1
   12528:	0806da63          	bgez	a3,125bc <__swbuf_r+0xec>
   1252c:	00042703          	lw	a4,0(s0)
   12530:	01442683          	lw	a3,20(s0)
   12534:	40f707b3          	sub	a5,a4,a5
   12538:	0ad7da63          	bge	a5,a3,125ec <__swbuf_r+0x11c>
   1253c:	00842683          	lw	a3,8(s0)
   12540:	00170613          	add	a2,a4,1
   12544:	00c42023          	sw	a2,0(s0)
   12548:	fff68693          	add	a3,a3,-1
   1254c:	00d42423          	sw	a3,8(s0)
   12550:	01370023          	sb	s3,0(a4)
   12554:	01442703          	lw	a4,20(s0)
   12558:	00178793          	add	a5,a5,1
   1255c:	0cf70463          	beq	a4,a5,12624 <__swbuf_r+0x154>
   12560:	00c45783          	lhu	a5,12(s0)
   12564:	0017f793          	and	a5,a5,1
   12568:	00078663          	beqz	a5,12574 <__swbuf_r+0xa4>
   1256c:	00a00793          	li	a5,10
   12570:	0af48a63          	beq	s1,a5,12624 <__swbuf_r+0x154>
   12574:	01c12083          	lw	ra,28(sp)
   12578:	01812403          	lw	s0,24(sp)
   1257c:	01012903          	lw	s2,16(sp)
   12580:	00c12983          	lw	s3,12(sp)
   12584:	00048513          	mv	a0,s1
   12588:	01412483          	lw	s1,20(sp)
   1258c:	02010113          	add	sp,sp,32
   12590:	00008067          	ret
   12594:	00040593          	mv	a1,s0
   12598:	00090513          	mv	a0,s2
   1259c:	c09f50ef          	jal	81a4 <__swsetup_r>
   125a0:	08051a63          	bnez	a0,12634 <__swbuf_r+0x164>
   125a4:	00c41703          	lh	a4,12(s0)
   125a8:	0ff4f993          	zext.b	s3,s1
   125ac:	01042783          	lw	a5,16(s0)
   125b0:	01271693          	sll	a3,a4,0x12
   125b4:	0ff4f493          	zext.b	s1,s1
   125b8:	f606cae3          	bltz	a3,1252c <__swbuf_r+0x5c>
   125bc:	06442683          	lw	a3,100(s0)
   125c0:	00002637          	lui	a2,0x2
   125c4:	00c76733          	or	a4,a4,a2
   125c8:	ffffe637          	lui	a2,0xffffe
   125cc:	fff60613          	add	a2,a2,-1 # ffffdfff <_end+0xfffe402f>
   125d0:	00c6f6b3          	and	a3,a3,a2
   125d4:	00e41623          	sh	a4,12(s0)
   125d8:	00042703          	lw	a4,0(s0)
   125dc:	06d42223          	sw	a3,100(s0)
   125e0:	01442683          	lw	a3,20(s0)
   125e4:	40f707b3          	sub	a5,a4,a5
   125e8:	f4d7cae3          	blt	a5,a3,1253c <__swbuf_r+0x6c>
   125ec:	00040593          	mv	a1,s0
   125f0:	00090513          	mv	a0,s2
   125f4:	870f60ef          	jal	8664 <_fflush_r>
   125f8:	02051e63          	bnez	a0,12634 <__swbuf_r+0x164>
   125fc:	00042703          	lw	a4,0(s0)
   12600:	00842683          	lw	a3,8(s0)
   12604:	00100793          	li	a5,1
   12608:	00170613          	add	a2,a4,1
   1260c:	fff68693          	add	a3,a3,-1
   12610:	00c42023          	sw	a2,0(s0)
   12614:	00d42423          	sw	a3,8(s0)
   12618:	01370023          	sb	s3,0(a4)
   1261c:	01442703          	lw	a4,20(s0)
   12620:	f4f710e3          	bne	a4,a5,12560 <__swbuf_r+0x90>
   12624:	00040593          	mv	a1,s0
   12628:	00090513          	mv	a0,s2
   1262c:	838f60ef          	jal	8664 <_fflush_r>
   12630:	f40502e3          	beqz	a0,12574 <__swbuf_r+0xa4>
   12634:	fff00493          	li	s1,-1
   12638:	f3dff06f          	j	12574 <__swbuf_r+0xa4>
   1263c:	c4cf60ef          	jal	8a88 <__sinit>
   12640:	ec1ff06f          	j	12500 <__swbuf_r+0x30>

00012644 <__swbuf>:
   12644:	00050793          	mv	a5,a0
   12648:	8201a503          	lw	a0,-2016(gp) # 17758 <_impure_ptr>
   1264c:	00058613          	mv	a2,a1
   12650:	00078593          	mv	a1,a5
   12654:	e7dff06f          	j	124d0 <__swbuf_r>

00012658 <_write_r>:
   12658:	ff010113          	add	sp,sp,-16
   1265c:	00058713          	mv	a4,a1
   12660:	00812423          	sw	s0,8(sp)
   12664:	00912223          	sw	s1,4(sp)
   12668:	00060593          	mv	a1,a2
   1266c:	00050413          	mv	s0,a0
   12670:	00068613          	mv	a2,a3
   12674:	00070513          	mv	a0,a4
   12678:	00112623          	sw	ra,12(sp)
   1267c:	8601aa23          	sw	zero,-1932(gp) # 177ac <errno>
   12680:	daded0ef          	jal	42c <_write>
   12684:	fff00793          	li	a5,-1
   12688:	00f50c63          	beq	a0,a5,126a0 <_write_r+0x48>
   1268c:	00c12083          	lw	ra,12(sp)
   12690:	00812403          	lw	s0,8(sp)
   12694:	00412483          	lw	s1,4(sp)
   12698:	01010113          	add	sp,sp,16
   1269c:	00008067          	ret
   126a0:	8741a783          	lw	a5,-1932(gp) # 177ac <errno>
   126a4:	fe0784e3          	beqz	a5,1268c <_write_r+0x34>
   126a8:	00c12083          	lw	ra,12(sp)
   126ac:	00f42023          	sw	a5,0(s0)
   126b0:	00812403          	lw	s0,8(sp)
   126b4:	00412483          	lw	s1,4(sp)
   126b8:	01010113          	add	sp,sp,16
   126bc:	00008067          	ret

000126c0 <__register_exitproc>:
   126c0:	8181a703          	lw	a4,-2024(gp) # 17750 <_global_impure_ptr>
   126c4:	14872783          	lw	a5,328(a4)
   126c8:	04078c63          	beqz	a5,12720 <__register_exitproc+0x60>
   126cc:	0047a703          	lw	a4,4(a5)
   126d0:	01f00813          	li	a6,31
   126d4:	06e84e63          	blt	a6,a4,12750 <__register_exitproc+0x90>
   126d8:	00271813          	sll	a6,a4,0x2
   126dc:	02050663          	beqz	a0,12708 <__register_exitproc+0x48>
   126e0:	01078333          	add	t1,a5,a6
   126e4:	08c32423          	sw	a2,136(t1)
   126e8:	1887a883          	lw	a7,392(a5)
   126ec:	00100613          	li	a2,1
   126f0:	00e61633          	sll	a2,a2,a4
   126f4:	00c8e8b3          	or	a7,a7,a2
   126f8:	1917a423          	sw	a7,392(a5)
   126fc:	10d32423          	sw	a3,264(t1)
   12700:	00200693          	li	a3,2
   12704:	02d50463          	beq	a0,a3,1272c <__register_exitproc+0x6c>
   12708:	00170713          	add	a4,a4,1
   1270c:	00e7a223          	sw	a4,4(a5)
   12710:	010787b3          	add	a5,a5,a6
   12714:	00b7a423          	sw	a1,8(a5)
   12718:	00000513          	li	a0,0
   1271c:	00008067          	ret
   12720:	14c70793          	add	a5,a4,332
   12724:	14f72423          	sw	a5,328(a4)
   12728:	fa5ff06f          	j	126cc <__register_exitproc+0xc>
   1272c:	18c7a683          	lw	a3,396(a5)
   12730:	00170713          	add	a4,a4,1
   12734:	00e7a223          	sw	a4,4(a5)
   12738:	00c6e6b3          	or	a3,a3,a2
   1273c:	18d7a623          	sw	a3,396(a5)
   12740:	010787b3          	add	a5,a5,a6
   12744:	00b7a423          	sw	a1,8(a5)
   12748:	00000513          	li	a0,0
   1274c:	00008067          	ret
   12750:	fff00513          	li	a0,-1
   12754:	00008067          	ret

00012758 <__assert_func>:
   12758:	8201a703          	lw	a4,-2016(gp) # 17758 <_impure_ptr>
   1275c:	ff010113          	add	sp,sp,-16
   12760:	00068793          	mv	a5,a3
   12764:	00060813          	mv	a6,a2
   12768:	00112623          	sw	ra,12(sp)
   1276c:	00c72883          	lw	a7,12(a4)
   12770:	00050693          	mv	a3,a0
   12774:	00058713          	mv	a4,a1
   12778:	00078613          	mv	a2,a5
   1277c:	02080063          	beqz	a6,1279c <__assert_func+0x44>
   12780:	000167b7          	lui	a5,0x16
   12784:	96878793          	add	a5,a5,-1688 # 15968 <blanks.1+0x10>
   12788:	000165b7          	lui	a1,0x16
   1278c:	97858593          	add	a1,a1,-1672 # 15978 <blanks.1+0x20>
   12790:	00088513          	mv	a0,a7
   12794:	2c4000ef          	jal	12a58 <fiprintf>
   12798:	3ed010ef          	jal	14384 <abort>
   1279c:	00015837          	lui	a6,0x15
   127a0:	ae880793          	add	a5,a6,-1304 # 14ae8 <_getpid_r+0x1cc>
   127a4:	ae880813          	add	a6,a6,-1304
   127a8:	fe1ff06f          	j	12788 <__assert_func+0x30>

000127ac <__assert>:
   127ac:	ff010113          	add	sp,sp,-16
   127b0:	00060693          	mv	a3,a2
   127b4:	00000613          	li	a2,0
   127b8:	00112623          	sw	ra,12(sp)
   127bc:	f9dff0ef          	jal	12758 <__assert_func>

000127c0 <_calloc_r>:
   127c0:	02c5b7b3          	mulhu	a5,a1,a2
   127c4:	ff010113          	add	sp,sp,-16
   127c8:	00112623          	sw	ra,12(sp)
   127cc:	00812423          	sw	s0,8(sp)
   127d0:	02c585b3          	mul	a1,a1,a2
   127d4:	0a079063          	bnez	a5,12874 <_calloc_r+0xb4>
   127d8:	d70f20ef          	jal	4d48 <_malloc_r>
   127dc:	00050413          	mv	s0,a0
   127e0:	0a050063          	beqz	a0,12880 <_calloc_r+0xc0>
   127e4:	ffc52603          	lw	a2,-4(a0)
   127e8:	02400713          	li	a4,36
   127ec:	ffc67613          	and	a2,a2,-4
   127f0:	ffc60613          	add	a2,a2,-4
   127f4:	04c76863          	bltu	a4,a2,12844 <_calloc_r+0x84>
   127f8:	01300693          	li	a3,19
   127fc:	00050793          	mv	a5,a0
   12800:	02c6f263          	bgeu	a3,a2,12824 <_calloc_r+0x64>
   12804:	00052023          	sw	zero,0(a0)
   12808:	00052223          	sw	zero,4(a0)
   1280c:	01b00793          	li	a5,27
   12810:	04c7f863          	bgeu	a5,a2,12860 <_calloc_r+0xa0>
   12814:	00052423          	sw	zero,8(a0)
   12818:	00052623          	sw	zero,12(a0)
   1281c:	01050793          	add	a5,a0,16
   12820:	06e60c63          	beq	a2,a4,12898 <_calloc_r+0xd8>
   12824:	0007a023          	sw	zero,0(a5)
   12828:	0007a223          	sw	zero,4(a5)
   1282c:	0007a423          	sw	zero,8(a5)
   12830:	00c12083          	lw	ra,12(sp)
   12834:	00040513          	mv	a0,s0
   12838:	00812403          	lw	s0,8(sp)
   1283c:	01010113          	add	sp,sp,16
   12840:	00008067          	ret
   12844:	00000593          	li	a1,0
   12848:	c61ed0ef          	jal	4a8 <memset>
   1284c:	00c12083          	lw	ra,12(sp)
   12850:	00040513          	mv	a0,s0
   12854:	00812403          	lw	s0,8(sp)
   12858:	01010113          	add	sp,sp,16
   1285c:	00008067          	ret
   12860:	00850793          	add	a5,a0,8
   12864:	0007a023          	sw	zero,0(a5)
   12868:	0007a223          	sw	zero,4(a5)
   1286c:	0007a423          	sw	zero,8(a5)
   12870:	fc1ff06f          	j	12830 <_calloc_r+0x70>
   12874:	c18f20ef          	jal	4c8c <__errno>
   12878:	00c00793          	li	a5,12
   1287c:	00f52023          	sw	a5,0(a0)
   12880:	00000413          	li	s0,0
   12884:	00c12083          	lw	ra,12(sp)
   12888:	00040513          	mv	a0,s0
   1288c:	00812403          	lw	s0,8(sp)
   12890:	01010113          	add	sp,sp,16
   12894:	00008067          	ret
   12898:	00052823          	sw	zero,16(a0)
   1289c:	01850793          	add	a5,a0,24
   128a0:	00052a23          	sw	zero,20(a0)
   128a4:	f81ff06f          	j	12824 <_calloc_r+0x64>

000128a8 <_close_r>:
   128a8:	ff010113          	add	sp,sp,-16
   128ac:	00812423          	sw	s0,8(sp)
   128b0:	00912223          	sw	s1,4(sp)
   128b4:	00050413          	mv	s0,a0
   128b8:	00058513          	mv	a0,a1
   128bc:	00112623          	sw	ra,12(sp)
   128c0:	8601aa23          	sw	zero,-1932(gp) # 177ac <errno>
   128c4:	b8ded0ef          	jal	450 <_close>
   128c8:	fff00793          	li	a5,-1
   128cc:	00f50c63          	beq	a0,a5,128e4 <_close_r+0x3c>
   128d0:	00c12083          	lw	ra,12(sp)
   128d4:	00812403          	lw	s0,8(sp)
   128d8:	00412483          	lw	s1,4(sp)
   128dc:	01010113          	add	sp,sp,16
   128e0:	00008067          	ret
   128e4:	8741a783          	lw	a5,-1932(gp) # 177ac <errno>
   128e8:	fe0784e3          	beqz	a5,128d0 <_close_r+0x28>
   128ec:	00c12083          	lw	ra,12(sp)
   128f0:	00f42023          	sw	a5,0(s0)
   128f4:	00812403          	lw	s0,8(sp)
   128f8:	00412483          	lw	s1,4(sp)
   128fc:	01010113          	add	sp,sp,16
   12900:	00008067          	ret

00012904 <_fclose_r>:
   12904:	ff010113          	add	sp,sp,-16
   12908:	00112623          	sw	ra,12(sp)
   1290c:	00812423          	sw	s0,8(sp)
   12910:	00912223          	sw	s1,4(sp)
   12914:	01212023          	sw	s2,0(sp)
   12918:	02058063          	beqz	a1,12938 <_fclose_r+0x34>
   1291c:	00058413          	mv	s0,a1
   12920:	00050493          	mv	s1,a0
   12924:	00050663          	beqz	a0,12930 <_fclose_r+0x2c>
   12928:	03852783          	lw	a5,56(a0)
   1292c:	0a078c63          	beqz	a5,129e4 <_fclose_r+0xe0>
   12930:	00c41783          	lh	a5,12(s0)
   12934:	02079263          	bnez	a5,12958 <_fclose_r+0x54>
   12938:	00c12083          	lw	ra,12(sp)
   1293c:	00812403          	lw	s0,8(sp)
   12940:	00000913          	li	s2,0
   12944:	00412483          	lw	s1,4(sp)
   12948:	00090513          	mv	a0,s2
   1294c:	00012903          	lw	s2,0(sp)
   12950:	01010113          	add	sp,sp,16
   12954:	00008067          	ret
   12958:	00040593          	mv	a1,s0
   1295c:	00048513          	mv	a0,s1
   12960:	ab9f50ef          	jal	8418 <__sflush_r>
   12964:	02c42783          	lw	a5,44(s0)
   12968:	00050913          	mv	s2,a0
   1296c:	00078a63          	beqz	a5,12980 <_fclose_r+0x7c>
   12970:	01c42583          	lw	a1,28(s0)
   12974:	00048513          	mv	a0,s1
   12978:	000780e7          	jalr	a5
   1297c:	06054c63          	bltz	a0,129f4 <_fclose_r+0xf0>
   12980:	00c45783          	lhu	a5,12(s0)
   12984:	0807f793          	and	a5,a5,128
   12988:	06079e63          	bnez	a5,12a04 <_fclose_r+0x100>
   1298c:	03042583          	lw	a1,48(s0)
   12990:	00058c63          	beqz	a1,129a8 <_fclose_r+0xa4>
   12994:	04040793          	add	a5,s0,64
   12998:	00f58663          	beq	a1,a5,129a4 <_fclose_r+0xa0>
   1299c:	00048513          	mv	a0,s1
   129a0:	ac0f60ef          	jal	8c60 <_free_r>
   129a4:	02042823          	sw	zero,48(s0)
   129a8:	04442583          	lw	a1,68(s0)
   129ac:	00058863          	beqz	a1,129bc <_fclose_r+0xb8>
   129b0:	00048513          	mv	a0,s1
   129b4:	aacf60ef          	jal	8c60 <_free_r>
   129b8:	04042223          	sw	zero,68(s0)
   129bc:	8dcf60ef          	jal	8a98 <__sfp_lock_acquire>
   129c0:	00041623          	sh	zero,12(s0)
   129c4:	8d8f60ef          	jal	8a9c <__sfp_lock_release>
   129c8:	00c12083          	lw	ra,12(sp)
   129cc:	00812403          	lw	s0,8(sp)
   129d0:	00412483          	lw	s1,4(sp)
   129d4:	00090513          	mv	a0,s2
   129d8:	00012903          	lw	s2,0(sp)
   129dc:	01010113          	add	sp,sp,16
   129e0:	00008067          	ret
   129e4:	8a4f60ef          	jal	8a88 <__sinit>
   129e8:	00c41783          	lh	a5,12(s0)
   129ec:	f40786e3          	beqz	a5,12938 <_fclose_r+0x34>
   129f0:	f69ff06f          	j	12958 <_fclose_r+0x54>
   129f4:	00c45783          	lhu	a5,12(s0)
   129f8:	fff00913          	li	s2,-1
   129fc:	0807f793          	and	a5,a5,128
   12a00:	f80786e3          	beqz	a5,1298c <_fclose_r+0x88>
   12a04:	01042583          	lw	a1,16(s0)
   12a08:	00048513          	mv	a0,s1
   12a0c:	a54f60ef          	jal	8c60 <_free_r>
   12a10:	f7dff06f          	j	1298c <_fclose_r+0x88>

00012a14 <fclose>:
   12a14:	00050593          	mv	a1,a0
   12a18:	8201a503          	lw	a0,-2016(gp) # 17758 <_impure_ptr>
   12a1c:	ee9ff06f          	j	12904 <_fclose_r>

00012a20 <_fiprintf_r>:
   12a20:	fc010113          	add	sp,sp,-64
   12a24:	02c10313          	add	t1,sp,44
   12a28:	02d12623          	sw	a3,44(sp)
   12a2c:	00030693          	mv	a3,t1
   12a30:	00112e23          	sw	ra,28(sp)
   12a34:	02e12823          	sw	a4,48(sp)
   12a38:	02f12a23          	sw	a5,52(sp)
   12a3c:	03012c23          	sw	a6,56(sp)
   12a40:	03112e23          	sw	a7,60(sp)
   12a44:	00612623          	sw	t1,12(sp)
   12a48:	e44fe0ef          	jal	1108c <_vfiprintf_r>
   12a4c:	01c12083          	lw	ra,28(sp)
   12a50:	04010113          	add	sp,sp,64
   12a54:	00008067          	ret

00012a58 <fiprintf>:
   12a58:	00050e13          	mv	t3,a0
   12a5c:	fc010113          	add	sp,sp,-64
   12a60:	8201a503          	lw	a0,-2016(gp) # 17758 <_impure_ptr>
   12a64:	02810313          	add	t1,sp,40
   12a68:	02c12423          	sw	a2,40(sp)
   12a6c:	02d12623          	sw	a3,44(sp)
   12a70:	00058613          	mv	a2,a1
   12a74:	00030693          	mv	a3,t1
   12a78:	000e0593          	mv	a1,t3
   12a7c:	00112e23          	sw	ra,28(sp)
   12a80:	02e12823          	sw	a4,48(sp)
   12a84:	02f12a23          	sw	a5,52(sp)
   12a88:	03012c23          	sw	a6,56(sp)
   12a8c:	03112e23          	sw	a7,60(sp)
   12a90:	00612623          	sw	t1,12(sp)
   12a94:	df8fe0ef          	jal	1108c <_vfiprintf_r>
   12a98:	01c12083          	lw	ra,28(sp)
   12a9c:	04010113          	add	sp,sp,64
   12aa0:	00008067          	ret

00012aa4 <__fputwc>:
   12aa4:	fe010113          	add	sp,sp,-32
   12aa8:	00812c23          	sw	s0,24(sp)
   12aac:	00912a23          	sw	s1,20(sp)
   12ab0:	01212823          	sw	s2,16(sp)
   12ab4:	00112e23          	sw	ra,28(sp)
   12ab8:	00050913          	mv	s2,a0
   12abc:	00058493          	mv	s1,a1
   12ac0:	00060413          	mv	s0,a2
   12ac4:	2b8000ef          	jal	12d7c <__locale_mb_cur_max>
   12ac8:	00100793          	li	a5,1
   12acc:	00f51c63          	bne	a0,a5,12ae4 <__fputwc+0x40>
   12ad0:	fff48793          	add	a5,s1,-1
   12ad4:	0fe00713          	li	a4,254
   12ad8:	00f76663          	bltu	a4,a5,12ae4 <__fputwc+0x40>
   12adc:	00910623          	sb	s1,12(sp)
   12ae0:	0240006f          	j	12b04 <__fputwc+0x60>
   12ae4:	05c40693          	add	a3,s0,92
   12ae8:	00048613          	mv	a2,s1
   12aec:	00c10593          	add	a1,sp,12
   12af0:	00090513          	mv	a0,s2
   12af4:	74c010ef          	jal	14240 <_wcrtomb_r>
   12af8:	fff00793          	li	a5,-1
   12afc:	08f50463          	beq	a0,a5,12b84 <__fputwc+0xe0>
   12b00:	02050c63          	beqz	a0,12b38 <__fputwc+0x94>
   12b04:	00842783          	lw	a5,8(s0)
   12b08:	00c14583          	lbu	a1,12(sp)
   12b0c:	fff78793          	add	a5,a5,-1
   12b10:	00f42423          	sw	a5,8(s0)
   12b14:	0007da63          	bgez	a5,12b28 <__fputwc+0x84>
   12b18:	01842703          	lw	a4,24(s0)
   12b1c:	02e7cc63          	blt	a5,a4,12b54 <__fputwc+0xb0>
   12b20:	00a00793          	li	a5,10
   12b24:	02f58863          	beq	a1,a5,12b54 <__fputwc+0xb0>
   12b28:	00042783          	lw	a5,0(s0)
   12b2c:	00178713          	add	a4,a5,1
   12b30:	00e42023          	sw	a4,0(s0)
   12b34:	00b78023          	sb	a1,0(a5)
   12b38:	01c12083          	lw	ra,28(sp)
   12b3c:	01812403          	lw	s0,24(sp)
   12b40:	01012903          	lw	s2,16(sp)
   12b44:	00048513          	mv	a0,s1
   12b48:	01412483          	lw	s1,20(sp)
   12b4c:	02010113          	add	sp,sp,32
   12b50:	00008067          	ret
   12b54:	00040613          	mv	a2,s0
   12b58:	00090513          	mv	a0,s2
   12b5c:	975ff0ef          	jal	124d0 <__swbuf_r>
   12b60:	fff00793          	li	a5,-1
   12b64:	fcf51ae3          	bne	a0,a5,12b38 <__fputwc+0x94>
   12b68:	fff00513          	li	a0,-1
   12b6c:	01c12083          	lw	ra,28(sp)
   12b70:	01812403          	lw	s0,24(sp)
   12b74:	01412483          	lw	s1,20(sp)
   12b78:	01012903          	lw	s2,16(sp)
   12b7c:	02010113          	add	sp,sp,32
   12b80:	00008067          	ret
   12b84:	00c45783          	lhu	a5,12(s0)
   12b88:	fff00513          	li	a0,-1
   12b8c:	0407e793          	or	a5,a5,64
   12b90:	00f41623          	sh	a5,12(s0)
   12b94:	fd9ff06f          	j	12b6c <__fputwc+0xc8>

00012b98 <_fputwc_r>:
   12b98:	00c61783          	lh	a5,12(a2)
   12b9c:	01279713          	sll	a4,a5,0x12
   12ba0:	02074063          	bltz	a4,12bc0 <_fputwc_r+0x28>
   12ba4:	06462703          	lw	a4,100(a2)
   12ba8:	000026b7          	lui	a3,0x2
   12bac:	00d7e7b3          	or	a5,a5,a3
   12bb0:	000026b7          	lui	a3,0x2
   12bb4:	00d76733          	or	a4,a4,a3
   12bb8:	00f61623          	sh	a5,12(a2)
   12bbc:	06e62223          	sw	a4,100(a2)
   12bc0:	ee5ff06f          	j	12aa4 <__fputwc>

00012bc4 <fputwc>:
   12bc4:	fe010113          	add	sp,sp,-32
   12bc8:	00812c23          	sw	s0,24(sp)
   12bcc:	8201a403          	lw	s0,-2016(gp) # 17758 <_impure_ptr>
   12bd0:	00112e23          	sw	ra,28(sp)
   12bd4:	00058613          	mv	a2,a1
   12bd8:	00050593          	mv	a1,a0
   12bdc:	00040663          	beqz	s0,12be8 <fputwc+0x24>
   12be0:	03842783          	lw	a5,56(s0)
   12be4:	04078063          	beqz	a5,12c24 <fputwc+0x60>
   12be8:	00c61783          	lh	a5,12(a2)
   12bec:	01279713          	sll	a4,a5,0x12
   12bf0:	02074063          	bltz	a4,12c10 <fputwc+0x4c>
   12bf4:	06462703          	lw	a4,100(a2)
   12bf8:	000026b7          	lui	a3,0x2
   12bfc:	00d7e7b3          	or	a5,a5,a3
   12c00:	000026b7          	lui	a3,0x2
   12c04:	00d76733          	or	a4,a4,a3
   12c08:	00f61623          	sh	a5,12(a2)
   12c0c:	06e62223          	sw	a4,100(a2)
   12c10:	00040513          	mv	a0,s0
   12c14:	01812403          	lw	s0,24(sp)
   12c18:	01c12083          	lw	ra,28(sp)
   12c1c:	02010113          	add	sp,sp,32
   12c20:	e85ff06f          	j	12aa4 <__fputwc>
   12c24:	00a12423          	sw	a0,8(sp)
   12c28:	00040513          	mv	a0,s0
   12c2c:	00c12623          	sw	a2,12(sp)
   12c30:	e59f50ef          	jal	8a88 <__sinit>
   12c34:	00c12603          	lw	a2,12(sp)
   12c38:	00812583          	lw	a1,8(sp)
   12c3c:	fadff06f          	j	12be8 <fputwc+0x24>

00012c40 <_fstat_r>:
   12c40:	ff010113          	add	sp,sp,-16
   12c44:	00058713          	mv	a4,a1
   12c48:	00812423          	sw	s0,8(sp)
   12c4c:	00912223          	sw	s1,4(sp)
   12c50:	00050413          	mv	s0,a0
   12c54:	00060593          	mv	a1,a2
   12c58:	00070513          	mv	a0,a4
   12c5c:	00112623          	sw	ra,12(sp)
   12c60:	8601aa23          	sw	zero,-1932(gp) # 177ac <errno>
   12c64:	ff4ed0ef          	jal	458 <_fstat>
   12c68:	fff00793          	li	a5,-1
   12c6c:	00f50c63          	beq	a0,a5,12c84 <_fstat_r+0x44>
   12c70:	00c12083          	lw	ra,12(sp)
   12c74:	00812403          	lw	s0,8(sp)
   12c78:	00412483          	lw	s1,4(sp)
   12c7c:	01010113          	add	sp,sp,16
   12c80:	00008067          	ret
   12c84:	8741a783          	lw	a5,-1932(gp) # 177ac <errno>
   12c88:	fe0784e3          	beqz	a5,12c70 <_fstat_r+0x30>
   12c8c:	00c12083          	lw	ra,12(sp)
   12c90:	00f42023          	sw	a5,0(s0)
   12c94:	00812403          	lw	s0,8(sp)
   12c98:	00412483          	lw	s1,4(sp)
   12c9c:	01010113          	add	sp,sp,16
   12ca0:	00008067          	ret

00012ca4 <_isatty_r>:
   12ca4:	ff010113          	add	sp,sp,-16
   12ca8:	00812423          	sw	s0,8(sp)
   12cac:	00912223          	sw	s1,4(sp)
   12cb0:	00050413          	mv	s0,a0
   12cb4:	00058513          	mv	a0,a1
   12cb8:	00112623          	sw	ra,12(sp)
   12cbc:	8601aa23          	sw	zero,-1932(gp) # 177ac <errno>
   12cc0:	f3ced0ef          	jal	3fc <_access>
   12cc4:	fff00793          	li	a5,-1
   12cc8:	00f50c63          	beq	a0,a5,12ce0 <_isatty_r+0x3c>
   12ccc:	00c12083          	lw	ra,12(sp)
   12cd0:	00812403          	lw	s0,8(sp)
   12cd4:	00412483          	lw	s1,4(sp)
   12cd8:	01010113          	add	sp,sp,16
   12cdc:	00008067          	ret
   12ce0:	8741a783          	lw	a5,-1932(gp) # 177ac <errno>
   12ce4:	fe0784e3          	beqz	a5,12ccc <_isatty_r+0x28>
   12ce8:	00c12083          	lw	ra,12(sp)
   12cec:	00f42023          	sw	a5,0(s0)
   12cf0:	00812403          	lw	s0,8(sp)
   12cf4:	00412483          	lw	s1,4(sp)
   12cf8:	01010113          	add	sp,sp,16
   12cfc:	00008067          	ret

00012d00 <_setlocale_r>:
   12d00:	ff010113          	add	sp,sp,-16
   12d04:	00112623          	sw	ra,12(sp)
   12d08:	00812423          	sw	s0,8(sp)
   12d0c:	00912223          	sw	s1,4(sp)
   12d10:	02060c63          	beqz	a2,12d48 <_setlocale_r+0x48>
   12d14:	000165b7          	lui	a1,0x16
   12d18:	9ac58593          	add	a1,a1,-1620 # 159ac <blanks.1+0x54>
   12d1c:	00060513          	mv	a0,a2
   12d20:	00060413          	mv	s0,a2
   12d24:	861ed0ef          	jal	584 <strcmp>
   12d28:	000164b7          	lui	s1,0x16
   12d2c:	02051263          	bnez	a0,12d50 <_setlocale_r+0x50>
   12d30:	9a848513          	add	a0,s1,-1624 # 159a8 <blanks.1+0x50>
   12d34:	00c12083          	lw	ra,12(sp)
   12d38:	00812403          	lw	s0,8(sp)
   12d3c:	00412483          	lw	s1,4(sp)
   12d40:	01010113          	add	sp,sp,16
   12d44:	00008067          	ret
   12d48:	000164b7          	lui	s1,0x16
   12d4c:	fe5ff06f          	j	12d30 <_setlocale_r+0x30>
   12d50:	9a848593          	add	a1,s1,-1624 # 159a8 <blanks.1+0x50>
   12d54:	00040513          	mv	a0,s0
   12d58:	82ded0ef          	jal	584 <strcmp>
   12d5c:	fc050ae3          	beqz	a0,12d30 <_setlocale_r+0x30>
   12d60:	000155b7          	lui	a1,0x15
   12d64:	ae858593          	add	a1,a1,-1304 # 14ae8 <_getpid_r+0x1cc>
   12d68:	00040513          	mv	a0,s0
   12d6c:	819ed0ef          	jal	584 <strcmp>
   12d70:	fc0500e3          	beqz	a0,12d30 <_setlocale_r+0x30>
   12d74:	00000513          	li	a0,0
   12d78:	fbdff06f          	j	12d34 <_setlocale_r+0x34>

00012d7c <__locale_mb_cur_max>:
   12d7c:	000177b7          	lui	a5,0x17
   12d80:	6f07c503          	lbu	a0,1776(a5) # 176f0 <__global_locale+0x128>
   12d84:	00008067          	ret

00012d88 <setlocale>:
   12d88:	ff010113          	add	sp,sp,-16
   12d8c:	00112623          	sw	ra,12(sp)
   12d90:	00812423          	sw	s0,8(sp)
   12d94:	00912223          	sw	s1,4(sp)
   12d98:	02058c63          	beqz	a1,12dd0 <setlocale+0x48>
   12d9c:	00058413          	mv	s0,a1
   12da0:	000165b7          	lui	a1,0x16
   12da4:	9ac58593          	add	a1,a1,-1620 # 159ac <blanks.1+0x54>
   12da8:	00040513          	mv	a0,s0
   12dac:	fd8ed0ef          	jal	584 <strcmp>
   12db0:	000164b7          	lui	s1,0x16
   12db4:	02051263          	bnez	a0,12dd8 <setlocale+0x50>
   12db8:	9a848513          	add	a0,s1,-1624 # 159a8 <blanks.1+0x50>
   12dbc:	00c12083          	lw	ra,12(sp)
   12dc0:	00812403          	lw	s0,8(sp)
   12dc4:	00412483          	lw	s1,4(sp)
   12dc8:	01010113          	add	sp,sp,16
   12dcc:	00008067          	ret
   12dd0:	000164b7          	lui	s1,0x16
   12dd4:	fe5ff06f          	j	12db8 <setlocale+0x30>
   12dd8:	9a848593          	add	a1,s1,-1624 # 159a8 <blanks.1+0x50>
   12ddc:	00040513          	mv	a0,s0
   12de0:	fa4ed0ef          	jal	584 <strcmp>
   12de4:	fc050ae3          	beqz	a0,12db8 <setlocale+0x30>
   12de8:	000155b7          	lui	a1,0x15
   12dec:	ae858593          	add	a1,a1,-1304 # 14ae8 <_getpid_r+0x1cc>
   12df0:	00040513          	mv	a0,s0
   12df4:	f90ed0ef          	jal	584 <strcmp>
   12df8:	fc0500e3          	beqz	a0,12db8 <setlocale+0x30>
   12dfc:	00000513          	li	a0,0
   12e00:	fbdff06f          	j	12dbc <setlocale+0x34>

00012e04 <_lseek_r>:
   12e04:	ff010113          	add	sp,sp,-16
   12e08:	00058713          	mv	a4,a1
   12e0c:	00812423          	sw	s0,8(sp)
   12e10:	00912223          	sw	s1,4(sp)
   12e14:	00060593          	mv	a1,a2
   12e18:	00050413          	mv	s0,a0
   12e1c:	00068613          	mv	a2,a3
   12e20:	00070513          	mv	a0,a4
   12e24:	00112623          	sw	ra,12(sp)
   12e28:	8601aa23          	sw	zero,-1932(gp) # 177ac <errno>
   12e2c:	dd0ed0ef          	jal	3fc <_access>
   12e30:	fff00793          	li	a5,-1
   12e34:	00f50c63          	beq	a0,a5,12e4c <_lseek_r+0x48>
   12e38:	00c12083          	lw	ra,12(sp)
   12e3c:	00812403          	lw	s0,8(sp)
   12e40:	00412483          	lw	s1,4(sp)
   12e44:	01010113          	add	sp,sp,16
   12e48:	00008067          	ret
   12e4c:	8741a783          	lw	a5,-1932(gp) # 177ac <errno>
   12e50:	fe0784e3          	beqz	a5,12e38 <_lseek_r+0x34>
   12e54:	00c12083          	lw	ra,12(sp)
   12e58:	00f42023          	sw	a5,0(s0)
   12e5c:	00812403          	lw	s0,8(sp)
   12e60:	00412483          	lw	s1,4(sp)
   12e64:	01010113          	add	sp,sp,16
   12e68:	00008067          	ret

00012e6c <_mbtowc_r>:
   12e6c:	000177b7          	lui	a5,0x17
   12e70:	6ac7a783          	lw	a5,1708(a5) # 176ac <__global_locale+0xe4>
   12e74:	00078067          	jr	a5

00012e78 <__ascii_mbtowc>:
   12e78:	02058063          	beqz	a1,12e98 <__ascii_mbtowc+0x20>
   12e7c:	04060263          	beqz	a2,12ec0 <__ascii_mbtowc+0x48>
   12e80:	04068863          	beqz	a3,12ed0 <__ascii_mbtowc+0x58>
   12e84:	00064783          	lbu	a5,0(a2)
   12e88:	00f5a023          	sw	a5,0(a1)
   12e8c:	00064503          	lbu	a0,0(a2)
   12e90:	00a03533          	snez	a0,a0
   12e94:	00008067          	ret
   12e98:	ff010113          	add	sp,sp,-16
   12e9c:	00c10593          	add	a1,sp,12
   12ea0:	02060463          	beqz	a2,12ec8 <__ascii_mbtowc+0x50>
   12ea4:	02068a63          	beqz	a3,12ed8 <__ascii_mbtowc+0x60>
   12ea8:	00064783          	lbu	a5,0(a2)
   12eac:	00f5a023          	sw	a5,0(a1)
   12eb0:	00064503          	lbu	a0,0(a2)
   12eb4:	00a03533          	snez	a0,a0
   12eb8:	01010113          	add	sp,sp,16
   12ebc:	00008067          	ret
   12ec0:	00000513          	li	a0,0
   12ec4:	00008067          	ret
   12ec8:	00000513          	li	a0,0
   12ecc:	fedff06f          	j	12eb8 <__ascii_mbtowc+0x40>
   12ed0:	ffe00513          	li	a0,-2
   12ed4:	00008067          	ret
   12ed8:	ffe00513          	li	a0,-2
   12edc:	fddff06f          	j	12eb8 <__ascii_mbtowc+0x40>

00012ee0 <_read_r>:
   12ee0:	ff010113          	add	sp,sp,-16
   12ee4:	00058713          	mv	a4,a1
   12ee8:	00812423          	sw	s0,8(sp)
   12eec:	00912223          	sw	s1,4(sp)
   12ef0:	00060593          	mv	a1,a2
   12ef4:	00050413          	mv	s0,a0
   12ef8:	00068613          	mv	a2,a3
   12efc:	00070513          	mv	a0,a4
   12f00:	00112623          	sw	ra,12(sp)
   12f04:	8601aa23          	sw	zero,-1932(gp) # 177ac <errno>
   12f08:	d1ced0ef          	jal	424 <_read>
   12f0c:	fff00793          	li	a5,-1
   12f10:	00f50c63          	beq	a0,a5,12f28 <_read_r+0x48>
   12f14:	00c12083          	lw	ra,12(sp)
   12f18:	00812403          	lw	s0,8(sp)
   12f1c:	00412483          	lw	s1,4(sp)
   12f20:	01010113          	add	sp,sp,16
   12f24:	00008067          	ret
   12f28:	8741a783          	lw	a5,-1932(gp) # 177ac <errno>
   12f2c:	fe0784e3          	beqz	a5,12f14 <_read_r+0x34>
   12f30:	00c12083          	lw	ra,12(sp)
   12f34:	00f42023          	sw	a5,0(s0)
   12f38:	00812403          	lw	s0,8(sp)
   12f3c:	00412483          	lw	s1,4(sp)
   12f40:	01010113          	add	sp,sp,16
   12f44:	00008067          	ret

00012f48 <__ssprint_r>:
   12f48:	00862783          	lw	a5,8(a2)
   12f4c:	fd010113          	add	sp,sp,-48
   12f50:	01312e23          	sw	s3,28(sp)
   12f54:	01412c23          	sw	s4,24(sp)
   12f58:	02112623          	sw	ra,44(sp)
   12f5c:	02812423          	sw	s0,40(sp)
   12f60:	02912223          	sw	s1,36(sp)
   12f64:	03212023          	sw	s2,32(sp)
   12f68:	01512a23          	sw	s5,20(sp)
   12f6c:	01612823          	sw	s6,16(sp)
   12f70:	01712623          	sw	s7,12(sp)
   12f74:	01812423          	sw	s8,8(sp)
   12f78:	00062983          	lw	s3,0(a2)
   12f7c:	00060a13          	mv	s4,a2
   12f80:	14078c63          	beqz	a5,130d8 <__ssprint_r+0x190>
   12f84:	0085a703          	lw	a4,8(a1)
   12f88:	0005a783          	lw	a5,0(a1)
   12f8c:	00050a93          	mv	s5,a0
   12f90:	00058493          	mv	s1,a1
   12f94:	00000b93          	li	s7,0
   12f98:	00000913          	li	s2,0
   12f9c:	0e00006f          	j	1307c <__ssprint_r+0x134>
   12fa0:	00c49703          	lh	a4,12(s1)
   12fa4:	48077693          	and	a3,a4,1152
   12fa8:	08068a63          	beqz	a3,1303c <__ssprint_r+0xf4>
   12fac:	0144a603          	lw	a2,20(s1)
   12fb0:	0104a583          	lw	a1,16(s1)
   12fb4:	00161693          	sll	a3,a2,0x1
   12fb8:	00c686b3          	add	a3,a3,a2
   12fbc:	40b78433          	sub	s0,a5,a1
   12fc0:	01f6db13          	srl	s6,a3,0x1f
   12fc4:	00db0b33          	add	s6,s6,a3
   12fc8:	00140793          	add	a5,s0,1
   12fcc:	401b5b13          	sra	s6,s6,0x1
   12fd0:	012787b3          	add	a5,a5,s2
   12fd4:	000b0613          	mv	a2,s6
   12fd8:	00fb7663          	bgeu	s6,a5,12fe4 <__ssprint_r+0x9c>
   12fdc:	00078b13          	mv	s6,a5
   12fe0:	00078613          	mv	a2,a5
   12fe4:	40077713          	and	a4,a4,1024
   12fe8:	0a070a63          	beqz	a4,1309c <__ssprint_r+0x154>
   12fec:	00060593          	mv	a1,a2
   12ff0:	000a8513          	mv	a0,s5
   12ff4:	d55f10ef          	jal	4d48 <_malloc_r>
   12ff8:	00050c13          	mv	s8,a0
   12ffc:	0a050e63          	beqz	a0,130b8 <__ssprint_r+0x170>
   13000:	0104a583          	lw	a1,16(s1)
   13004:	00040613          	mv	a2,s0
   13008:	d10f90ef          	jal	c518 <memcpy>
   1300c:	00c4d783          	lhu	a5,12(s1)
   13010:	b7f7f793          	and	a5,a5,-1153
   13014:	0807e793          	or	a5,a5,128
   13018:	00f49623          	sh	a5,12(s1)
   1301c:	408b07b3          	sub	a5,s6,s0
   13020:	008c0533          	add	a0,s8,s0
   13024:	0164aa23          	sw	s6,20(s1)
   13028:	0184a823          	sw	s8,16(s1)
   1302c:	00a4a023          	sw	a0,0(s1)
   13030:	00090b13          	mv	s6,s2
   13034:	00f4a423          	sw	a5,8(s1)
   13038:	00090413          	mv	s0,s2
   1303c:	00040613          	mv	a2,s0
   13040:	000b8593          	mv	a1,s7
   13044:	e78f90ef          	jal	c6bc <memmove>
   13048:	0084a703          	lw	a4,8(s1)
   1304c:	0004a783          	lw	a5,0(s1)
   13050:	008a2683          	lw	a3,8(s4)
   13054:	41670733          	sub	a4,a4,s6
   13058:	008787b3          	add	a5,a5,s0
   1305c:	00e4a423          	sw	a4,8(s1)
   13060:	00f4a023          	sw	a5,0(s1)
   13064:	412686b3          	sub	a3,a3,s2
   13068:	00da2423          	sw	a3,8(s4)
   1306c:	06068663          	beqz	a3,130d8 <__ssprint_r+0x190>
   13070:	0009ab83          	lw	s7,0(s3)
   13074:	0049a903          	lw	s2,4(s3)
   13078:	00898993          	add	s3,s3,8
   1307c:	00070b13          	mv	s6,a4
   13080:	00078513          	mv	a0,a5
   13084:	fe0906e3          	beqz	s2,13070 <__ssprint_r+0x128>
   13088:	00070413          	mv	s0,a4
   1308c:	f0e97ae3          	bgeu	s2,a4,12fa0 <__ssprint_r+0x58>
   13090:	00090b13          	mv	s6,s2
   13094:	00090413          	mv	s0,s2
   13098:	fa5ff06f          	j	1303c <__ssprint_r+0xf4>
   1309c:	000a8513          	mv	a0,s5
   130a0:	a75fa0ef          	jal	db14 <_realloc_r>
   130a4:	00050c13          	mv	s8,a0
   130a8:	f6051ae3          	bnez	a0,1301c <__ssprint_r+0xd4>
   130ac:	0104a583          	lw	a1,16(s1)
   130b0:	000a8513          	mv	a0,s5
   130b4:	badf50ef          	jal	8c60 <_free_r>
   130b8:	00c4d783          	lhu	a5,12(s1)
   130bc:	00c00713          	li	a4,12
   130c0:	00eaa023          	sw	a4,0(s5)
   130c4:	0407e793          	or	a5,a5,64
   130c8:	00f49623          	sh	a5,12(s1)
   130cc:	000a2423          	sw	zero,8(s4)
   130d0:	fff00513          	li	a0,-1
   130d4:	0080006f          	j	130dc <__ssprint_r+0x194>
   130d8:	00000513          	li	a0,0
   130dc:	02c12083          	lw	ra,44(sp)
   130e0:	02812403          	lw	s0,40(sp)
   130e4:	000a2223          	sw	zero,4(s4)
   130e8:	02412483          	lw	s1,36(sp)
   130ec:	02012903          	lw	s2,32(sp)
   130f0:	01c12983          	lw	s3,28(sp)
   130f4:	01812a03          	lw	s4,24(sp)
   130f8:	01412a83          	lw	s5,20(sp)
   130fc:	01012b03          	lw	s6,16(sp)
   13100:	00c12b83          	lw	s7,12(sp)
   13104:	00812c03          	lw	s8,8(sp)
   13108:	03010113          	add	sp,sp,48
   1310c:	00008067          	ret

00013110 <_svfiprintf_r>:
   13110:	00c5d783          	lhu	a5,12(a1)
   13114:	ed010113          	add	sp,sp,-304
   13118:	11312e23          	sw	s3,284(sp)
   1311c:	11612823          	sw	s6,272(sp)
   13120:	11712623          	sw	s7,268(sp)
   13124:	11912223          	sw	s9,260(sp)
   13128:	12112623          	sw	ra,300(sp)
   1312c:	12812423          	sw	s0,296(sp)
   13130:	12912223          	sw	s1,292(sp)
   13134:	13212023          	sw	s2,288(sp)
   13138:	11412c23          	sw	s4,280(sp)
   1313c:	11512a23          	sw	s5,276(sp)
   13140:	11812423          	sw	s8,264(sp)
   13144:	11a12023          	sw	s10,256(sp)
   13148:	0fb12e23          	sw	s11,252(sp)
   1314c:	0807f793          	and	a5,a5,128
   13150:	00058b93          	mv	s7,a1
   13154:	00050c93          	mv	s9,a0
   13158:	00060993          	mv	s3,a2
   1315c:	00068b13          	mv	s6,a3
   13160:	00078663          	beqz	a5,1316c <_svfiprintf_r+0x5c>
   13164:	0105a783          	lw	a5,16(a1)
   13168:	6c078ee3          	beqz	a5,14044 <_svfiprintf_r+0xf34>
   1316c:	000167b7          	lui	a5,0x16
   13170:	04c10c13          	add	s8,sp,76
   13174:	00000d93          	li	s11,0
   13178:	9b878793          	add	a5,a5,-1608 # 159b8 <blanks.1+0x60>
   1317c:	00016d37          	lui	s10,0x16
   13180:	01912223          	sw	s9,4(sp)
   13184:	05812023          	sw	s8,64(sp)
   13188:	04012423          	sw	zero,72(sp)
   1318c:	04012223          	sw	zero,68(sp)
   13190:	00000493          	li	s1,0
   13194:	000c0413          	mv	s0,s8
   13198:	00012623          	sw	zero,12(sp)
   1319c:	00012c23          	sw	zero,24(sp)
   131a0:	00012e23          	sw	zero,28(sp)
   131a4:	02012023          	sw	zero,32(sp)
   131a8:	00f12423          	sw	a5,8(sp)
   131ac:	01000a93          	li	s5,16
   131b0:	b24d0d13          	add	s10,s10,-1244 # 15b24 <zeroes.0>
   131b4:	000d8c93          	mv	s9,s11
   131b8:	000b0813          	mv	a6,s6
   131bc:	0009c783          	lbu	a5,0(s3)
   131c0:	1c078863          	beqz	a5,13390 <_svfiprintf_r+0x280>
   131c4:	00098913          	mv	s2,s3
   131c8:	02500713          	li	a4,37
   131cc:	26e78263          	beq	a5,a4,13430 <_svfiprintf_r+0x320>
   131d0:	00194783          	lbu	a5,1(s2)
   131d4:	00190913          	add	s2,s2,1
   131d8:	fe079ae3          	bnez	a5,131cc <_svfiprintf_r+0xbc>
   131dc:	41390a33          	sub	s4,s2,s3
   131e0:	1b390863          	beq	s2,s3,13390 <_svfiprintf_r+0x280>
   131e4:	04412783          	lw	a5,68(sp)
   131e8:	014484b3          	add	s1,s1,s4
   131ec:	01342023          	sw	s3,0(s0)
   131f0:	00178793          	add	a5,a5,1
   131f4:	01442223          	sw	s4,4(s0)
   131f8:	04912423          	sw	s1,72(sp)
   131fc:	04f12223          	sw	a5,68(sp)
   13200:	00700713          	li	a4,7
   13204:	00840413          	add	s0,s0,8
   13208:	22f74c63          	blt	a4,a5,13440 <_svfiprintf_r+0x330>
   1320c:	00094783          	lbu	a5,0(s2)
   13210:	014c8cb3          	add	s9,s9,s4
   13214:	16078e63          	beqz	a5,13390 <_svfiprintf_r+0x280>
   13218:	00194783          	lbu	a5,1(s2)
   1321c:	00190993          	add	s3,s2,1
   13220:	02010da3          	sb	zero,59(sp)
   13224:	fff00913          	li	s2,-1
   13228:	00000b13          	li	s6,0
   1322c:	00000d93          	li	s11,0
   13230:	05a00a13          	li	s4,90
   13234:	00198993          	add	s3,s3,1
   13238:	00078693          	mv	a3,a5
   1323c:	fe068713          	add	a4,a3,-32 # 1fe0 <__multf3+0x880>
   13240:	04ea6663          	bltu	s4,a4,1328c <_svfiprintf_r+0x17c>
   13244:	00812783          	lw	a5,8(sp)
   13248:	00271713          	sll	a4,a4,0x2
   1324c:	00f70733          	add	a4,a4,a5
   13250:	00072783          	lw	a5,0(a4)
   13254:	00078067          	jr	a5
   13258:	00000b13          	li	s6,0
   1325c:	fd068793          	add	a5,a3,-48
   13260:	00900613          	li	a2,9
   13264:	0009c683          	lbu	a3,0(s3)
   13268:	002b1713          	sll	a4,s6,0x2
   1326c:	01670b33          	add	s6,a4,s6
   13270:	001b1b13          	sll	s6,s6,0x1
   13274:	01678b33          	add	s6,a5,s6
   13278:	fd068793          	add	a5,a3,-48
   1327c:	00198993          	add	s3,s3,1
   13280:	fef672e3          	bgeu	a2,a5,13264 <_svfiprintf_r+0x154>
   13284:	fe068713          	add	a4,a3,-32
   13288:	faea7ee3          	bgeu	s4,a4,13244 <_svfiprintf_r+0x134>
   1328c:	10068263          	beqz	a3,13390 <_svfiprintf_r+0x280>
   13290:	08d10623          	sb	a3,140(sp)
   13294:	02010da3          	sb	zero,59(sp)
   13298:	00100693          	li	a3,1
   1329c:	00100e93          	li	t4,1
   132a0:	08c10a13          	add	s4,sp,140
   132a4:	00000913          	li	s2,0
   132a8:	002dff93          	and	t6,s11,2
   132ac:	000f8463          	beqz	t6,132b4 <_svfiprintf_r+0x1a4>
   132b0:	00268693          	add	a3,a3,2
   132b4:	084dff13          	and	t5,s11,132
   132b8:	04412783          	lw	a5,68(sp)
   132bc:	000f1663          	bnez	t5,132c8 <_svfiprintf_r+0x1b8>
   132c0:	40db0733          	sub	a4,s6,a3
   132c4:	2ce040e3          	bgtz	a4,13d84 <_svfiprintf_r+0xc74>
   132c8:	03b14703          	lbu	a4,59(sp)
   132cc:	02070863          	beqz	a4,132fc <_svfiprintf_r+0x1ec>
   132d0:	03b10713          	add	a4,sp,59
   132d4:	00e42023          	sw	a4,0(s0)
   132d8:	00178793          	add	a5,a5,1
   132dc:	00100713          	li	a4,1
   132e0:	00148493          	add	s1,s1,1
   132e4:	00e42223          	sw	a4,4(s0)
   132e8:	04912423          	sw	s1,72(sp)
   132ec:	04f12223          	sw	a5,68(sp)
   132f0:	00700713          	li	a4,7
   132f4:	00840413          	add	s0,s0,8
   132f8:	1cf74063          	blt	a4,a5,134b8 <_svfiprintf_r+0x3a8>
   132fc:	020f8863          	beqz	t6,1332c <_svfiprintf_r+0x21c>
   13300:	03c10713          	add	a4,sp,60
   13304:	00e42023          	sw	a4,0(s0)
   13308:	00178793          	add	a5,a5,1
   1330c:	00200713          	li	a4,2
   13310:	00248493          	add	s1,s1,2
   13314:	00e42223          	sw	a4,4(s0)
   13318:	04912423          	sw	s1,72(sp)
   1331c:	04f12223          	sw	a5,68(sp)
   13320:	00700713          	li	a4,7
   13324:	00840413          	add	s0,s0,8
   13328:	38f744e3          	blt	a4,a5,13eb0 <_svfiprintf_r+0xda0>
   1332c:	08000713          	li	a4,128
   13330:	68ef0263          	beq	t5,a4,139b4 <_svfiprintf_r+0x8a4>
   13334:	41d90933          	sub	s2,s2,t4
   13338:	79204a63          	bgtz	s2,13acc <_svfiprintf_r+0x9bc>
   1333c:	01d484b3          	add	s1,s1,t4
   13340:	00178793          	add	a5,a5,1
   13344:	01442023          	sw	s4,0(s0)
   13348:	01d42223          	sw	t4,4(s0)
   1334c:	04912423          	sw	s1,72(sp)
   13350:	04f12223          	sw	a5,68(sp)
   13354:	00700713          	li	a4,7
   13358:	00840413          	add	s0,s0,8
   1335c:	06f748e3          	blt	a4,a5,13bcc <_svfiprintf_r+0xabc>
   13360:	004dfd93          	and	s11,s11,4
   13364:	000d8663          	beqz	s11,13370 <_svfiprintf_r+0x260>
   13368:	40db0933          	sub	s2,s6,a3
   1336c:	19204c63          	bgtz	s2,13504 <_svfiprintf_r+0x3f4>
   13370:	00db5463          	bge	s6,a3,13378 <_svfiprintf_r+0x268>
   13374:	00068b13          	mv	s6,a3
   13378:	016c8cb3          	add	s9,s9,s6
   1337c:	080490e3          	bnez	s1,13bfc <_svfiprintf_r+0xaec>
   13380:	0009c783          	lbu	a5,0(s3)
   13384:	04012223          	sw	zero,68(sp)
   13388:	000c0413          	mv	s0,s8
   1338c:	e2079ce3          	bnez	a5,131c4 <_svfiprintf_r+0xb4>
   13390:	000c8d93          	mv	s11,s9
   13394:	00412c83          	lw	s9,4(sp)
   13398:	0c048a63          	beqz	s1,1346c <_svfiprintf_r+0x35c>
   1339c:	04010613          	add	a2,sp,64
   133a0:	000b8593          	mv	a1,s7
   133a4:	000c8513          	mv	a0,s9
   133a8:	ba1ff0ef          	jal	12f48 <__ssprint_r>
   133ac:	0c00006f          	j	1346c <_svfiprintf_r+0x35c>
   133b0:	00082b03          	lw	s6,0(a6)
   133b4:	00480813          	add	a6,a6,4
   133b8:	060b4463          	bltz	s6,13420 <_svfiprintf_r+0x310>
   133bc:	0009c783          	lbu	a5,0(s3)
   133c0:	e75ff06f          	j	13234 <_svfiprintf_r+0x124>
   133c4:	0009c783          	lbu	a5,0(s3)
   133c8:	020ded93          	or	s11,s11,32
   133cc:	e69ff06f          	j	13234 <_svfiprintf_r+0x124>
   133d0:	010ded93          	or	s11,s11,16
   133d4:	020df793          	and	a5,s11,32
   133d8:	20078c63          	beqz	a5,135f0 <_svfiprintf_r+0x4e0>
   133dc:	00780813          	add	a6,a6,7
   133e0:	ff887813          	and	a6,a6,-8
   133e4:	00482703          	lw	a4,4(a6)
   133e8:	00082783          	lw	a5,0(a6)
   133ec:	00880813          	add	a6,a6,8
   133f0:	00070893          	mv	a7,a4
   133f4:	22074463          	bltz	a4,1361c <_svfiprintf_r+0x50c>
   133f8:	fff00713          	li	a4,-1
   133fc:	24e90263          	beq	s2,a4,13640 <_svfiprintf_r+0x530>
   13400:	0117e733          	or	a4,a5,a7
   13404:	f7fdfd93          	and	s11,s11,-129
   13408:	22071c63          	bnez	a4,13640 <_svfiprintf_r+0x530>
   1340c:	5e0918e3          	bnez	s2,141fc <_svfiprintf_r+0x10ec>
   13410:	00000693          	li	a3,0
   13414:	00000e93          	li	t4,0
   13418:	0f010a13          	add	s4,sp,240
   1341c:	3400006f          	j	1375c <_svfiprintf_r+0x64c>
   13420:	41600b33          	neg	s6,s6
   13424:	0009c783          	lbu	a5,0(s3)
   13428:	004ded93          	or	s11,s11,4
   1342c:	e09ff06f          	j	13234 <_svfiprintf_r+0x124>
   13430:	41390a33          	sub	s4,s2,s3
   13434:	db3918e3          	bne	s2,s3,131e4 <_svfiprintf_r+0xd4>
   13438:	00094783          	lbu	a5,0(s2)
   1343c:	dd9ff06f          	j	13214 <_svfiprintf_r+0x104>
   13440:	00412503          	lw	a0,4(sp)
   13444:	04010613          	add	a2,sp,64
   13448:	000b8593          	mv	a1,s7
   1344c:	01012823          	sw	a6,16(sp)
   13450:	af9ff0ef          	jal	12f48 <__ssprint_r>
   13454:	00051a63          	bnez	a0,13468 <_svfiprintf_r+0x358>
   13458:	04812483          	lw	s1,72(sp)
   1345c:	01012803          	lw	a6,16(sp)
   13460:	000c0413          	mv	s0,s8
   13464:	da9ff06f          	j	1320c <_svfiprintf_r+0xfc>
   13468:	000c8d93          	mv	s11,s9
   1346c:	00cbd783          	lhu	a5,12(s7)
   13470:	0407f793          	and	a5,a5,64
   13474:	5a0794e3          	bnez	a5,1421c <_svfiprintf_r+0x110c>
   13478:	12c12083          	lw	ra,300(sp)
   1347c:	12812403          	lw	s0,296(sp)
   13480:	12412483          	lw	s1,292(sp)
   13484:	12012903          	lw	s2,288(sp)
   13488:	11c12983          	lw	s3,284(sp)
   1348c:	11812a03          	lw	s4,280(sp)
   13490:	11412a83          	lw	s5,276(sp)
   13494:	11012b03          	lw	s6,272(sp)
   13498:	10c12b83          	lw	s7,268(sp)
   1349c:	10812c03          	lw	s8,264(sp)
   134a0:	10412c83          	lw	s9,260(sp)
   134a4:	10012d03          	lw	s10,256(sp)
   134a8:	000d8513          	mv	a0,s11
   134ac:	0fc12d83          	lw	s11,252(sp)
   134b0:	13010113          	add	sp,sp,304
   134b4:	00008067          	ret
   134b8:	00412503          	lw	a0,4(sp)
   134bc:	04010613          	add	a2,sp,64
   134c0:	000b8593          	mv	a1,s7
   134c4:	03012623          	sw	a6,44(sp)
   134c8:	03d12423          	sw	t4,40(sp)
   134cc:	02d12223          	sw	a3,36(sp)
   134d0:	01e12a23          	sw	t5,20(sp)
   134d4:	01f12823          	sw	t6,16(sp)
   134d8:	a71ff0ef          	jal	12f48 <__ssprint_r>
   134dc:	f80516e3          	bnez	a0,13468 <_svfiprintf_r+0x358>
   134e0:	04812483          	lw	s1,72(sp)
   134e4:	04412783          	lw	a5,68(sp)
   134e8:	02c12803          	lw	a6,44(sp)
   134ec:	02812e83          	lw	t4,40(sp)
   134f0:	02412683          	lw	a3,36(sp)
   134f4:	01412f03          	lw	t5,20(sp)
   134f8:	01012f83          	lw	t6,16(sp)
   134fc:	000c0413          	mv	s0,s8
   13500:	dfdff06f          	j	132fc <_svfiprintf_r+0x1ec>
   13504:	00016e37          	lui	t3,0x16
   13508:	01000713          	li	a4,16
   1350c:	04412783          	lw	a5,68(sp)
   13510:	b34e0e13          	add	t3,t3,-1228 # 15b34 <blanks.1>
   13514:	09275863          	bge	a4,s2,135a4 <_svfiprintf_r+0x494>
   13518:	00d12823          	sw	a3,16(sp)
   1351c:	00040713          	mv	a4,s0
   13520:	00048693          	mv	a3,s1
   13524:	00090413          	mv	s0,s2
   13528:	01000a13          	li	s4,16
   1352c:	00700d93          	li	s11,7
   13530:	00080913          	mv	s2,a6
   13534:	000e0493          	mv	s1,t3
   13538:	00c0006f          	j	13544 <_svfiprintf_r+0x434>
   1353c:	ff040413          	add	s0,s0,-16
   13540:	048a5663          	bge	s4,s0,1358c <_svfiprintf_r+0x47c>
   13544:	01068693          	add	a3,a3,16
   13548:	00178793          	add	a5,a5,1
   1354c:	00972023          	sw	s1,0(a4)
   13550:	01472223          	sw	s4,4(a4)
   13554:	04d12423          	sw	a3,72(sp)
   13558:	04f12223          	sw	a5,68(sp)
   1355c:	00870713          	add	a4,a4,8
   13560:	fcfddee3          	bge	s11,a5,1353c <_svfiprintf_r+0x42c>
   13564:	00412503          	lw	a0,4(sp)
   13568:	04010613          	add	a2,sp,64
   1356c:	000b8593          	mv	a1,s7
   13570:	9d9ff0ef          	jal	12f48 <__ssprint_r>
   13574:	ee051ae3          	bnez	a0,13468 <_svfiprintf_r+0x358>
   13578:	ff040413          	add	s0,s0,-16
   1357c:	04812683          	lw	a3,72(sp)
   13580:	04412783          	lw	a5,68(sp)
   13584:	000c0713          	mv	a4,s8
   13588:	fa8a4ee3          	blt	s4,s0,13544 <_svfiprintf_r+0x434>
   1358c:	00048e13          	mv	t3,s1
   13590:	00068493          	mv	s1,a3
   13594:	01012683          	lw	a3,16(sp)
   13598:	00090813          	mv	a6,s2
   1359c:	00040913          	mv	s2,s0
   135a0:	00070413          	mv	s0,a4
   135a4:	012484b3          	add	s1,s1,s2
   135a8:	00178793          	add	a5,a5,1
   135ac:	01c42023          	sw	t3,0(s0)
   135b0:	01242223          	sw	s2,4(s0)
   135b4:	04912423          	sw	s1,72(sp)
   135b8:	04f12223          	sw	a5,68(sp)
   135bc:	00700713          	li	a4,7
   135c0:	daf758e3          	bge	a4,a5,13370 <_svfiprintf_r+0x260>
   135c4:	00412503          	lw	a0,4(sp)
   135c8:	04010613          	add	a2,sp,64
   135cc:	000b8593          	mv	a1,s7
   135d0:	01012a23          	sw	a6,20(sp)
   135d4:	00d12823          	sw	a3,16(sp)
   135d8:	971ff0ef          	jal	12f48 <__ssprint_r>
   135dc:	e80516e3          	bnez	a0,13468 <_svfiprintf_r+0x358>
   135e0:	04812483          	lw	s1,72(sp)
   135e4:	01412803          	lw	a6,20(sp)
   135e8:	01012683          	lw	a3,16(sp)
   135ec:	d85ff06f          	j	13370 <_svfiprintf_r+0x260>
   135f0:	010df713          	and	a4,s11,16
   135f4:	00082783          	lw	a5,0(a6)
   135f8:	00480813          	add	a6,a6,4
   135fc:	0e071463          	bnez	a4,136e4 <_svfiprintf_r+0x5d4>
   13600:	040df713          	and	a4,s11,64
   13604:	0c070c63          	beqz	a4,136dc <_svfiprintf_r+0x5cc>
   13608:	01079793          	sll	a5,a5,0x10
   1360c:	4107d793          	sra	a5,a5,0x10
   13610:	41f7d893          	sra	a7,a5,0x1f
   13614:	00088713          	mv	a4,a7
   13618:	de0750e3          	bgez	a4,133f8 <_svfiprintf_r+0x2e8>
   1361c:	02d00693          	li	a3,45
   13620:	00f03733          	snez	a4,a5
   13624:	411008b3          	neg	a7,a7
   13628:	02d10da3          	sb	a3,59(sp)
   1362c:	fff00693          	li	a3,-1
   13630:	40e888b3          	sub	a7,a7,a4
   13634:	40f007b3          	neg	a5,a5
   13638:	00d90463          	beq	s2,a3,13640 <_svfiprintf_r+0x530>
   1363c:	f7fdfd93          	and	s11,s11,-129
   13640:	62089c63          	bnez	a7,13c78 <_svfiprintf_r+0xb68>
   13644:	00900713          	li	a4,9
   13648:	62f76863          	bltu	a4,a5,13c78 <_svfiprintf_r+0xb68>
   1364c:	03078793          	add	a5,a5,48
   13650:	0ff7f793          	zext.b	a5,a5
   13654:	0ef107a3          	sb	a5,239(sp)
   13658:	00090693          	mv	a3,s2
   1365c:	01204463          	bgtz	s2,13664 <_svfiprintf_r+0x554>
   13660:	00100693          	li	a3,1
   13664:	00100e93          	li	t4,1
   13668:	0ef10a13          	add	s4,sp,239
   1366c:	0f00006f          	j	1375c <_svfiprintf_r+0x64c>
   13670:	00082a03          	lw	s4,0(a6)
   13674:	02010da3          	sb	zero,59(sp)
   13678:	00480813          	add	a6,a6,4
   1367c:	2e0a0ce3          	beqz	s4,14174 <_svfiprintf_r+0x1064>
   13680:	fff00793          	li	a5,-1
   13684:	01012823          	sw	a6,16(sp)
   13688:	18f90ce3          	beq	s2,a5,14020 <_svfiprintf_r+0xf10>
   1368c:	00090613          	mv	a2,s2
   13690:	00000593          	li	a1,0
   13694:	000a0513          	mv	a0,s4
   13698:	dbdf80ef          	jal	c454 <memchr>
   1369c:	01012803          	lw	a6,16(sp)
   136a0:	360502e3          	beqz	a0,14204 <_svfiprintf_r+0x10f4>
   136a4:	41450eb3          	sub	t4,a0,s4
   136a8:	fffec693          	not	a3,t4
   136ac:	41f6d693          	sra	a3,a3,0x1f
   136b0:	00def6b3          	and	a3,t4,a3
   136b4:	00000913          	li	s2,0
   136b8:	0a40006f          	j	1375c <_svfiprintf_r+0x64c>
   136bc:	00082783          	lw	a5,0(a6)
   136c0:	02010da3          	sb	zero,59(sp)
   136c4:	00480813          	add	a6,a6,4
   136c8:	08f10623          	sb	a5,140(sp)
   136cc:	00100693          	li	a3,1
   136d0:	00100e93          	li	t4,1
   136d4:	08c10a13          	add	s4,sp,140
   136d8:	bcdff06f          	j	132a4 <_svfiprintf_r+0x194>
   136dc:	200df713          	and	a4,s11,512
   136e0:	300714e3          	bnez	a4,141e8 <_svfiprintf_r+0x10d8>
   136e4:	41f7d893          	sra	a7,a5,0x1f
   136e8:	00088713          	mv	a4,a7
   136ec:	d09ff06f          	j	133f4 <_svfiprintf_r+0x2e4>
   136f0:	ffff8737          	lui	a4,0xffff8
   136f4:	83074713          	xor	a4,a4,-2000
   136f8:	02e11e23          	sh	a4,60(sp)
   136fc:	00015737          	lui	a4,0x15
   13700:	f1070713          	add	a4,a4,-240 # 14f10 <_getpid_r+0x5f4>
   13704:	00082783          	lw	a5,0(a6)
   13708:	00000613          	li	a2,0
   1370c:	002ded93          	or	s11,s11,2
   13710:	00480813          	add	a6,a6,4
   13714:	00e12623          	sw	a4,12(sp)
   13718:	02010da3          	sb	zero,59(sp)
   1371c:	fff00713          	li	a4,-1
   13720:	50e90663          	beq	s2,a4,13c2c <_svfiprintf_r+0xb1c>
   13724:	00c7e733          	or	a4,a5,a2
   13728:	f7fdf693          	and	a3,s11,-129
   1372c:	4e071a63          	bnez	a4,13c20 <_svfiprintf_r+0xb10>
   13730:	000d8e93          	mv	t4,s11
   13734:	00200793          	li	a5,2
   13738:	00068d93          	mv	s11,a3
   1373c:	06091a63          	bnez	s2,137b0 <_svfiprintf_r+0x6a0>
   13740:	cc0798e3          	bnez	a5,13410 <_svfiprintf_r+0x300>
   13744:	001efe93          	and	t4,t4,1
   13748:	000e86e3          	beqz	t4,13f54 <_svfiprintf_r+0xe44>
   1374c:	03000793          	li	a5,48
   13750:	0ef107a3          	sb	a5,239(sp)
   13754:	000e8693          	mv	a3,t4
   13758:	0ef10a13          	add	s4,sp,239
   1375c:	03b14783          	lbu	a5,59(sp)
   13760:	00f037b3          	snez	a5,a5
   13764:	00f686b3          	add	a3,a3,a5
   13768:	b41ff06f          	j	132a8 <_svfiprintf_r+0x198>
   1376c:	010dee93          	or	t4,s11,16
   13770:	020ef793          	and	a5,t4,32
   13774:	7a078c63          	beqz	a5,13f2c <_svfiprintf_r+0xe1c>
   13778:	00780813          	add	a6,a6,7
   1377c:	ff887813          	and	a6,a6,-8
   13780:	00082783          	lw	a5,0(a6)
   13784:	00482883          	lw	a7,4(a6)
   13788:	00880813          	add	a6,a6,8
   1378c:	02010da3          	sb	zero,59(sp)
   13790:	fff00713          	li	a4,-1
   13794:	000e8d93          	mv	s11,t4
   13798:	eae904e3          	beq	s2,a4,13640 <_svfiprintf_r+0x530>
   1379c:	0117e733          	or	a4,a5,a7
   137a0:	f7fefd93          	and	s11,t4,-129
   137a4:	e8071ee3          	bnez	a4,13640 <_svfiprintf_r+0x530>
   137a8:	00100793          	li	a5,1
   137ac:	f8090ae3          	beqz	s2,13740 <_svfiprintf_r+0x630>
   137b0:	00100713          	li	a4,1
   137b4:	24e784e3          	beq	a5,a4,141fc <_svfiprintf_r+0x10ec>
   137b8:	00200713          	li	a4,2
   137bc:	1ce78ce3          	beq	a5,a4,14194 <_svfiprintf_r+0x1084>
   137c0:	00000793          	li	a5,0
   137c4:	00000613          	li	a2,0
   137c8:	0f010a13          	add	s4,sp,240
   137cc:	01d61693          	sll	a3,a2,0x1d
   137d0:	0077f713          	and	a4,a5,7
   137d4:	0037d793          	srl	a5,a5,0x3
   137d8:	03070713          	add	a4,a4,48
   137dc:	00f6e7b3          	or	a5,a3,a5
   137e0:	00365613          	srl	a2,a2,0x3
   137e4:	feea0fa3          	sb	a4,-1(s4)
   137e8:	00c7e6b3          	or	a3,a5,a2
   137ec:	000a0593          	mv	a1,s4
   137f0:	fffa0a13          	add	s4,s4,-1
   137f4:	fc069ce3          	bnez	a3,137cc <_svfiprintf_r+0x6bc>
   137f8:	001df793          	and	a5,s11,1
   137fc:	56078863          	beqz	a5,13d6c <_svfiprintf_r+0xc5c>
   13800:	03000793          	li	a5,48
   13804:	56f70463          	beq	a4,a5,13d6c <_svfiprintf_r+0xc5c>
   13808:	ffe58593          	add	a1,a1,-2
   1380c:	0f010713          	add	a4,sp,240
   13810:	40b70eb3          	sub	t4,a4,a1
   13814:	fefa0fa3          	sb	a5,-1(s4)
   13818:	000e8693          	mv	a3,t4
   1381c:	752ece63          	blt	t4,s2,13f78 <_svfiprintf_r+0xe68>
   13820:	00058a13          	mv	s4,a1
   13824:	f39ff06f          	j	1375c <_svfiprintf_r+0x64c>
   13828:	0009c783          	lbu	a5,0(s3)
   1382c:	080ded93          	or	s11,s11,128
   13830:	a05ff06f          	j	13234 <_svfiprintf_r+0x124>
   13834:	020df793          	and	a5,s11,32
   13838:	72079463          	bnez	a5,13f60 <_svfiprintf_r+0xe50>
   1383c:	010df793          	and	a5,s11,16
   13840:	120792e3          	bnez	a5,14164 <_svfiprintf_r+0x1054>
   13844:	040df793          	and	a5,s11,64
   13848:	16079ce3          	bnez	a5,141c0 <_svfiprintf_r+0x10b0>
   1384c:	200dfd93          	and	s11,s11,512
   13850:	100d8ae3          	beqz	s11,14164 <_svfiprintf_r+0x1054>
   13854:	00082783          	lw	a5,0(a6)
   13858:	00480813          	add	a6,a6,4
   1385c:	01978023          	sb	s9,0(a5)
   13860:	95dff06f          	j	131bc <_svfiprintf_r+0xac>
   13864:	0009c783          	lbu	a5,0(s3)
   13868:	06c00713          	li	a4,108
   1386c:	0ee784e3          	beq	a5,a4,14154 <_svfiprintf_r+0x1044>
   13870:	010ded93          	or	s11,s11,16
   13874:	9c1ff06f          	j	13234 <_svfiprintf_r+0x124>
   13878:	0009c783          	lbu	a5,0(s3)
   1387c:	06800713          	li	a4,104
   13880:	0ce782e3          	beq	a5,a4,14144 <_svfiprintf_r+0x1034>
   13884:	040ded93          	or	s11,s11,64
   13888:	9adff06f          	j	13234 <_svfiprintf_r+0x124>
   1388c:	010de713          	or	a4,s11,16
   13890:	02077793          	and	a5,a4,32
   13894:	66078063          	beqz	a5,13ef4 <_svfiprintf_r+0xde4>
   13898:	00780813          	add	a6,a6,7
   1389c:	ff887813          	and	a6,a6,-8
   138a0:	00082783          	lw	a5,0(a6)
   138a4:	00482603          	lw	a2,4(a6)
   138a8:	00880813          	add	a6,a6,8
   138ac:	02010da3          	sb	zero,59(sp)
   138b0:	fff00693          	li	a3,-1
   138b4:	bff77d93          	and	s11,a4,-1025
   138b8:	f0d908e3          	beq	s2,a3,137c8 <_svfiprintf_r+0x6b8>
   138bc:	00c7e6b3          	or	a3,a5,a2
   138c0:	b7f77713          	and	a4,a4,-1153
   138c4:	060698e3          	bnez	a3,14134 <_svfiprintf_r+0x1024>
   138c8:	000d8e93          	mv	t4,s11
   138cc:	00000793          	li	a5,0
   138d0:	00070d93          	mv	s11,a4
   138d4:	e69ff06f          	j	1373c <_svfiprintf_r+0x62c>
   138d8:	00412503          	lw	a0,4(sp)
   138dc:	01012823          	sw	a6,16(sp)
   138e0:	8f5f80ef          	jal	c1d4 <_localeconv_r>
   138e4:	00452783          	lw	a5,4(a0)
   138e8:	00078513          	mv	a0,a5
   138ec:	02f12023          	sw	a5,32(sp)
   138f0:	dc9f10ef          	jal	56b8 <strlen>
   138f4:	00050793          	mv	a5,a0
   138f8:	00412503          	lw	a0,4(sp)
   138fc:	00f12e23          	sw	a5,28(sp)
   13900:	8d5f80ef          	jal	c1d4 <_localeconv_r>
   13904:	00852703          	lw	a4,8(a0)
   13908:	01c12783          	lw	a5,28(sp)
   1390c:	01012803          	lw	a6,16(sp)
   13910:	00e12c23          	sw	a4,24(sp)
   13914:	aa0784e3          	beqz	a5,133bc <_svfiprintf_r+0x2ac>
   13918:	01812703          	lw	a4,24(sp)
   1391c:	0009c783          	lbu	a5,0(s3)
   13920:	90070ae3          	beqz	a4,13234 <_svfiprintf_r+0x124>
   13924:	00074703          	lbu	a4,0(a4)
   13928:	900706e3          	beqz	a4,13234 <_svfiprintf_r+0x124>
   1392c:	400ded93          	or	s11,s11,1024
   13930:	905ff06f          	j	13234 <_svfiprintf_r+0x124>
   13934:	0009c783          	lbu	a5,0(s3)
   13938:	001ded93          	or	s11,s11,1
   1393c:	8f9ff06f          	j	13234 <_svfiprintf_r+0x124>
   13940:	03b14703          	lbu	a4,59(sp)
   13944:	0009c783          	lbu	a5,0(s3)
   13948:	8e0716e3          	bnez	a4,13234 <_svfiprintf_r+0x124>
   1394c:	02000713          	li	a4,32
   13950:	02e10da3          	sb	a4,59(sp)
   13954:	8e1ff06f          	j	13234 <_svfiprintf_r+0x124>
   13958:	0009c683          	lbu	a3,0(s3)
   1395c:	02a00793          	li	a5,42
   13960:	00198713          	add	a4,s3,1
   13964:	0cf680e3          	beq	a3,a5,14224 <_svfiprintf_r+0x1114>
   13968:	fd068793          	add	a5,a3,-48
   1396c:	00900593          	li	a1,9
   13970:	00070993          	mv	s3,a4
   13974:	00000913          	li	s2,0
   13978:	00900613          	li	a2,9
   1397c:	8cf5e0e3          	bltu	a1,a5,1323c <_svfiprintf_r+0x12c>
   13980:	0009c683          	lbu	a3,0(s3)
   13984:	00291713          	sll	a4,s2,0x2
   13988:	01270933          	add	s2,a4,s2
   1398c:	00191913          	sll	s2,s2,0x1
   13990:	00f90933          	add	s2,s2,a5
   13994:	fd068793          	add	a5,a3,-48
   13998:	00198993          	add	s3,s3,1
   1399c:	fef672e3          	bgeu	a2,a5,13980 <_svfiprintf_r+0x870>
   139a0:	89dff06f          	j	1323c <_svfiprintf_r+0x12c>
   139a4:	02b00713          	li	a4,43
   139a8:	0009c783          	lbu	a5,0(s3)
   139ac:	02e10da3          	sb	a4,59(sp)
   139b0:	885ff06f          	j	13234 <_svfiprintf_r+0x124>
   139b4:	40db0733          	sub	a4,s6,a3
   139b8:	96e05ee3          	blez	a4,13334 <_svfiprintf_r+0x224>
   139bc:	00016e37          	lui	t3,0x16
   139c0:	01000613          	li	a2,16
   139c4:	b24e0e13          	add	t3,t3,-1244 # 15b24 <zeroes.0>
   139c8:	0ae65063          	bge	a2,a4,13a68 <_svfiprintf_r+0x958>
   139cc:	00d12823          	sw	a3,16(sp)
   139d0:	00048613          	mv	a2,s1
   139d4:	00040693          	mv	a3,s0
   139d8:	01000893          	li	a7,16
   139dc:	00700f13          	li	t5,7
   139e0:	01d12a23          	sw	t4,20(sp)
   139e4:	00070413          	mv	s0,a4
   139e8:	03012223          	sw	a6,36(sp)
   139ec:	000e0493          	mv	s1,t3
   139f0:	00c0006f          	j	139fc <_svfiprintf_r+0x8ec>
   139f4:	ff040413          	add	s0,s0,-16
   139f8:	0488da63          	bge	a7,s0,13a4c <_svfiprintf_r+0x93c>
   139fc:	01060613          	add	a2,a2,16
   13a00:	00178793          	add	a5,a5,1
   13a04:	0096a023          	sw	s1,0(a3)
   13a08:	0116a223          	sw	a7,4(a3)
   13a0c:	04c12423          	sw	a2,72(sp)
   13a10:	04f12223          	sw	a5,68(sp)
   13a14:	00868693          	add	a3,a3,8
   13a18:	fcff5ee3          	bge	t5,a5,139f4 <_svfiprintf_r+0x8e4>
   13a1c:	00412503          	lw	a0,4(sp)
   13a20:	04010613          	add	a2,sp,64
   13a24:	000b8593          	mv	a1,s7
   13a28:	d20ff0ef          	jal	12f48 <__ssprint_r>
   13a2c:	a2051ee3          	bnez	a0,13468 <_svfiprintf_r+0x358>
   13a30:	01000893          	li	a7,16
   13a34:	ff040413          	add	s0,s0,-16
   13a38:	04812603          	lw	a2,72(sp)
   13a3c:	04412783          	lw	a5,68(sp)
   13a40:	000c0693          	mv	a3,s8
   13a44:	00700f13          	li	t5,7
   13a48:	fa88cae3          	blt	a7,s0,139fc <_svfiprintf_r+0x8ec>
   13a4c:	00040713          	mv	a4,s0
   13a50:	01412e83          	lw	t4,20(sp)
   13a54:	00068413          	mv	s0,a3
   13a58:	02412803          	lw	a6,36(sp)
   13a5c:	01012683          	lw	a3,16(sp)
   13a60:	00048e13          	mv	t3,s1
   13a64:	00060493          	mv	s1,a2
   13a68:	00e484b3          	add	s1,s1,a4
   13a6c:	00178793          	add	a5,a5,1
   13a70:	00e42223          	sw	a4,4(s0)
   13a74:	01c42023          	sw	t3,0(s0)
   13a78:	04912423          	sw	s1,72(sp)
   13a7c:	04f12223          	sw	a5,68(sp)
   13a80:	00700713          	li	a4,7
   13a84:	00840413          	add	s0,s0,8
   13a88:	8af756e3          	bge	a4,a5,13334 <_svfiprintf_r+0x224>
   13a8c:	00412503          	lw	a0,4(sp)
   13a90:	04010613          	add	a2,sp,64
   13a94:	000b8593          	mv	a1,s7
   13a98:	03012223          	sw	a6,36(sp)
   13a9c:	01d12a23          	sw	t4,20(sp)
   13aa0:	00d12823          	sw	a3,16(sp)
   13aa4:	ca4ff0ef          	jal	12f48 <__ssprint_r>
   13aa8:	9c0510e3          	bnez	a0,13468 <_svfiprintf_r+0x358>
   13aac:	01412e83          	lw	t4,20(sp)
   13ab0:	04812483          	lw	s1,72(sp)
   13ab4:	04412783          	lw	a5,68(sp)
   13ab8:	41d90933          	sub	s2,s2,t4
   13abc:	02412803          	lw	a6,36(sp)
   13ac0:	01012683          	lw	a3,16(sp)
   13ac4:	000c0413          	mv	s0,s8
   13ac8:	87205ae3          	blez	s2,1333c <_svfiprintf_r+0x22c>
   13acc:	00016e37          	lui	t3,0x16
   13ad0:	b24e0e13          	add	t3,t3,-1244 # 15b24 <zeroes.0>
   13ad4:	092adc63          	bge	s5,s2,13b6c <_svfiprintf_r+0xa5c>
   13ad8:	00d12823          	sw	a3,16(sp)
   13adc:	00048613          	mv	a2,s1
   13ae0:	00040693          	mv	a3,s0
   13ae4:	00700713          	li	a4,7
   13ae8:	00090413          	mv	s0,s2
   13aec:	01d12a23          	sw	t4,20(sp)
   13af0:	00080493          	mv	s1,a6
   13af4:	000d0913          	mv	s2,s10
   13af8:	00c0006f          	j	13b04 <_svfiprintf_r+0x9f4>
   13afc:	ff040413          	add	s0,s0,-16
   13b00:	048ad863          	bge	s5,s0,13b50 <_svfiprintf_r+0xa40>
   13b04:	01060613          	add	a2,a2,16
   13b08:	00178793          	add	a5,a5,1
   13b0c:	01a6a023          	sw	s10,0(a3)
   13b10:	0156a223          	sw	s5,4(a3)
   13b14:	04c12423          	sw	a2,72(sp)
   13b18:	04f12223          	sw	a5,68(sp)
   13b1c:	00868693          	add	a3,a3,8
   13b20:	fcf75ee3          	bge	a4,a5,13afc <_svfiprintf_r+0x9ec>
   13b24:	00412503          	lw	a0,4(sp)
   13b28:	04010613          	add	a2,sp,64
   13b2c:	000b8593          	mv	a1,s7
   13b30:	c18ff0ef          	jal	12f48 <__ssprint_r>
   13b34:	92051ae3          	bnez	a0,13468 <_svfiprintf_r+0x358>
   13b38:	ff040413          	add	s0,s0,-16
   13b3c:	04812603          	lw	a2,72(sp)
   13b40:	04412783          	lw	a5,68(sp)
   13b44:	000c0693          	mv	a3,s8
   13b48:	00700713          	li	a4,7
   13b4c:	fa8acce3          	blt	s5,s0,13b04 <_svfiprintf_r+0x9f4>
   13b50:	00090e13          	mv	t3,s2
   13b54:	01412e83          	lw	t4,20(sp)
   13b58:	00040913          	mv	s2,s0
   13b5c:	00068413          	mv	s0,a3
   13b60:	01012683          	lw	a3,16(sp)
   13b64:	00048813          	mv	a6,s1
   13b68:	00060493          	mv	s1,a2
   13b6c:	012484b3          	add	s1,s1,s2
   13b70:	00178793          	add	a5,a5,1
   13b74:	01c42023          	sw	t3,0(s0)
   13b78:	01242223          	sw	s2,4(s0)
   13b7c:	04912423          	sw	s1,72(sp)
   13b80:	04f12223          	sw	a5,68(sp)
   13b84:	00700713          	li	a4,7
   13b88:	00840413          	add	s0,s0,8
   13b8c:	faf75863          	bge	a4,a5,1333c <_svfiprintf_r+0x22c>
   13b90:	00412503          	lw	a0,4(sp)
   13b94:	04010613          	add	a2,sp,64
   13b98:	000b8593          	mv	a1,s7
   13b9c:	03012223          	sw	a6,36(sp)
   13ba0:	01d12a23          	sw	t4,20(sp)
   13ba4:	00d12823          	sw	a3,16(sp)
   13ba8:	ba0ff0ef          	jal	12f48 <__ssprint_r>
   13bac:	8a051ee3          	bnez	a0,13468 <_svfiprintf_r+0x358>
   13bb0:	04812483          	lw	s1,72(sp)
   13bb4:	04412783          	lw	a5,68(sp)
   13bb8:	02412803          	lw	a6,36(sp)
   13bbc:	01412e83          	lw	t4,20(sp)
   13bc0:	01012683          	lw	a3,16(sp)
   13bc4:	000c0413          	mv	s0,s8
   13bc8:	f74ff06f          	j	1333c <_svfiprintf_r+0x22c>
   13bcc:	00412503          	lw	a0,4(sp)
   13bd0:	04010613          	add	a2,sp,64
   13bd4:	000b8593          	mv	a1,s7
   13bd8:	01012a23          	sw	a6,20(sp)
   13bdc:	00d12823          	sw	a3,16(sp)
   13be0:	b68ff0ef          	jal	12f48 <__ssprint_r>
   13be4:	880512e3          	bnez	a0,13468 <_svfiprintf_r+0x358>
   13be8:	04812483          	lw	s1,72(sp)
   13bec:	01412803          	lw	a6,20(sp)
   13bf0:	01012683          	lw	a3,16(sp)
   13bf4:	000c0413          	mv	s0,s8
   13bf8:	f68ff06f          	j	13360 <_svfiprintf_r+0x250>
   13bfc:	00412503          	lw	a0,4(sp)
   13c00:	04010613          	add	a2,sp,64
   13c04:	000b8593          	mv	a1,s7
   13c08:	01012823          	sw	a6,16(sp)
   13c0c:	b3cff0ef          	jal	12f48 <__ssprint_r>
   13c10:	84051ce3          	bnez	a0,13468 <_svfiprintf_r+0x358>
   13c14:	04812483          	lw	s1,72(sp)
   13c18:	01012803          	lw	a6,16(sp)
   13c1c:	f64ff06f          	j	13380 <_svfiprintf_r+0x270>
   13c20:	00200713          	li	a4,2
   13c24:	00068d93          	mv	s11,a3
   13c28:	ba0700e3          	beqz	a4,137c8 <_svfiprintf_r+0x6b8>
   13c2c:	00c12583          	lw	a1,12(sp)
   13c30:	0f010a13          	add	s4,sp,240
   13c34:	00f7f713          	and	a4,a5,15
   13c38:	00e58733          	add	a4,a1,a4
   13c3c:	00074683          	lbu	a3,0(a4)
   13c40:	0047d793          	srl	a5,a5,0x4
   13c44:	01c61713          	sll	a4,a2,0x1c
   13c48:	00f767b3          	or	a5,a4,a5
   13c4c:	00465613          	srl	a2,a2,0x4
   13c50:	feda0fa3          	sb	a3,-1(s4)
   13c54:	00c7e733          	or	a4,a5,a2
   13c58:	fffa0a13          	add	s4,s4,-1
   13c5c:	fc071ce3          	bnez	a4,13c34 <_svfiprintf_r+0xb24>
   13c60:	0f010793          	add	a5,sp,240
   13c64:	41478eb3          	sub	t4,a5,s4
   13c68:	00090693          	mv	a3,s2
   13c6c:	afd958e3          	bge	s2,t4,1375c <_svfiprintf_r+0x64c>
   13c70:	000e8693          	mv	a3,t4
   13c74:	ae9ff06f          	j	1375c <_svfiprintf_r+0x64c>
   13c78:	ccccdf37          	lui	t5,0xccccd
   13c7c:	ccdf0e13          	add	t3,t5,-819 # cccccccd <_end+0xcccb2cfd>
   13c80:	01812303          	lw	t1,24(sp)
   13c84:	400dff93          	and	t6,s11,1024
   13c88:	00000513          	li	a0,0
   13c8c:	0f010593          	add	a1,sp,240
   13c90:	00500e93          	li	t4,5
   13c94:	cccf0f13          	add	t5,t5,-820
   13c98:	0ff00293          	li	t0,255
   13c9c:	0540006f          	j	13cf0 <_svfiprintf_r+0xbe0>
   13ca0:	00fa3733          	sltu	a4,s4,a5
   13ca4:	00ea0733          	add	a4,s4,a4
   13ca8:	03d77733          	remu	a4,a4,t4
   13cac:	40e78733          	sub	a4,a5,a4
   13cb0:	00e7b633          	sltu	a2,a5,a4
   13cb4:	40c88633          	sub	a2,a7,a2
   13cb8:	03e703b3          	mul	t2,a4,t5
   13cbc:	03c60633          	mul	a2,a2,t3
   13cc0:	03c735b3          	mulhu	a1,a4,t3
   13cc4:	00760633          	add	a2,a2,t2
   13cc8:	03c70733          	mul	a4,a4,t3
   13ccc:	00b60633          	add	a2,a2,a1
   13cd0:	01f61593          	sll	a1,a2,0x1f
   13cd4:	00165613          	srl	a2,a2,0x1
   13cd8:	00175713          	srl	a4,a4,0x1
   13cdc:	00e5e733          	or	a4,a1,a4
   13ce0:	4c088a63          	beqz	a7,141b4 <_svfiprintf_r+0x10a4>
   13ce4:	00070793          	mv	a5,a4
   13ce8:	00060893          	mv	a7,a2
   13cec:	00068593          	mv	a1,a3
   13cf0:	01178a33          	add	s4,a5,a7
   13cf4:	00fa3733          	sltu	a4,s4,a5
   13cf8:	00ea0733          	add	a4,s4,a4
   13cfc:	03d77733          	remu	a4,a4,t4
   13d00:	fff58693          	add	a3,a1,-1
   13d04:	00150513          	add	a0,a0,1
   13d08:	40e78733          	sub	a4,a5,a4
   13d0c:	00e7b3b3          	sltu	t2,a5,a4
   13d10:	407883b3          	sub	t2,a7,t2
   13d14:	03c73633          	mulhu	a2,a4,t3
   13d18:	03c383b3          	mul	t2,t2,t3
   13d1c:	03c70733          	mul	a4,a4,t3
   13d20:	00c383b3          	add	t2,t2,a2
   13d24:	01f39393          	sll	t2,t2,0x1f
   13d28:	00175613          	srl	a2,a4,0x1
   13d2c:	00c3e633          	or	a2,t2,a2
   13d30:	00261713          	sll	a4,a2,0x2
   13d34:	00c70733          	add	a4,a4,a2
   13d38:	00171713          	sll	a4,a4,0x1
   13d3c:	40e78733          	sub	a4,a5,a4
   13d40:	03070713          	add	a4,a4,48
   13d44:	fee58fa3          	sb	a4,-1(a1)
   13d48:	f40f8ce3          	beqz	t6,13ca0 <_svfiprintf_r+0xb90>
   13d4c:	00034703          	lbu	a4,0(t1)
   13d50:	f4a718e3          	bne	a4,a0,13ca0 <_svfiprintf_r+0xb90>
   13d54:	f45506e3          	beq	a0,t0,13ca0 <_svfiprintf_r+0xb90>
   13d58:	30089663          	bnez	a7,14064 <_svfiprintf_r+0xf54>
   13d5c:	00900713          	li	a4,9
   13d60:	30f76263          	bltu	a4,a5,14064 <_svfiprintf_r+0xf54>
   13d64:	00068a13          	mv	s4,a3
   13d68:	00612c23          	sw	t1,24(sp)
   13d6c:	0f010793          	add	a5,sp,240
   13d70:	41478eb3          	sub	t4,a5,s4
   13d74:	000e8693          	mv	a3,t4
   13d78:	9f2ed2e3          	bge	t4,s2,1375c <_svfiprintf_r+0x64c>
   13d7c:	00090693          	mv	a3,s2
   13d80:	9ddff06f          	j	1375c <_svfiprintf_r+0x64c>
   13d84:	00016e37          	lui	t3,0x16
   13d88:	01000613          	li	a2,16
   13d8c:	b34e0e13          	add	t3,t3,-1228 # 15b34 <blanks.1>
   13d90:	0ae65863          	bge	a2,a4,13e40 <_svfiprintf_r+0xd30>
   13d94:	02d12223          	sw	a3,36(sp)
   13d98:	00048613          	mv	a2,s1
   13d9c:	00040693          	mv	a3,s0
   13da0:	01000893          	li	a7,16
   13da4:	00700293          	li	t0,7
   13da8:	01f12823          	sw	t6,16(sp)
   13dac:	01e12a23          	sw	t5,20(sp)
   13db0:	03d12423          	sw	t4,40(sp)
   13db4:	00070413          	mv	s0,a4
   13db8:	03012623          	sw	a6,44(sp)
   13dbc:	000e0493          	mv	s1,t3
   13dc0:	00c0006f          	j	13dcc <_svfiprintf_r+0xcbc>
   13dc4:	ff040413          	add	s0,s0,-16
   13dc8:	0488da63          	bge	a7,s0,13e1c <_svfiprintf_r+0xd0c>
   13dcc:	01060613          	add	a2,a2,16
   13dd0:	00178793          	add	a5,a5,1
   13dd4:	0096a023          	sw	s1,0(a3)
   13dd8:	0116a223          	sw	a7,4(a3)
   13ddc:	04c12423          	sw	a2,72(sp)
   13de0:	04f12223          	sw	a5,68(sp)
   13de4:	00868693          	add	a3,a3,8
   13de8:	fcf2dee3          	bge	t0,a5,13dc4 <_svfiprintf_r+0xcb4>
   13dec:	00412503          	lw	a0,4(sp)
   13df0:	04010613          	add	a2,sp,64
   13df4:	000b8593          	mv	a1,s7
   13df8:	950ff0ef          	jal	12f48 <__ssprint_r>
   13dfc:	e6051663          	bnez	a0,13468 <_svfiprintf_r+0x358>
   13e00:	01000893          	li	a7,16
   13e04:	ff040413          	add	s0,s0,-16
   13e08:	04812603          	lw	a2,72(sp)
   13e0c:	04412783          	lw	a5,68(sp)
   13e10:	000c0693          	mv	a3,s8
   13e14:	00700293          	li	t0,7
   13e18:	fa88cae3          	blt	a7,s0,13dcc <_svfiprintf_r+0xcbc>
   13e1c:	00040713          	mv	a4,s0
   13e20:	01012f83          	lw	t6,16(sp)
   13e24:	00068413          	mv	s0,a3
   13e28:	01412f03          	lw	t5,20(sp)
   13e2c:	02812e83          	lw	t4,40(sp)
   13e30:	02412683          	lw	a3,36(sp)
   13e34:	02c12803          	lw	a6,44(sp)
   13e38:	00048e13          	mv	t3,s1
   13e3c:	00060493          	mv	s1,a2
   13e40:	00e484b3          	add	s1,s1,a4
   13e44:	00178793          	add	a5,a5,1
   13e48:	00e42223          	sw	a4,4(s0)
   13e4c:	01c42023          	sw	t3,0(s0)
   13e50:	04912423          	sw	s1,72(sp)
   13e54:	04f12223          	sw	a5,68(sp)
   13e58:	00700713          	li	a4,7
   13e5c:	00840413          	add	s0,s0,8
   13e60:	c6f75463          	bge	a4,a5,132c8 <_svfiprintf_r+0x1b8>
   13e64:	00412503          	lw	a0,4(sp)
   13e68:	04010613          	add	a2,sp,64
   13e6c:	000b8593          	mv	a1,s7
   13e70:	03012623          	sw	a6,44(sp)
   13e74:	03d12423          	sw	t4,40(sp)
   13e78:	02d12223          	sw	a3,36(sp)
   13e7c:	01e12a23          	sw	t5,20(sp)
   13e80:	01f12823          	sw	t6,16(sp)
   13e84:	8c4ff0ef          	jal	12f48 <__ssprint_r>
   13e88:	de051063          	bnez	a0,13468 <_svfiprintf_r+0x358>
   13e8c:	04812483          	lw	s1,72(sp)
   13e90:	04412783          	lw	a5,68(sp)
   13e94:	02c12803          	lw	a6,44(sp)
   13e98:	02812e83          	lw	t4,40(sp)
   13e9c:	02412683          	lw	a3,36(sp)
   13ea0:	01412f03          	lw	t5,20(sp)
   13ea4:	01012f83          	lw	t6,16(sp)
   13ea8:	000c0413          	mv	s0,s8
   13eac:	c1cff06f          	j	132c8 <_svfiprintf_r+0x1b8>
   13eb0:	00412503          	lw	a0,4(sp)
   13eb4:	04010613          	add	a2,sp,64
   13eb8:	000b8593          	mv	a1,s7
   13ebc:	03012423          	sw	a6,40(sp)
   13ec0:	03d12223          	sw	t4,36(sp)
   13ec4:	00d12a23          	sw	a3,20(sp)
   13ec8:	01e12823          	sw	t5,16(sp)
   13ecc:	87cff0ef          	jal	12f48 <__ssprint_r>
   13ed0:	d8051c63          	bnez	a0,13468 <_svfiprintf_r+0x358>
   13ed4:	04812483          	lw	s1,72(sp)
   13ed8:	04412783          	lw	a5,68(sp)
   13edc:	02812803          	lw	a6,40(sp)
   13ee0:	02412e83          	lw	t4,36(sp)
   13ee4:	01412683          	lw	a3,20(sp)
   13ee8:	01012f03          	lw	t5,16(sp)
   13eec:	000c0413          	mv	s0,s8
   13ef0:	c3cff06f          	j	1332c <_svfiprintf_r+0x21c>
   13ef4:	01077693          	and	a3,a4,16
   13ef8:	00082783          	lw	a5,0(a6)
   13efc:	00480813          	add	a6,a6,4
   13f00:	02069263          	bnez	a3,13f24 <_svfiprintf_r+0xe14>
   13f04:	04077693          	and	a3,a4,64
   13f08:	00068a63          	beqz	a3,13f1c <_svfiprintf_r+0xe0c>
   13f0c:	01079793          	sll	a5,a5,0x10
   13f10:	0107d793          	srl	a5,a5,0x10
   13f14:	00000613          	li	a2,0
   13f18:	995ff06f          	j	138ac <_svfiprintf_r+0x79c>
   13f1c:	20077693          	and	a3,a4,512
   13f20:	2a069e63          	bnez	a3,141dc <_svfiprintf_r+0x10cc>
   13f24:	00000613          	li	a2,0
   13f28:	985ff06f          	j	138ac <_svfiprintf_r+0x79c>
   13f2c:	010ef713          	and	a4,t4,16
   13f30:	00082783          	lw	a5,0(a6)
   13f34:	00480813          	add	a6,a6,4
   13f38:	00071a63          	bnez	a4,13f4c <_svfiprintf_r+0xe3c>
   13f3c:	040ef713          	and	a4,t4,64
   13f40:	26070063          	beqz	a4,141a0 <_svfiprintf_r+0x1090>
   13f44:	01079793          	sll	a5,a5,0x10
   13f48:	0107d793          	srl	a5,a5,0x10
   13f4c:	00000893          	li	a7,0
   13f50:	83dff06f          	j	1378c <_svfiprintf_r+0x67c>
   13f54:	00000693          	li	a3,0
   13f58:	0f010a13          	add	s4,sp,240
   13f5c:	801ff06f          	j	1375c <_svfiprintf_r+0x64c>
   13f60:	00082783          	lw	a5,0(a6)
   13f64:	41fcd713          	sra	a4,s9,0x1f
   13f68:	00480813          	add	a6,a6,4
   13f6c:	0197a023          	sw	s9,0(a5)
   13f70:	00e7a223          	sw	a4,4(a5)
   13f74:	a48ff06f          	j	131bc <_svfiprintf_r+0xac>
   13f78:	00090693          	mv	a3,s2
   13f7c:	00058a13          	mv	s4,a1
   13f80:	fdcff06f          	j	1375c <_svfiprintf_r+0x64c>
   13f84:	000d8e93          	mv	t4,s11
   13f88:	fe8ff06f          	j	13770 <_svfiprintf_r+0x660>
   13f8c:	000d8713          	mv	a4,s11
   13f90:	901ff06f          	j	13890 <_svfiprintf_r+0x780>
   13f94:	000157b7          	lui	a5,0x15
   13f98:	f2478793          	add	a5,a5,-220 # 14f24 <_getpid_r+0x608>
   13f9c:	00f12623          	sw	a5,12(sp)
   13fa0:	020df793          	and	a5,s11,32
   13fa4:	04078a63          	beqz	a5,13ff8 <_svfiprintf_r+0xee8>
   13fa8:	00780813          	add	a6,a6,7
   13fac:	ff887813          	and	a6,a6,-8
   13fb0:	00082783          	lw	a5,0(a6)
   13fb4:	00482603          	lw	a2,4(a6)
   13fb8:	00880813          	add	a6,a6,8
   13fbc:	001df713          	and	a4,s11,1
   13fc0:	00070e63          	beqz	a4,13fdc <_svfiprintf_r+0xecc>
   13fc4:	00c7e733          	or	a4,a5,a2
   13fc8:	00070a63          	beqz	a4,13fdc <_svfiprintf_r+0xecc>
   13fcc:	03000713          	li	a4,48
   13fd0:	02e10e23          	sb	a4,60(sp)
   13fd4:	02d10ea3          	sb	a3,61(sp)
   13fd8:	002ded93          	or	s11,s11,2
   13fdc:	bffdfd93          	and	s11,s11,-1025
   13fe0:	f38ff06f          	j	13718 <_svfiprintf_r+0x608>
   13fe4:	000157b7          	lui	a5,0x15
   13fe8:	f1078793          	add	a5,a5,-240 # 14f10 <_getpid_r+0x5f4>
   13fec:	00f12623          	sw	a5,12(sp)
   13ff0:	020df793          	and	a5,s11,32
   13ff4:	fa079ae3          	bnez	a5,13fa8 <_svfiprintf_r+0xe98>
   13ff8:	010df713          	and	a4,s11,16
   13ffc:	00082783          	lw	a5,0(a6)
   14000:	00480813          	add	a6,a6,4
   14004:	12071463          	bnez	a4,1412c <_svfiprintf_r+0x101c>
   14008:	040df713          	and	a4,s11,64
   1400c:	10070c63          	beqz	a4,14124 <_svfiprintf_r+0x1014>
   14010:	01079793          	sll	a5,a5,0x10
   14014:	0107d793          	srl	a5,a5,0x10
   14018:	00000613          	li	a2,0
   1401c:	fa1ff06f          	j	13fbc <_svfiprintf_r+0xeac>
   14020:	000a0513          	mv	a0,s4
   14024:	e94f10ef          	jal	56b8 <strlen>
   14028:	fff54693          	not	a3,a0
   1402c:	41f6d693          	sra	a3,a3,0x1f
   14030:	01012803          	lw	a6,16(sp)
   14034:	00050e93          	mv	t4,a0
   14038:	00d576b3          	and	a3,a0,a3
   1403c:	00000913          	li	s2,0
   14040:	f1cff06f          	j	1375c <_svfiprintf_r+0x64c>
   14044:	04000593          	li	a1,64
   14048:	d01f00ef          	jal	4d48 <_malloc_r>
   1404c:	00aba023          	sw	a0,0(s7)
   14050:	00aba823          	sw	a0,16(s7)
   14054:	1c050063          	beqz	a0,14214 <_svfiprintf_r+0x1104>
   14058:	04000793          	li	a5,64
   1405c:	00fbaa23          	sw	a5,20(s7)
   14060:	90cff06f          	j	1316c <_svfiprintf_r+0x5c>
   14064:	02f12423          	sw	a5,40(sp)
   14068:	01c12783          	lw	a5,28(sp)
   1406c:	02012583          	lw	a1,32(sp)
   14070:	03112623          	sw	a7,44(sp)
   14074:	40f686b3          	sub	a3,a3,a5
   14078:	00078613          	mv	a2,a5
   1407c:	00068513          	mv	a0,a3
   14080:	03012223          	sw	a6,36(sp)
   14084:	00612c23          	sw	t1,24(sp)
   14088:	01f12a23          	sw	t6,20(sp)
   1408c:	00d12823          	sw	a3,16(sp)
   14090:	d34fa0ef          	jal	e5c4 <strncpy>
   14094:	02812783          	lw	a5,40(sp)
   14098:	00500613          	li	a2,5
   1409c:	01812303          	lw	t1,24(sp)
   140a0:	00fa3733          	sltu	a4,s4,a5
   140a4:	00ea0733          	add	a4,s4,a4
   140a8:	02c77733          	remu	a4,a4,a2
   140ac:	00134603          	lbu	a2,1(t1)
   140b0:	02c12883          	lw	a7,44(sp)
   140b4:	ccccd3b7          	lui	t2,0xccccd
   140b8:	00c03633          	snez	a2,a2
   140bc:	00c30333          	add	t1,t1,a2
   140c0:	ccd38593          	add	a1,t2,-819 # cccccccd <_end+0xcccb2cfd>
   140c4:	ccc38393          	add	t2,t2,-820
   140c8:	01012683          	lw	a3,16(sp)
   140cc:	01412f83          	lw	t6,20(sp)
   140d0:	02412803          	lw	a6,36(sp)
   140d4:	00000513          	li	a0,0
   140d8:	00500e93          	li	t4,5
   140dc:	00058e13          	mv	t3,a1
   140e0:	0ff00293          	li	t0,255
   140e4:	40e78733          	sub	a4,a5,a4
   140e8:	00e7b633          	sltu	a2,a5,a4
   140ec:	40c88633          	sub	a2,a7,a2
   140f0:	027703b3          	mul	t2,a4,t2
   140f4:	02b60633          	mul	a2,a2,a1
   140f8:	02b738b3          	mulhu	a7,a4,a1
   140fc:	00760633          	add	a2,a2,t2
   14100:	02b707b3          	mul	a5,a4,a1
   14104:	01160633          	add	a2,a2,a7
   14108:	01f61713          	sll	a4,a2,0x1f
   1410c:	00165613          	srl	a2,a2,0x1
   14110:	0017d793          	srl	a5,a5,0x1
   14114:	00f76733          	or	a4,a4,a5
   14118:	ccccd7b7          	lui	a5,0xccccd
   1411c:	ccc78f13          	add	t5,a5,-820 # cccccccc <_end+0xcccb2cfc>
   14120:	bc5ff06f          	j	13ce4 <_svfiprintf_r+0xbd4>
   14124:	200df713          	and	a4,s11,512
   14128:	0a071463          	bnez	a4,141d0 <_svfiprintf_r+0x10c0>
   1412c:	00000613          	li	a2,0
   14130:	e8dff06f          	j	13fbc <_svfiprintf_r+0xeac>
   14134:	00070d93          	mv	s11,a4
   14138:	00000713          	li	a4,0
   1413c:	e8070663          	beqz	a4,137c8 <_svfiprintf_r+0x6b8>
   14140:	aedff06f          	j	13c2c <_svfiprintf_r+0xb1c>
   14144:	0019c783          	lbu	a5,1(s3)
   14148:	200ded93          	or	s11,s11,512
   1414c:	00198993          	add	s3,s3,1
   14150:	8e4ff06f          	j	13234 <_svfiprintf_r+0x124>
   14154:	0019c783          	lbu	a5,1(s3)
   14158:	020ded93          	or	s11,s11,32
   1415c:	00198993          	add	s3,s3,1
   14160:	8d4ff06f          	j	13234 <_svfiprintf_r+0x124>
   14164:	00082783          	lw	a5,0(a6)
   14168:	00480813          	add	a6,a6,4
   1416c:	0197a023          	sw	s9,0(a5)
   14170:	84cff06f          	j	131bc <_svfiprintf_r+0xac>
   14174:	00600793          	li	a5,6
   14178:	00090e93          	mv	t4,s2
   1417c:	0127f463          	bgeu	a5,s2,14184 <_svfiprintf_r+0x1074>
   14180:	00600e93          	li	t4,6
   14184:	00015a37          	lui	s4,0x15
   14188:	000e8693          	mv	a3,t4
   1418c:	f38a0a13          	add	s4,s4,-200 # 14f38 <_getpid_r+0x61c>
   14190:	914ff06f          	j	132a4 <_svfiprintf_r+0x194>
   14194:	00000793          	li	a5,0
   14198:	00000613          	li	a2,0
   1419c:	a91ff06f          	j	13c2c <_svfiprintf_r+0xb1c>
   141a0:	200ef713          	and	a4,t4,512
   141a4:	da0704e3          	beqz	a4,13f4c <_svfiprintf_r+0xe3c>
   141a8:	0ff7f793          	zext.b	a5,a5
   141ac:	00000893          	li	a7,0
   141b0:	ddcff06f          	j	1378c <_svfiprintf_r+0x67c>
   141b4:	00900593          	li	a1,9
   141b8:	b2f5e6e3          	bltu	a1,a5,13ce4 <_svfiprintf_r+0xbd4>
   141bc:	ba9ff06f          	j	13d64 <_svfiprintf_r+0xc54>
   141c0:	00082783          	lw	a5,0(a6)
   141c4:	00480813          	add	a6,a6,4
   141c8:	01979023          	sh	s9,0(a5)
   141cc:	ff1fe06f          	j	131bc <_svfiprintf_r+0xac>
   141d0:	0ff7f793          	zext.b	a5,a5
   141d4:	00000613          	li	a2,0
   141d8:	de5ff06f          	j	13fbc <_svfiprintf_r+0xeac>
   141dc:	0ff7f793          	zext.b	a5,a5
   141e0:	00000613          	li	a2,0
   141e4:	ec8ff06f          	j	138ac <_svfiprintf_r+0x79c>
   141e8:	01879793          	sll	a5,a5,0x18
   141ec:	4187d793          	sra	a5,a5,0x18
   141f0:	41f7d893          	sra	a7,a5,0x1f
   141f4:	00088713          	mv	a4,a7
   141f8:	9fcff06f          	j	133f4 <_svfiprintf_r+0x2e4>
   141fc:	03000793          	li	a5,48
   14200:	c54ff06f          	j	13654 <_svfiprintf_r+0x544>
   14204:	00090693          	mv	a3,s2
   14208:	00090e93          	mv	t4,s2
   1420c:	00000913          	li	s2,0
   14210:	d4cff06f          	j	1375c <_svfiprintf_r+0x64c>
   14214:	00c00793          	li	a5,12
   14218:	00fca023          	sw	a5,0(s9)
   1421c:	fff00d93          	li	s11,-1
   14220:	a58ff06f          	j	13478 <_svfiprintf_r+0x368>
   14224:	00082903          	lw	s2,0(a6)
   14228:	00480813          	add	a6,a6,4
   1422c:	00095463          	bgez	s2,14234 <_svfiprintf_r+0x1124>
   14230:	fff00913          	li	s2,-1
   14234:	0019c783          	lbu	a5,1(s3)
   14238:	00070993          	mv	s3,a4
   1423c:	ff9fe06f          	j	13234 <_svfiprintf_r+0x124>

00014240 <_wcrtomb_r>:
   14240:	fe010113          	add	sp,sp,-32
   14244:	00812c23          	sw	s0,24(sp)
   14248:	00912a23          	sw	s1,20(sp)
   1424c:	000177b7          	lui	a5,0x17
   14250:	00112e23          	sw	ra,28(sp)
   14254:	6a87a783          	lw	a5,1704(a5) # 176a8 <__global_locale+0xe0>
   14258:	00050413          	mv	s0,a0
   1425c:	00068493          	mv	s1,a3
   14260:	02058263          	beqz	a1,14284 <_wcrtomb_r+0x44>
   14264:	000780e7          	jalr	a5
   14268:	fff00793          	li	a5,-1
   1426c:	02f50663          	beq	a0,a5,14298 <_wcrtomb_r+0x58>
   14270:	01c12083          	lw	ra,28(sp)
   14274:	01812403          	lw	s0,24(sp)
   14278:	01412483          	lw	s1,20(sp)
   1427c:	02010113          	add	sp,sp,32
   14280:	00008067          	ret
   14284:	00000613          	li	a2,0
   14288:	00410593          	add	a1,sp,4
   1428c:	000780e7          	jalr	a5
   14290:	fff00793          	li	a5,-1
   14294:	fcf51ee3          	bne	a0,a5,14270 <_wcrtomb_r+0x30>
   14298:	0004a023          	sw	zero,0(s1)
   1429c:	08a00793          	li	a5,138
   142a0:	01c12083          	lw	ra,28(sp)
   142a4:	00f42023          	sw	a5,0(s0)
   142a8:	01812403          	lw	s0,24(sp)
   142ac:	01412483          	lw	s1,20(sp)
   142b0:	02010113          	add	sp,sp,32
   142b4:	00008067          	ret

000142b8 <wcrtomb>:
   142b8:	fe010113          	add	sp,sp,-32
   142bc:	00812c23          	sw	s0,24(sp)
   142c0:	00912a23          	sw	s1,20(sp)
   142c4:	00112e23          	sw	ra,28(sp)
   142c8:	8201a483          	lw	s1,-2016(gp) # 17758 <_impure_ptr>
   142cc:	000177b7          	lui	a5,0x17
   142d0:	6a87a783          	lw	a5,1704(a5) # 176a8 <__global_locale+0xe0>
   142d4:	00060413          	mv	s0,a2
   142d8:	02050a63          	beqz	a0,1430c <wcrtomb+0x54>
   142dc:	00058613          	mv	a2,a1
   142e0:	00040693          	mv	a3,s0
   142e4:	00050593          	mv	a1,a0
   142e8:	00048513          	mv	a0,s1
   142ec:	000780e7          	jalr	a5
   142f0:	fff00793          	li	a5,-1
   142f4:	02f50a63          	beq	a0,a5,14328 <wcrtomb+0x70>
   142f8:	01c12083          	lw	ra,28(sp)
   142fc:	01812403          	lw	s0,24(sp)
   14300:	01412483          	lw	s1,20(sp)
   14304:	02010113          	add	sp,sp,32
   14308:	00008067          	ret
   1430c:	00060693          	mv	a3,a2
   14310:	00410593          	add	a1,sp,4
   14314:	00000613          	li	a2,0
   14318:	00048513          	mv	a0,s1
   1431c:	000780e7          	jalr	a5
   14320:	fff00793          	li	a5,-1
   14324:	fcf51ae3          	bne	a0,a5,142f8 <wcrtomb+0x40>
   14328:	00042023          	sw	zero,0(s0)
   1432c:	01c12083          	lw	ra,28(sp)
   14330:	01812403          	lw	s0,24(sp)
   14334:	08a00793          	li	a5,138
   14338:	00f4a023          	sw	a5,0(s1)
   1433c:	01412483          	lw	s1,20(sp)
   14340:	02010113          	add	sp,sp,32
   14344:	00008067          	ret

00014348 <_wctomb_r>:
   14348:	000177b7          	lui	a5,0x17
   1434c:	6a87a783          	lw	a5,1704(a5) # 176a8 <__global_locale+0xe0>
   14350:	00078067          	jr	a5

00014354 <__ascii_wctomb>:
   14354:	02058463          	beqz	a1,1437c <__ascii_wctomb+0x28>
   14358:	0ff00793          	li	a5,255
   1435c:	00c7e863          	bltu	a5,a2,1436c <__ascii_wctomb+0x18>
   14360:	00c58023          	sb	a2,0(a1)
   14364:	00100513          	li	a0,1
   14368:	00008067          	ret
   1436c:	08a00793          	li	a5,138
   14370:	00f52023          	sw	a5,0(a0)
   14374:	fff00513          	li	a0,-1
   14378:	00008067          	ret
   1437c:	00000513          	li	a0,0
   14380:	00008067          	ret

00014384 <abort>:
   14384:	ff010113          	add	sp,sp,-16
   14388:	00600513          	li	a0,6
   1438c:	00112623          	sw	ra,12(sp)
   14390:	29c000ef          	jal	1462c <raise>
   14394:	00100513          	li	a0,1
   14398:	90cec0ef          	jal	4a4 <_exit>

0001439c <_init_signal_r>:
   1439c:	2dc52783          	lw	a5,732(a0)
   143a0:	00078663          	beqz	a5,143ac <_init_signal_r+0x10>
   143a4:	00000513          	li	a0,0
   143a8:	00008067          	ret
   143ac:	ff010113          	add	sp,sp,-16
   143b0:	08000593          	li	a1,128
   143b4:	00812423          	sw	s0,8(sp)
   143b8:	00112623          	sw	ra,12(sp)
   143bc:	00050413          	mv	s0,a0
   143c0:	989f00ef          	jal	4d48 <_malloc_r>
   143c4:	2ca42e23          	sw	a0,732(s0)
   143c8:	02050463          	beqz	a0,143f0 <_init_signal_r+0x54>
   143cc:	08050793          	add	a5,a0,128
   143d0:	00052023          	sw	zero,0(a0)
   143d4:	00450513          	add	a0,a0,4
   143d8:	fef51ce3          	bne	a0,a5,143d0 <_init_signal_r+0x34>
   143dc:	00000513          	li	a0,0
   143e0:	00c12083          	lw	ra,12(sp)
   143e4:	00812403          	lw	s0,8(sp)
   143e8:	01010113          	add	sp,sp,16
   143ec:	00008067          	ret
   143f0:	fff00513          	li	a0,-1
   143f4:	fedff06f          	j	143e0 <_init_signal_r+0x44>

000143f8 <_signal_r>:
   143f8:	fe010113          	add	sp,sp,-32
   143fc:	00912a23          	sw	s1,20(sp)
   14400:	00112e23          	sw	ra,28(sp)
   14404:	00812c23          	sw	s0,24(sp)
   14408:	01f00793          	li	a5,31
   1440c:	00050493          	mv	s1,a0
   14410:	02b7ea63          	bltu	a5,a1,14444 <_signal_r+0x4c>
   14414:	2dc52783          	lw	a5,732(a0)
   14418:	00058413          	mv	s0,a1
   1441c:	02078c63          	beqz	a5,14454 <_signal_r+0x5c>
   14420:	00241413          	sll	s0,s0,0x2
   14424:	008787b3          	add	a5,a5,s0
   14428:	0007a503          	lw	a0,0(a5)
   1442c:	00c7a023          	sw	a2,0(a5)
   14430:	01c12083          	lw	ra,28(sp)
   14434:	01812403          	lw	s0,24(sp)
   14438:	01412483          	lw	s1,20(sp)
   1443c:	02010113          	add	sp,sp,32
   14440:	00008067          	ret
   14444:	01600793          	li	a5,22
   14448:	00f52023          	sw	a5,0(a0)
   1444c:	fff00513          	li	a0,-1
   14450:	fe1ff06f          	j	14430 <_signal_r+0x38>
   14454:	08000593          	li	a1,128
   14458:	00c12623          	sw	a2,12(sp)
   1445c:	8edf00ef          	jal	4d48 <_malloc_r>
   14460:	2ca4ae23          	sw	a0,732(s1)
   14464:	00c12603          	lw	a2,12(sp)
   14468:	00050793          	mv	a5,a0
   1446c:	00050713          	mv	a4,a0
   14470:	08050693          	add	a3,a0,128
   14474:	fc050ce3          	beqz	a0,1444c <_signal_r+0x54>
   14478:	00072023          	sw	zero,0(a4)
   1447c:	00470713          	add	a4,a4,4
   14480:	fed71ce3          	bne	a4,a3,14478 <_signal_r+0x80>
   14484:	f9dff06f          	j	14420 <_signal_r+0x28>

00014488 <_raise_r>:
   14488:	ff010113          	add	sp,sp,-16
   1448c:	00912223          	sw	s1,4(sp)
   14490:	00112623          	sw	ra,12(sp)
   14494:	00812423          	sw	s0,8(sp)
   14498:	01f00793          	li	a5,31
   1449c:	00050493          	mv	s1,a0
   144a0:	08b7ee63          	bltu	a5,a1,1453c <_raise_r+0xb4>
   144a4:	2dc52783          	lw	a5,732(a0)
   144a8:	00058413          	mv	s0,a1
   144ac:	04078463          	beqz	a5,144f4 <_raise_r+0x6c>
   144b0:	00259713          	sll	a4,a1,0x2
   144b4:	00e787b3          	add	a5,a5,a4
   144b8:	0007a703          	lw	a4,0(a5)
   144bc:	02070c63          	beqz	a4,144f4 <_raise_r+0x6c>
   144c0:	00100693          	li	a3,1
   144c4:	00d70c63          	beq	a4,a3,144dc <_raise_r+0x54>
   144c8:	fff00693          	li	a3,-1
   144cc:	04d70863          	beq	a4,a3,1451c <_raise_r+0x94>
   144d0:	0007a023          	sw	zero,0(a5)
   144d4:	00058513          	mv	a0,a1
   144d8:	000700e7          	jalr	a4
   144dc:	00000513          	li	a0,0
   144e0:	00c12083          	lw	ra,12(sp)
   144e4:	00812403          	lw	s0,8(sp)
   144e8:	00412483          	lw	s1,4(sp)
   144ec:	01010113          	add	sp,sp,16
   144f0:	00008067          	ret
   144f4:	00048513          	mv	a0,s1
   144f8:	424000ef          	jal	1491c <_getpid_r>
   144fc:	00040613          	mv	a2,s0
   14500:	00812403          	lw	s0,8(sp)
   14504:	00c12083          	lw	ra,12(sp)
   14508:	00050593          	mv	a1,a0
   1450c:	00048513          	mv	a0,s1
   14510:	00412483          	lw	s1,4(sp)
   14514:	01010113          	add	sp,sp,16
   14518:	3a00006f          	j	148b8 <_kill_r>
   1451c:	00c12083          	lw	ra,12(sp)
   14520:	00812403          	lw	s0,8(sp)
   14524:	01600793          	li	a5,22
   14528:	00f52023          	sw	a5,0(a0)
   1452c:	00412483          	lw	s1,4(sp)
   14530:	00100513          	li	a0,1
   14534:	01010113          	add	sp,sp,16
   14538:	00008067          	ret
   1453c:	01600793          	li	a5,22
   14540:	00f52023          	sw	a5,0(a0)
   14544:	fff00513          	li	a0,-1
   14548:	f99ff06f          	j	144e0 <_raise_r+0x58>

0001454c <__sigtramp_r>:
   1454c:	01f00793          	li	a5,31
   14550:	0cb7ea63          	bltu	a5,a1,14624 <__sigtramp_r+0xd8>
   14554:	2dc52783          	lw	a5,732(a0)
   14558:	ff010113          	add	sp,sp,-16
   1455c:	00812423          	sw	s0,8(sp)
   14560:	00912223          	sw	s1,4(sp)
   14564:	00112623          	sw	ra,12(sp)
   14568:	00058413          	mv	s0,a1
   1456c:	00050493          	mv	s1,a0
   14570:	08078063          	beqz	a5,145f0 <__sigtramp_r+0xa4>
   14574:	00241713          	sll	a4,s0,0x2
   14578:	00e787b3          	add	a5,a5,a4
   1457c:	0007a703          	lw	a4,0(a5)
   14580:	02070c63          	beqz	a4,145b8 <__sigtramp_r+0x6c>
   14584:	fff00693          	li	a3,-1
   14588:	06d70063          	beq	a4,a3,145e8 <__sigtramp_r+0x9c>
   1458c:	00100693          	li	a3,1
   14590:	04d70063          	beq	a4,a3,145d0 <__sigtramp_r+0x84>
   14594:	00040513          	mv	a0,s0
   14598:	0007a023          	sw	zero,0(a5)
   1459c:	000700e7          	jalr	a4
   145a0:	00000513          	li	a0,0
   145a4:	00c12083          	lw	ra,12(sp)
   145a8:	00812403          	lw	s0,8(sp)
   145ac:	00412483          	lw	s1,4(sp)
   145b0:	01010113          	add	sp,sp,16
   145b4:	00008067          	ret
   145b8:	00c12083          	lw	ra,12(sp)
   145bc:	00812403          	lw	s0,8(sp)
   145c0:	00412483          	lw	s1,4(sp)
   145c4:	00100513          	li	a0,1
   145c8:	01010113          	add	sp,sp,16
   145cc:	00008067          	ret
   145d0:	00c12083          	lw	ra,12(sp)
   145d4:	00812403          	lw	s0,8(sp)
   145d8:	00412483          	lw	s1,4(sp)
   145dc:	00300513          	li	a0,3
   145e0:	01010113          	add	sp,sp,16
   145e4:	00008067          	ret
   145e8:	00200513          	li	a0,2
   145ec:	fb9ff06f          	j	145a4 <__sigtramp_r+0x58>
   145f0:	08000593          	li	a1,128
   145f4:	f54f00ef          	jal	4d48 <_malloc_r>
   145f8:	2ca4ae23          	sw	a0,732(s1)
   145fc:	00050793          	mv	a5,a0
   14600:	00050e63          	beqz	a0,1461c <__sigtramp_r+0xd0>
   14604:	00050713          	mv	a4,a0
   14608:	08050693          	add	a3,a0,128
   1460c:	00072023          	sw	zero,0(a4)
   14610:	00470713          	add	a4,a4,4
   14614:	fee69ce3          	bne	a3,a4,1460c <__sigtramp_r+0xc0>
   14618:	f5dff06f          	j	14574 <__sigtramp_r+0x28>
   1461c:	fff00513          	li	a0,-1
   14620:	f85ff06f          	j	145a4 <__sigtramp_r+0x58>
   14624:	fff00513          	li	a0,-1
   14628:	00008067          	ret

0001462c <raise>:
   1462c:	ff010113          	add	sp,sp,-16
   14630:	00912223          	sw	s1,4(sp)
   14634:	00112623          	sw	ra,12(sp)
   14638:	00812423          	sw	s0,8(sp)
   1463c:	01f00793          	li	a5,31
   14640:	8201a483          	lw	s1,-2016(gp) # 17758 <_impure_ptr>
   14644:	08a7ec63          	bltu	a5,a0,146dc <raise+0xb0>
   14648:	2dc4a783          	lw	a5,732(s1)
   1464c:	00050413          	mv	s0,a0
   14650:	04078263          	beqz	a5,14694 <raise+0x68>
   14654:	00251713          	sll	a4,a0,0x2
   14658:	00e787b3          	add	a5,a5,a4
   1465c:	0007a703          	lw	a4,0(a5)
   14660:	02070a63          	beqz	a4,14694 <raise+0x68>
   14664:	00100693          	li	a3,1
   14668:	00d70a63          	beq	a4,a3,1467c <raise+0x50>
   1466c:	fff00693          	li	a3,-1
   14670:	04d70663          	beq	a4,a3,146bc <raise+0x90>
   14674:	0007a023          	sw	zero,0(a5)
   14678:	000700e7          	jalr	a4
   1467c:	00000513          	li	a0,0
   14680:	00c12083          	lw	ra,12(sp)
   14684:	00812403          	lw	s0,8(sp)
   14688:	00412483          	lw	s1,4(sp)
   1468c:	01010113          	add	sp,sp,16
   14690:	00008067          	ret
   14694:	00048513          	mv	a0,s1
   14698:	284000ef          	jal	1491c <_getpid_r>
   1469c:	00040613          	mv	a2,s0
   146a0:	00812403          	lw	s0,8(sp)
   146a4:	00c12083          	lw	ra,12(sp)
   146a8:	00050593          	mv	a1,a0
   146ac:	00048513          	mv	a0,s1
   146b0:	00412483          	lw	s1,4(sp)
   146b4:	01010113          	add	sp,sp,16
   146b8:	2000006f          	j	148b8 <_kill_r>
   146bc:	00c12083          	lw	ra,12(sp)
   146c0:	00812403          	lw	s0,8(sp)
   146c4:	01600793          	li	a5,22
   146c8:	00f4a023          	sw	a5,0(s1)
   146cc:	00100513          	li	a0,1
   146d0:	00412483          	lw	s1,4(sp)
   146d4:	01010113          	add	sp,sp,16
   146d8:	00008067          	ret
   146dc:	01600793          	li	a5,22
   146e0:	00f4a023          	sw	a5,0(s1)
   146e4:	fff00513          	li	a0,-1
   146e8:	f99ff06f          	j	14680 <raise+0x54>

000146ec <signal>:
   146ec:	ff010113          	add	sp,sp,-16
   146f0:	01212023          	sw	s2,0(sp)
   146f4:	00112623          	sw	ra,12(sp)
   146f8:	00812423          	sw	s0,8(sp)
   146fc:	00912223          	sw	s1,4(sp)
   14700:	01f00793          	li	a5,31
   14704:	8201a903          	lw	s2,-2016(gp) # 17758 <_impure_ptr>
   14708:	02a7ee63          	bltu	a5,a0,14744 <signal+0x58>
   1470c:	00050413          	mv	s0,a0
   14710:	2dc92503          	lw	a0,732(s2)
   14714:	00058493          	mv	s1,a1
   14718:	02050e63          	beqz	a0,14754 <signal+0x68>
   1471c:	00241413          	sll	s0,s0,0x2
   14720:	008507b3          	add	a5,a0,s0
   14724:	0007a503          	lw	a0,0(a5)
   14728:	0097a023          	sw	s1,0(a5)
   1472c:	00c12083          	lw	ra,12(sp)
   14730:	00812403          	lw	s0,8(sp)
   14734:	00412483          	lw	s1,4(sp)
   14738:	00012903          	lw	s2,0(sp)
   1473c:	01010113          	add	sp,sp,16
   14740:	00008067          	ret
   14744:	01600793          	li	a5,22
   14748:	00f92023          	sw	a5,0(s2)
   1474c:	fff00513          	li	a0,-1
   14750:	fddff06f          	j	1472c <signal+0x40>
   14754:	08000593          	li	a1,128
   14758:	00090513          	mv	a0,s2
   1475c:	decf00ef          	jal	4d48 <_malloc_r>
   14760:	2ca92e23          	sw	a0,732(s2)
   14764:	00050793          	mv	a5,a0
   14768:	08050713          	add	a4,a0,128
   1476c:	fe0500e3          	beqz	a0,1474c <signal+0x60>
   14770:	0007a023          	sw	zero,0(a5)
   14774:	00478793          	add	a5,a5,4
   14778:	fee79ce3          	bne	a5,a4,14770 <signal+0x84>
   1477c:	fa1ff06f          	j	1471c <signal+0x30>

00014780 <_init_signal>:
   14780:	ff010113          	add	sp,sp,-16
   14784:	00812423          	sw	s0,8(sp)
   14788:	8201a403          	lw	s0,-2016(gp) # 17758 <_impure_ptr>
   1478c:	00112623          	sw	ra,12(sp)
   14790:	2dc42783          	lw	a5,732(s0)
   14794:	00078c63          	beqz	a5,147ac <_init_signal+0x2c>
   14798:	00000513          	li	a0,0
   1479c:	00c12083          	lw	ra,12(sp)
   147a0:	00812403          	lw	s0,8(sp)
   147a4:	01010113          	add	sp,sp,16
   147a8:	00008067          	ret
   147ac:	08000593          	li	a1,128
   147b0:	00040513          	mv	a0,s0
   147b4:	d94f00ef          	jal	4d48 <_malloc_r>
   147b8:	2ca42e23          	sw	a0,732(s0)
   147bc:	00050c63          	beqz	a0,147d4 <_init_signal+0x54>
   147c0:	08050793          	add	a5,a0,128
   147c4:	00052023          	sw	zero,0(a0)
   147c8:	00450513          	add	a0,a0,4
   147cc:	fef51ce3          	bne	a0,a5,147c4 <_init_signal+0x44>
   147d0:	fc9ff06f          	j	14798 <_init_signal+0x18>
   147d4:	fff00513          	li	a0,-1
   147d8:	fc5ff06f          	j	1479c <_init_signal+0x1c>

000147dc <__sigtramp>:
   147dc:	ff010113          	add	sp,sp,-16
   147e0:	00912223          	sw	s1,4(sp)
   147e4:	00112623          	sw	ra,12(sp)
   147e8:	00812423          	sw	s0,8(sp)
   147ec:	01f00793          	li	a5,31
   147f0:	8201a483          	lw	s1,-2016(gp) # 17758 <_impure_ptr>
   147f4:	0aa7ee63          	bltu	a5,a0,148b0 <__sigtramp+0xd4>
   147f8:	2dc4a783          	lw	a5,732(s1)
   147fc:	00050413          	mv	s0,a0
   14800:	08078063          	beqz	a5,14880 <__sigtramp+0xa4>
   14804:	00241713          	sll	a4,s0,0x2
   14808:	00e787b3          	add	a5,a5,a4
   1480c:	0007a703          	lw	a4,0(a5)
   14810:	02070c63          	beqz	a4,14848 <__sigtramp+0x6c>
   14814:	fff00693          	li	a3,-1
   14818:	06d70063          	beq	a4,a3,14878 <__sigtramp+0x9c>
   1481c:	00100693          	li	a3,1
   14820:	04d70063          	beq	a4,a3,14860 <__sigtramp+0x84>
   14824:	00040513          	mv	a0,s0
   14828:	0007a023          	sw	zero,0(a5)
   1482c:	000700e7          	jalr	a4
   14830:	00000513          	li	a0,0
   14834:	00c12083          	lw	ra,12(sp)
   14838:	00812403          	lw	s0,8(sp)
   1483c:	00412483          	lw	s1,4(sp)
   14840:	01010113          	add	sp,sp,16
   14844:	00008067          	ret
   14848:	00c12083          	lw	ra,12(sp)
   1484c:	00812403          	lw	s0,8(sp)
   14850:	00412483          	lw	s1,4(sp)
   14854:	00100513          	li	a0,1
   14858:	01010113          	add	sp,sp,16
   1485c:	00008067          	ret
   14860:	00c12083          	lw	ra,12(sp)
   14864:	00812403          	lw	s0,8(sp)
   14868:	00412483          	lw	s1,4(sp)
   1486c:	00300513          	li	a0,3
   14870:	01010113          	add	sp,sp,16
   14874:	00008067          	ret
   14878:	00200513          	li	a0,2
   1487c:	fb9ff06f          	j	14834 <__sigtramp+0x58>
   14880:	08000593          	li	a1,128
   14884:	00048513          	mv	a0,s1
   14888:	cc0f00ef          	jal	4d48 <_malloc_r>
   1488c:	2ca4ae23          	sw	a0,732(s1)
   14890:	00050793          	mv	a5,a0
   14894:	00050e63          	beqz	a0,148b0 <__sigtramp+0xd4>
   14898:	00050713          	mv	a4,a0
   1489c:	08050693          	add	a3,a0,128
   148a0:	00072023          	sw	zero,0(a4)
   148a4:	00470713          	add	a4,a4,4
   148a8:	fee69ce3          	bne	a3,a4,148a0 <__sigtramp+0xc4>
   148ac:	f59ff06f          	j	14804 <__sigtramp+0x28>
   148b0:	fff00513          	li	a0,-1
   148b4:	f81ff06f          	j	14834 <__sigtramp+0x58>

000148b8 <_kill_r>:
   148b8:	ff010113          	add	sp,sp,-16
   148bc:	00058713          	mv	a4,a1
   148c0:	00812423          	sw	s0,8(sp)
   148c4:	00912223          	sw	s1,4(sp)
   148c8:	00050413          	mv	s0,a0
   148cc:	00060593          	mv	a1,a2
   148d0:	00070513          	mv	a0,a4
   148d4:	00112623          	sw	ra,12(sp)
   148d8:	8601aa23          	sw	zero,-1932(gp) # 177ac <errno>
   148dc:	b21eb0ef          	jal	3fc <_access>
   148e0:	fff00793          	li	a5,-1
   148e4:	00f50c63          	beq	a0,a5,148fc <_kill_r+0x44>
   148e8:	00c12083          	lw	ra,12(sp)
   148ec:	00812403          	lw	s0,8(sp)
   148f0:	00412483          	lw	s1,4(sp)
   148f4:	01010113          	add	sp,sp,16
   148f8:	00008067          	ret
   148fc:	8741a783          	lw	a5,-1932(gp) # 177ac <errno>
   14900:	fe0784e3          	beqz	a5,148e8 <_kill_r+0x30>
   14904:	00c12083          	lw	ra,12(sp)
   14908:	00f42023          	sw	a5,0(s0)
   1490c:	00812403          	lw	s0,8(sp)
   14910:	00412483          	lw	s1,4(sp)
   14914:	01010113          	add	sp,sp,16
   14918:	00008067          	ret

0001491c <_getpid_r>:
   1491c:	ae1eb06f          	j	3fc <_access>
