
dhry.elf:     file format elf32-littleriscv


Disassembly of section .text:

00010000 <_start>:
   10000:	00018197          	auipc	gp,0x18
   10004:	f3818193          	add	gp,gp,-200 # 27f38 <__global_pointer$>
   10008:	82c18513          	add	a0,gp,-2004 # 27764 <Dhrystones_Per_Second>
   1000c:	0001a617          	auipc	a2,0x1a
   10010:	fc460613          	add	a2,a2,-60 # 29fd0 <_end>
   10014:	40a60633          	sub	a2,a2,a0
   10018:	00000593          	li	a1,0
   1001c:	48c000ef          	jal	104a8 <memset>
   10020:	00008517          	auipc	a0,0x8
   10024:	3e450513          	add	a0,a0,996 # 18404 <atexit>
   10028:	00050863          	beqz	a0,10038 <_start+0x38>
   1002c:	00009517          	auipc	a0,0x9
   10030:	a9c50513          	add	a0,a0,-1380 # 18ac8 <__libc_fini_array>
   10034:	3d0080ef          	jal	18404 <atexit>
   10038:	45d040ef          	jal	14c94 <__libc_init_array>
   1003c:	00012503          	lw	a0,0(sp)
   10040:	00410593          	add	a1,sp,4
   10044:	00000613          	li	a2,0
   10048:	44c040ef          	jal	14494 <main>
   1004c:	4180406f          	j	14464 <exit>

00010050 <__do_global_dtors_aux>:
   10050:	ff010113          	add	sp,sp,-16
   10054:	00812423          	sw	s0,8(sp)
   10058:	87c1c783          	lbu	a5,-1924(gp) # 277b4 <completed.1>
   1005c:	00112623          	sw	ra,12(sp)
   10060:	02079263          	bnez	a5,10084 <__do_global_dtors_aux+0x34>
   10064:	00000793          	li	a5,0
   10068:	00078a63          	beqz	a5,1007c <__do_global_dtors_aux+0x2c>
   1006c:	00027537          	lui	a0,0x27
   10070:	d8450513          	add	a0,a0,-636 # 26d84 <__EH_FRAME_BEGIN__>
   10074:	00000097          	auipc	ra,0x0
   10078:	000000e7          	jalr	zero # 0 <_start-0x10000>
   1007c:	00100793          	li	a5,1
   10080:	86f18e23          	sb	a5,-1924(gp) # 277b4 <completed.1>
   10084:	00c12083          	lw	ra,12(sp)
   10088:	00812403          	lw	s0,8(sp)
   1008c:	01010113          	add	sp,sp,16
   10090:	00008067          	ret

00010094 <frame_dummy>:
   10094:	00000793          	li	a5,0
   10098:	00078c63          	beqz	a5,100b0 <frame_dummy+0x1c>
   1009c:	00027537          	lui	a0,0x27
   100a0:	88018593          	add	a1,gp,-1920 # 277b8 <object.0>
   100a4:	d8450513          	add	a0,a0,-636 # 26d84 <__EH_FRAME_BEGIN__>
   100a8:	00000317          	auipc	t1,0x0
   100ac:	00000067          	jr	zero # 0 <_start-0x10000>
   100b0:	00008067          	ret

000100b4 <Proc_1>:
   100b4:	ff010113          	add	sp,sp,-16
   100b8:	01212023          	sw	s2,0(sp)
   100bc:	8601a783          	lw	a5,-1952(gp) # 27798 <Ptr_Glob>
   100c0:	00812423          	sw	s0,8(sp)
   100c4:	00052403          	lw	s0,0(a0)
   100c8:	0007a683          	lw	a3,0(a5)
   100cc:	0047af03          	lw	t5,4(a5)
   100d0:	0087ae83          	lw	t4,8(a5)
   100d4:	0107ae03          	lw	t3,16(a5)
   100d8:	0147a303          	lw	t1,20(a5)
   100dc:	0187a883          	lw	a7,24(a5)
   100e0:	01c7a803          	lw	a6,28(a5)
   100e4:	0287a603          	lw	a2,40(a5)
   100e8:	02c7a703          	lw	a4,44(a5)
   100ec:	0247a583          	lw	a1,36(a5)
   100f0:	00112623          	sw	ra,12(sp)
   100f4:	00912223          	sw	s1,4(sp)
   100f8:	00050493          	mv	s1,a0
   100fc:	0207a503          	lw	a0,32(a5)
   10100:	00d42023          	sw	a3,0(s0)
   10104:	0004a683          	lw	a3,0(s1)
   10108:	01e42223          	sw	t5,4(s0)
   1010c:	01d42423          	sw	t4,8(s0)
   10110:	01c42823          	sw	t3,16(s0)
   10114:	00642a23          	sw	t1,20(s0)
   10118:	01142c23          	sw	a7,24(s0)
   1011c:	01042e23          	sw	a6,28(s0)
   10120:	02a42023          	sw	a0,32(s0)
   10124:	02c42423          	sw	a2,40(s0)
   10128:	02e42623          	sw	a4,44(s0)
   1012c:	02b42223          	sw	a1,36(s0)
   10130:	00500713          	li	a4,5
   10134:	00e4a623          	sw	a4,12(s1)
   10138:	00d42023          	sw	a3,0(s0)
   1013c:	0007a783          	lw	a5,0(a5)
   10140:	8581a583          	lw	a1,-1960(gp) # 27790 <Int_Glob>
   10144:	00f42023          	sw	a5,0(s0)
   10148:	8601a603          	lw	a2,-1952(gp) # 27798 <Ptr_Glob>
   1014c:	00e42623          	sw	a4,12(s0)
   10150:	00a00513          	li	a0,10
   10154:	00c60613          	add	a2,a2,12
   10158:	19c000ef          	jal	102f4 <Proc_7>
   1015c:	00442783          	lw	a5,4(s0)
   10160:	08078063          	beqz	a5,101e0 <Proc_1+0x12c>
   10164:	0004a783          	lw	a5,0(s1)
   10168:	00c12083          	lw	ra,12(sp)
   1016c:	00812403          	lw	s0,8(sp)
   10170:	0007af83          	lw	t6,0(a5)
   10174:	0047af03          	lw	t5,4(a5)
   10178:	0087ae83          	lw	t4,8(a5)
   1017c:	00c7ae03          	lw	t3,12(a5)
   10180:	0107a303          	lw	t1,16(a5)
   10184:	0147a883          	lw	a7,20(a5)
   10188:	0187a803          	lw	a6,24(a5)
   1018c:	01c7a583          	lw	a1,28(a5)
   10190:	0207a603          	lw	a2,32(a5)
   10194:	0247a683          	lw	a3,36(a5)
   10198:	0287a703          	lw	a4,40(a5)
   1019c:	02c7a783          	lw	a5,44(a5)
   101a0:	01f4a023          	sw	t6,0(s1)
   101a4:	01e4a223          	sw	t5,4(s1)
   101a8:	01d4a423          	sw	t4,8(s1)
   101ac:	01c4a623          	sw	t3,12(s1)
   101b0:	0064a823          	sw	t1,16(s1)
   101b4:	0114aa23          	sw	a7,20(s1)
   101b8:	0104ac23          	sw	a6,24(s1)
   101bc:	00b4ae23          	sw	a1,28(s1)
   101c0:	02c4a023          	sw	a2,32(s1)
   101c4:	02d4a223          	sw	a3,36(s1)
   101c8:	02e4a423          	sw	a4,40(s1)
   101cc:	02f4a623          	sw	a5,44(s1)
   101d0:	00012903          	lw	s2,0(sp)
   101d4:	00412483          	lw	s1,4(sp)
   101d8:	01010113          	add	sp,sp,16
   101dc:	00008067          	ret
   101e0:	0084a503          	lw	a0,8(s1)
   101e4:	00600793          	li	a5,6
   101e8:	00840593          	add	a1,s0,8
   101ec:	00f42623          	sw	a5,12(s0)
   101f0:	0b4000ef          	jal	102a4 <Proc_6>
   101f4:	8601a783          	lw	a5,-1952(gp) # 27798 <Ptr_Glob>
   101f8:	00c42503          	lw	a0,12(s0)
   101fc:	00c40613          	add	a2,s0,12
   10200:	0007a783          	lw	a5,0(a5)
   10204:	00c12083          	lw	ra,12(sp)
   10208:	00412483          	lw	s1,4(sp)
   1020c:	00f42023          	sw	a5,0(s0)
   10210:	00812403          	lw	s0,8(sp)
   10214:	00012903          	lw	s2,0(sp)
   10218:	00a00593          	li	a1,10
   1021c:	01010113          	add	sp,sp,16
   10220:	0d40006f          	j	102f4 <Proc_7>

00010224 <Proc_2>:
   10224:	8511c703          	lbu	a4,-1967(gp) # 27789 <Ch_1_Glob>
   10228:	04100793          	li	a5,65
   1022c:	00f70463          	beq	a4,a5,10234 <Proc_2+0x10>
   10230:	00008067          	ret
   10234:	00052783          	lw	a5,0(a0)
   10238:	8581a703          	lw	a4,-1960(gp) # 27790 <Int_Glob>
   1023c:	00978793          	add	a5,a5,9
   10240:	40e787b3          	sub	a5,a5,a4
   10244:	00f52023          	sw	a5,0(a0)
   10248:	00008067          	ret

0001024c <Proc_3>:
   1024c:	8601a603          	lw	a2,-1952(gp) # 27798 <Ptr_Glob>
   10250:	00060863          	beqz	a2,10260 <Proc_3+0x14>
   10254:	00062703          	lw	a4,0(a2)
   10258:	00e52023          	sw	a4,0(a0)
   1025c:	8601a603          	lw	a2,-1952(gp) # 27798 <Ptr_Glob>
   10260:	8581a583          	lw	a1,-1960(gp) # 27790 <Int_Glob>
   10264:	00c60613          	add	a2,a2,12
   10268:	00a00513          	li	a0,10
   1026c:	0880006f          	j	102f4 <Proc_7>

00010270 <Proc_4>:
   10270:	8511c783          	lbu	a5,-1967(gp) # 27789 <Ch_1_Glob>
   10274:	8541a683          	lw	a3,-1964(gp) # 2778c <Bool_Glob>
   10278:	fbf78793          	add	a5,a5,-65
   1027c:	0017b793          	seqz	a5,a5
   10280:	00d7e7b3          	or	a5,a5,a3
   10284:	84f1aa23          	sw	a5,-1964(gp) # 2778c <Bool_Glob>
   10288:	04200713          	li	a4,66
   1028c:	84e18823          	sb	a4,-1968(gp) # 27788 <Ch_2_Glob>
   10290:	00008067          	ret

00010294 <Proc_5>:
   10294:	04100713          	li	a4,65
   10298:	84e188a3          	sb	a4,-1967(gp) # 27789 <Ch_1_Glob>
   1029c:	8401aa23          	sw	zero,-1964(gp) # 2778c <Bool_Glob>
   102a0:	00008067          	ret

000102a4 <Proc_6>:
   102a4:	00200793          	li	a5,2
   102a8:	04f50063          	beq	a0,a5,102e8 <Proc_6+0x44>
   102ac:	00300713          	li	a4,3
   102b0:	00e5a023          	sw	a4,0(a1)
   102b4:	00100713          	li	a4,1
   102b8:	00e50a63          	beq	a0,a4,102cc <Proc_6+0x28>
   102bc:	00400713          	li	a4,4
   102c0:	02e50063          	beq	a0,a4,102e0 <Proc_6+0x3c>
   102c4:	00050a63          	beqz	a0,102d8 <Proc_6+0x34>
   102c8:	00008067          	ret
   102cc:	8581a703          	lw	a4,-1960(gp) # 27790 <Int_Glob>
   102d0:	06400793          	li	a5,100
   102d4:	fee7dae3          	bge	a5,a4,102c8 <Proc_6+0x24>
   102d8:	0005a023          	sw	zero,0(a1)
   102dc:	00008067          	ret
   102e0:	00f5a023          	sw	a5,0(a1)
   102e4:	00008067          	ret
   102e8:	00100793          	li	a5,1
   102ec:	00f5a023          	sw	a5,0(a1)
   102f0:	00008067          	ret

000102f4 <Proc_7>:
   102f4:	00250513          	add	a0,a0,2
   102f8:	00b505b3          	add	a1,a0,a1
   102fc:	00b62023          	sw	a1,0(a2)
   10300:	00008067          	ret

00010304 <Proc_8>:
   10304:	00560713          	add	a4,a2,5
   10308:	0c800813          	li	a6,200
   1030c:	03070833          	mul	a6,a4,a6
   10310:	00261613          	sll	a2,a2,0x2
   10314:	00271793          	sll	a5,a4,0x2
   10318:	00f50533          	add	a0,a0,a5
   1031c:	00d52023          	sw	a3,0(a0)
   10320:	06e52c23          	sw	a4,120(a0)
   10324:	00d52223          	sw	a3,4(a0)
   10328:	00c807b3          	add	a5,a6,a2
   1032c:	00f587b3          	add	a5,a1,a5
   10330:	0107a683          	lw	a3,16(a5)
   10334:	00e7aa23          	sw	a4,20(a5)
   10338:	00e7ac23          	sw	a4,24(a5)
   1033c:	00168713          	add	a4,a3,1
   10340:	00e7a823          	sw	a4,16(a5)
   10344:	00052703          	lw	a4,0(a0)
   10348:	010585b3          	add	a1,a1,a6
   1034c:	00c585b3          	add	a1,a1,a2
   10350:	000017b7          	lui	a5,0x1
   10354:	00b787b3          	add	a5,a5,a1
   10358:	fae7aa23          	sw	a4,-76(a5) # fb4 <_start-0xf04c>
   1035c:	00500713          	li	a4,5
   10360:	84e1ac23          	sw	a4,-1960(gp) # 27790 <Int_Glob>
   10364:	00008067          	ret

00010368 <Func_1>:
   10368:	0ff57513          	zext.b	a0,a0
   1036c:	0ff5f593          	zext.b	a1,a1
   10370:	00b50663          	beq	a0,a1,1037c <Func_1+0x14>
   10374:	00000513          	li	a0,0
   10378:	00008067          	ret
   1037c:	84a188a3          	sb	a0,-1967(gp) # 27789 <Ch_1_Glob>
   10380:	00100513          	li	a0,1
   10384:	00008067          	ret

00010388 <Func_2>:
   10388:	ff010113          	add	sp,sp,-16
   1038c:	00112623          	sw	ra,12(sp)
   10390:	00254783          	lbu	a5,2(a0)
   10394:	0035c703          	lbu	a4,3(a1)
   10398:	00000613          	li	a2,0
   1039c:	00000693          	li	a3,0
   103a0:	02e78a63          	beq	a5,a4,103d4 <Func_2+0x4c>
   103a4:	00068463          	beqz	a3,103ac <Func_2+0x24>
   103a8:	84c188a3          	sb	a2,-1967(gp) # 27789 <Ch_1_Glob>
   103ac:	1d8000ef          	jal	10584 <strcmp>
   103b0:	00000793          	li	a5,0
   103b4:	00a05863          	blez	a0,103c4 <Func_2+0x3c>
   103b8:	00a00713          	li	a4,10
   103bc:	84e1ac23          	sw	a4,-1960(gp) # 27790 <Int_Glob>
   103c0:	00100793          	li	a5,1
   103c4:	00c12083          	lw	ra,12(sp)
   103c8:	00078513          	mv	a0,a5
   103cc:	01010113          	add	sp,sp,16
   103d0:	00008067          	ret
   103d4:	00100693          	li	a3,1
   103d8:	00078613          	mv	a2,a5
   103dc:	fc5ff06f          	j	103a0 <Func_2+0x18>

000103e0 <Func_3>:
   103e0:	ffe50513          	add	a0,a0,-2
   103e4:	00153513          	seqz	a0,a0
   103e8:	00008067          	ret

000103ec <time>:
   103ec:	c0002573          	rdcycle	a0
   103f0:	00008067          	ret

000103f4 <insn>:
   103f4:	c0202573          	rdinstret	a0
   103f8:	00008067          	ret

000103fc <_access>:
   103fc:	0040006f          	j	10400 <unimplemented_syscall>

00010400 <unimplemented_syscall>:
   10400:	000257b7          	lui	a5,0x25
   10404:	edc78793          	add	a5,a5,-292 # 24edc <_getpid_r+0x5c0>
   10408:	05500713          	li	a4,85
   1040c:	100006b7          	lui	a3,0x10000
   10410:	00178793          	add	a5,a5,1
   10414:	00e6a023          	sw	a4,0(a3) # 10000000 <_end+0xffd6030>
   10418:	0007c703          	lbu	a4,0(a5)
   1041c:	fe071ae3          	bnez	a4,10410 <unimplemented_syscall+0x10>
   10420:	00100073          	ebreak

00010424 <_read>:
   10424:	00000513          	li	a0,0
   10428:	00008067          	ret

0001042c <_write>:
   1042c:	00c58733          	add	a4,a1,a2
   10430:	00060513          	mv	a0,a2
   10434:	00e58c63          	beq	a1,a4,1044c <_write+0x20>
   10438:	100006b7          	lui	a3,0x10000
   1043c:	0005c783          	lbu	a5,0(a1)
   10440:	00158593          	add	a1,a1,1
   10444:	00f6a023          	sw	a5,0(a3) # 10000000 <_end+0xffd6030>
   10448:	feb71ae3          	bne	a4,a1,1043c <_write+0x10>
   1044c:	00008067          	ret

00010450 <_close>:
   10450:	00000513          	li	a0,0
   10454:	00008067          	ret

00010458 <_fstat>:
   10458:	ff010113          	add	sp,sp,-16
   1045c:	00112623          	sw	ra,12(sp)
   10460:	02d040ef          	jal	14c8c <__errno>
   10464:	00c12083          	lw	ra,12(sp)
   10468:	00200793          	li	a5,2
   1046c:	00f52023          	sw	a5,0(a0)
   10470:	fff00513          	li	a0,-1
   10474:	01010113          	add	sp,sp,16
   10478:	00008067          	ret

0001047c <_sbrk>:
   1047c:	8641a703          	lw	a4,-1948(gp) # 2779c <heap_end.0>
   10480:	00050793          	mv	a5,a0
   10484:	00070513          	mv	a0,a4
   10488:	00071863          	bnez	a4,10498 <_sbrk+0x1c>
   1048c:	0002a537          	lui	a0,0x2a
   10490:	fd050713          	add	a4,a0,-48 # 29fd0 <_end>
   10494:	fd050513          	add	a0,a0,-48
   10498:	00e787b3          	add	a5,a5,a4
   1049c:	86f1a223          	sw	a5,-1948(gp) # 2779c <heap_end.0>
   104a0:	00008067          	ret

000104a4 <_exit>:
   104a4:	00100073          	ebreak

000104a8 <memset>:
   104a8:	00f00313          	li	t1,15
   104ac:	00050713          	mv	a4,a0
   104b0:	02c37e63          	bgeu	t1,a2,104ec <memset+0x44>
   104b4:	00f77793          	and	a5,a4,15
   104b8:	0a079063          	bnez	a5,10558 <memset+0xb0>
   104bc:	08059263          	bnez	a1,10540 <memset+0x98>
   104c0:	ff067693          	and	a3,a2,-16
   104c4:	00f67613          	and	a2,a2,15
   104c8:	00e686b3          	add	a3,a3,a4
   104cc:	00b72023          	sw	a1,0(a4)
   104d0:	00b72223          	sw	a1,4(a4)
   104d4:	00b72423          	sw	a1,8(a4)
   104d8:	00b72623          	sw	a1,12(a4)
   104dc:	01070713          	add	a4,a4,16
   104e0:	fed766e3          	bltu	a4,a3,104cc <memset+0x24>
   104e4:	00061463          	bnez	a2,104ec <memset+0x44>
   104e8:	00008067          	ret
   104ec:	40c306b3          	sub	a3,t1,a2
   104f0:	00269693          	sll	a3,a3,0x2
   104f4:	00000297          	auipc	t0,0x0
   104f8:	005686b3          	add	a3,a3,t0
   104fc:	00c68067          	jr	12(a3)
   10500:	00b70723          	sb	a1,14(a4)
   10504:	00b706a3          	sb	a1,13(a4)
   10508:	00b70623          	sb	a1,12(a4)
   1050c:	00b705a3          	sb	a1,11(a4)
   10510:	00b70523          	sb	a1,10(a4)
   10514:	00b704a3          	sb	a1,9(a4)
   10518:	00b70423          	sb	a1,8(a4)
   1051c:	00b703a3          	sb	a1,7(a4)
   10520:	00b70323          	sb	a1,6(a4)
   10524:	00b702a3          	sb	a1,5(a4)
   10528:	00b70223          	sb	a1,4(a4)
   1052c:	00b701a3          	sb	a1,3(a4)
   10530:	00b70123          	sb	a1,2(a4)
   10534:	00b700a3          	sb	a1,1(a4)
   10538:	00b70023          	sb	a1,0(a4)
   1053c:	00008067          	ret
   10540:	0ff5f593          	zext.b	a1,a1
   10544:	00859693          	sll	a3,a1,0x8
   10548:	00d5e5b3          	or	a1,a1,a3
   1054c:	01059693          	sll	a3,a1,0x10
   10550:	00d5e5b3          	or	a1,a1,a3
   10554:	f6dff06f          	j	104c0 <memset+0x18>
   10558:	00279693          	sll	a3,a5,0x2
   1055c:	00000297          	auipc	t0,0x0
   10560:	005686b3          	add	a3,a3,t0
   10564:	00008293          	mv	t0,ra
   10568:	fa0680e7          	jalr	-96(a3)
   1056c:	00028093          	mv	ra,t0
   10570:	ff078793          	add	a5,a5,-16
   10574:	40f70733          	sub	a4,a4,a5
   10578:	00f60633          	add	a2,a2,a5
   1057c:	f6c378e3          	bgeu	t1,a2,104ec <memset+0x44>
   10580:	f3dff06f          	j	104bc <memset+0x14>

00010584 <strcmp>:
   10584:	00b56733          	or	a4,a0,a1
   10588:	fff00393          	li	t2,-1
   1058c:	00377713          	and	a4,a4,3
   10590:	10071063          	bnez	a4,10690 <strcmp+0x10c>
   10594:	7f7f87b7          	lui	a5,0x7f7f8
   10598:	f7f78793          	add	a5,a5,-129 # 7f7f7f7f <_end+0x7f7cdfaf>
   1059c:	00052603          	lw	a2,0(a0)
   105a0:	0005a683          	lw	a3,0(a1)
   105a4:	00f672b3          	and	t0,a2,a5
   105a8:	00f66333          	or	t1,a2,a5
   105ac:	00f282b3          	add	t0,t0,a5
   105b0:	0062e2b3          	or	t0,t0,t1
   105b4:	10729263          	bne	t0,t2,106b8 <strcmp+0x134>
   105b8:	08d61663          	bne	a2,a3,10644 <strcmp+0xc0>
   105bc:	00452603          	lw	a2,4(a0)
   105c0:	0045a683          	lw	a3,4(a1)
   105c4:	00f672b3          	and	t0,a2,a5
   105c8:	00f66333          	or	t1,a2,a5
   105cc:	00f282b3          	add	t0,t0,a5
   105d0:	0062e2b3          	or	t0,t0,t1
   105d4:	0c729e63          	bne	t0,t2,106b0 <strcmp+0x12c>
   105d8:	06d61663          	bne	a2,a3,10644 <strcmp+0xc0>
   105dc:	00852603          	lw	a2,8(a0)
   105e0:	0085a683          	lw	a3,8(a1)
   105e4:	00f672b3          	and	t0,a2,a5
   105e8:	00f66333          	or	t1,a2,a5
   105ec:	00f282b3          	add	t0,t0,a5
   105f0:	0062e2b3          	or	t0,t0,t1
   105f4:	0c729863          	bne	t0,t2,106c4 <strcmp+0x140>
   105f8:	04d61663          	bne	a2,a3,10644 <strcmp+0xc0>
   105fc:	00c52603          	lw	a2,12(a0)
   10600:	00c5a683          	lw	a3,12(a1)
   10604:	00f672b3          	and	t0,a2,a5
   10608:	00f66333          	or	t1,a2,a5
   1060c:	00f282b3          	add	t0,t0,a5
   10610:	0062e2b3          	or	t0,t0,t1
   10614:	0c729263          	bne	t0,t2,106d8 <strcmp+0x154>
   10618:	02d61663          	bne	a2,a3,10644 <strcmp+0xc0>
   1061c:	01052603          	lw	a2,16(a0)
   10620:	0105a683          	lw	a3,16(a1)
   10624:	00f672b3          	and	t0,a2,a5
   10628:	00f66333          	or	t1,a2,a5
   1062c:	00f282b3          	add	t0,t0,a5
   10630:	0062e2b3          	or	t0,t0,t1
   10634:	0a729c63          	bne	t0,t2,106ec <strcmp+0x168>
   10638:	01450513          	add	a0,a0,20
   1063c:	01458593          	add	a1,a1,20
   10640:	f4d60ee3          	beq	a2,a3,1059c <strcmp+0x18>
   10644:	01061713          	sll	a4,a2,0x10
   10648:	01069793          	sll	a5,a3,0x10
   1064c:	00f71e63          	bne	a4,a5,10668 <strcmp+0xe4>
   10650:	01065713          	srl	a4,a2,0x10
   10654:	0106d793          	srl	a5,a3,0x10
   10658:	40f70533          	sub	a0,a4,a5
   1065c:	0ff57593          	zext.b	a1,a0
   10660:	02059063          	bnez	a1,10680 <strcmp+0xfc>
   10664:	00008067          	ret
   10668:	01075713          	srl	a4,a4,0x10
   1066c:	0107d793          	srl	a5,a5,0x10
   10670:	40f70533          	sub	a0,a4,a5
   10674:	0ff57593          	zext.b	a1,a0
   10678:	00059463          	bnez	a1,10680 <strcmp+0xfc>
   1067c:	00008067          	ret
   10680:	0ff77713          	zext.b	a4,a4
   10684:	0ff7f793          	zext.b	a5,a5
   10688:	40f70533          	sub	a0,a4,a5
   1068c:	00008067          	ret
   10690:	00054603          	lbu	a2,0(a0)
   10694:	0005c683          	lbu	a3,0(a1)
   10698:	00150513          	add	a0,a0,1
   1069c:	00158593          	add	a1,a1,1
   106a0:	00d61463          	bne	a2,a3,106a8 <strcmp+0x124>
   106a4:	fe0616e3          	bnez	a2,10690 <strcmp+0x10c>
   106a8:	40d60533          	sub	a0,a2,a3
   106ac:	00008067          	ret
   106b0:	00450513          	add	a0,a0,4
   106b4:	00458593          	add	a1,a1,4
   106b8:	fcd61ce3          	bne	a2,a3,10690 <strcmp+0x10c>
   106bc:	00000513          	li	a0,0
   106c0:	00008067          	ret
   106c4:	00850513          	add	a0,a0,8
   106c8:	00858593          	add	a1,a1,8
   106cc:	fcd612e3          	bne	a2,a3,10690 <strcmp+0x10c>
   106d0:	00000513          	li	a0,0
   106d4:	00008067          	ret
   106d8:	00c50513          	add	a0,a0,12
   106dc:	00c58593          	add	a1,a1,12
   106e0:	fad618e3          	bne	a2,a3,10690 <strcmp+0x10c>
   106e4:	00000513          	li	a0,0
   106e8:	00008067          	ret
   106ec:	01050513          	add	a0,a0,16
   106f0:	01058593          	add	a1,a1,16
   106f4:	f8d61ee3          	bne	a2,a3,10690 <strcmp+0x10c>
   106f8:	00000513          	li	a0,0
   106fc:	00008067          	ret

00010700 <__divdf3>:
   10700:	fd010113          	add	sp,sp,-48
   10704:	01712623          	sw	s7,12(sp)
   10708:	00060b93          	mv	s7,a2
   1070c:	0145d613          	srl	a2,a1,0x14
   10710:	02812423          	sw	s0,40(sp)
   10714:	03212023          	sw	s2,32(sp)
   10718:	01312e23          	sw	s3,28(sp)
   1071c:	01612823          	sw	s6,16(sp)
   10720:	00c59413          	sll	s0,a1,0xc
   10724:	02112623          	sw	ra,44(sp)
   10728:	02912223          	sw	s1,36(sp)
   1072c:	01412c23          	sw	s4,24(sp)
   10730:	01512a23          	sw	s5,20(sp)
   10734:	7ff67613          	and	a2,a2,2047
   10738:	00050b13          	mv	s6,a0
   1073c:	00068913          	mv	s2,a3
   10740:	00c45413          	srl	s0,s0,0xc
   10744:	01f5d993          	srl	s3,a1,0x1f
   10748:	0a060063          	beqz	a2,107e8 <__divdf3+0xe8>
   1074c:	7ff00793          	li	a5,2047
   10750:	10f60063          	beq	a2,a5,10850 <__divdf3+0x150>
   10754:	01d55693          	srl	a3,a0,0x1d
   10758:	00341413          	sll	s0,s0,0x3
   1075c:	0086e6b3          	or	a3,a3,s0
   10760:	008007b7          	lui	a5,0x800
   10764:	00f6ea33          	or	s4,a3,a5
   10768:	00351493          	sll	s1,a0,0x3
   1076c:	c0160a93          	add	s5,a2,-1023
   10770:	00000b13          	li	s6,0
   10774:	01495793          	srl	a5,s2,0x14
   10778:	00c91413          	sll	s0,s2,0xc
   1077c:	7ff7f793          	and	a5,a5,2047
   10780:	00c45413          	srl	s0,s0,0xc
   10784:	01f95913          	srl	s2,s2,0x1f
   10788:	10078263          	beqz	a5,1088c <__divdf3+0x18c>
   1078c:	7ff00713          	li	a4,2047
   10790:	16e78663          	beq	a5,a4,108fc <__divdf3+0x1fc>
   10794:	00341413          	sll	s0,s0,0x3
   10798:	01dbd713          	srl	a4,s7,0x1d
   1079c:	00876733          	or	a4,a4,s0
   107a0:	00800437          	lui	s0,0x800
   107a4:	00876433          	or	s0,a4,s0
   107a8:	003b9f13          	sll	t5,s7,0x3
   107ac:	c0178693          	add	a3,a5,-1023 # 7ffc01 <_end+0x7d5c31>
   107b0:	00000593          	li	a1,0
   107b4:	002b1793          	sll	a5,s6,0x2
   107b8:	00b7e7b3          	or	a5,a5,a1
   107bc:	40da8633          	sub	a2,s5,a3
   107c0:	fff78793          	add	a5,a5,-1
   107c4:	00e00693          	li	a3,14
   107c8:	0129c733          	xor	a4,s3,s2
   107cc:	18f6ec63          	bltu	a3,a5,10964 <__divdf3+0x264>
   107d0:	000266b7          	lui	a3,0x26
   107d4:	00279793          	sll	a5,a5,0x2
   107d8:	c4868693          	add	a3,a3,-952 # 25c48 <_ctype_+0x104>
   107dc:	00d787b3          	add	a5,a5,a3
   107e0:	0007a783          	lw	a5,0(a5)
   107e4:	00078067          	jr	a5
   107e8:	00a46a33          	or	s4,s0,a0
   107ec:	080a0063          	beqz	s4,1086c <__divdf3+0x16c>
   107f0:	02040e63          	beqz	s0,1082c <__divdf3+0x12c>
   107f4:	00040513          	mv	a0,s0
   107f8:	421030ef          	jal	14418 <__clzsi2>
   107fc:	ff550793          	add	a5,a0,-11
   10800:	01d00693          	li	a3,29
   10804:	ff850713          	add	a4,a0,-8
   10808:	40f686b3          	sub	a3,a3,a5
   1080c:	00e41433          	sll	s0,s0,a4
   10810:	00db56b3          	srl	a3,s6,a3
   10814:	0086ea33          	or	s4,a3,s0
   10818:	00eb1433          	sll	s0,s6,a4
   1081c:	c0d00613          	li	a2,-1011
   10820:	40a60ab3          	sub	s5,a2,a0
   10824:	00040493          	mv	s1,s0
   10828:	f49ff06f          	j	10770 <__divdf3+0x70>
   1082c:	3ed030ef          	jal	14418 <__clzsi2>
   10830:	00050a13          	mv	s4,a0
   10834:	015a0793          	add	a5,s4,21
   10838:	01c00713          	li	a4,28
   1083c:	02050513          	add	a0,a0,32
   10840:	fcf750e3          	bge	a4,a5,10800 <__divdf3+0x100>
   10844:	ff8a0a13          	add	s4,s4,-8
   10848:	014b1a33          	sll	s4,s6,s4
   1084c:	fd1ff06f          	j	1081c <__divdf3+0x11c>
   10850:	00a46a33          	or	s4,s0,a0
   10854:	020a0463          	beqz	s4,1087c <__divdf3+0x17c>
   10858:	00050493          	mv	s1,a0
   1085c:	00040a13          	mv	s4,s0
   10860:	7ff00a93          	li	s5,2047
   10864:	00300b13          	li	s6,3
   10868:	f0dff06f          	j	10774 <__divdf3+0x74>
   1086c:	00000493          	li	s1,0
   10870:	00000a93          	li	s5,0
   10874:	00100b13          	li	s6,1
   10878:	efdff06f          	j	10774 <__divdf3+0x74>
   1087c:	00000493          	li	s1,0
   10880:	7ff00a93          	li	s5,2047
   10884:	00200b13          	li	s6,2
   10888:	eedff06f          	j	10774 <__divdf3+0x74>
   1088c:	01746f33          	or	t5,s0,s7
   10890:	080f0263          	beqz	t5,10914 <__divdf3+0x214>
   10894:	04040063          	beqz	s0,108d4 <__divdf3+0x1d4>
   10898:	00040513          	mv	a0,s0
   1089c:	37d030ef          	jal	14418 <__clzsi2>
   108a0:	ff550713          	add	a4,a0,-11
   108a4:	01d00793          	li	a5,29
   108a8:	ff850693          	add	a3,a0,-8
   108ac:	40e787b3          	sub	a5,a5,a4
   108b0:	00d41433          	sll	s0,s0,a3
   108b4:	00fbd7b3          	srl	a5,s7,a5
   108b8:	0087e7b3          	or	a5,a5,s0
   108bc:	00db9433          	sll	s0,s7,a3
   108c0:	c0d00693          	li	a3,-1011
   108c4:	00040f13          	mv	t5,s0
   108c8:	40a686b3          	sub	a3,a3,a0
   108cc:	00078413          	mv	s0,a5
   108d0:	ee1ff06f          	j	107b0 <__divdf3+0xb0>
   108d4:	000b8513          	mv	a0,s7
   108d8:	341030ef          	jal	14418 <__clzsi2>
   108dc:	00050793          	mv	a5,a0
   108e0:	01578713          	add	a4,a5,21
   108e4:	01c00693          	li	a3,28
   108e8:	02050513          	add	a0,a0,32
   108ec:	fae6dce3          	bge	a3,a4,108a4 <__divdf3+0x1a4>
   108f0:	ff878793          	add	a5,a5,-8
   108f4:	00fb97b3          	sll	a5,s7,a5
   108f8:	fc9ff06f          	j	108c0 <__divdf3+0x1c0>
   108fc:	01746f33          	or	t5,s0,s7
   10900:	020f0263          	beqz	t5,10924 <__divdf3+0x224>
   10904:	000b8f13          	mv	t5,s7
   10908:	7ff00693          	li	a3,2047
   1090c:	00300593          	li	a1,3
   10910:	ea5ff06f          	j	107b4 <__divdf3+0xb4>
   10914:	00000413          	li	s0,0
   10918:	00000693          	li	a3,0
   1091c:	00100593          	li	a1,1
   10920:	e95ff06f          	j	107b4 <__divdf3+0xb4>
   10924:	00000413          	li	s0,0
   10928:	7ff00693          	li	a3,2047
   1092c:	00200593          	li	a1,2
   10930:	e85ff06f          	j	107b4 <__divdf3+0xb4>
   10934:	00098713          	mv	a4,s3
   10938:	000a0413          	mv	s0,s4
   1093c:	00048f13          	mv	t5,s1
   10940:	00200793          	li	a5,2
   10944:	46fb0263          	beq	s6,a5,10da8 <__divdf3+0x6a8>
   10948:	00300793          	li	a5,3
   1094c:	44fb0463          	beq	s6,a5,10d94 <__divdf3+0x694>
   10950:	00100793          	li	a5,1
   10954:	2cfb1263          	bne	s6,a5,10c18 <__divdf3+0x518>
   10958:	00000413          	li	s0,0
   1095c:	00000693          	li	a3,0
   10960:	3f80006f          	j	10d58 <__divdf3+0x658>
   10964:	01446663          	bltu	s0,s4,10970 <__divdf3+0x270>
   10968:	348a1e63          	bne	s4,s0,10cc4 <__divdf3+0x5c4>
   1096c:	35e4ec63          	bltu	s1,t5,10cc4 <__divdf3+0x5c4>
   10970:	01fa1693          	sll	a3,s4,0x1f
   10974:	0014d793          	srl	a5,s1,0x1
   10978:	01f49313          	sll	t1,s1,0x1f
   1097c:	001a5a13          	srl	s4,s4,0x1
   10980:	00f6e4b3          	or	s1,a3,a5
   10984:	00841413          	sll	s0,s0,0x8
   10988:	01045893          	srl	a7,s0,0x10
   1098c:	031a5eb3          	divu	t4,s4,a7
   10990:	018f5593          	srl	a1,t5,0x18
   10994:	0085e5b3          	or	a1,a1,s0
   10998:	01059813          	sll	a6,a1,0x10
   1099c:	01085813          	srl	a6,a6,0x10
   109a0:	0104d793          	srl	a5,s1,0x10
   109a4:	008f1513          	sll	a0,t5,0x8
   109a8:	031a76b3          	remu	a3,s4,a7
   109ac:	03d80e33          	mul	t3,a6,t4
   109b0:	01069693          	sll	a3,a3,0x10
   109b4:	00d7e7b3          	or	a5,a5,a3
   109b8:	000e8693          	mv	a3,t4
   109bc:	01c7fe63          	bgeu	a5,t3,109d8 <__divdf3+0x2d8>
   109c0:	00f587b3          	add	a5,a1,a5
   109c4:	fffe8693          	add	a3,t4,-1
   109c8:	00b7e863          	bltu	a5,a1,109d8 <__divdf3+0x2d8>
   109cc:	01c7f663          	bgeu	a5,t3,109d8 <__divdf3+0x2d8>
   109d0:	ffee8693          	add	a3,t4,-2
   109d4:	00b787b3          	add	a5,a5,a1
   109d8:	41c787b3          	sub	a5,a5,t3
   109dc:	0317deb3          	divu	t4,a5,a7
   109e0:	01049493          	sll	s1,s1,0x10
   109e4:	0104d493          	srl	s1,s1,0x10
   109e8:	0317f7b3          	remu	a5,a5,a7
   109ec:	03d80e33          	mul	t3,a6,t4
   109f0:	01079793          	sll	a5,a5,0x10
   109f4:	00f4e4b3          	or	s1,s1,a5
   109f8:	000e8793          	mv	a5,t4
   109fc:	01c4fe63          	bgeu	s1,t3,10a18 <__divdf3+0x318>
   10a00:	009584b3          	add	s1,a1,s1
   10a04:	fffe8793          	add	a5,t4,-1
   10a08:	00b4e863          	bltu	s1,a1,10a18 <__divdf3+0x318>
   10a0c:	01c4f663          	bgeu	s1,t3,10a18 <__divdf3+0x318>
   10a10:	ffee8793          	add	a5,t4,-2
   10a14:	00b484b3          	add	s1,s1,a1
   10a18:	01069693          	sll	a3,a3,0x10
   10a1c:	000103b7          	lui	t2,0x10
   10a20:	00f6efb3          	or	t6,a3,a5
   10a24:	41c484b3          	sub	s1,s1,t3
   10a28:	fff38e13          	add	t3,t2,-1 # ffff <_start-0x1>
   10a2c:	01cff7b3          	and	a5,t6,t3
   10a30:	010fdf13          	srl	t5,t6,0x10
   10a34:	01055e93          	srl	t4,a0,0x10
   10a38:	01c57e33          	and	t3,a0,t3
   10a3c:	02fe02b3          	mul	t0,t3,a5
   10a40:	03cf0433          	mul	s0,t5,t3
   10a44:	0102d693          	srl	a3,t0,0x10
   10a48:	02fe87b3          	mul	a5,t4,a5
   10a4c:	008787b3          	add	a5,a5,s0
   10a50:	00f686b3          	add	a3,a3,a5
   10a54:	03df0f33          	mul	t5,t5,t4
   10a58:	0086f463          	bgeu	a3,s0,10a60 <__divdf3+0x360>
   10a5c:	007f0f33          	add	t5,t5,t2
   10a60:	0106d793          	srl	a5,a3,0x10
   10a64:	01e787b3          	add	a5,a5,t5
   10a68:	00010f37          	lui	t5,0x10
   10a6c:	ffff0f13          	add	t5,t5,-1 # ffff <_start-0x1>
   10a70:	01e6f6b3          	and	a3,a3,t5
   10a74:	01069693          	sll	a3,a3,0x10
   10a78:	01e2f2b3          	and	t0,t0,t5
   10a7c:	005686b3          	add	a3,a3,t0
   10a80:	00f4e863          	bltu	s1,a5,10a90 <__divdf3+0x390>
   10a84:	000f8413          	mv	s0,t6
   10a88:	04f49863          	bne	s1,a5,10ad8 <__divdf3+0x3d8>
   10a8c:	04d37663          	bgeu	t1,a3,10ad8 <__divdf3+0x3d8>
   10a90:	00a30f33          	add	t5,t1,a0
   10a94:	006f32b3          	sltu	t0,t5,t1
   10a98:	00b283b3          	add	t2,t0,a1
   10a9c:	007484b3          	add	s1,s1,t2
   10aa0:	ffff8413          	add	s0,t6,-1
   10aa4:	000f0313          	mv	t1,t5
   10aa8:	0095e663          	bltu	a1,s1,10ab4 <__divdf3+0x3b4>
   10aac:	02959663          	bne	a1,s1,10ad8 <__divdf3+0x3d8>
   10ab0:	02029463          	bnez	t0,10ad8 <__divdf3+0x3d8>
   10ab4:	00f4e663          	bltu	s1,a5,10ac0 <__divdf3+0x3c0>
   10ab8:	02979063          	bne	a5,s1,10ad8 <__divdf3+0x3d8>
   10abc:	00df7e63          	bgeu	t5,a3,10ad8 <__divdf3+0x3d8>
   10ac0:	01e50f33          	add	t5,a0,t5
   10ac4:	000f0313          	mv	t1,t5
   10ac8:	00af3f33          	sltu	t5,t5,a0
   10acc:	00bf0f33          	add	t5,t5,a1
   10ad0:	ffef8413          	add	s0,t6,-2
   10ad4:	01e484b3          	add	s1,s1,t5
   10ad8:	40d306b3          	sub	a3,t1,a3
   10adc:	40f484b3          	sub	s1,s1,a5
   10ae0:	00d33333          	sltu	t1,t1,a3
   10ae4:	406484b3          	sub	s1,s1,t1
   10ae8:	fff00f13          	li	t5,-1
   10aec:	12958663          	beq	a1,s1,10c18 <__divdf3+0x518>
   10af0:	0314dfb3          	divu	t6,s1,a7
   10af4:	0106d793          	srl	a5,a3,0x10
   10af8:	0314f4b3          	remu	s1,s1,a7
   10afc:	000f8313          	mv	t1,t6
   10b00:	03f80f33          	mul	t5,a6,t6
   10b04:	01049493          	sll	s1,s1,0x10
   10b08:	0097e7b3          	or	a5,a5,s1
   10b0c:	01e7fe63          	bgeu	a5,t5,10b28 <__divdf3+0x428>
   10b10:	00f587b3          	add	a5,a1,a5
   10b14:	ffff8313          	add	t1,t6,-1
   10b18:	00b7e863          	bltu	a5,a1,10b28 <__divdf3+0x428>
   10b1c:	01e7f663          	bgeu	a5,t5,10b28 <__divdf3+0x428>
   10b20:	ffef8313          	add	t1,t6,-2
   10b24:	00b787b3          	add	a5,a5,a1
   10b28:	41e787b3          	sub	a5,a5,t5
   10b2c:	0317df33          	divu	t5,a5,a7
   10b30:	01069693          	sll	a3,a3,0x10
   10b34:	0106d693          	srl	a3,a3,0x10
   10b38:	0317f7b3          	remu	a5,a5,a7
   10b3c:	03e80833          	mul	a6,a6,t5
   10b40:	01079793          	sll	a5,a5,0x10
   10b44:	00f6e7b3          	or	a5,a3,a5
   10b48:	000f0693          	mv	a3,t5
   10b4c:	0107fe63          	bgeu	a5,a6,10b68 <__divdf3+0x468>
   10b50:	00f587b3          	add	a5,a1,a5
   10b54:	ffff0693          	add	a3,t5,-1
   10b58:	00b7e863          	bltu	a5,a1,10b68 <__divdf3+0x468>
   10b5c:	0107f663          	bgeu	a5,a6,10b68 <__divdf3+0x468>
   10b60:	ffef0693          	add	a3,t5,-2
   10b64:	00b787b3          	add	a5,a5,a1
   10b68:	01031313          	sll	t1,t1,0x10
   10b6c:	00d36333          	or	t1,t1,a3
   10b70:	01031693          	sll	a3,t1,0x10
   10b74:	0106d693          	srl	a3,a3,0x10
   10b78:	01035893          	srl	a7,t1,0x10
   10b7c:	03c68f33          	mul	t5,a3,t3
   10b80:	410787b3          	sub	a5,a5,a6
   10b84:	03c88e33          	mul	t3,a7,t3
   10b88:	031e88b3          	mul	a7,t4,a7
   10b8c:	02de8eb3          	mul	t4,t4,a3
   10b90:	010f5693          	srl	a3,t5,0x10
   10b94:	01ce8eb3          	add	t4,t4,t3
   10b98:	01d686b3          	add	a3,a3,t4
   10b9c:	01c6f663          	bgeu	a3,t3,10ba8 <__divdf3+0x4a8>
   10ba0:	00010837          	lui	a6,0x10
   10ba4:	010888b3          	add	a7,a7,a6
   10ba8:	0106d813          	srl	a6,a3,0x10
   10bac:	01180833          	add	a6,a6,a7
   10bb0:	000108b7          	lui	a7,0x10
   10bb4:	fff88893          	add	a7,a7,-1 # ffff <_start-0x1>
   10bb8:	0116f6b3          	and	a3,a3,a7
   10bbc:	01069693          	sll	a3,a3,0x10
   10bc0:	011f7f33          	and	t5,t5,a7
   10bc4:	01e686b3          	add	a3,a3,t5
   10bc8:	0107e863          	bltu	a5,a6,10bd8 <__divdf3+0x4d8>
   10bcc:	00030f13          	mv	t5,t1
   10bd0:	05079263          	bne	a5,a6,10c14 <__divdf3+0x514>
   10bd4:	04068263          	beqz	a3,10c18 <__divdf3+0x518>
   10bd8:	00f587b3          	add	a5,a1,a5
   10bdc:	fff30f13          	add	t5,t1,-1 # 100a7 <frame_dummy+0x13>
   10be0:	00078893          	mv	a7,a5
   10be4:	02b7e463          	bltu	a5,a1,10c0c <__divdf3+0x50c>
   10be8:	0107e663          	bltu	a5,a6,10bf4 <__divdf3+0x4f4>
   10bec:	03079463          	bne	a5,a6,10c14 <__divdf3+0x514>
   10bf0:	02d57063          	bgeu	a0,a3,10c10 <__divdf3+0x510>
   10bf4:	ffe30f13          	add	t5,t1,-2
   10bf8:	00151313          	sll	t1,a0,0x1
   10bfc:	00a338b3          	sltu	a7,t1,a0
   10c00:	00b888b3          	add	a7,a7,a1
   10c04:	011788b3          	add	a7,a5,a7
   10c08:	00030513          	mv	a0,t1
   10c0c:	01089463          	bne	a7,a6,10c14 <__divdf3+0x514>
   10c10:	00a68463          	beq	a3,a0,10c18 <__divdf3+0x518>
   10c14:	001f6f13          	or	t5,t5,1
   10c18:	3ff60793          	add	a5,a2,1023
   10c1c:	0cf05063          	blez	a5,10cdc <__divdf3+0x5dc>
   10c20:	007f7693          	and	a3,t5,7
   10c24:	02068063          	beqz	a3,10c44 <__divdf3+0x544>
   10c28:	00ff7693          	and	a3,t5,15
   10c2c:	00400593          	li	a1,4
   10c30:	00b68a63          	beq	a3,a1,10c44 <__divdf3+0x544>
   10c34:	004f0693          	add	a3,t5,4
   10c38:	01e6b5b3          	sltu	a1,a3,t5
   10c3c:	00b40433          	add	s0,s0,a1
   10c40:	00068f13          	mv	t5,a3
   10c44:	010006b7          	lui	a3,0x1000
   10c48:	00d476b3          	and	a3,s0,a3
   10c4c:	00068a63          	beqz	a3,10c60 <__divdf3+0x560>
   10c50:	ff0007b7          	lui	a5,0xff000
   10c54:	fff78793          	add	a5,a5,-1 # feffffff <_end+0xfefd602f>
   10c58:	00f47433          	and	s0,s0,a5
   10c5c:	40060793          	add	a5,a2,1024
   10c60:	7fe00693          	li	a3,2046
   10c64:	14f6c263          	blt	a3,a5,10da8 <__divdf3+0x6a8>
   10c68:	01d41693          	sll	a3,s0,0x1d
   10c6c:	003f5f13          	srl	t5,t5,0x3
   10c70:	01e6e6b3          	or	a3,a3,t5
   10c74:	00345413          	srl	s0,s0,0x3
   10c78:	00c41413          	sll	s0,s0,0xc
   10c7c:	00c45413          	srl	s0,s0,0xc
   10c80:	01479793          	sll	a5,a5,0x14
   10c84:	02c12083          	lw	ra,44(sp)
   10c88:	0087e7b3          	or	a5,a5,s0
   10c8c:	02812403          	lw	s0,40(sp)
   10c90:	01f71713          	sll	a4,a4,0x1f
   10c94:	00e7e633          	or	a2,a5,a4
   10c98:	02412483          	lw	s1,36(sp)
   10c9c:	02012903          	lw	s2,32(sp)
   10ca0:	01c12983          	lw	s3,28(sp)
   10ca4:	01812a03          	lw	s4,24(sp)
   10ca8:	01412a83          	lw	s5,20(sp)
   10cac:	01012b03          	lw	s6,16(sp)
   10cb0:	00c12b83          	lw	s7,12(sp)
   10cb4:	00068513          	mv	a0,a3
   10cb8:	00060593          	mv	a1,a2
   10cbc:	03010113          	add	sp,sp,48
   10cc0:	00008067          	ret
   10cc4:	fff60613          	add	a2,a2,-1
   10cc8:	00000313          	li	t1,0
   10ccc:	cb9ff06f          	j	10984 <__divdf3+0x284>
   10cd0:	00090713          	mv	a4,s2
   10cd4:	00058b13          	mv	s6,a1
   10cd8:	c69ff06f          	j	10940 <__divdf3+0x240>
   10cdc:	00100593          	li	a1,1
   10ce0:	00078c63          	beqz	a5,10cf8 <__divdf3+0x5f8>
   10ce4:	40f585b3          	sub	a1,a1,a5
   10ce8:	03800693          	li	a3,56
   10cec:	c6b6c6e3          	blt	a3,a1,10958 <__divdf3+0x258>
   10cf0:	01f00693          	li	a3,31
   10cf4:	06b6c663          	blt	a3,a1,10d60 <__divdf3+0x660>
   10cf8:	41e60613          	add	a2,a2,1054
   10cfc:	00bf57b3          	srl	a5,t5,a1
   10d00:	00cf1f33          	sll	t5,t5,a2
   10d04:	01e03f33          	snez	t5,t5
   10d08:	00c41633          	sll	a2,s0,a2
   10d0c:	00cf6f33          	or	t5,t5,a2
   10d10:	01e7e7b3          	or	a5,a5,t5
   10d14:	00b45433          	srl	s0,s0,a1
   10d18:	0077f693          	and	a3,a5,7
   10d1c:	02068063          	beqz	a3,10d3c <__divdf3+0x63c>
   10d20:	00f7f693          	and	a3,a5,15
   10d24:	00400613          	li	a2,4
   10d28:	00c68a63          	beq	a3,a2,10d3c <__divdf3+0x63c>
   10d2c:	00478693          	add	a3,a5,4
   10d30:	00f6b633          	sltu	a2,a3,a5
   10d34:	00c40433          	add	s0,s0,a2
   10d38:	00068793          	mv	a5,a3
   10d3c:	008006b7          	lui	a3,0x800
   10d40:	00d476b3          	and	a3,s0,a3
   10d44:	06069a63          	bnez	a3,10db8 <__divdf3+0x6b8>
   10d48:	01d41693          	sll	a3,s0,0x1d
   10d4c:	0037d793          	srl	a5,a5,0x3
   10d50:	00f6e6b3          	or	a3,a3,a5
   10d54:	00345413          	srl	s0,s0,0x3
   10d58:	00000793          	li	a5,0
   10d5c:	f1dff06f          	j	10c78 <__divdf3+0x578>
   10d60:	fe100693          	li	a3,-31
   10d64:	40f687b3          	sub	a5,a3,a5
   10d68:	02000513          	li	a0,32
   10d6c:	00f457b3          	srl	a5,s0,a5
   10d70:	00000693          	li	a3,0
   10d74:	00a58663          	beq	a1,a0,10d80 <__divdf3+0x680>
   10d78:	43e60613          	add	a2,a2,1086
   10d7c:	00c416b3          	sll	a3,s0,a2
   10d80:	01e6e6b3          	or	a3,a3,t5
   10d84:	00d036b3          	snez	a3,a3
   10d88:	00d7e7b3          	or	a5,a5,a3
   10d8c:	00000413          	li	s0,0
   10d90:	f89ff06f          	j	10d18 <__divdf3+0x618>
   10d94:	00080437          	lui	s0,0x80
   10d98:	00000693          	li	a3,0
   10d9c:	7ff00793          	li	a5,2047
   10da0:	00000713          	li	a4,0
   10da4:	ed5ff06f          	j	10c78 <__divdf3+0x578>
   10da8:	00000413          	li	s0,0
   10dac:	00000693          	li	a3,0
   10db0:	7ff00793          	li	a5,2047
   10db4:	ec5ff06f          	j	10c78 <__divdf3+0x578>
   10db8:	00000413          	li	s0,0
   10dbc:	00000693          	li	a3,0
   10dc0:	00100793          	li	a5,1
   10dc4:	eb5ff06f          	j	10c78 <__divdf3+0x578>

00010dc8 <__muldf3>:
   10dc8:	fd010113          	add	sp,sp,-48
   10dcc:	01512a23          	sw	s5,20(sp)
   10dd0:	0145da93          	srl	s5,a1,0x14
   10dd4:	02812423          	sw	s0,40(sp)
   10dd8:	02912223          	sw	s1,36(sp)
   10ddc:	01312e23          	sw	s3,28(sp)
   10de0:	01412c23          	sw	s4,24(sp)
   10de4:	01612823          	sw	s6,16(sp)
   10de8:	00c59493          	sll	s1,a1,0xc
   10dec:	02112623          	sw	ra,44(sp)
   10df0:	03212023          	sw	s2,32(sp)
   10df4:	01712623          	sw	s7,12(sp)
   10df8:	7ffafa93          	and	s5,s5,2047
   10dfc:	00050413          	mv	s0,a0
   10e00:	00060b13          	mv	s6,a2
   10e04:	00068993          	mv	s3,a3
   10e08:	00c4d493          	srl	s1,s1,0xc
   10e0c:	01f5da13          	srl	s4,a1,0x1f
   10e10:	300a8063          	beqz	s5,11110 <__muldf3+0x348>
   10e14:	7ff00793          	li	a5,2047
   10e18:	36fa8263          	beq	s5,a5,1117c <__muldf3+0x3b4>
   10e1c:	00349493          	sll	s1,s1,0x3
   10e20:	01d55793          	srl	a5,a0,0x1d
   10e24:	0097e7b3          	or	a5,a5,s1
   10e28:	008004b7          	lui	s1,0x800
   10e2c:	0097e4b3          	or	s1,a5,s1
   10e30:	00351913          	sll	s2,a0,0x3
   10e34:	c01a8a93          	add	s5,s5,-1023
   10e38:	00000b93          	li	s7,0
   10e3c:	0149d713          	srl	a4,s3,0x14
   10e40:	00c99413          	sll	s0,s3,0xc
   10e44:	7ff77713          	and	a4,a4,2047
   10e48:	00c45413          	srl	s0,s0,0xc
   10e4c:	01f9d993          	srl	s3,s3,0x1f
   10e50:	36070263          	beqz	a4,111b4 <__muldf3+0x3ec>
   10e54:	7ff00793          	li	a5,2047
   10e58:	3cf70663          	beq	a4,a5,11224 <__muldf3+0x45c>
   10e5c:	00341413          	sll	s0,s0,0x3
   10e60:	01db5793          	srl	a5,s6,0x1d
   10e64:	0087e7b3          	or	a5,a5,s0
   10e68:	00800437          	lui	s0,0x800
   10e6c:	0087e433          	or	s0,a5,s0
   10e70:	c0170693          	add	a3,a4,-1023
   10e74:	003b1793          	sll	a5,s6,0x3
   10e78:	00000513          	li	a0,0
   10e7c:	002b9713          	sll	a4,s7,0x2
   10e80:	00da8ab3          	add	s5,s5,a3
   10e84:	00a76733          	or	a4,a4,a0
   10e88:	00a00693          	li	a3,10
   10e8c:	013a4633          	xor	a2,s4,s3
   10e90:	001a8593          	add	a1,s5,1
   10e94:	40e6c863          	blt	a3,a4,112a4 <__muldf3+0x4dc>
   10e98:	00200693          	li	a3,2
   10e9c:	3ce6c063          	blt	a3,a4,1125c <__muldf3+0x494>
   10ea0:	fff70713          	add	a4,a4,-1
   10ea4:	00100693          	li	a3,1
   10ea8:	3ce6fc63          	bgeu	a3,a4,11280 <__muldf3+0x4b8>
   10eac:	00010837          	lui	a6,0x10
   10eb0:	fff80e93          	add	t4,a6,-1 # ffff <_start-0x1>
   10eb4:	01095693          	srl	a3,s2,0x10
   10eb8:	0107d893          	srl	a7,a5,0x10
   10ebc:	01d97933          	and	s2,s2,t4
   10ec0:	01d7ff33          	and	t5,a5,t4
   10ec4:	03e907b3          	mul	a5,s2,t5
   10ec8:	03e68333          	mul	t1,a3,t5
   10ecc:	0107d513          	srl	a0,a5,0x10
   10ed0:	03288733          	mul	a4,a7,s2
   10ed4:	00670733          	add	a4,a4,t1
   10ed8:	00e50533          	add	a0,a0,a4
   10edc:	03168e33          	mul	t3,a3,a7
   10ee0:	00657463          	bgeu	a0,t1,10ee8 <__muldf3+0x120>
   10ee4:	010e0e33          	add	t3,t3,a6
   10ee8:	01055713          	srl	a4,a0,0x10
   10eec:	01d57533          	and	a0,a0,t4
   10ef0:	01d7f7b3          	and	a5,a5,t4
   10ef4:	01045813          	srl	a6,s0,0x10
   10ef8:	01d47eb3          	and	t4,s0,t4
   10efc:	01051513          	sll	a0,a0,0x10
   10f00:	00f50533          	add	a0,a0,a5
   10f04:	03d90fb3          	mul	t6,s2,t4
   10f08:	03d687b3          	mul	a5,a3,t4
   10f0c:	03280933          	mul	s2,a6,s2
   10f10:	03068333          	mul	t1,a3,a6
   10f14:	00f90933          	add	s2,s2,a5
   10f18:	010fd693          	srl	a3,t6,0x10
   10f1c:	012686b3          	add	a3,a3,s2
   10f20:	00f6f663          	bgeu	a3,a5,10f2c <__muldf3+0x164>
   10f24:	000107b7          	lui	a5,0x10
   10f28:	00f30333          	add	t1,t1,a5
   10f2c:	000103b7          	lui	t2,0x10
   10f30:	0106d793          	srl	a5,a3,0x10
   10f34:	fff38293          	add	t0,t2,-1 # ffff <_start-0x1>
   10f38:	00678333          	add	t1,a5,t1
   10f3c:	0056f7b3          	and	a5,a3,t0
   10f40:	005fffb3          	and	t6,t6,t0
   10f44:	0104d913          	srl	s2,s1,0x10
   10f48:	0054f2b3          	and	t0,s1,t0
   10f4c:	01079793          	sll	a5,a5,0x10
   10f50:	01f787b3          	add	a5,a5,t6
   10f54:	03288433          	mul	s0,a7,s2
   10f58:	00f70733          	add	a4,a4,a5
   10f5c:	025f0fb3          	mul	t6,t5,t0
   10f60:	025888b3          	mul	a7,a7,t0
   10f64:	010fd693          	srl	a3,t6,0x10
   10f68:	03e90f33          	mul	t5,s2,t5
   10f6c:	01e888b3          	add	a7,a7,t5
   10f70:	011686b3          	add	a3,a3,a7
   10f74:	01e6f463          	bgeu	a3,t5,10f7c <__muldf3+0x1b4>
   10f78:	00740433          	add	s0,s0,t2
   10f7c:	025e83b3          	mul	t2,t4,t0
   10f80:	0106df13          	srl	t5,a3,0x10
   10f84:	000104b7          	lui	s1,0x10
   10f88:	008f0f33          	add	t5,t5,s0
   10f8c:	fff48413          	add	s0,s1,-1 # ffff <_start-0x1>
   10f90:	0086f6b3          	and	a3,a3,s0
   10f94:	01069693          	sll	a3,a3,0x10
   10f98:	008fffb3          	and	t6,t6,s0
   10f9c:	01f68fb3          	add	t6,a3,t6
   10fa0:	03d90eb3          	mul	t4,s2,t4
   10fa4:	0103d693          	srl	a3,t2,0x10
   10fa8:	032808b3          	mul	a7,a6,s2
   10fac:	02580833          	mul	a6,a6,t0
   10fb0:	01d80833          	add	a6,a6,t4
   10fb4:	01068833          	add	a6,a3,a6
   10fb8:	01d87463          	bgeu	a6,t4,10fc0 <__muldf3+0x1f8>
   10fbc:	009888b3          	add	a7,a7,s1
   10fc0:	008876b3          	and	a3,a6,s0
   10fc4:	0083f3b3          	and	t2,t2,s0
   10fc8:	01069693          	sll	a3,a3,0x10
   10fcc:	01c70733          	add	a4,a4,t3
   10fd0:	007686b3          	add	a3,a3,t2
   10fd4:	00668333          	add	t1,a3,t1
   10fd8:	00f737b3          	sltu	a5,a4,a5
   10fdc:	00f307b3          	add	a5,t1,a5
   10fe0:	00d336b3          	sltu	a3,t1,a3
   10fe4:	0067b333          	sltu	t1,a5,t1
   10fe8:	01085813          	srl	a6,a6,0x10
   10fec:	0066e6b3          	or	a3,a3,t1
   10ff0:	010686b3          	add	a3,a3,a6
   10ff4:	01f70833          	add	a6,a4,t6
   10ff8:	01e78f33          	add	t5,a5,t5
   10ffc:	00e83733          	sltu	a4,a6,a4
   11000:	00ef0733          	add	a4,t5,a4
   11004:	00ff3433          	sltu	s0,t5,a5
   11008:	01e73f33          	sltu	t5,a4,t5
   1100c:	01e46433          	or	s0,s0,t5
   11010:	00d40433          	add	s0,s0,a3
   11014:	01140433          	add	s0,s0,a7
   11018:	01775793          	srl	a5,a4,0x17
   1101c:	00941413          	sll	s0,s0,0x9
   11020:	00f46433          	or	s0,s0,a5
   11024:	00981793          	sll	a5,a6,0x9
   11028:	00a7e7b3          	or	a5,a5,a0
   1102c:	00f037b3          	snez	a5,a5
   11030:	01785813          	srl	a6,a6,0x17
   11034:	00971713          	sll	a4,a4,0x9
   11038:	0107e7b3          	or	a5,a5,a6
   1103c:	00e7e7b3          	or	a5,a5,a4
   11040:	01000737          	lui	a4,0x1000
   11044:	00e47733          	and	a4,s0,a4
   11048:	28070063          	beqz	a4,112c8 <__muldf3+0x500>
   1104c:	0017d713          	srl	a4,a5,0x1
   11050:	0017f793          	and	a5,a5,1
   11054:	00f76733          	or	a4,a4,a5
   11058:	01f41793          	sll	a5,s0,0x1f
   1105c:	00f767b3          	or	a5,a4,a5
   11060:	00145413          	srl	s0,s0,0x1
   11064:	3ff58693          	add	a3,a1,1023
   11068:	26d05463          	blez	a3,112d0 <__muldf3+0x508>
   1106c:	0077f713          	and	a4,a5,7
   11070:	02070063          	beqz	a4,11090 <__muldf3+0x2c8>
   11074:	00f7f713          	and	a4,a5,15
   11078:	00400513          	li	a0,4
   1107c:	00a70a63          	beq	a4,a0,11090 <__muldf3+0x2c8>
   11080:	00478713          	add	a4,a5,4 # 10004 <_start+0x4>
   11084:	00f73533          	sltu	a0,a4,a5
   11088:	00a40433          	add	s0,s0,a0
   1108c:	00070793          	mv	a5,a4
   11090:	01000737          	lui	a4,0x1000
   11094:	00e47733          	and	a4,s0,a4
   11098:	00070a63          	beqz	a4,110ac <__muldf3+0x2e4>
   1109c:	ff000737          	lui	a4,0xff000
   110a0:	fff70713          	add	a4,a4,-1 # feffffff <_end+0xfefd602f>
   110a4:	00e47433          	and	s0,s0,a4
   110a8:	40058693          	add	a3,a1,1024
   110ac:	7fe00713          	li	a4,2046
   110b0:	2ed74a63          	blt	a4,a3,113a4 <__muldf3+0x5dc>
   110b4:	01d41713          	sll	a4,s0,0x1d
   110b8:	0037d793          	srl	a5,a5,0x3
   110bc:	00f76733          	or	a4,a4,a5
   110c0:	00345413          	srl	s0,s0,0x3
   110c4:	00c41413          	sll	s0,s0,0xc
   110c8:	00c45413          	srl	s0,s0,0xc
   110cc:	01469693          	sll	a3,a3,0x14
   110d0:	02c12083          	lw	ra,44(sp)
   110d4:	0086e6b3          	or	a3,a3,s0
   110d8:	02812403          	lw	s0,40(sp)
   110dc:	01f61613          	sll	a2,a2,0x1f
   110e0:	00c6e7b3          	or	a5,a3,a2
   110e4:	02412483          	lw	s1,36(sp)
   110e8:	02012903          	lw	s2,32(sp)
   110ec:	01c12983          	lw	s3,28(sp)
   110f0:	01812a03          	lw	s4,24(sp)
   110f4:	01412a83          	lw	s5,20(sp)
   110f8:	01012b03          	lw	s6,16(sp)
   110fc:	00c12b83          	lw	s7,12(sp)
   11100:	00070513          	mv	a0,a4
   11104:	00078593          	mv	a1,a5
   11108:	03010113          	add	sp,sp,48
   1110c:	00008067          	ret
   11110:	00a4e933          	or	s2,s1,a0
   11114:	08090063          	beqz	s2,11194 <__muldf3+0x3cc>
   11118:	04048063          	beqz	s1,11158 <__muldf3+0x390>
   1111c:	00048513          	mv	a0,s1
   11120:	2f8030ef          	jal	14418 <__clzsi2>
   11124:	ff550713          	add	a4,a0,-11
   11128:	01d00793          	li	a5,29
   1112c:	ff850693          	add	a3,a0,-8
   11130:	40e787b3          	sub	a5,a5,a4
   11134:	00d494b3          	sll	s1,s1,a3
   11138:	00f457b3          	srl	a5,s0,a5
   1113c:	0097e7b3          	or	a5,a5,s1
   11140:	00d414b3          	sll	s1,s0,a3
   11144:	c0d00a93          	li	s5,-1011
   11148:	00048913          	mv	s2,s1
   1114c:	40aa8ab3          	sub	s5,s5,a0
   11150:	00078493          	mv	s1,a5
   11154:	ce5ff06f          	j	10e38 <__muldf3+0x70>
   11158:	2c0030ef          	jal	14418 <__clzsi2>
   1115c:	00050793          	mv	a5,a0
   11160:	01578713          	add	a4,a5,21
   11164:	01c00693          	li	a3,28
   11168:	02050513          	add	a0,a0,32
   1116c:	fae6dee3          	bge	a3,a4,11128 <__muldf3+0x360>
   11170:	ff878793          	add	a5,a5,-8
   11174:	00f417b3          	sll	a5,s0,a5
   11178:	fcdff06f          	j	11144 <__muldf3+0x37c>
   1117c:	00a4e933          	or	s2,s1,a0
   11180:	02090263          	beqz	s2,111a4 <__muldf3+0x3dc>
   11184:	00050913          	mv	s2,a0
   11188:	7ff00a93          	li	s5,2047
   1118c:	00300b93          	li	s7,3
   11190:	cadff06f          	j	10e3c <__muldf3+0x74>
   11194:	00000493          	li	s1,0
   11198:	00000a93          	li	s5,0
   1119c:	00100b93          	li	s7,1
   111a0:	c9dff06f          	j	10e3c <__muldf3+0x74>
   111a4:	00000493          	li	s1,0
   111a8:	7ff00a93          	li	s5,2047
   111ac:	00200b93          	li	s7,2
   111b0:	c8dff06f          	j	10e3c <__muldf3+0x74>
   111b4:	016467b3          	or	a5,s0,s6
   111b8:	08078263          	beqz	a5,1123c <__muldf3+0x474>
   111bc:	04040063          	beqz	s0,111fc <__muldf3+0x434>
   111c0:	00040513          	mv	a0,s0
   111c4:	254030ef          	jal	14418 <__clzsi2>
   111c8:	ff550693          	add	a3,a0,-11
   111cc:	01d00713          	li	a4,29
   111d0:	ff850793          	add	a5,a0,-8
   111d4:	40d70733          	sub	a4,a4,a3
   111d8:	00f41433          	sll	s0,s0,a5
   111dc:	00eb5733          	srl	a4,s6,a4
   111e0:	00876733          	or	a4,a4,s0
   111e4:	00fb1433          	sll	s0,s6,a5
   111e8:	c0d00693          	li	a3,-1011
   111ec:	00040793          	mv	a5,s0
   111f0:	40a686b3          	sub	a3,a3,a0
   111f4:	00070413          	mv	s0,a4
   111f8:	c81ff06f          	j	10e78 <__muldf3+0xb0>
   111fc:	000b0513          	mv	a0,s6
   11200:	218030ef          	jal	14418 <__clzsi2>
   11204:	00050793          	mv	a5,a0
   11208:	01578693          	add	a3,a5,21
   1120c:	01c00713          	li	a4,28
   11210:	02050513          	add	a0,a0,32
   11214:	fad75ce3          	bge	a4,a3,111cc <__muldf3+0x404>
   11218:	ff878793          	add	a5,a5,-8
   1121c:	00fb1733          	sll	a4,s6,a5
   11220:	fc9ff06f          	j	111e8 <__muldf3+0x420>
   11224:	016467b3          	or	a5,s0,s6
   11228:	02078263          	beqz	a5,1124c <__muldf3+0x484>
   1122c:	000b0793          	mv	a5,s6
   11230:	7ff00693          	li	a3,2047
   11234:	00300513          	li	a0,3
   11238:	c45ff06f          	j	10e7c <__muldf3+0xb4>
   1123c:	00000413          	li	s0,0
   11240:	00000693          	li	a3,0
   11244:	00100513          	li	a0,1
   11248:	c35ff06f          	j	10e7c <__muldf3+0xb4>
   1124c:	00000413          	li	s0,0
   11250:	7ff00693          	li	a3,2047
   11254:	00200513          	li	a0,2
   11258:	c25ff06f          	j	10e7c <__muldf3+0xb4>
   1125c:	00100693          	li	a3,1
   11260:	00e696b3          	sll	a3,a3,a4
   11264:	5306f713          	and	a4,a3,1328
   11268:	04071863          	bnez	a4,112b8 <__muldf3+0x4f0>
   1126c:	2406f813          	and	a6,a3,576
   11270:	10081c63          	bnez	a6,11388 <__muldf3+0x5c0>
   11274:	0886f693          	and	a3,a3,136
   11278:	c2068ae3          	beqz	a3,10eac <__muldf3+0xe4>
   1127c:	00098613          	mv	a2,s3
   11280:	00200713          	li	a4,2
   11284:	12e50063          	beq	a0,a4,113a4 <__muldf3+0x5dc>
   11288:	00300713          	li	a4,3
   1128c:	10e50663          	beq	a0,a4,11398 <__muldf3+0x5d0>
   11290:	00100713          	li	a4,1
   11294:	dce518e3          	bne	a0,a4,11064 <__muldf3+0x29c>
   11298:	00000413          	li	s0,0
   1129c:	00000713          	li	a4,0
   112a0:	0ac0006f          	j	1134c <__muldf3+0x584>
   112a4:	00f00693          	li	a3,15
   112a8:	0ed70863          	beq	a4,a3,11398 <__muldf3+0x5d0>
   112ac:	00b00693          	li	a3,11
   112b0:	000a0613          	mv	a2,s4
   112b4:	fcd704e3          	beq	a4,a3,1127c <__muldf3+0x4b4>
   112b8:	00048413          	mv	s0,s1
   112bc:	00090793          	mv	a5,s2
   112c0:	000b8513          	mv	a0,s7
   112c4:	fbdff06f          	j	11280 <__muldf3+0x4b8>
   112c8:	000a8593          	mv	a1,s5
   112cc:	d99ff06f          	j	11064 <__muldf3+0x29c>
   112d0:	00100513          	li	a0,1
   112d4:	00068c63          	beqz	a3,112ec <__muldf3+0x524>
   112d8:	40d50533          	sub	a0,a0,a3
   112dc:	03800713          	li	a4,56
   112e0:	faa74ce3          	blt	a4,a0,11298 <__muldf3+0x4d0>
   112e4:	01f00713          	li	a4,31
   112e8:	06a74663          	blt	a4,a0,11354 <__muldf3+0x58c>
   112ec:	41e58593          	add	a1,a1,1054
   112f0:	00a7d733          	srl	a4,a5,a0
   112f4:	00b797b3          	sll	a5,a5,a1
   112f8:	00f037b3          	snez	a5,a5
   112fc:	00b415b3          	sll	a1,s0,a1
   11300:	00b7e7b3          	or	a5,a5,a1
   11304:	00e7e7b3          	or	a5,a5,a4
   11308:	00a45433          	srl	s0,s0,a0
   1130c:	0077f713          	and	a4,a5,7
   11310:	02070063          	beqz	a4,11330 <__muldf3+0x568>
   11314:	00f7f713          	and	a4,a5,15
   11318:	00400693          	li	a3,4
   1131c:	00d70a63          	beq	a4,a3,11330 <__muldf3+0x568>
   11320:	00478713          	add	a4,a5,4
   11324:	00f736b3          	sltu	a3,a4,a5
   11328:	00d40433          	add	s0,s0,a3
   1132c:	00070793          	mv	a5,a4
   11330:	00800737          	lui	a4,0x800
   11334:	00e47733          	and	a4,s0,a4
   11338:	06071e63          	bnez	a4,113b4 <__muldf3+0x5ec>
   1133c:	01d41713          	sll	a4,s0,0x1d
   11340:	0037d793          	srl	a5,a5,0x3
   11344:	00f76733          	or	a4,a4,a5
   11348:	00345413          	srl	s0,s0,0x3
   1134c:	00000693          	li	a3,0
   11350:	d75ff06f          	j	110c4 <__muldf3+0x2fc>
   11354:	fe100713          	li	a4,-31
   11358:	40d70733          	sub	a4,a4,a3
   1135c:	02000813          	li	a6,32
   11360:	00e45733          	srl	a4,s0,a4
   11364:	00000693          	li	a3,0
   11368:	01050663          	beq	a0,a6,11374 <__muldf3+0x5ac>
   1136c:	43e58593          	add	a1,a1,1086
   11370:	00b416b3          	sll	a3,s0,a1
   11374:	00f6e6b3          	or	a3,a3,a5
   11378:	00d036b3          	snez	a3,a3
   1137c:	00d767b3          	or	a5,a4,a3
   11380:	00000413          	li	s0,0
   11384:	f89ff06f          	j	1130c <__muldf3+0x544>
   11388:	00080437          	lui	s0,0x80
   1138c:	7ff00693          	li	a3,2047
   11390:	00000613          	li	a2,0
   11394:	d31ff06f          	j	110c4 <__muldf3+0x2fc>
   11398:	00080437          	lui	s0,0x80
   1139c:	00000713          	li	a4,0
   113a0:	fedff06f          	j	1138c <__muldf3+0x5c4>
   113a4:	00000413          	li	s0,0
   113a8:	00000713          	li	a4,0
   113ac:	7ff00693          	li	a3,2047
   113b0:	d15ff06f          	j	110c4 <__muldf3+0x2fc>
   113b4:	00000413          	li	s0,0
   113b8:	00000713          	li	a4,0
   113bc:	00100693          	li	a3,1
   113c0:	d05ff06f          	j	110c4 <__muldf3+0x2fc>

000113c4 <__eqtf2>:
   113c4:	00c52703          	lw	a4,12(a0)
   113c8:	00c5a603          	lw	a2,12(a1)
   113cc:	0005a283          	lw	t0,0(a1)
   113d0:	0045af83          	lw	t6,4(a1)
   113d4:	0085af03          	lw	t5,8(a1)
   113d8:	000085b7          	lui	a1,0x8
   113dc:	01075813          	srl	a6,a4,0x10
   113e0:	fff58593          	add	a1,a1,-1 # 7fff <_start-0x8001>
   113e4:	01071893          	sll	a7,a4,0x10
   113e8:	01061e93          	sll	t4,a2,0x10
   113ec:	01065693          	srl	a3,a2,0x10
   113f0:	00b87833          	and	a6,a6,a1
   113f4:	00052783          	lw	a5,0(a0)
   113f8:	00452e03          	lw	t3,4(a0)
   113fc:	00852303          	lw	t1,8(a0)
   11400:	ff010113          	add	sp,sp,-16
   11404:	0108d893          	srl	a7,a7,0x10
   11408:	01f75713          	srl	a4,a4,0x1f
   1140c:	010ede93          	srl	t4,t4,0x10
   11410:	00b6f6b3          	and	a3,a3,a1
   11414:	01f65613          	srl	a2,a2,0x1f
   11418:	00100513          	li	a0,1
   1141c:	00b80863          	beq	a6,a1,1142c <__eqtf2+0x68>
   11420:	02b69e63          	bne	a3,a1,1145c <__eqtf2+0x98>
   11424:	01010113          	add	sp,sp,16
   11428:	00008067          	ret
   1142c:	ff069ce3          	bne	a3,a6,11424 <__eqtf2+0x60>
   11430:	01c7e7b3          	or	a5,a5,t3
   11434:	0067e7b3          	or	a5,a5,t1
   11438:	0117e7b3          	or	a5,a5,a7
   1143c:	0057e7b3          	or	a5,a5,t0
   11440:	01f7e7b3          	or	a5,a5,t6
   11444:	01e7e7b3          	or	a5,a5,t5
   11448:	01d7e7b3          	or	a5,a5,t4
   1144c:	fc079ce3          	bnez	a5,11424 <__eqtf2+0x60>
   11450:	40c70733          	sub	a4,a4,a2
   11454:	00e03533          	snez	a0,a4
   11458:	fcdff06f          	j	11424 <__eqtf2+0x60>
   1145c:	00100513          	li	a0,1
   11460:	fd0692e3          	bne	a3,a6,11424 <__eqtf2+0x60>
   11464:	fc5790e3          	bne	a5,t0,11424 <__eqtf2+0x60>
   11468:	fbfe1ee3          	bne	t3,t6,11424 <__eqtf2+0x60>
   1146c:	fbe31ce3          	bne	t1,t5,11424 <__eqtf2+0x60>
   11470:	fbd89ae3          	bne	a7,t4,11424 <__eqtf2+0x60>
   11474:	00c70e63          	beq	a4,a2,11490 <__eqtf2+0xcc>
   11478:	fa0696e3          	bnez	a3,11424 <__eqtf2+0x60>
   1147c:	01c7e533          	or	a0,a5,t3
   11480:	00656533          	or	a0,a0,t1
   11484:	01156533          	or	a0,a0,a7
   11488:	00a03533          	snez	a0,a0
   1148c:	f99ff06f          	j	11424 <__eqtf2+0x60>
   11490:	00000513          	li	a0,0
   11494:	f91ff06f          	j	11424 <__eqtf2+0x60>

00011498 <__getf2>:
   11498:	00052883          	lw	a7,0(a0)
   1149c:	00452303          	lw	t1,4(a0)
   114a0:	00852e03          	lw	t3,8(a0)
   114a4:	00c52503          	lw	a0,12(a0)
   114a8:	00c5a803          	lw	a6,12(a1)
   114ac:	00008737          	lui	a4,0x8
   114b0:	01055693          	srl	a3,a0,0x10
   114b4:	fff70713          	add	a4,a4,-1 # 7fff <_start-0x8001>
   114b8:	01051613          	sll	a2,a0,0x10
   114bc:	01081f13          	sll	t5,a6,0x10
   114c0:	0005a783          	lw	a5,0(a1)
   114c4:	0045af83          	lw	t6,4(a1)
   114c8:	0085ae83          	lw	t4,8(a1)
   114cc:	00e6f6b3          	and	a3,a3,a4
   114d0:	01f55593          	srl	a1,a0,0x1f
   114d4:	01085513          	srl	a0,a6,0x10
   114d8:	ff010113          	add	sp,sp,-16
   114dc:	01065613          	srl	a2,a2,0x10
   114e0:	010f5f13          	srl	t5,t5,0x10
   114e4:	00e57533          	and	a0,a0,a4
   114e8:	01f85813          	srl	a6,a6,0x1f
   114ec:	04e69663          	bne	a3,a4,11538 <__getf2+0xa0>
   114f0:	011368b3          	or	a7,t1,a7
   114f4:	01c8e8b3          	or	a7,a7,t3
   114f8:	00c8e8b3          	or	a7,a7,a2
   114fc:	0e089c63          	bnez	a7,115f4 <__getf2+0x15c>
   11500:	00d50a63          	beq	a0,a3,11514 <__getf2+0x7c>
   11504:	00100513          	li	a0,1
   11508:	02058463          	beqz	a1,11530 <__getf2+0x98>
   1150c:	fff00513          	li	a0,-1
   11510:	0200006f          	j	11530 <__getf2+0x98>
   11514:	01f7e7b3          	or	a5,a5,t6
   11518:	01d7e7b3          	or	a5,a5,t4
   1151c:	01e7e7b3          	or	a5,a5,t5
   11520:	ffe00513          	li	a0,-2
   11524:	00079663          	bnez	a5,11530 <__getf2+0x98>
   11528:	00000513          	li	a0,0
   1152c:	fcb81ce3          	bne	a6,a1,11504 <__getf2+0x6c>
   11530:	01010113          	add	sp,sp,16
   11534:	00008067          	ret
   11538:	02e51663          	bne	a0,a4,11564 <__getf2+0xcc>
   1153c:	01f7e733          	or	a4,a5,t6
   11540:	01d76733          	or	a4,a4,t4
   11544:	01e76733          	or	a4,a4,t5
   11548:	0a071663          	bnez	a4,115f4 <__getf2+0x15c>
   1154c:	02068863          	beqz	a3,1157c <__getf2+0xe4>
   11550:	fab81ae3          	bne	a6,a1,11504 <__getf2+0x6c>
   11554:	fff00513          	li	a0,-1
   11558:	fc058ce3          	beqz	a1,11530 <__getf2+0x98>
   1155c:	00058513          	mv	a0,a1
   11560:	fd1ff06f          	j	11530 <__getf2+0x98>
   11564:	02068c63          	beqz	a3,1159c <__getf2+0x104>
   11568:	f8050ee3          	beqz	a0,11504 <__getf2+0x6c>
   1156c:	f8b81ce3          	bne	a6,a1,11504 <__getf2+0x6c>
   11570:	f8d54ae3          	blt	a0,a3,11504 <__getf2+0x6c>
   11574:	04a6d863          	bge	a3,a0,115c4 <__getf2+0x12c>
   11578:	fddff06f          	j	11554 <__getf2+0xbc>
   1157c:	01136733          	or	a4,t1,a7
   11580:	01c76733          	or	a4,a4,t3
   11584:	00c76733          	or	a4,a4,a2
   11588:	fe0712e3          	bnez	a4,1156c <__getf2+0xd4>
   1158c:	fff00513          	li	a0,-1
   11590:	fa0800e3          	beqz	a6,11530 <__getf2+0x98>
   11594:	00080513          	mv	a0,a6
   11598:	f99ff06f          	j	11530 <__getf2+0x98>
   1159c:	01136733          	or	a4,t1,a7
   115a0:	01c76733          	or	a4,a4,t3
   115a4:	00c76733          	or	a4,a4,a2
   115a8:	fe0510e3          	bnez	a0,11588 <__getf2+0xf0>
   115ac:	01f7e6b3          	or	a3,a5,t6
   115b0:	01d6e6b3          	or	a3,a3,t4
   115b4:	01e6e6b3          	or	a3,a3,t5
   115b8:	02068a63          	beqz	a3,115ec <__getf2+0x154>
   115bc:	fc0708e3          	beqz	a4,1158c <__getf2+0xf4>
   115c0:	f4b812e3          	bne	a6,a1,11504 <__getf2+0x6c>
   115c4:	f4cf60e3          	bltu	t5,a2,11504 <__getf2+0x6c>
   115c8:	f9e616e3          	bne	a2,t5,11554 <__getf2+0xbc>
   115cc:	f3ceece3          	bltu	t4,t3,11504 <__getf2+0x6c>
   115d0:	f9de12e3          	bne	t3,t4,11554 <__getf2+0xbc>
   115d4:	f26fe8e3          	bltu	t6,t1,11504 <__getf2+0x6c>
   115d8:	f7f31ee3          	bne	t1,t6,11554 <__getf2+0xbc>
   115dc:	f317e4e3          	bltu	a5,a7,11504 <__getf2+0x6c>
   115e0:	00000513          	li	a0,0
   115e4:	f6f8e8e3          	bltu	a7,a5,11554 <__getf2+0xbc>
   115e8:	f49ff06f          	j	11530 <__getf2+0x98>
   115ec:	f40702e3          	beqz	a4,11530 <__getf2+0x98>
   115f0:	f15ff06f          	j	11504 <__getf2+0x6c>
   115f4:	ffe00513          	li	a0,-2
   115f8:	f39ff06f          	j	11530 <__getf2+0x98>

000115fc <__letf2>:
   115fc:	00052883          	lw	a7,0(a0)
   11600:	00452303          	lw	t1,4(a0)
   11604:	00852e03          	lw	t3,8(a0)
   11608:	00c52503          	lw	a0,12(a0)
   1160c:	00c5a803          	lw	a6,12(a1)
   11610:	00008737          	lui	a4,0x8
   11614:	01055693          	srl	a3,a0,0x10
   11618:	fff70713          	add	a4,a4,-1 # 7fff <_start-0x8001>
   1161c:	01051613          	sll	a2,a0,0x10
   11620:	01081f13          	sll	t5,a6,0x10
   11624:	0005a783          	lw	a5,0(a1)
   11628:	0045af83          	lw	t6,4(a1)
   1162c:	0085ae83          	lw	t4,8(a1)
   11630:	00e6f6b3          	and	a3,a3,a4
   11634:	01f55593          	srl	a1,a0,0x1f
   11638:	01085513          	srl	a0,a6,0x10
   1163c:	ff010113          	add	sp,sp,-16
   11640:	01065613          	srl	a2,a2,0x10
   11644:	010f5f13          	srl	t5,t5,0x10
   11648:	00e57533          	and	a0,a0,a4
   1164c:	01f85813          	srl	a6,a6,0x1f
   11650:	04e69663          	bne	a3,a4,1169c <__letf2+0xa0>
   11654:	011368b3          	or	a7,t1,a7
   11658:	01c8e8b3          	or	a7,a7,t3
   1165c:	00c8e8b3          	or	a7,a7,a2
   11660:	0e089c63          	bnez	a7,11758 <__letf2+0x15c>
   11664:	00d50a63          	beq	a0,a3,11678 <__letf2+0x7c>
   11668:	00100513          	li	a0,1
   1166c:	02058463          	beqz	a1,11694 <__letf2+0x98>
   11670:	fff00513          	li	a0,-1
   11674:	0200006f          	j	11694 <__letf2+0x98>
   11678:	01f7e7b3          	or	a5,a5,t6
   1167c:	01d7e7b3          	or	a5,a5,t4
   11680:	01e7e7b3          	or	a5,a5,t5
   11684:	00200513          	li	a0,2
   11688:	00079663          	bnez	a5,11694 <__letf2+0x98>
   1168c:	00000513          	li	a0,0
   11690:	fcb81ce3          	bne	a6,a1,11668 <__letf2+0x6c>
   11694:	01010113          	add	sp,sp,16
   11698:	00008067          	ret
   1169c:	02e51663          	bne	a0,a4,116c8 <__letf2+0xcc>
   116a0:	01f7e733          	or	a4,a5,t6
   116a4:	01d76733          	or	a4,a4,t4
   116a8:	01e76733          	or	a4,a4,t5
   116ac:	0a071663          	bnez	a4,11758 <__letf2+0x15c>
   116b0:	02068863          	beqz	a3,116e0 <__letf2+0xe4>
   116b4:	fab81ae3          	bne	a6,a1,11668 <__letf2+0x6c>
   116b8:	fff00513          	li	a0,-1
   116bc:	fc058ce3          	beqz	a1,11694 <__letf2+0x98>
   116c0:	00058513          	mv	a0,a1
   116c4:	fd1ff06f          	j	11694 <__letf2+0x98>
   116c8:	02068c63          	beqz	a3,11700 <__letf2+0x104>
   116cc:	f8050ee3          	beqz	a0,11668 <__letf2+0x6c>
   116d0:	f8b81ce3          	bne	a6,a1,11668 <__letf2+0x6c>
   116d4:	f8d54ae3          	blt	a0,a3,11668 <__letf2+0x6c>
   116d8:	04a6d863          	bge	a3,a0,11728 <__letf2+0x12c>
   116dc:	fddff06f          	j	116b8 <__letf2+0xbc>
   116e0:	01136733          	or	a4,t1,a7
   116e4:	01c76733          	or	a4,a4,t3
   116e8:	00c76733          	or	a4,a4,a2
   116ec:	fe0712e3          	bnez	a4,116d0 <__letf2+0xd4>
   116f0:	fff00513          	li	a0,-1
   116f4:	fa0800e3          	beqz	a6,11694 <__letf2+0x98>
   116f8:	00080513          	mv	a0,a6
   116fc:	f99ff06f          	j	11694 <__letf2+0x98>
   11700:	01136733          	or	a4,t1,a7
   11704:	01c76733          	or	a4,a4,t3
   11708:	00c76733          	or	a4,a4,a2
   1170c:	fe0510e3          	bnez	a0,116ec <__letf2+0xf0>
   11710:	01f7e6b3          	or	a3,a5,t6
   11714:	01d6e6b3          	or	a3,a3,t4
   11718:	01e6e6b3          	or	a3,a3,t5
   1171c:	02068a63          	beqz	a3,11750 <__letf2+0x154>
   11720:	fc0708e3          	beqz	a4,116f0 <__letf2+0xf4>
   11724:	f4b812e3          	bne	a6,a1,11668 <__letf2+0x6c>
   11728:	f4cf60e3          	bltu	t5,a2,11668 <__letf2+0x6c>
   1172c:	f9e616e3          	bne	a2,t5,116b8 <__letf2+0xbc>
   11730:	f3ceece3          	bltu	t4,t3,11668 <__letf2+0x6c>
   11734:	f9de12e3          	bne	t3,t4,116b8 <__letf2+0xbc>
   11738:	f26fe8e3          	bltu	t6,t1,11668 <__letf2+0x6c>
   1173c:	f7f31ee3          	bne	t1,t6,116b8 <__letf2+0xbc>
   11740:	f317e4e3          	bltu	a5,a7,11668 <__letf2+0x6c>
   11744:	00000513          	li	a0,0
   11748:	f6f8e8e3          	bltu	a7,a5,116b8 <__letf2+0xbc>
   1174c:	f49ff06f          	j	11694 <__letf2+0x98>
   11750:	f40702e3          	beqz	a4,11694 <__letf2+0x98>
   11754:	f15ff06f          	j	11668 <__letf2+0x6c>
   11758:	00200513          	li	a0,2
   1175c:	f39ff06f          	j	11694 <__letf2+0x98>

00011760 <__multf3>:
   11760:	f5010113          	add	sp,sp,-176
   11764:	09312e23          	sw	s3,156(sp)
   11768:	00c5a983          	lw	s3,12(a1)
   1176c:	0005a783          	lw	a5,0(a1)
   11770:	0085a683          	lw	a3,8(a1)
   11774:	0a812423          	sw	s0,168(sp)
   11778:	00050413          	mv	s0,a0
   1177c:	0045a503          	lw	a0,4(a1)
   11780:	01099713          	sll	a4,s3,0x10
   11784:	0b212023          	sw	s2,160(sp)
   11788:	09412c23          	sw	s4,152(sp)
   1178c:	00062903          	lw	s2,0(a2)
   11790:	00c62a03          	lw	s4,12(a2)
   11794:	09512a23          	sw	s5,148(sp)
   11798:	09612823          	sw	s6,144(sp)
   1179c:	00862a83          	lw	s5,8(a2)
   117a0:	00462b03          	lw	s6,4(a2)
   117a4:	00008637          	lui	a2,0x8
   117a8:	0a912223          	sw	s1,164(sp)
   117ac:	01075713          	srl	a4,a4,0x10
   117b0:	0109d493          	srl	s1,s3,0x10
   117b4:	fff60613          	add	a2,a2,-1 # 7fff <_start-0x8001>
   117b8:	05312e23          	sw	s3,92(sp)
   117bc:	0a112623          	sw	ra,172(sp)
   117c0:	09712623          	sw	s7,140(sp)
   117c4:	09812423          	sw	s8,136(sp)
   117c8:	09912223          	sw	s9,132(sp)
   117cc:	09a12023          	sw	s10,128(sp)
   117d0:	07b12e23          	sw	s11,124(sp)
   117d4:	04f12823          	sw	a5,80(sp)
   117d8:	04a12a23          	sw	a0,84(sp)
   117dc:	04d12c23          	sw	a3,88(sp)
   117e0:	02f12023          	sw	a5,32(sp)
   117e4:	02a12223          	sw	a0,36(sp)
   117e8:	02d12423          	sw	a3,40(sp)
   117ec:	02e12623          	sw	a4,44(sp)
   117f0:	00c4f4b3          	and	s1,s1,a2
   117f4:	01f9d993          	srl	s3,s3,0x1f
   117f8:	1c0484e3          	beqz	s1,121c0 <__multf3+0xa60>
   117fc:	30c486e3          	beq	s1,a2,12308 <__multf3+0xba8>
   11800:	000107b7          	lui	a5,0x10
   11804:	00f76733          	or	a4,a4,a5
   11808:	02e12623          	sw	a4,44(sp)
   1180c:	02010613          	add	a2,sp,32
   11810:	02c10793          	add	a5,sp,44
   11814:	0007a703          	lw	a4,0(a5) # 10000 <_start>
   11818:	ffc7a683          	lw	a3,-4(a5)
   1181c:	ffc78793          	add	a5,a5,-4
   11820:	00371713          	sll	a4,a4,0x3
   11824:	01d6d693          	srl	a3,a3,0x1d
   11828:	00d76733          	or	a4,a4,a3
   1182c:	00e7a223          	sw	a4,4(a5)
   11830:	fef612e3          	bne	a2,a5,11814 <__multf3+0xb4>
   11834:	02012783          	lw	a5,32(sp)
   11838:	00379793          	sll	a5,a5,0x3
   1183c:	02f12023          	sw	a5,32(sp)
   11840:	ffffc7b7          	lui	a5,0xffffc
   11844:	00178793          	add	a5,a5,1 # ffffc001 <_end+0xfffd2031>
   11848:	00f484b3          	add	s1,s1,a5
   1184c:	00000b93          	li	s7,0
   11850:	010a1513          	sll	a0,s4,0x10
   11854:	00008737          	lui	a4,0x8
   11858:	010a5793          	srl	a5,s4,0x10
   1185c:	01055513          	srl	a0,a0,0x10
   11860:	fff70713          	add	a4,a4,-1 # 7fff <_start-0x8001>
   11864:	05412e23          	sw	s4,92(sp)
   11868:	05212823          	sw	s2,80(sp)
   1186c:	05612a23          	sw	s6,84(sp)
   11870:	05512c23          	sw	s5,88(sp)
   11874:	03212823          	sw	s2,48(sp)
   11878:	03612a23          	sw	s6,52(sp)
   1187c:	03512c23          	sw	s5,56(sp)
   11880:	02a12e23          	sw	a0,60(sp)
   11884:	00e7f7b3          	and	a5,a5,a4
   11888:	01fa5a13          	srl	s4,s4,0x1f
   1188c:	2a0782e3          	beqz	a5,12330 <__multf3+0xbd0>
   11890:	3ee784e3          	beq	a5,a4,12478 <__multf3+0xd18>
   11894:	00010737          	lui	a4,0x10
   11898:	00e56533          	or	a0,a0,a4
   1189c:	02a12e23          	sw	a0,60(sp)
   118a0:	03010593          	add	a1,sp,48
   118a4:	03c10713          	add	a4,sp,60
   118a8:	00072683          	lw	a3,0(a4) # 10000 <_start>
   118ac:	ffc72603          	lw	a2,-4(a4)
   118b0:	ffc70713          	add	a4,a4,-4
   118b4:	00369693          	sll	a3,a3,0x3
   118b8:	01d65613          	srl	a2,a2,0x1d
   118bc:	00c6e6b3          	or	a3,a3,a2
   118c0:	00d72223          	sw	a3,4(a4)
   118c4:	fee592e3          	bne	a1,a4,118a8 <__multf3+0x148>
   118c8:	03012703          	lw	a4,48(sp)
   118cc:	00371713          	sll	a4,a4,0x3
   118d0:	02e12823          	sw	a4,48(sp)
   118d4:	ffffc737          	lui	a4,0xffffc
   118d8:	00170713          	add	a4,a4,1 # ffffc001 <_end+0xfffd2031>
   118dc:	00e787b3          	add	a5,a5,a4
   118e0:	00000693          	li	a3,0
   118e4:	009787b3          	add	a5,a5,s1
   118e8:	00f12623          	sw	a5,12(sp)
   118ec:	00178793          	add	a5,a5,1
   118f0:	0149c733          	xor	a4,s3,s4
   118f4:	00f12423          	sw	a5,8(sp)
   118f8:	002b9793          	sll	a5,s7,0x2
   118fc:	00e12223          	sw	a4,4(sp)
   11900:	00d7e7b3          	or	a5,a5,a3
   11904:	00a00713          	li	a4,10
   11908:	3cf74ce3          	blt	a4,a5,124e0 <__multf3+0xd80>
   1190c:	00200713          	li	a4,2
   11910:	38f748e3          	blt	a4,a5,124a0 <__multf3+0xd40>
   11914:	fff78793          	add	a5,a5,-1
   11918:	00100713          	li	a4,1
   1191c:	42f774e3          	bgeu	a4,a5,12544 <__multf3+0xde4>
   11920:	02012883          	lw	a7,32(sp)
   11924:	03012f03          	lw	t5,48(sp)
   11928:	000105b7          	lui	a1,0x10
   1192c:	fff58713          	add	a4,a1,-1 # ffff <_start-0x1>
   11930:	0108d993          	srl	s3,a7,0x10
   11934:	010f5913          	srl	s2,t5,0x10
   11938:	00e8f8b3          	and	a7,a7,a4
   1193c:	00ef7f33          	and	t5,t5,a4
   11940:	031f0633          	mul	a2,t5,a7
   11944:	03e98533          	mul	a0,s3,t5
   11948:	01065793          	srl	a5,a2,0x10
   1194c:	031906b3          	mul	a3,s2,a7
   11950:	00a686b3          	add	a3,a3,a0
   11954:	00d787b3          	add	a5,a5,a3
   11958:	03298bb3          	mul	s7,s3,s2
   1195c:	00a7f463          	bgeu	a5,a0,11964 <__multf3+0x204>
   11960:	00bb8bb3          	add	s7,s7,a1
   11964:	03412e83          	lw	t4,52(sp)
   11968:	0107d693          	srl	a3,a5,0x10
   1196c:	00e7f7b3          	and	a5,a5,a4
   11970:	00e67633          	and	a2,a2,a4
   11974:	01079793          	sll	a5,a5,0x10
   11978:	00c787b3          	add	a5,a5,a2
   1197c:	010ed393          	srl	t2,t4,0x10
   11980:	00eefeb3          	and	t4,t4,a4
   11984:	03d98633          	mul	a2,s3,t4
   11988:	00f12823          	sw	a5,16(sp)
   1198c:	04f12823          	sw	a5,80(sp)
   11990:	03138733          	mul	a4,t2,a7
   11994:	031e87b3          	mul	a5,t4,a7
   11998:	00c70733          	add	a4,a4,a2
   1199c:	0107d313          	srl	t1,a5,0x10
   119a0:	00e30333          	add	t1,t1,a4
   119a4:	02798b33          	mul	s6,s3,t2
   119a8:	00c37663          	bgeu	t1,a2,119b4 <__multf3+0x254>
   119ac:	00010737          	lui	a4,0x10
   119b0:	00eb0b33          	add	s6,s6,a4
   119b4:	02412803          	lw	a6,36(sp)
   119b8:	00010737          	lui	a4,0x10
   119bc:	fff70613          	add	a2,a4,-1 # ffff <_start-0x1>
   119c0:	01035513          	srl	a0,t1,0x10
   119c4:	00c37333          	and	t1,t1,a2
   119c8:	00c7f7b3          	and	a5,a5,a2
   119cc:	01085493          	srl	s1,a6,0x10
   119d0:	01031313          	sll	t1,t1,0x10
   119d4:	00c87833          	and	a6,a6,a2
   119d8:	00f30333          	add	t1,t1,a5
   119dc:	03e48fb3          	mul	t6,s1,t5
   119e0:	006686b3          	add	a3,a3,t1
   119e4:	03e807b3          	mul	a5,a6,t5
   119e8:	03090e33          	mul	t3,s2,a6
   119ec:	0107d613          	srl	a2,a5,0x10
   119f0:	01fe0e33          	add	t3,t3,t6
   119f4:	01c60633          	add	a2,a2,t3
   119f8:	029905b3          	mul	a1,s2,s1
   119fc:	01f67463          	bgeu	a2,t6,11a04 <__multf3+0x2a4>
   11a00:	00e585b3          	add	a1,a1,a4
   11a04:	01065a93          	srl	s5,a2,0x10
   11a08:	00010737          	lui	a4,0x10
   11a0c:	00ba8ab3          	add	s5,s5,a1
   11a10:	fff70593          	add	a1,a4,-1 # ffff <_start-0x1>
   11a14:	00b7f7b3          	and	a5,a5,a1
   11a18:	00b67633          	and	a2,a2,a1
   11a1c:	01061613          	sll	a2,a2,0x10
   11a20:	030e85b3          	mul	a1,t4,a6
   11a24:	00f60633          	add	a2,a2,a5
   11a28:	03d48fb3          	mul	t6,s1,t4
   11a2c:	0105d793          	srl	a5,a1,0x10
   11a30:	03038e33          	mul	t3,t2,a6
   11a34:	01fe0e33          	add	t3,t3,t6
   11a38:	01c787b3          	add	a5,a5,t3
   11a3c:	029382b3          	mul	t0,t2,s1
   11a40:	01f7f463          	bgeu	a5,t6,11a48 <__multf3+0x2e8>
   11a44:	00e282b3          	add	t0,t0,a4
   11a48:	0107d713          	srl	a4,a5,0x10
   11a4c:	00570733          	add	a4,a4,t0
   11a50:	00010a37          	lui	s4,0x10
   11a54:	00e12a23          	sw	a4,20(sp)
   11a58:	fffa0713          	add	a4,s4,-1 # ffff <_start-0x1>
   11a5c:	03812e03          	lw	t3,56(sp)
   11a60:	00e7f7b3          	and	a5,a5,a4
   11a64:	00e5f5b3          	and	a1,a1,a4
   11a68:	01079793          	sll	a5,a5,0x10
   11a6c:	00b787b3          	add	a5,a5,a1
   11a70:	00f12c23          	sw	a5,24(sp)
   11a74:	010e5793          	srl	a5,t3,0x10
   11a78:	00ee7e33          	and	t3,t3,a4
   11a7c:	031e05b3          	mul	a1,t3,a7
   11a80:	03c98c33          	mul	s8,s3,t3
   11a84:	0105d713          	srl	a4,a1,0x10
   11a88:	031782b3          	mul	t0,a5,a7
   11a8c:	018282b3          	add	t0,t0,s8
   11a90:	00570733          	add	a4,a4,t0
   11a94:	02f98fb3          	mul	t6,s3,a5
   11a98:	01877463          	bgeu	a4,s8,11aa0 <__multf3+0x340>
   11a9c:	014f8fb3          	add	t6,t6,s4
   11aa0:	01075293          	srl	t0,a4,0x10
   11aa4:	01f28fb3          	add	t6,t0,t6
   11aa8:	00010cb7          	lui	s9,0x10
   11aac:	01f12e23          	sw	t6,28(sp)
   11ab0:	fffc8f93          	add	t6,s9,-1 # ffff <_start-0x1>
   11ab4:	01f77733          	and	a4,a4,t6
   11ab8:	01f5f5b3          	and	a1,a1,t6
   11abc:	01071713          	sll	a4,a4,0x10
   11ac0:	00b70733          	add	a4,a4,a1
   11ac4:	02812583          	lw	a1,40(sp)
   11ac8:	0105d293          	srl	t0,a1,0x10
   11acc:	01f5f5b3          	and	a1,a1,t6
   11ad0:	03e58fb3          	mul	t6,a1,t5
   11ad4:	03e28d33          	mul	s10,t0,t5
   11ad8:	010fdd93          	srl	s11,t6,0x10
   11adc:	02b90a33          	mul	s4,s2,a1
   11ae0:	01aa0a33          	add	s4,s4,s10
   11ae4:	014d8a33          	add	s4,s11,s4
   11ae8:	02590c33          	mul	s8,s2,t0
   11aec:	01aa7463          	bgeu	s4,s10,11af4 <__multf3+0x394>
   11af0:	019c0c33          	add	s8,s8,s9
   11af4:	017686b3          	add	a3,a3,s7
   11af8:	0066b333          	sltu	t1,a3,t1
   11afc:	010a5d13          	srl	s10,s4,0x10
   11b00:	00650533          	add	a0,a0,t1
   11b04:	00010cb7          	lui	s9,0x10
   11b08:	01650533          	add	a0,a0,s6
   11b0c:	018d0d33          	add	s10,s10,s8
   11b10:	00c68633          	add	a2,a3,a2
   11b14:	fffc8c13          	add	s8,s9,-1 # ffff <_start-0x1>
   11b18:	01550ab3          	add	s5,a0,s5
   11b1c:	018a7a33          	and	s4,s4,s8
   11b20:	00d636b3          	sltu	a3,a2,a3
   11b24:	00da86b3          	add	a3,s5,a3
   11b28:	010a1a13          	sll	s4,s4,0x10
   11b2c:	018fffb3          	and	t6,t6,s8
   11b30:	01fa0fb3          	add	t6,s4,t6
   11b34:	00aaba33          	sltu	s4,s5,a0
   11b38:	0156bab3          	sltu	s5,a3,s5
   11b3c:	015a6a33          	or	s4,s4,s5
   11b40:	00653533          	sltu	a0,a0,t1
   11b44:	00aa0533          	add	a0,s4,a0
   11b48:	01812303          	lw	t1,24(sp)
   11b4c:	01412a03          	lw	s4,20(sp)
   11b50:	04c12a23          	sw	a2,84(sp)
   11b54:	00668333          	add	t1,a3,t1
   11b58:	01450ab3          	add	s5,a0,s4
   11b5c:	01c12a03          	lw	s4,28(sp)
   11b60:	00d336b3          	sltu	a3,t1,a3
   11b64:	00da86b3          	add	a3,s5,a3
   11b68:	00e30733          	add	a4,t1,a4
   11b6c:	01468b33          	add	s6,a3,s4
   11b70:	00673333          	sltu	t1,a4,t1
   11b74:	006b0333          	add	t1,s6,t1
   11b78:	01f70fb3          	add	t6,a4,t6
   11b7c:	01a30d33          	add	s10,t1,s10
   11b80:	00efb733          	sltu	a4,t6,a4
   11b84:	00aab533          	sltu	a0,s5,a0
   11b88:	00ed0733          	add	a4,s10,a4
   11b8c:	0156bab3          	sltu	s5,a3,s5
   11b90:	00db36b3          	sltu	a3,s6,a3
   11b94:	01633b33          	sltu	s6,t1,s6
   11b98:	0166e6b3          	or	a3,a3,s6
   11b9c:	006d3a33          	sltu	s4,s10,t1
   11ba0:	01556ab3          	or	s5,a0,s5
   11ba4:	01a73d33          	sltu	s10,a4,s10
   11ba8:	00da8ab3          	add	s5,s5,a3
   11bac:	01aa6a33          	or	s4,s4,s10
   11bb0:	015a0a33          	add	s4,s4,s5
   11bb4:	03c12a83          	lw	s5,60(sp)
   11bb8:	05f12c23          	sw	t6,88(sp)
   11bbc:	010adb13          	srl	s6,s5,0x10
   11bc0:	018afab3          	and	s5,s5,s8
   11bc4:	031a86b3          	mul	a3,s5,a7
   11bc8:	03598533          	mul	a0,s3,s5
   11bcc:	031b08b3          	mul	a7,s6,a7
   11bd0:	00a88333          	add	t1,a7,a0
   11bd4:	0106d893          	srl	a7,a3,0x10
   11bd8:	006888b3          	add	a7,a7,t1
   11bdc:	036989b3          	mul	s3,s3,s6
   11be0:	00a8f463          	bgeu	a7,a0,11be8 <__multf3+0x488>
   11be4:	019989b3          	add	s3,s3,s9
   11be8:	02c12b83          	lw	s7,44(sp)
   11bec:	0108d513          	srl	a0,a7,0x10
   11bf0:	01350533          	add	a0,a0,s3
   11bf4:	00010c37          	lui	s8,0x10
   11bf8:	00a12a23          	sw	a0,20(sp)
   11bfc:	fffc0513          	add	a0,s8,-1 # ffff <_start-0x1>
   11c00:	010bd993          	srl	s3,s7,0x10
   11c04:	00abfbb3          	and	s7,s7,a0
   11c08:	00a6f6b3          	and	a3,a3,a0
   11c0c:	00a8f8b3          	and	a7,a7,a0
   11c10:	03390333          	mul	t1,s2,s3
   11c14:	01089893          	sll	a7,a7,0x10
   11c18:	00d888b3          	add	a7,a7,a3
   11c1c:	03eb8533          	mul	a0,s7,t5
   11c20:	03790933          	mul	s2,s2,s7
   11c24:	01055693          	srl	a3,a0,0x10
   11c28:	03e98f33          	mul	t5,s3,t5
   11c2c:	01e90933          	add	s2,s2,t5
   11c30:	012686b3          	add	a3,a3,s2
   11c34:	01e6f463          	bgeu	a3,t5,11c3c <__multf3+0x4dc>
   11c38:	01830333          	add	t1,t1,s8
   11c3c:	0106df13          	srl	t5,a3,0x10
   11c40:	006f0333          	add	t1,t5,t1
   11c44:	00010cb7          	lui	s9,0x10
   11c48:	00612c23          	sw	t1,24(sp)
   11c4c:	fffc8313          	add	t1,s9,-1 # ffff <_start-0x1>
   11c50:	00657533          	and	a0,a0,t1
   11c54:	0066f6b3          	and	a3,a3,t1
   11c58:	03c48f33          	mul	t5,s1,t3
   11c5c:	01069693          	sll	a3,a3,0x10
   11c60:	00a686b3          	add	a3,a3,a0
   11c64:	03c80333          	mul	t1,a6,t3
   11c68:	03078933          	mul	s2,a5,a6
   11c6c:	01035513          	srl	a0,t1,0x10
   11c70:	01e90933          	add	s2,s2,t5
   11c74:	01250533          	add	a0,a0,s2
   11c78:	02f48c33          	mul	s8,s1,a5
   11c7c:	01e57463          	bgeu	a0,t5,11c84 <__multf3+0x524>
   11c80:	019c0c33          	add	s8,s8,s9
   11c84:	00010d37          	lui	s10,0x10
   11c88:	fffd0f13          	add	t5,s10,-1 # ffff <_start-0x1>
   11c8c:	01055913          	srl	s2,a0,0x10
   11c90:	01e57533          	and	a0,a0,t5
   11c94:	01e37333          	and	t1,t1,t5
   11c98:	01051513          	sll	a0,a0,0x10
   11c9c:	01890933          	add	s2,s2,s8
   11ca0:	02b38f33          	mul	t5,t2,a1
   11ca4:	00650533          	add	a0,a0,t1
   11ca8:	03d28c33          	mul	s8,t0,t4
   11cac:	02be8333          	mul	t1,t4,a1
   11cb0:	018f0f33          	add	t5,t5,s8
   11cb4:	01035d93          	srl	s11,t1,0x10
   11cb8:	01ed8f33          	add	t5,s11,t5
   11cbc:	02538cb3          	mul	s9,t2,t0
   11cc0:	018f7463          	bgeu	t5,s8,11cc8 <__multf3+0x568>
   11cc4:	01ac8cb3          	add	s9,s9,s10
   11cc8:	010f5c13          	srl	s8,t5,0x10
   11ccc:	019c0c33          	add	s8,s8,s9
   11cd0:	00010cb7          	lui	s9,0x10
   11cd4:	fffc8d13          	add	s10,s9,-1 # ffff <_start-0x1>
   11cd8:	01af7f33          	and	t5,t5,s10
   11cdc:	010f1f13          	sll	t5,t5,0x10
   11ce0:	01a37333          	and	t1,t1,s10
   11ce4:	006f0333          	add	t1,t5,t1
   11ce8:	01412f03          	lw	t5,20(sp)
   11cec:	011708b3          	add	a7,a4,a7
   11cf0:	01812d03          	lw	s10,24(sp)
   11cf4:	01ea0f33          	add	t5,s4,t5
   11cf8:	00e8b733          	sltu	a4,a7,a4
   11cfc:	00ef0733          	add	a4,t5,a4
   11d00:	00d886b3          	add	a3,a7,a3
   11d04:	01a70d33          	add	s10,a4,s10
   11d08:	0116b8b3          	sltu	a7,a3,a7
   11d0c:	011d08b3          	add	a7,s10,a7
   11d10:	00a68533          	add	a0,a3,a0
   11d14:	01288933          	add	s2,a7,s2
   11d18:	00d536b3          	sltu	a3,a0,a3
   11d1c:	00d906b3          	add	a3,s2,a3
   11d20:	014f3a33          	sltu	s4,t5,s4
   11d24:	01e73f33          	sltu	t5,a4,t5
   11d28:	00ed3733          	sltu	a4,s10,a4
   11d2c:	01a8bd33          	sltu	s10,a7,s10
   11d30:	01ea6f33          	or	t5,s4,t5
   11d34:	011938b3          	sltu	a7,s2,a7
   11d38:	01a76733          	or	a4,a4,s10
   11d3c:	0126b933          	sltu	s2,a3,s2
   11d40:	01868c33          	add	s8,a3,s8
   11d44:	00ef0733          	add	a4,t5,a4
   11d48:	0128e8b3          	or	a7,a7,s2
   11d4c:	00e88933          	add	s2,a7,a4
   11d50:	03c28f33          	mul	t5,t0,t3
   11d54:	00dc38b3          	sltu	a7,s8,a3
   11d58:	00650333          	add	t1,a0,t1
   11d5c:	00a33533          	sltu	a0,t1,a0
   11d60:	00ac0533          	add	a0,s8,a0
   11d64:	01853c33          	sltu	s8,a0,s8
   11d68:	0188e8b3          	or	a7,a7,s8
   11d6c:	04612e23          	sw	t1,92(sp)
   11d70:	012888b3          	add	a7,a7,s2
   11d74:	02be06b3          	mul	a3,t3,a1
   11d78:	02b78a33          	mul	s4,a5,a1
   11d7c:	0106d713          	srl	a4,a3,0x10
   11d80:	01ea0a33          	add	s4,s4,t5
   11d84:	01470733          	add	a4,a4,s4
   11d88:	02578933          	mul	s2,a5,t0
   11d8c:	01e77463          	bgeu	a4,t5,11d94 <__multf3+0x634>
   11d90:	01990933          	add	s2,s2,s9
   11d94:	01075f13          	srl	t5,a4,0x10
   11d98:	012f0f33          	add	t5,t5,s2
   11d9c:	00010937          	lui	s2,0x10
   11da0:	fff90a13          	add	s4,s2,-1 # ffff <_start-0x1>
   11da4:	01477733          	and	a4,a4,s4
   11da8:	0146f6b3          	and	a3,a3,s4
   11dac:	01071713          	sll	a4,a4,0x10
   11db0:	03548a33          	mul	s4,s1,s5
   11db4:	00d70733          	add	a4,a4,a3
   11db8:	030a86b3          	mul	a3,s5,a6
   11dbc:	030b0833          	mul	a6,s6,a6
   11dc0:	01480c33          	add	s8,a6,s4
   11dc4:	0106d813          	srl	a6,a3,0x10
   11dc8:	01880833          	add	a6,a6,s8
   11dcc:	036484b3          	mul	s1,s1,s6
   11dd0:	01487463          	bgeu	a6,s4,11dd8 <__multf3+0x678>
   11dd4:	012484b3          	add	s1,s1,s2
   11dd8:	01085913          	srl	s2,a6,0x10
   11ddc:	00010c37          	lui	s8,0x10
   11de0:	009904b3          	add	s1,s2,s1
   11de4:	fffc0913          	add	s2,s8,-1 # ffff <_start-0x1>
   11de8:	0126f6b3          	and	a3,a3,s2
   11dec:	01287833          	and	a6,a6,s2
   11df0:	01081813          	sll	a6,a6,0x10
   11df4:	03db8a33          	mul	s4,s7,t4
   11df8:	00d80833          	add	a6,a6,a3
   11dfc:	03d98eb3          	mul	t4,s3,t4
   11e00:	010a5693          	srl	a3,s4,0x10
   11e04:	03338933          	mul	s2,t2,s3
   11e08:	037383b3          	mul	t2,t2,s7
   11e0c:	01d383b3          	add	t2,t2,t4
   11e10:	007686b3          	add	a3,a3,t2
   11e14:	01d6f463          	bgeu	a3,t4,11e1c <__multf3+0x6bc>
   11e18:	01890933          	add	s2,s2,s8
   11e1c:	0106de93          	srl	t4,a3,0x10
   11e20:	012e8eb3          	add	t4,t4,s2
   11e24:	00010937          	lui	s2,0x10
   11e28:	fff90393          	add	t2,s2,-1 # ffff <_start-0x1>
   11e2c:	0076f6b3          	and	a3,a3,t2
   11e30:	007a7a33          	and	s4,s4,t2
   11e34:	01069693          	sll	a3,a3,0x10
   11e38:	02ba83b3          	mul	t2,s5,a1
   11e3c:	014686b3          	add	a3,a3,s4
   11e40:	02bb05b3          	mul	a1,s6,a1
   11e44:	03528a33          	mul	s4,t0,s5
   11e48:	01458c33          	add	s8,a1,s4
   11e4c:	0103d593          	srl	a1,t2,0x10
   11e50:	018585b3          	add	a1,a1,s8
   11e54:	036282b3          	mul	t0,t0,s6
   11e58:	0145f463          	bgeu	a1,s4,11e60 <__multf3+0x700>
   11e5c:	012282b3          	add	t0,t0,s2
   11e60:	0105d913          	srl	s2,a1,0x10
   11e64:	005902b3          	add	t0,s2,t0
   11e68:	00010937          	lui	s2,0x10
   11e6c:	fff90a13          	add	s4,s2,-1 # ffff <_start-0x1>
   11e70:	0145f5b3          	and	a1,a1,s4
   11e74:	0143f3b3          	and	t2,t2,s4
   11e78:	01059593          	sll	a1,a1,0x10
   11e7c:	03378a33          	mul	s4,a5,s3
   11e80:	007585b3          	add	a1,a1,t2
   11e84:	037787b3          	mul	a5,a5,s7
   11e88:	03cb83b3          	mul	t2,s7,t3
   11e8c:	03c98e33          	mul	t3,s3,t3
   11e90:	0103dc13          	srl	s8,t2,0x10
   11e94:	01c787b3          	add	a5,a5,t3
   11e98:	00fc07b3          	add	a5,s8,a5
   11e9c:	01c7f463          	bgeu	a5,t3,11ea4 <__multf3+0x744>
   11ea0:	012a0a33          	add	s4,s4,s2
   11ea4:	00e50733          	add	a4,a0,a4
   11ea8:	0107de13          	srl	t3,a5,0x10
   11eac:	00010937          	lui	s2,0x10
   11eb0:	01e88f33          	add	t5,a7,t5
   11eb4:	014e0e33          	add	t3,t3,s4
   11eb8:	00a73533          	sltu	a0,a4,a0
   11ebc:	fff90a13          	add	s4,s2,-1 # ffff <_start-0x1>
   11ec0:	00af0533          	add	a0,t5,a0
   11ec4:	01070833          	add	a6,a4,a6
   11ec8:	0147f7b3          	and	a5,a5,s4
   11ecc:	009504b3          	add	s1,a0,s1
   11ed0:	0143f3b3          	and	t2,t2,s4
   11ed4:	00e83733          	sltu	a4,a6,a4
   11ed8:	01079793          	sll	a5,a5,0x10
   11edc:	007787b3          	add	a5,a5,t2
   11ee0:	00e483b3          	add	t2,s1,a4
   11ee4:	011f38b3          	sltu	a7,t5,a7
   11ee8:	01e53f33          	sltu	t5,a0,t5
   11eec:	00a4b533          	sltu	a0,s1,a0
   11ef0:	0093b4b3          	sltu	s1,t2,s1
   11ef4:	00956533          	or	a0,a0,s1
   11ef8:	01e8e8b3          	or	a7,a7,t5
   11efc:	00a888b3          	add	a7,a7,a0
   11f00:	037a8533          	mul	a0,s5,s7
   11f04:	00d806b3          	add	a3,a6,a3
   11f08:	01d38eb3          	add	t4,t2,t4
   11f0c:	06d12023          	sw	a3,96(sp)
   11f10:	0106b6b3          	sltu	a3,a3,a6
   11f14:	00de8733          	add	a4,t4,a3
   11f18:	007eb3b3          	sltu	t2,t4,t2
   11f1c:	01d73eb3          	sltu	t4,a4,t4
   11f20:	01d3e3b3          	or	t2,t2,t4
   11f24:	00b705b3          	add	a1,a4,a1
   11f28:	03598ab3          	mul	s5,s3,s5
   11f2c:	011383b3          	add	t2,t2,a7
   11f30:	005382b3          	add	t0,t2,t0
   11f34:	00e5b733          	sltu	a4,a1,a4
   11f38:	00e28733          	add	a4,t0,a4
   11f3c:	00f587b3          	add	a5,a1,a5
   11f40:	01c70e33          	add	t3,a4,t3
   11f44:	06f12223          	sw	a5,100(sp)
   11f48:	00b7b7b3          	sltu	a5,a5,a1
   11f4c:	00fe07b3          	add	a5,t3,a5
   11f50:	033b09b3          	mul	s3,s6,s3
   11f54:	01055693          	srl	a3,a0,0x10
   11f58:	0072b3b3          	sltu	t2,t0,t2
   11f5c:	005732b3          	sltu	t0,a4,t0
   11f60:	00ee3733          	sltu	a4,t3,a4
   11f64:	01c7be33          	sltu	t3,a5,t3
   11f68:	0053e3b3          	or	t2,t2,t0
   11f6c:	01c76733          	or	a4,a4,t3
   11f70:	037b0b33          	mul	s6,s6,s7
   11f74:	015b0b33          	add	s6,s6,s5
   11f78:	016686b3          	add	a3,a3,s6
   11f7c:	0156f463          	bgeu	a3,s5,11f84 <__multf3+0x824>
   11f80:	012989b3          	add	s3,s3,s2
   11f84:	00010837          	lui	a6,0x10
   11f88:	fff80813          	add	a6,a6,-1 # ffff <_start-0x1>
   11f8c:	0106d593          	srl	a1,a3,0x10
   11f90:	0106f6b3          	and	a3,a3,a6
   11f94:	01069693          	sll	a3,a3,0x10
   11f98:	01057533          	and	a0,a0,a6
   11f9c:	00a686b3          	add	a3,a3,a0
   11fa0:	00d786b3          	add	a3,a5,a3
   11fa4:	007585b3          	add	a1,a1,t2
   11fa8:	00f6b7b3          	sltu	a5,a3,a5
   11fac:	00e58733          	add	a4,a1,a4
   11fb0:	00e787b3          	add	a5,a5,a4
   11fb4:	013787b3          	add	a5,a5,s3
   11fb8:	06f12623          	sw	a5,108(sp)
   11fbc:	01012783          	lw	a5,16(sp)
   11fc0:	00d31313          	sll	t1,t1,0xd
   11fc4:	06d12423          	sw	a3,104(sp)
   11fc8:	00c7e7b3          	or	a5,a5,a2
   11fcc:	00ffefb3          	or	t6,t6,a5
   11fd0:	01f36333          	or	t1,t1,t6
   11fd4:	05010793          	add	a5,sp,80
   11fd8:	06010613          	add	a2,sp,96
   11fdc:	00c7a703          	lw	a4,12(a5)
   11fe0:	0107a683          	lw	a3,16(a5)
   11fe4:	00478793          	add	a5,a5,4
   11fe8:	01375713          	srl	a4,a4,0x13
   11fec:	00d69693          	sll	a3,a3,0xd
   11ff0:	00d76733          	or	a4,a4,a3
   11ff4:	fee7ae23          	sw	a4,-4(a5)
   11ff8:	fef612e3          	bne	a2,a5,11fdc <__multf3+0x87c>
   11ffc:	05812703          	lw	a4,88(sp)
   12000:	05012783          	lw	a5,80(sp)
   12004:	00603333          	snez	t1,t1
   12008:	04e12423          	sw	a4,72(sp)
   1200c:	05412703          	lw	a4,84(sp)
   12010:	00f36333          	or	t1,t1,a5
   12014:	05c12783          	lw	a5,92(sp)
   12018:	04e12223          	sw	a4,68(sp)
   1201c:	00100737          	lui	a4,0x100
   12020:	04f12623          	sw	a5,76(sp)
   12024:	04612023          	sw	t1,64(sp)
   12028:	00e7f7b3          	and	a5,a5,a4
   1202c:	52078e63          	beqz	a5,12568 <__multf3+0xe08>
   12030:	01f31313          	sll	t1,t1,0x1f
   12034:	04010793          	add	a5,sp,64
   12038:	04c10613          	add	a2,sp,76
   1203c:	0007a703          	lw	a4,0(a5)
   12040:	0047a683          	lw	a3,4(a5)
   12044:	00478793          	add	a5,a5,4
   12048:	00175713          	srl	a4,a4,0x1
   1204c:	01f69693          	sll	a3,a3,0x1f
   12050:	00d76733          	or	a4,a4,a3
   12054:	fee7ae23          	sw	a4,-4(a5)
   12058:	fef612e3          	bne	a2,a5,1203c <__multf3+0x8dc>
   1205c:	04c12783          	lw	a5,76(sp)
   12060:	00603333          	snez	t1,t1
   12064:	0017d793          	srl	a5,a5,0x1
   12068:	04f12623          	sw	a5,76(sp)
   1206c:	04012783          	lw	a5,64(sp)
   12070:	0067e7b3          	or	a5,a5,t1
   12074:	04f12023          	sw	a5,64(sp)
   12078:	00812703          	lw	a4,8(sp)
   1207c:	000047b7          	lui	a5,0x4
   12080:	fff78793          	add	a5,a5,-1 # 3fff <_start-0xc001>
   12084:	00f707b3          	add	a5,a4,a5
   12088:	50f05263          	blez	a5,1258c <__multf3+0xe2c>
   1208c:	04012703          	lw	a4,64(sp)
   12090:	00777693          	and	a3,a4,7
   12094:	04068463          	beqz	a3,120dc <__multf3+0x97c>
   12098:	00f77693          	and	a3,a4,15
   1209c:	00400613          	li	a2,4
   120a0:	02c68e63          	beq	a3,a2,120dc <__multf3+0x97c>
   120a4:	00470713          	add	a4,a4,4 # 100004 <_end+0xd6034>
   120a8:	00473693          	sltiu	a3,a4,4
   120ac:	04e12023          	sw	a4,64(sp)
   120b0:	04412703          	lw	a4,68(sp)
   120b4:	00e68733          	add	a4,a3,a4
   120b8:	04e12223          	sw	a4,68(sp)
   120bc:	00d73733          	sltu	a4,a4,a3
   120c0:	04812683          	lw	a3,72(sp)
   120c4:	00e68733          	add	a4,a3,a4
   120c8:	04e12423          	sw	a4,72(sp)
   120cc:	00d73733          	sltu	a4,a4,a3
   120d0:	04c12683          	lw	a3,76(sp)
   120d4:	00d70733          	add	a4,a4,a3
   120d8:	04e12623          	sw	a4,76(sp)
   120dc:	04c12703          	lw	a4,76(sp)
   120e0:	001006b7          	lui	a3,0x100
   120e4:	00d776b3          	and	a3,a4,a3
   120e8:	02068063          	beqz	a3,12108 <__multf3+0x9a8>
   120ec:	fff007b7          	lui	a5,0xfff00
   120f0:	fff78793          	add	a5,a5,-1 # ffefffff <_end+0xffed602f>
   120f4:	00f77733          	and	a4,a4,a5
   120f8:	04e12623          	sw	a4,76(sp)
   120fc:	00812703          	lw	a4,8(sp)
   12100:	000047b7          	lui	a5,0x4
   12104:	00f707b3          	add	a5,a4,a5
   12108:	04010713          	add	a4,sp,64
   1210c:	04c10593          	add	a1,sp,76
   12110:	00072683          	lw	a3,0(a4)
   12114:	00472603          	lw	a2,4(a4)
   12118:	00470713          	add	a4,a4,4
   1211c:	0036d693          	srl	a3,a3,0x3
   12120:	01d61613          	sll	a2,a2,0x1d
   12124:	00c6e6b3          	or	a3,a3,a2
   12128:	fed72e23          	sw	a3,-4(a4)
   1212c:	feb712e3          	bne	a4,a1,12110 <__multf3+0x9b0>
   12130:	000086b7          	lui	a3,0x8
   12134:	ffe68613          	add	a2,a3,-2 # 7ffe <_start-0x8002>
   12138:	04c12703          	lw	a4,76(sp)
   1213c:	42f64c63          	blt	a2,a5,12574 <__multf3+0xe14>
   12140:	00375713          	srl	a4,a4,0x3
   12144:	04e12623          	sw	a4,76(sp)
   12148:	04c12703          	lw	a4,76(sp)
   1214c:	0ac12083          	lw	ra,172(sp)
   12150:	00040513          	mv	a0,s0
   12154:	04e11e23          	sh	a4,92(sp)
   12158:	00412703          	lw	a4,4(sp)
   1215c:	0a412483          	lw	s1,164(sp)
   12160:	0a012903          	lw	s2,160(sp)
   12164:	00f71713          	sll	a4,a4,0xf
   12168:	00f767b3          	or	a5,a4,a5
   1216c:	04f11f23          	sh	a5,94(sp)
   12170:	04012783          	lw	a5,64(sp)
   12174:	09c12983          	lw	s3,156(sp)
   12178:	09812a03          	lw	s4,152(sp)
   1217c:	00f42023          	sw	a5,0(s0) # 80000 <_end+0x56030>
   12180:	04412783          	lw	a5,68(sp)
   12184:	09412a83          	lw	s5,148(sp)
   12188:	09012b03          	lw	s6,144(sp)
   1218c:	00f42223          	sw	a5,4(s0)
   12190:	04812783          	lw	a5,72(sp)
   12194:	08c12b83          	lw	s7,140(sp)
   12198:	08812c03          	lw	s8,136(sp)
   1219c:	00f42423          	sw	a5,8(s0)
   121a0:	05c12783          	lw	a5,92(sp)
   121a4:	08412c83          	lw	s9,132(sp)
   121a8:	08012d03          	lw	s10,128(sp)
   121ac:	00f42623          	sw	a5,12(s0)
   121b0:	0a812403          	lw	s0,168(sp)
   121b4:	07c12d83          	lw	s11,124(sp)
   121b8:	0b010113          	add	sp,sp,176
   121bc:	00008067          	ret
   121c0:	00a7e633          	or	a2,a5,a0
   121c4:	00d66633          	or	a2,a2,a3
   121c8:	00e66633          	or	a2,a2,a4
   121cc:	14060c63          	beqz	a2,12324 <__multf3+0xbc4>
   121d0:	04070e63          	beqz	a4,1222c <__multf3+0xacc>
   121d4:	00070513          	mv	a0,a4
   121d8:	240020ef          	jal	14418 <__clzsi2>
   121dc:	ff450693          	add	a3,a0,-12
   121e0:	02000613          	li	a2,32
   121e4:	40d60633          	sub	a2,a2,a3
   121e8:	00000793          	li	a5,0
   121ec:	ffc00593          	li	a1,-4
   121f0:	02b785b3          	mul	a1,a5,a1
   121f4:	02010313          	add	t1,sp,32
   121f8:	00c58713          	add	a4,a1,12
   121fc:	00e30733          	add	a4,t1,a4
   12200:	40b005b3          	neg	a1,a1
   12204:	0ee31063          	bne	t1,a4,122e4 <__multf3+0xb84>
   12208:	fff78713          	add	a4,a5,-1 # 3fff <_start-0xc001>
   1220c:	00279793          	sll	a5,a5,0x2
   12210:	02010613          	add	a2,sp,32
   12214:	05078793          	add	a5,a5,80
   12218:	00c787b3          	add	a5,a5,a2
   1221c:	02012603          	lw	a2,32(sp)
   12220:	00d616b3          	sll	a3,a2,a3
   12224:	fad7a823          	sw	a3,-80(a5)
   12228:	07c0006f          	j	122a4 <__multf3+0xb44>
   1222c:	02068663          	beqz	a3,12258 <__multf3+0xaf8>
   12230:	00068513          	mv	a0,a3
   12234:	1e4020ef          	jal	14418 <__clzsi2>
   12238:	02050513          	add	a0,a0,32
   1223c:	ff450693          	add	a3,a0,-12
   12240:	4056d793          	sra	a5,a3,0x5
   12244:	01f6f693          	and	a3,a3,31
   12248:	02068863          	beqz	a3,12278 <__multf3+0xb18>
   1224c:	02000613          	li	a2,32
   12250:	40d60633          	sub	a2,a2,a3
   12254:	f99ff06f          	j	121ec <__multf3+0xa8c>
   12258:	00050863          	beqz	a0,12268 <__multf3+0xb08>
   1225c:	1bc020ef          	jal	14418 <__clzsi2>
   12260:	04050513          	add	a0,a0,64
   12264:	fd9ff06f          	j	1223c <__multf3+0xadc>
   12268:	00078513          	mv	a0,a5
   1226c:	1ac020ef          	jal	14418 <__clzsi2>
   12270:	06050513          	add	a0,a0,96
   12274:	fc9ff06f          	j	1223c <__multf3+0xadc>
   12278:	ffc00613          	li	a2,-4
   1227c:	02c78633          	mul	a2,a5,a2
   12280:	02c10713          	add	a4,sp,44
   12284:	00300693          	li	a3,3
   12288:	00c705b3          	add	a1,a4,a2
   1228c:	0005a583          	lw	a1,0(a1)
   12290:	fff68693          	add	a3,a3,-1
   12294:	ffc70713          	add	a4,a4,-4
   12298:	00b72223          	sw	a1,4(a4)
   1229c:	fef6d6e3          	bge	a3,a5,12288 <__multf3+0xb28>
   122a0:	fff78713          	add	a4,a5,-1
   122a4:	00170793          	add	a5,a4,1
   122a8:	00279793          	sll	a5,a5,0x2
   122ac:	00800693          	li	a3,8
   122b0:	02010713          	add	a4,sp,32
   122b4:	00d7ea63          	bltu	a5,a3,122c8 <__multf3+0xb68>
   122b8:	02012023          	sw	zero,32(sp)
   122bc:	00072223          	sw	zero,4(a4)
   122c0:	ff878793          	add	a5,a5,-8
   122c4:	02810713          	add	a4,sp,40
   122c8:	00400693          	li	a3,4
   122cc:	00d7e463          	bltu	a5,a3,122d4 <__multf3+0xb74>
   122d0:	00072023          	sw	zero,0(a4)
   122d4:	ffffc4b7          	lui	s1,0xffffc
   122d8:	01148493          	add	s1,s1,17 # ffffc011 <_end+0xfffd2041>
   122dc:	40a484b3          	sub	s1,s1,a0
   122e0:	d6cff06f          	j	1184c <__multf3+0xec>
   122e4:	00072803          	lw	a6,0(a4)
   122e8:	ffc72883          	lw	a7,-4(a4)
   122ec:	00b70e33          	add	t3,a4,a1
   122f0:	00d81833          	sll	a6,a6,a3
   122f4:	00c8d8b3          	srl	a7,a7,a2
   122f8:	01186833          	or	a6,a6,a7
   122fc:	010e2023          	sw	a6,0(t3)
   12300:	ffc70713          	add	a4,a4,-4
   12304:	f01ff06f          	j	12204 <__multf3+0xaa4>
   12308:	00a7e7b3          	or	a5,a5,a0
   1230c:	00d7e7b3          	or	a5,a5,a3
   12310:	00e7e7b3          	or	a5,a5,a4
   12314:	00200b93          	li	s7,2
   12318:	d2078c63          	beqz	a5,11850 <__multf3+0xf0>
   1231c:	00300b93          	li	s7,3
   12320:	d30ff06f          	j	11850 <__multf3+0xf0>
   12324:	00000493          	li	s1,0
   12328:	00100b93          	li	s7,1
   1232c:	d24ff06f          	j	11850 <__multf3+0xf0>
   12330:	016967b3          	or	a5,s2,s6
   12334:	0157e7b3          	or	a5,a5,s5
   12338:	00a7e7b3          	or	a5,a5,a0
   1233c:	14078c63          	beqz	a5,12494 <__multf3+0xd34>
   12340:	04050c63          	beqz	a0,12398 <__multf3+0xc38>
   12344:	0d4020ef          	jal	14418 <__clzsi2>
   12348:	ff450693          	add	a3,a0,-12
   1234c:	02000593          	li	a1,32
   12350:	40d585b3          	sub	a1,a1,a3
   12354:	00000793          	li	a5,0
   12358:	ffc00613          	li	a2,-4
   1235c:	02c78633          	mul	a2,a5,a2
   12360:	03010313          	add	t1,sp,48
   12364:	00c60713          	add	a4,a2,12
   12368:	00e30733          	add	a4,t1,a4
   1236c:	40c00633          	neg	a2,a2
   12370:	0ee31263          	bne	t1,a4,12454 <__multf3+0xcf4>
   12374:	fff78713          	add	a4,a5,-1
   12378:	00279793          	sll	a5,a5,0x2
   1237c:	02010613          	add	a2,sp,32
   12380:	05078793          	add	a5,a5,80
   12384:	00c787b3          	add	a5,a5,a2
   12388:	03012603          	lw	a2,48(sp)
   1238c:	00d616b3          	sll	a3,a2,a3
   12390:	fcd7a023          	sw	a3,-64(a5)
   12394:	0800006f          	j	12414 <__multf3+0xcb4>
   12398:	020a8663          	beqz	s5,123c4 <__multf3+0xc64>
   1239c:	000a8513          	mv	a0,s5
   123a0:	078020ef          	jal	14418 <__clzsi2>
   123a4:	02050513          	add	a0,a0,32
   123a8:	ff450693          	add	a3,a0,-12
   123ac:	4056d793          	sra	a5,a3,0x5
   123b0:	01f6f693          	and	a3,a3,31
   123b4:	02068a63          	beqz	a3,123e8 <__multf3+0xc88>
   123b8:	02000593          	li	a1,32
   123bc:	40d585b3          	sub	a1,a1,a3
   123c0:	f99ff06f          	j	12358 <__multf3+0xbf8>
   123c4:	000b0a63          	beqz	s6,123d8 <__multf3+0xc78>
   123c8:	000b0513          	mv	a0,s6
   123cc:	04c020ef          	jal	14418 <__clzsi2>
   123d0:	04050513          	add	a0,a0,64
   123d4:	fd5ff06f          	j	123a8 <__multf3+0xc48>
   123d8:	00090513          	mv	a0,s2
   123dc:	03c020ef          	jal	14418 <__clzsi2>
   123e0:	06050513          	add	a0,a0,96
   123e4:	fc5ff06f          	j	123a8 <__multf3+0xc48>
   123e8:	ffc00613          	li	a2,-4
   123ec:	02c78633          	mul	a2,a5,a2
   123f0:	03c10713          	add	a4,sp,60
   123f4:	00300693          	li	a3,3
   123f8:	00c705b3          	add	a1,a4,a2
   123fc:	0005a583          	lw	a1,0(a1)
   12400:	fff68693          	add	a3,a3,-1
   12404:	ffc70713          	add	a4,a4,-4
   12408:	00b72223          	sw	a1,4(a4)
   1240c:	fef6d6e3          	bge	a3,a5,123f8 <__multf3+0xc98>
   12410:	fff78713          	add	a4,a5,-1
   12414:	00170793          	add	a5,a4,1
   12418:	00279793          	sll	a5,a5,0x2
   1241c:	00800693          	li	a3,8
   12420:	03010713          	add	a4,sp,48
   12424:	00d7ea63          	bltu	a5,a3,12438 <__multf3+0xcd8>
   12428:	02012823          	sw	zero,48(sp)
   1242c:	00072223          	sw	zero,4(a4)
   12430:	ff878793          	add	a5,a5,-8
   12434:	03810713          	add	a4,sp,56
   12438:	00400693          	li	a3,4
   1243c:	00d7e463          	bltu	a5,a3,12444 <__multf3+0xce4>
   12440:	00072023          	sw	zero,0(a4)
   12444:	ffffc7b7          	lui	a5,0xffffc
   12448:	01178793          	add	a5,a5,17 # ffffc011 <_end+0xfffd2041>
   1244c:	40a787b3          	sub	a5,a5,a0
   12450:	c90ff06f          	j	118e0 <__multf3+0x180>
   12454:	00072803          	lw	a6,0(a4)
   12458:	ffc72883          	lw	a7,-4(a4)
   1245c:	00c70e33          	add	t3,a4,a2
   12460:	00d81833          	sll	a6,a6,a3
   12464:	00b8d8b3          	srl	a7,a7,a1
   12468:	01186833          	or	a6,a6,a7
   1246c:	010e2023          	sw	a6,0(t3)
   12470:	ffc70713          	add	a4,a4,-4
   12474:	efdff06f          	j	12370 <__multf3+0xc10>
   12478:	01696933          	or	s2,s2,s6
   1247c:	01596933          	or	s2,s2,s5
   12480:	00a96933          	or	s2,s2,a0
   12484:	00200693          	li	a3,2
   12488:	c4090e63          	beqz	s2,118e4 <__multf3+0x184>
   1248c:	00300693          	li	a3,3
   12490:	c54ff06f          	j	118e4 <__multf3+0x184>
   12494:	00000793          	li	a5,0
   12498:	00100693          	li	a3,1
   1249c:	c48ff06f          	j	118e4 <__multf3+0x184>
   124a0:	00100713          	li	a4,1
   124a4:	00f717b3          	sll	a5,a4,a5
   124a8:	5307f713          	and	a4,a5,1328
   124ac:	04071463          	bnez	a4,124f4 <__multf3+0xd94>
   124b0:	0887f713          	and	a4,a5,136
   124b4:	08071663          	bnez	a4,12540 <__multf3+0xde0>
   124b8:	2407f793          	and	a5,a5,576
   124bc:	c6078263          	beqz	a5,11920 <__multf3+0x1c0>
   124c0:	000087b7          	lui	a5,0x8
   124c4:	04f12623          	sw	a5,76(sp)
   124c8:	04012423          	sw	zero,72(sp)
   124cc:	04012223          	sw	zero,68(sp)
   124d0:	04012023          	sw	zero,64(sp)
   124d4:	fff78793          	add	a5,a5,-1 # 7fff <_start-0x8001>
   124d8:	00012223          	sw	zero,4(sp)
   124dc:	c6dff06f          	j	12148 <__multf3+0x9e8>
   124e0:	00f00713          	li	a4,15
   124e4:	fce78ee3          	beq	a5,a4,124c0 <__multf3+0xd60>
   124e8:	00b00713          	li	a4,11
   124ec:	04e78a63          	beq	a5,a4,12540 <__multf3+0xde0>
   124f0:	01312223          	sw	s3,4(sp)
   124f4:	02012783          	lw	a5,32(sp)
   124f8:	04f12023          	sw	a5,64(sp)
   124fc:	02412783          	lw	a5,36(sp)
   12500:	04f12223          	sw	a5,68(sp)
   12504:	02812783          	lw	a5,40(sp)
   12508:	04f12423          	sw	a5,72(sp)
   1250c:	02c12783          	lw	a5,44(sp)
   12510:	04f12623          	sw	a5,76(sp)
   12514:	00200793          	li	a5,2
   12518:	28fb8263          	beq	s7,a5,1279c <__multf3+0x103c>
   1251c:	00300793          	li	a5,3
   12520:	fafb80e3          	beq	s7,a5,124c0 <__multf3+0xd60>
   12524:	00100793          	li	a5,1
   12528:	b4fb98e3          	bne	s7,a5,12078 <__multf3+0x918>
   1252c:	04012623          	sw	zero,76(sp)
   12530:	04012423          	sw	zero,72(sp)
   12534:	04012223          	sw	zero,68(sp)
   12538:	04012023          	sw	zero,64(sp)
   1253c:	2340006f          	j	12770 <__multf3+0x1010>
   12540:	01412223          	sw	s4,4(sp)
   12544:	03012783          	lw	a5,48(sp)
   12548:	00068b93          	mv	s7,a3
   1254c:	04f12023          	sw	a5,64(sp)
   12550:	03412783          	lw	a5,52(sp)
   12554:	04f12223          	sw	a5,68(sp)
   12558:	03812783          	lw	a5,56(sp)
   1255c:	04f12423          	sw	a5,72(sp)
   12560:	03c12783          	lw	a5,60(sp)
   12564:	fadff06f          	j	12510 <__multf3+0xdb0>
   12568:	00c12783          	lw	a5,12(sp)
   1256c:	00f12423          	sw	a5,8(sp)
   12570:	b09ff06f          	j	12078 <__multf3+0x918>
   12574:	04012623          	sw	zero,76(sp)
   12578:	04012423          	sw	zero,72(sp)
   1257c:	04012223          	sw	zero,68(sp)
   12580:	04012023          	sw	zero,64(sp)
   12584:	fff68793          	add	a5,a3,-1
   12588:	bc1ff06f          	j	12148 <__multf3+0x9e8>
   1258c:	00100693          	li	a3,1
   12590:	00078863          	beqz	a5,125a0 <__multf3+0xe40>
   12594:	40f686b3          	sub	a3,a3,a5
   12598:	07400793          	li	a5,116
   1259c:	1cd7ce63          	blt	a5,a3,12778 <__multf3+0x1018>
   125a0:	04010513          	add	a0,sp,64
   125a4:	4056d713          	sra	a4,a3,0x5
   125a8:	00050593          	mv	a1,a0
   125ac:	01f6f693          	and	a3,a3,31
   125b0:	00000793          	li	a5,0
   125b4:	00000613          	li	a2,0
   125b8:	02e61e63          	bne	a2,a4,125f4 <__multf3+0xe94>
   125bc:	00300613          	li	a2,3
   125c0:	40e60633          	sub	a2,a2,a4
   125c4:	00271593          	sll	a1,a4,0x2
   125c8:	04069063          	bnez	a3,12608 <__multf3+0xea8>
   125cc:	00050813          	mv	a6,a0
   125d0:	00b808b3          	add	a7,a6,a1
   125d4:	0008a883          	lw	a7,0(a7)
   125d8:	00168693          	add	a3,a3,1
   125dc:	00480813          	add	a6,a6,4
   125e0:	ff182e23          	sw	a7,-4(a6)
   125e4:	fed656e3          	bge	a2,a3,125d0 <__multf3+0xe70>
   125e8:	00400693          	li	a3,4
   125ec:	40e68733          	sub	a4,a3,a4
   125f0:	06c0006f          	j	1265c <__multf3+0xefc>
   125f4:	0005a803          	lw	a6,0(a1)
   125f8:	00160613          	add	a2,a2,1
   125fc:	00458593          	add	a1,a1,4
   12600:	0107e7b3          	or	a5,a5,a6
   12604:	fb5ff06f          	j	125b8 <__multf3+0xe58>
   12608:	05058813          	add	a6,a1,80
   1260c:	02010893          	add	a7,sp,32
   12610:	01180833          	add	a6,a6,a7
   12614:	fd082803          	lw	a6,-48(a6)
   12618:	02000313          	li	t1,32
   1261c:	40d30333          	sub	t1,t1,a3
   12620:	00681833          	sll	a6,a6,t1
   12624:	0107e7b3          	or	a5,a5,a6
   12628:	00000e13          	li	t3,0
   1262c:	00b50833          	add	a6,a0,a1
   12630:	40b005b3          	neg	a1,a1
   12634:	0ece4263          	blt	t3,a2,12718 <__multf3+0xfb8>
   12638:	00400593          	li	a1,4
   1263c:	00261613          	sll	a2,a2,0x2
   12640:	40e58733          	sub	a4,a1,a4
   12644:	05060613          	add	a2,a2,80
   12648:	02010593          	add	a1,sp,32
   1264c:	00b60633          	add	a2,a2,a1
   12650:	04c12583          	lw	a1,76(sp)
   12654:	00d5d6b3          	srl	a3,a1,a3
   12658:	fcd62823          	sw	a3,-48(a2)
   1265c:	00400693          	li	a3,4
   12660:	40e686b3          	sub	a3,a3,a4
   12664:	00269693          	sll	a3,a3,0x2
   12668:	00271713          	sll	a4,a4,0x2
   1266c:	00800613          	li	a2,8
   12670:	00e50733          	add	a4,a0,a4
   12674:	00c6ea63          	bltu	a3,a2,12688 <__multf3+0xf28>
   12678:	00072023          	sw	zero,0(a4)
   1267c:	00072223          	sw	zero,4(a4)
   12680:	ff868693          	add	a3,a3,-8
   12684:	00870713          	add	a4,a4,8
   12688:	00400613          	li	a2,4
   1268c:	00c6e463          	bltu	a3,a2,12694 <__multf3+0xf34>
   12690:	00072023          	sw	zero,0(a4)
   12694:	04012703          	lw	a4,64(sp)
   12698:	00f037b3          	snez	a5,a5
   1269c:	00e7e7b3          	or	a5,a5,a4
   126a0:	04f12023          	sw	a5,64(sp)
   126a4:	0077f713          	and	a4,a5,7
   126a8:	04070463          	beqz	a4,126f0 <__multf3+0xf90>
   126ac:	00f7f713          	and	a4,a5,15
   126b0:	00400693          	li	a3,4
   126b4:	02d70e63          	beq	a4,a3,126f0 <__multf3+0xf90>
   126b8:	04412703          	lw	a4,68(sp)
   126bc:	00478793          	add	a5,a5,4
   126c0:	04f12023          	sw	a5,64(sp)
   126c4:	0047b793          	sltiu	a5,a5,4
   126c8:	00f707b3          	add	a5,a4,a5
   126cc:	04f12223          	sw	a5,68(sp)
   126d0:	00e7b7b3          	sltu	a5,a5,a4
   126d4:	04812703          	lw	a4,72(sp)
   126d8:	00f707b3          	add	a5,a4,a5
   126dc:	04f12423          	sw	a5,72(sp)
   126e0:	00e7b7b3          	sltu	a5,a5,a4
   126e4:	04c12703          	lw	a4,76(sp)
   126e8:	00e787b3          	add	a5,a5,a4
   126ec:	04f12623          	sw	a5,76(sp)
   126f0:	04c12703          	lw	a4,76(sp)
   126f4:	000807b7          	lui	a5,0x80
   126f8:	00e7f7b3          	and	a5,a5,a4
   126fc:	04078263          	beqz	a5,12740 <__multf3+0xfe0>
   12700:	04012623          	sw	zero,76(sp)
   12704:	04012423          	sw	zero,72(sp)
   12708:	04012223          	sw	zero,68(sp)
   1270c:	04012023          	sw	zero,64(sp)
   12710:	00100793          	li	a5,1
   12714:	a35ff06f          	j	12148 <__multf3+0x9e8>
   12718:	00082883          	lw	a7,0(a6)
   1271c:	00482e83          	lw	t4,4(a6)
   12720:	00b80f33          	add	t5,a6,a1
   12724:	00d8d8b3          	srl	a7,a7,a3
   12728:	006e9eb3          	sll	t4,t4,t1
   1272c:	01d8e8b3          	or	a7,a7,t4
   12730:	011f2023          	sw	a7,0(t5)
   12734:	001e0e13          	add	t3,t3,1
   12738:	00480813          	add	a6,a6,4
   1273c:	ef9ff06f          	j	12634 <__multf3+0xed4>
   12740:	00c50693          	add	a3,a0,12
   12744:	00052783          	lw	a5,0(a0)
   12748:	00452703          	lw	a4,4(a0)
   1274c:	00450513          	add	a0,a0,4
   12750:	0037d793          	srl	a5,a5,0x3
   12754:	01d71713          	sll	a4,a4,0x1d
   12758:	00e7e7b3          	or	a5,a5,a4
   1275c:	fef52e23          	sw	a5,-4(a0)
   12760:	fea692e3          	bne	a3,a0,12744 <__multf3+0xfe4>
   12764:	04c12783          	lw	a5,76(sp)
   12768:	0037d793          	srl	a5,a5,0x3
   1276c:	04f12623          	sw	a5,76(sp)
   12770:	00000793          	li	a5,0
   12774:	9d5ff06f          	j	12148 <__multf3+0x9e8>
   12778:	04412703          	lw	a4,68(sp)
   1277c:	04012783          	lw	a5,64(sp)
   12780:	00e7e7b3          	or	a5,a5,a4
   12784:	04812703          	lw	a4,72(sp)
   12788:	00e7e7b3          	or	a5,a5,a4
   1278c:	04c12703          	lw	a4,76(sp)
   12790:	00e7e7b3          	or	a5,a5,a4
   12794:	fc078ee3          	beqz	a5,12770 <__multf3+0x1010>
   12798:	d95ff06f          	j	1252c <__multf3+0xdcc>
   1279c:	000087b7          	lui	a5,0x8
   127a0:	04012623          	sw	zero,76(sp)
   127a4:	04012423          	sw	zero,72(sp)
   127a8:	04012223          	sw	zero,68(sp)
   127ac:	04012023          	sw	zero,64(sp)
   127b0:	fff78793          	add	a5,a5,-1 # 7fff <_start-0x8001>
   127b4:	995ff06f          	j	12148 <__multf3+0x9e8>

000127b8 <__subtf3>:
   127b8:	f9010113          	add	sp,sp,-112
   127bc:	0085a783          	lw	a5,8(a1)
   127c0:	05512a23          	sw	s5,84(sp)
   127c4:	00c5aa83          	lw	s5,12(a1)
   127c8:	0045a703          	lw	a4,4(a1)
   127cc:	05412c23          	sw	s4,88(sp)
   127d0:	00050a13          	mv	s4,a0
   127d4:	0005a503          	lw	a0,0(a1)
   127d8:	05312e23          	sw	s3,92(sp)
   127dc:	02f12c23          	sw	a5,56(sp)
   127e0:	00f12c23          	sw	a5,24(sp)
   127e4:	00062883          	lw	a7,0(a2)
   127e8:	010a9793          	sll	a5,s5,0x10
   127ec:	00462803          	lw	a6,4(a2)
   127f0:	00862683          	lw	a3,8(a2)
   127f4:	00c62983          	lw	s3,12(a2)
   127f8:	06912223          	sw	s1,100(sp)
   127fc:	0107d793          	srl	a5,a5,0x10
   12800:	001a9493          	sll	s1,s5,0x1
   12804:	02a12823          	sw	a0,48(sp)
   12808:	03512e23          	sw	s5,60(sp)
   1280c:	00a12823          	sw	a0,16(sp)
   12810:	06112623          	sw	ra,108(sp)
   12814:	06812423          	sw	s0,104(sp)
   12818:	07212023          	sw	s2,96(sp)
   1281c:	05612823          	sw	s6,80(sp)
   12820:	05712623          	sw	s7,76(sp)
   12824:	05812423          	sw	s8,72(sp)
   12828:	02e12a23          	sw	a4,52(sp)
   1282c:	00e12a23          	sw	a4,20(sp)
   12830:	00f12e23          	sw	a5,28(sp)
   12834:	0114d493          	srl	s1,s1,0x11
   12838:	01fada93          	srl	s5,s5,0x1f
   1283c:	01010513          	add	a0,sp,16
   12840:	01c10593          	add	a1,sp,28
   12844:	0005a783          	lw	a5,0(a1)
   12848:	ffc5a703          	lw	a4,-4(a1)
   1284c:	ffc58593          	add	a1,a1,-4
   12850:	00379793          	sll	a5,a5,0x3
   12854:	01d75713          	srl	a4,a4,0x1d
   12858:	00e7e7b3          	or	a5,a5,a4
   1285c:	00f5a223          	sw	a5,4(a1)
   12860:	feb512e3          	bne	a0,a1,12844 <__subtf3+0x8c>
   12864:	01012783          	lw	a5,16(sp)
   12868:	01099713          	sll	a4,s3,0x10
   1286c:	00199b93          	sll	s7,s3,0x1
   12870:	00379793          	sll	a5,a5,0x3
   12874:	01075713          	srl	a4,a4,0x10
   12878:	03112823          	sw	a7,48(sp)
   1287c:	03012a23          	sw	a6,52(sp)
   12880:	03312e23          	sw	s3,60(sp)
   12884:	03112023          	sw	a7,32(sp)
   12888:	03012223          	sw	a6,36(sp)
   1288c:	00f12823          	sw	a5,16(sp)
   12890:	02d12c23          	sw	a3,56(sp)
   12894:	02d12423          	sw	a3,40(sp)
   12898:	02e12623          	sw	a4,44(sp)
   1289c:	011bdb93          	srl	s7,s7,0x11
   128a0:	01f9d993          	srl	s3,s3,0x1f
   128a4:	02010813          	add	a6,sp,32
   128a8:	02c10893          	add	a7,sp,44
   128ac:	0008a703          	lw	a4,0(a7)
   128b0:	ffc8a683          	lw	a3,-4(a7)
   128b4:	ffc88893          	add	a7,a7,-4
   128b8:	00371713          	sll	a4,a4,0x3
   128bc:	01d6d693          	srl	a3,a3,0x1d
   128c0:	00d76733          	or	a4,a4,a3
   128c4:	00e8a223          	sw	a4,4(a7)
   128c8:	ff1812e3          	bne	a6,a7,128ac <__subtf3+0xf4>
   128cc:	02012403          	lw	s0,32(sp)
   128d0:	00008e37          	lui	t3,0x8
   128d4:	fffe0e13          	add	t3,t3,-1 # 7fff <_start-0x8001>
   128d8:	00341413          	sll	s0,s0,0x3
   128dc:	02812023          	sw	s0,32(sp)
   128e0:	41748333          	sub	t1,s1,s7
   128e4:	07cb9e63          	bne	s7,t3,12960 <__subtf3+0x1a8>
   128e8:	02812683          	lw	a3,40(sp)
   128ec:	02412703          	lw	a4,36(sp)
   128f0:	00030e93          	mv	t4,t1
   128f4:	00d76733          	or	a4,a4,a3
   128f8:	02c12683          	lw	a3,44(sp)
   128fc:	00d76733          	or	a4,a4,a3
   12900:	00876733          	or	a4,a4,s0
   12904:	04070a63          	beqz	a4,12958 <__subtf3+0x1a0>
   12908:	333a98e3          	bne	s5,s3,13438 <__subtf3+0xc80>
   1290c:	02412903          	lw	s2,36(sp)
   12910:	02812983          	lw	s3,40(sp)
   12914:	02c12b03          	lw	s6,44(sp)
   12918:	6c030263          	beqz	t1,12fdc <__subtf3+0x824>
   1291c:	409b8833          	sub	a6,s7,s1
   12920:	50049e63          	bnez	s1,12e3c <__subtf3+0x684>
   12924:	01412683          	lw	a3,20(sp)
   12928:	01812703          	lw	a4,24(sp)
   1292c:	01c12883          	lw	a7,28(sp)
   12930:	00e6e633          	or	a2,a3,a4
   12934:	01166633          	or	a2,a2,a7
   12938:	00f66633          	or	a2,a2,a5
   1293c:	48061463          	bnez	a2,12dc4 <__subtf3+0x60c>
   12940:	02812823          	sw	s0,48(sp)
   12944:	03212a23          	sw	s2,52(sp)
   12948:	03312c23          	sw	s3,56(sp)
   1294c:	03612e23          	sw	s6,60(sp)
   12950:	00080493          	mv	s1,a6
   12954:	0f00006f          	j	12a44 <__subtf3+0x28c>
   12958:	0019c993          	xor	s3,s3,1
   1295c:	fadff06f          	j	12908 <__subtf3+0x150>
   12960:	0019c993          	xor	s3,s3,1
   12964:	00030e93          	mv	t4,t1
   12968:	073a90e3          	bne	s5,s3,131c8 <__subtf3+0xa10>
   1296c:	fa6050e3          	blez	t1,1290c <__subtf3+0x154>
   12970:	01412903          	lw	s2,20(sp)
   12974:	01812983          	lw	s3,24(sp)
   12978:	01c12b03          	lw	s6,28(sp)
   1297c:	0a0b9a63          	bnez	s7,12a30 <__subtf3+0x278>
   12980:	02412683          	lw	a3,36(sp)
   12984:	02812703          	lw	a4,40(sp)
   12988:	02c12583          	lw	a1,44(sp)
   1298c:	00e6e633          	or	a2,a3,a4
   12990:	00b66633          	or	a2,a2,a1
   12994:	00866633          	or	a2,a2,s0
   12998:	00061e63          	bnez	a2,129b4 <__subtf3+0x1fc>
   1299c:	02f12823          	sw	a5,48(sp)
   129a0:	03212a23          	sw	s2,52(sp)
   129a4:	03312c23          	sw	s3,56(sp)
   129a8:	03612e23          	sw	s6,60(sp)
   129ac:	00030493          	mv	s1,t1
   129b0:	0940006f          	j	12a44 <__subtf3+0x28c>
   129b4:	fff30613          	add	a2,t1,-1
   129b8:	04061863          	bnez	a2,12a08 <__subtf3+0x250>
   129bc:	00878433          	add	s0,a5,s0
   129c0:	01268933          	add	s2,a3,s2
   129c4:	02812823          	sw	s0,48(sp)
   129c8:	00f43433          	sltu	s0,s0,a5
   129cc:	00890433          	add	s0,s2,s0
   129d0:	02812a23          	sw	s0,52(sp)
   129d4:	00d936b3          	sltu	a3,s2,a3
   129d8:	01243433          	sltu	s0,s0,s2
   129dc:	013709b3          	add	s3,a4,s3
   129e0:	0086e6b3          	or	a3,a3,s0
   129e4:	00d986b3          	add	a3,s3,a3
   129e8:	02d12c23          	sw	a3,56(sp)
   129ec:	00e9b7b3          	sltu	a5,s3,a4
   129f0:	0136b6b3          	sltu	a3,a3,s3
   129f4:	00d7e7b3          	or	a5,a5,a3
   129f8:	016585b3          	add	a1,a1,s6
   129fc:	00b787b3          	add	a5,a5,a1
   12a00:	00100493          	li	s1,1
   12a04:	3080006f          	j	12d0c <__subtf3+0x554>
   12a08:	01c30463          	beq	t1,t3,12a10 <__subtf3+0x258>
   12a0c:	2080106f          	j	13c14 <__subtf3+0x145c>
   12a10:	02f12823          	sw	a5,48(sp)
   12a14:	4100006f          	j	12e24 <__subtf3+0x66c>
   12a18:	00040793          	mv	a5,s0
   12a1c:	ff5ff06f          	j	12a10 <__subtf3+0x258>
   12a20:	00068913          	mv	s2,a3
   12a24:	00070993          	mv	s3,a4
   12a28:	00060b13          	mv	s6,a2
   12a2c:	fe5ff06f          	j	12a10 <__subtf3+0x258>
   12a30:	17c49c63          	bne	s1,t3,12ba8 <__subtf3+0x3f0>
   12a34:	02f12823          	sw	a5,48(sp)
   12a38:	03212a23          	sw	s2,52(sp)
   12a3c:	03312c23          	sw	s3,56(sp)
   12a40:	03612e23          	sw	s6,60(sp)
   12a44:	03012783          	lw	a5,48(sp)
   12a48:	0077f713          	and	a4,a5,7
   12a4c:	04070463          	beqz	a4,12a94 <__subtf3+0x2dc>
   12a50:	00f7f713          	and	a4,a5,15
   12a54:	00400693          	li	a3,4
   12a58:	02d70e63          	beq	a4,a3,12a94 <__subtf3+0x2dc>
   12a5c:	03412703          	lw	a4,52(sp)
   12a60:	00478793          	add	a5,a5,4
   12a64:	02f12823          	sw	a5,48(sp)
   12a68:	0047b793          	sltiu	a5,a5,4
   12a6c:	00f707b3          	add	a5,a4,a5
   12a70:	02f12a23          	sw	a5,52(sp)
   12a74:	00e7b7b3          	sltu	a5,a5,a4
   12a78:	03812703          	lw	a4,56(sp)
   12a7c:	00f707b3          	add	a5,a4,a5
   12a80:	02f12c23          	sw	a5,56(sp)
   12a84:	00e7b7b3          	sltu	a5,a5,a4
   12a88:	03c12703          	lw	a4,60(sp)
   12a8c:	00e787b3          	add	a5,a5,a4
   12a90:	02f12e23          	sw	a5,60(sp)
   12a94:	03c12783          	lw	a5,60(sp)
   12a98:	00080737          	lui	a4,0x80
   12a9c:	00e7f733          	and	a4,a5,a4
   12aa0:	02070463          	beqz	a4,12ac8 <__subtf3+0x310>
   12aa4:	00008737          	lui	a4,0x8
   12aa8:	00148493          	add	s1,s1,1
   12aac:	fff70713          	add	a4,a4,-1 # 7fff <_start-0x8001>
   12ab0:	00e49463          	bne	s1,a4,12ab8 <__subtf3+0x300>
   12ab4:	14c0106f          	j	13c00 <__subtf3+0x1448>
   12ab8:	fff80737          	lui	a4,0xfff80
   12abc:	fff70713          	add	a4,a4,-1 # fff7ffff <_end+0xfff5602f>
   12ac0:	00e7f7b3          	and	a5,a5,a4
   12ac4:	02f12e23          	sw	a5,60(sp)
   12ac8:	03010793          	add	a5,sp,48
   12acc:	03c10613          	add	a2,sp,60
   12ad0:	0007a703          	lw	a4,0(a5)
   12ad4:	0047a683          	lw	a3,4(a5)
   12ad8:	00478793          	add	a5,a5,4
   12adc:	00375713          	srl	a4,a4,0x3
   12ae0:	01d69693          	sll	a3,a3,0x1d
   12ae4:	00d76733          	or	a4,a4,a3
   12ae8:	fee7ae23          	sw	a4,-4(a5)
   12aec:	fef612e3          	bne	a2,a5,12ad0 <__subtf3+0x318>
   12af0:	03c12703          	lw	a4,60(sp)
   12af4:	000086b7          	lui	a3,0x8
   12af8:	fff68793          	add	a5,a3,-1 # 7fff <_start-0x8001>
   12afc:	00375713          	srl	a4,a4,0x3
   12b00:	02e12e23          	sw	a4,60(sp)
   12b04:	02f49a63          	bne	s1,a5,12b38 <__subtf3+0x380>
   12b08:	03412603          	lw	a2,52(sp)
   12b0c:	03012783          	lw	a5,48(sp)
   12b10:	00c7e7b3          	or	a5,a5,a2
   12b14:	03812603          	lw	a2,56(sp)
   12b18:	00c7e7b3          	or	a5,a5,a2
   12b1c:	00e7e7b3          	or	a5,a5,a4
   12b20:	00078c63          	beqz	a5,12b38 <__subtf3+0x380>
   12b24:	02d12e23          	sw	a3,60(sp)
   12b28:	02012c23          	sw	zero,56(sp)
   12b2c:	02012a23          	sw	zero,52(sp)
   12b30:	02012823          	sw	zero,48(sp)
   12b34:	00000a93          	li	s5,0
   12b38:	03c12783          	lw	a5,60(sp)
   12b3c:	01149493          	sll	s1,s1,0x11
   12b40:	0114d493          	srl	s1,s1,0x11
   12b44:	00f11623          	sh	a5,12(sp)
   12b48:	03012783          	lw	a5,48(sp)
   12b4c:	00fa9a93          	sll	s5,s5,0xf
   12b50:	009aeab3          	or	s5,s5,s1
   12b54:	00fa2023          	sw	a5,0(s4)
   12b58:	03412783          	lw	a5,52(sp)
   12b5c:	01511723          	sh	s5,14(sp)
   12b60:	06c12083          	lw	ra,108(sp)
   12b64:	00fa2223          	sw	a5,4(s4)
   12b68:	03812783          	lw	a5,56(sp)
   12b6c:	06812403          	lw	s0,104(sp)
   12b70:	06412483          	lw	s1,100(sp)
   12b74:	00fa2423          	sw	a5,8(s4)
   12b78:	00c12783          	lw	a5,12(sp)
   12b7c:	06012903          	lw	s2,96(sp)
   12b80:	05c12983          	lw	s3,92(sp)
   12b84:	00fa2623          	sw	a5,12(s4)
   12b88:	05412a83          	lw	s5,84(sp)
   12b8c:	05012b03          	lw	s6,80(sp)
   12b90:	04c12b83          	lw	s7,76(sp)
   12b94:	04812c03          	lw	s8,72(sp)
   12b98:	000a0513          	mv	a0,s4
   12b9c:	05812a03          	lw	s4,88(sp)
   12ba0:	07010113          	add	sp,sp,112
   12ba4:	00008067          	ret
   12ba8:	02c12703          	lw	a4,44(sp)
   12bac:	000806b7          	lui	a3,0x80
   12bb0:	00d76733          	or	a4,a4,a3
   12bb4:	02e12623          	sw	a4,44(sp)
   12bb8:	07400713          	li	a4,116
   12bbc:	00675463          	bge	a4,t1,12bc4 <__subtf3+0x40c>
   12bc0:	0600106f          	j	13c20 <__subtf3+0x1468>
   12bc4:	00030613          	mv	a2,t1
   12bc8:	40565693          	sra	a3,a2,0x5
   12bcc:	00088513          	mv	a0,a7
   12bd0:	01f67613          	and	a2,a2,31
   12bd4:	00000713          	li	a4,0
   12bd8:	00000593          	li	a1,0
   12bdc:	02d59c63          	bne	a1,a3,12c14 <__subtf3+0x45c>
   12be0:	00300593          	li	a1,3
   12be4:	40d585b3          	sub	a1,a1,a3
   12be8:	00269513          	sll	a0,a3,0x2
   12bec:	02061e63          	bnez	a2,12c28 <__subtf3+0x470>
   12bf0:	00a88333          	add	t1,a7,a0
   12bf4:	00032303          	lw	t1,0(t1)
   12bf8:	00160613          	add	a2,a2,1
   12bfc:	00488893          	add	a7,a7,4
   12c00:	fe68ae23          	sw	t1,-4(a7)
   12c04:	fec5d6e3          	bge	a1,a2,12bf0 <__subtf3+0x438>
   12c08:	00400613          	li	a2,4
   12c0c:	40d606b3          	sub	a3,a2,a3
   12c10:	0640006f          	j	12c74 <__subtf3+0x4bc>
   12c14:	00052303          	lw	t1,0(a0)
   12c18:	00158593          	add	a1,a1,1
   12c1c:	00450513          	add	a0,a0,4
   12c20:	00676733          	or	a4,a4,t1
   12c24:	fb9ff06f          	j	12bdc <__subtf3+0x424>
   12c28:	04050893          	add	a7,a0,64
   12c2c:	002888b3          	add	a7,a7,sp
   12c30:	fe08a883          	lw	a7,-32(a7)
   12c34:	02000e13          	li	t3,32
   12c38:	40ce0e33          	sub	t3,t3,a2
   12c3c:	01c898b3          	sll	a7,a7,t3
   12c40:	01176733          	or	a4,a4,a7
   12c44:	00000e93          	li	t4,0
   12c48:	00a808b3          	add	a7,a6,a0
   12c4c:	40a00533          	neg	a0,a0
   12c50:	14bec663          	blt	t4,a1,12d9c <__subtf3+0x5e4>
   12c54:	00400513          	li	a0,4
   12c58:	40d506b3          	sub	a3,a0,a3
   12c5c:	02c12503          	lw	a0,44(sp)
   12c60:	00259593          	sll	a1,a1,0x2
   12c64:	04058593          	add	a1,a1,64
   12c68:	002585b3          	add	a1,a1,sp
   12c6c:	00c55633          	srl	a2,a0,a2
   12c70:	fec5a023          	sw	a2,-32(a1)
   12c74:	00400613          	li	a2,4
   12c78:	40d60633          	sub	a2,a2,a3
   12c7c:	00261613          	sll	a2,a2,0x2
   12c80:	00269693          	sll	a3,a3,0x2
   12c84:	00800593          	li	a1,8
   12c88:	00d806b3          	add	a3,a6,a3
   12c8c:	00b66a63          	bltu	a2,a1,12ca0 <__subtf3+0x4e8>
   12c90:	0006a023          	sw	zero,0(a3) # 80000 <_end+0x56030>
   12c94:	0006a223          	sw	zero,4(a3)
   12c98:	ff860613          	add	a2,a2,-8
   12c9c:	00868693          	add	a3,a3,8
   12ca0:	00400593          	li	a1,4
   12ca4:	00b66463          	bltu	a2,a1,12cac <__subtf3+0x4f4>
   12ca8:	0006a023          	sw	zero,0(a3)
   12cac:	02012683          	lw	a3,32(sp)
   12cb0:	00e03733          	snez	a4,a4
   12cb4:	00d76733          	or	a4,a4,a3
   12cb8:	02412683          	lw	a3,36(sp)
   12cbc:	02e12023          	sw	a4,32(sp)
   12cc0:	00e78733          	add	a4,a5,a4
   12cc4:	01268933          	add	s2,a3,s2
   12cc8:	02e12823          	sw	a4,48(sp)
   12ccc:	00f73733          	sltu	a4,a4,a5
   12cd0:	02812783          	lw	a5,40(sp)
   12cd4:	00e90733          	add	a4,s2,a4
   12cd8:	02e12a23          	sw	a4,52(sp)
   12cdc:	00d936b3          	sltu	a3,s2,a3
   12ce0:	01273733          	sltu	a4,a4,s2
   12ce4:	013789b3          	add	s3,a5,s3
   12ce8:	00e6e733          	or	a4,a3,a4
   12cec:	00e98733          	add	a4,s3,a4
   12cf0:	02e12c23          	sw	a4,56(sp)
   12cf4:	00f9b7b3          	sltu	a5,s3,a5
   12cf8:	01373733          	sltu	a4,a4,s3
   12cfc:	00e7e7b3          	or	a5,a5,a4
   12d00:	02c12703          	lw	a4,44(sp)
   12d04:	00eb0733          	add	a4,s6,a4
   12d08:	00e787b3          	add	a5,a5,a4
   12d0c:	00080737          	lui	a4,0x80
   12d10:	02f12e23          	sw	a5,60(sp)
   12d14:	00e7f733          	and	a4,a5,a4
   12d18:	d20706e3          	beqz	a4,12a44 <__subtf3+0x28c>
   12d1c:	fff80737          	lui	a4,0xfff80
   12d20:	fff70713          	add	a4,a4,-1 # fff7ffff <_end+0xfff5602f>
   12d24:	00e7f7b3          	and	a5,a5,a4
   12d28:	02f12e23          	sw	a5,60(sp)
   12d2c:	03012783          	lw	a5,48(sp)
   12d30:	00148493          	add	s1,s1,1
   12d34:	03c10593          	add	a1,sp,60
   12d38:	01f79713          	sll	a4,a5,0x1f
   12d3c:	03010793          	add	a5,sp,48
   12d40:	0007a683          	lw	a3,0(a5)
   12d44:	0047a603          	lw	a2,4(a5)
   12d48:	00478793          	add	a5,a5,4
   12d4c:	0016d693          	srl	a3,a3,0x1
   12d50:	01f61613          	sll	a2,a2,0x1f
   12d54:	00c6e6b3          	or	a3,a3,a2
   12d58:	fed7ae23          	sw	a3,-4(a5)
   12d5c:	fef592e3          	bne	a1,a5,12d40 <__subtf3+0x588>
   12d60:	03c12783          	lw	a5,60(sp)
   12d64:	0017d793          	srl	a5,a5,0x1
   12d68:	02f12e23          	sw	a5,60(sp)
   12d6c:	00e037b3          	snez	a5,a4
   12d70:	03012703          	lw	a4,48(sp)
   12d74:	00f767b3          	or	a5,a4,a5
   12d78:	02f12823          	sw	a5,48(sp)
   12d7c:	000087b7          	lui	a5,0x8
   12d80:	fff78793          	add	a5,a5,-1 # 7fff <_start-0x8001>
   12d84:	ccf490e3          	bne	s1,a5,12a44 <__subtf3+0x28c>
   12d88:	02012e23          	sw	zero,60(sp)
   12d8c:	02012c23          	sw	zero,56(sp)
   12d90:	02012a23          	sw	zero,52(sp)
   12d94:	02012823          	sw	zero,48(sp)
   12d98:	cadff06f          	j	12a44 <__subtf3+0x28c>
   12d9c:	0008a303          	lw	t1,0(a7)
   12da0:	0048af03          	lw	t5,4(a7)
   12da4:	00a88fb3          	add	t6,a7,a0
   12da8:	00c35333          	srl	t1,t1,a2
   12dac:	01cf1f33          	sll	t5,t5,t3
   12db0:	01e36333          	or	t1,t1,t5
   12db4:	006fa023          	sw	t1,0(t6)
   12db8:	001e8e93          	add	t4,t4,1
   12dbc:	00488893          	add	a7,a7,4
   12dc0:	e91ff06f          	j	12c50 <__subtf3+0x498>
   12dc4:	fff80613          	add	a2,a6,-1
   12dc8:	04061663          	bnez	a2,12e14 <__subtf3+0x65c>
   12dcc:	00878433          	add	s0,a5,s0
   12dd0:	01268933          	add	s2,a3,s2
   12dd4:	02812823          	sw	s0,48(sp)
   12dd8:	00f43433          	sltu	s0,s0,a5
   12ddc:	00890433          	add	s0,s2,s0
   12de0:	02812a23          	sw	s0,52(sp)
   12de4:	00d936b3          	sltu	a3,s2,a3
   12de8:	01243433          	sltu	s0,s0,s2
   12dec:	013709b3          	add	s3,a4,s3
   12df0:	0086e6b3          	or	a3,a3,s0
   12df4:	00d986b3          	add	a3,s3,a3
   12df8:	02d12c23          	sw	a3,56(sp)
   12dfc:	00e9b7b3          	sltu	a5,s3,a4
   12e00:	0136b6b3          	sltu	a3,a3,s3
   12e04:	00d7e7b3          	or	a5,a5,a3
   12e08:	016888b3          	add	a7,a7,s6
   12e0c:	011787b3          	add	a5,a5,a7
   12e10:	bf1ff06f          	j	12a00 <__subtf3+0x248>
   12e14:	000087b7          	lui	a5,0x8
   12e18:	fff78793          	add	a5,a5,-1 # 7fff <_start-0x8001>
   12e1c:	60f81ce3          	bne	a6,a5,13c34 <__subtf3+0x147c>
   12e20:	02812823          	sw	s0,48(sp)
   12e24:	03212a23          	sw	s2,52(sp)
   12e28:	03312c23          	sw	s3,56(sp)
   12e2c:	03612e23          	sw	s6,60(sp)
   12e30:	38c0006f          	j	131bc <__subtf3+0xa04>
   12e34:	00078413          	mv	s0,a5
   12e38:	fe9ff06f          	j	12e20 <__subtf3+0x668>
   12e3c:	000087b7          	lui	a5,0x8
   12e40:	fff78793          	add	a5,a5,-1 # 7fff <_start-0x8001>
   12e44:	fcfb8ee3          	beq	s7,a5,12e20 <__subtf3+0x668>
   12e48:	01c12783          	lw	a5,28(sp)
   12e4c:	00080737          	lui	a4,0x80
   12e50:	00e7e7b3          	or	a5,a5,a4
   12e54:	00f12e23          	sw	a5,28(sp)
   12e58:	07400793          	li	a5,116
   12e5c:	5f07c0e3          	blt	a5,a6,13c3c <__subtf3+0x1484>
   12e60:	00080613          	mv	a2,a6
   12e64:	02000713          	li	a4,32
   12e68:	02e64733          	div	a4,a2,a4
   12e6c:	00058693          	mv	a3,a1
   12e70:	00000493          	li	s1,0
   12e74:	00000793          	li	a5,0
   12e78:	02e7ce63          	blt	a5,a4,12eb4 <__subtf3+0x6fc>
   12e7c:	00300793          	li	a5,3
   12e80:	01f67893          	and	a7,a2,31
   12e84:	40e787b3          	sub	a5,a5,a4
   12e88:	00271813          	sll	a6,a4,0x2
   12e8c:	02089e63          	bnez	a7,12ec8 <__subtf3+0x710>
   12e90:	010586b3          	add	a3,a1,a6
   12e94:	0006a683          	lw	a3,0(a3)
   12e98:	00188893          	add	a7,a7,1
   12e9c:	00458593          	add	a1,a1,4
   12ea0:	fed5ae23          	sw	a3,-4(a1)
   12ea4:	ff17d6e3          	bge	a5,a7,12e90 <__subtf3+0x6d8>
   12ea8:	00400793          	li	a5,4
   12eac:	40e78733          	sub	a4,a5,a4
   12eb0:	0780006f          	j	12f28 <__subtf3+0x770>
   12eb4:	0006a803          	lw	a6,0(a3)
   12eb8:	00178793          	add	a5,a5,1
   12ebc:	00468693          	add	a3,a3,4
   12ec0:	0104e4b3          	or	s1,s1,a6
   12ec4:	fb5ff06f          	j	12e78 <__subtf3+0x6c0>
   12ec8:	02000693          	li	a3,32
   12ecc:	02d66633          	rem	a2,a2,a3
   12ed0:	40c68633          	sub	a2,a3,a2
   12ed4:	00070693          	mv	a3,a4
   12ed8:	00075463          	bgez	a4,12ee0 <__subtf3+0x728>
   12edc:	00000693          	li	a3,0
   12ee0:	00269693          	sll	a3,a3,0x2
   12ee4:	04068693          	add	a3,a3,64
   12ee8:	002686b3          	add	a3,a3,sp
   12eec:	fd06a683          	lw	a3,-48(a3)
   12ef0:	00000313          	li	t1,0
   12ef4:	00c696b3          	sll	a3,a3,a2
   12ef8:	00d4e4b3          	or	s1,s1,a3
   12efc:	010506b3          	add	a3,a0,a6
   12f00:	41000833          	neg	a6,a6
   12f04:	0af34863          	blt	t1,a5,12fb4 <__subtf3+0x7fc>
   12f08:	00400693          	li	a3,4
   12f0c:	40e68733          	sub	a4,a3,a4
   12f10:	01c12683          	lw	a3,28(sp)
   12f14:	00279793          	sll	a5,a5,0x2
   12f18:	04078793          	add	a5,a5,64
   12f1c:	002787b3          	add	a5,a5,sp
   12f20:	0116d6b3          	srl	a3,a3,a7
   12f24:	fcd7a823          	sw	a3,-48(a5)
   12f28:	00400793          	li	a5,4
   12f2c:	00000613          	li	a2,0
   12f30:	00e7c663          	blt	a5,a4,12f3c <__subtf3+0x784>
   12f34:	40e787b3          	sub	a5,a5,a4
   12f38:	00279613          	sll	a2,a5,0x2
   12f3c:	00271713          	sll	a4,a4,0x2
   12f40:	00e50533          	add	a0,a0,a4
   12f44:	00000593          	li	a1,0
   12f48:	d60fd0ef          	jal	104a8 <memset>
   12f4c:	01012703          	lw	a4,16(sp)
   12f50:	009037b3          	snez	a5,s1
   12f54:	00e7e7b3          	or	a5,a5,a4
   12f58:	01412683          	lw	a3,20(sp)
   12f5c:	00f12823          	sw	a5,16(sp)
   12f60:	00f407b3          	add	a5,s0,a5
   12f64:	01268933          	add	s2,a3,s2
   12f68:	02f12823          	sw	a5,48(sp)
   12f6c:	0087b7b3          	sltu	a5,a5,s0
   12f70:	00f90733          	add	a4,s2,a5
   12f74:	01812783          	lw	a5,24(sp)
   12f78:	02e12a23          	sw	a4,52(sp)
   12f7c:	00d936b3          	sltu	a3,s2,a3
   12f80:	01273733          	sltu	a4,a4,s2
   12f84:	013789b3          	add	s3,a5,s3
   12f88:	00e6e733          	or	a4,a3,a4
   12f8c:	00e98733          	add	a4,s3,a4
   12f90:	02e12c23          	sw	a4,56(sp)
   12f94:	00f9b7b3          	sltu	a5,s3,a5
   12f98:	01373733          	sltu	a4,a4,s3
   12f9c:	00e7e7b3          	or	a5,a5,a4
   12fa0:	01c12703          	lw	a4,28(sp)
   12fa4:	000b8493          	mv	s1,s7
   12fa8:	00eb0733          	add	a4,s6,a4
   12fac:	00e787b3          	add	a5,a5,a4
   12fb0:	d5dff06f          	j	12d0c <__subtf3+0x554>
   12fb4:	0006a583          	lw	a1,0(a3)
   12fb8:	0046ae03          	lw	t3,4(a3)
   12fbc:	01068eb3          	add	t4,a3,a6
   12fc0:	0115d5b3          	srl	a1,a1,a7
   12fc4:	00ce1e33          	sll	t3,t3,a2
   12fc8:	01c5e5b3          	or	a1,a1,t3
   12fcc:	00bea023          	sw	a1,0(t4)
   12fd0:	00130313          	add	t1,t1,1
   12fd4:	00468693          	add	a3,a3,4
   12fd8:	f2dff06f          	j	12f04 <__subtf3+0x74c>
   12fdc:	00008337          	lui	t1,0x8
   12fe0:	00148813          	add	a6,s1,1
   12fe4:	ffe30893          	add	a7,t1,-2 # 7ffe <_start-0x8002>
   12fe8:	011878b3          	and	a7,a6,a7
   12fec:	01412683          	lw	a3,20(sp)
   12ff0:	01812703          	lw	a4,24(sp)
   12ff4:	01c12603          	lw	a2,28(sp)
   12ff8:	03010593          	add	a1,sp,48
   12ffc:	03c10513          	add	a0,sp,60
   13000:	12089263          	bnez	a7,13124 <__subtf3+0x96c>
   13004:	00e6e833          	or	a6,a3,a4
   13008:	00c86833          	or	a6,a6,a2
   1300c:	00f86833          	or	a6,a6,a5
   13010:	0a049a63          	bnez	s1,130c4 <__subtf3+0x90c>
   13014:	00081e63          	bnez	a6,13030 <__subtf3+0x878>
   13018:	02812823          	sw	s0,48(sp)
   1301c:	03212a23          	sw	s2,52(sp)
   13020:	03312c23          	sw	s3,56(sp)
   13024:	03612e23          	sw	s6,60(sp)
   13028:	00000493          	li	s1,0
   1302c:	a19ff06f          	j	12a44 <__subtf3+0x28c>
   13030:	013965b3          	or	a1,s2,s3
   13034:	0165e5b3          	or	a1,a1,s6
   13038:	0085e5b3          	or	a1,a1,s0
   1303c:	00059c63          	bnez	a1,13054 <__subtf3+0x89c>
   13040:	02f12823          	sw	a5,48(sp)
   13044:	02d12a23          	sw	a3,52(sp)
   13048:	02e12c23          	sw	a4,56(sp)
   1304c:	02c12e23          	sw	a2,60(sp)
   13050:	9f5ff06f          	j	12a44 <__subtf3+0x28c>
   13054:	00878433          	add	s0,a5,s0
   13058:	01268933          	add	s2,a3,s2
   1305c:	02812823          	sw	s0,48(sp)
   13060:	00f43433          	sltu	s0,s0,a5
   13064:	00890433          	add	s0,s2,s0
   13068:	02812a23          	sw	s0,52(sp)
   1306c:	00d936b3          	sltu	a3,s2,a3
   13070:	01243433          	sltu	s0,s0,s2
   13074:	013709b3          	add	s3,a4,s3
   13078:	0086e6b3          	or	a3,a3,s0
   1307c:	00d986b3          	add	a3,s3,a3
   13080:	00e9b7b3          	sltu	a5,s3,a4
   13084:	02d12c23          	sw	a3,56(sp)
   13088:	0136b6b3          	sltu	a3,a3,s3
   1308c:	00d7e7b3          	or	a5,a5,a3
   13090:	01660633          	add	a2,a2,s6
   13094:	00c787b3          	add	a5,a5,a2
   13098:	00080737          	lui	a4,0x80
   1309c:	00e7f733          	and	a4,a5,a4
   130a0:	00071663          	bnez	a4,130ac <__subtf3+0x8f4>
   130a4:	02f12e23          	sw	a5,60(sp)
   130a8:	f81ff06f          	j	13028 <__subtf3+0x870>
   130ac:	fff80737          	lui	a4,0xfff80
   130b0:	fff70713          	add	a4,a4,-1 # fff7ffff <_end+0xfff5602f>
   130b4:	00e7f7b3          	and	a5,a5,a4
   130b8:	02f12e23          	sw	a5,60(sp)
   130bc:	00100493          	li	s1,1
   130c0:	985ff06f          	j	12a44 <__subtf3+0x28c>
   130c4:	94080ae3          	beqz	a6,12a18 <__subtf3+0x260>
   130c8:	01396933          	or	s2,s2,s3
   130cc:	01696933          	or	s2,s2,s6
   130d0:	00896933          	or	s2,s2,s0
   130d4:	940906e3          	beqz	s2,12a20 <__subtf3+0x268>
   130d8:	02612e23          	sw	t1,60(sp)
   130dc:	02012c23          	sw	zero,56(sp)
   130e0:	02012a23          	sw	zero,52(sp)
   130e4:	02012823          	sw	zero,48(sp)
   130e8:	00050793          	mv	a5,a0
   130ec:	0007a703          	lw	a4,0(a5)
   130f0:	ffc7a683          	lw	a3,-4(a5)
   130f4:	ffc78793          	add	a5,a5,-4
   130f8:	00371713          	sll	a4,a4,0x3
   130fc:	01d6d693          	srl	a3,a3,0x1d
   13100:	00d76733          	or	a4,a4,a3
   13104:	00e7a223          	sw	a4,4(a5)
   13108:	fef592e3          	bne	a1,a5,130ec <__subtf3+0x934>
   1310c:	03012783          	lw	a5,48(sp)
   13110:	000084b7          	lui	s1,0x8
   13114:	fff48493          	add	s1,s1,-1 # 7fff <_start-0x8001>
   13118:	00379793          	sll	a5,a5,0x3
   1311c:	02f12823          	sw	a5,48(sp)
   13120:	5f00006f          	j	13710 <__subtf3+0xf58>
   13124:	00878433          	add	s0,a5,s0
   13128:	01268933          	add	s2,a3,s2
   1312c:	02812823          	sw	s0,48(sp)
   13130:	00f43433          	sltu	s0,s0,a5
   13134:	00890433          	add	s0,s2,s0
   13138:	02812a23          	sw	s0,52(sp)
   1313c:	00d937b3          	sltu	a5,s2,a3
   13140:	01243433          	sltu	s0,s0,s2
   13144:	013709b3          	add	s3,a4,s3
   13148:	0087e7b3          	or	a5,a5,s0
   1314c:	00f987b3          	add	a5,s3,a5
   13150:	02f12c23          	sw	a5,56(sp)
   13154:	00e9b733          	sltu	a4,s3,a4
   13158:	0137b7b3          	sltu	a5,a5,s3
   1315c:	00f767b3          	or	a5,a4,a5
   13160:	01660633          	add	a2,a2,s6
   13164:	00c787b3          	add	a5,a5,a2
   13168:	02f12e23          	sw	a5,60(sp)
   1316c:	00058793          	mv	a5,a1
   13170:	0007a703          	lw	a4,0(a5)
   13174:	0047a683          	lw	a3,4(a5)
   13178:	00478793          	add	a5,a5,4
   1317c:	00175713          	srl	a4,a4,0x1
   13180:	01f69693          	sll	a3,a3,0x1f
   13184:	00d76733          	or	a4,a4,a3
   13188:	fee7ae23          	sw	a4,-4(a5)
   1318c:	fef512e3          	bne	a0,a5,13170 <__subtf3+0x9b8>
   13190:	00008737          	lui	a4,0x8
   13194:	fff70713          	add	a4,a4,-1 # 7fff <_start-0x8001>
   13198:	03c12783          	lw	a5,60(sp)
   1319c:	00e80863          	beq	a6,a4,131ac <__subtf3+0x9f4>
   131a0:	0017d793          	srl	a5,a5,0x1
   131a4:	02f12e23          	sw	a5,60(sp)
   131a8:	fa8ff06f          	j	12950 <__subtf3+0x198>
   131ac:	02012e23          	sw	zero,60(sp)
   131b0:	02012c23          	sw	zero,56(sp)
   131b4:	02012a23          	sw	zero,52(sp)
   131b8:	02012823          	sw	zero,48(sp)
   131bc:	000084b7          	lui	s1,0x8
   131c0:	fff48493          	add	s1,s1,-1 # 7fff <_start-0x8001>
   131c4:	881ff06f          	j	12a44 <__subtf3+0x28c>
   131c8:	26605863          	blez	t1,13438 <__subtf3+0xc80>
   131cc:	01412903          	lw	s2,20(sp)
   131d0:	01812983          	lw	s3,24(sp)
   131d4:	01c12b03          	lw	s6,28(sp)
   131d8:	080b9e63          	bnez	s7,13274 <__subtf3+0xabc>
   131dc:	02412f03          	lw	t5,36(sp)
   131e0:	02812e83          	lw	t4,40(sp)
   131e4:	02c12683          	lw	a3,44(sp)
   131e8:	01df6733          	or	a4,t5,t4
   131ec:	00d76733          	or	a4,a4,a3
   131f0:	00876733          	or	a4,a4,s0
   131f4:	fa070463          	beqz	a4,1299c <__subtf3+0x1e4>
   131f8:	fff30513          	add	a0,t1,-1
   131fc:	04051c63          	bnez	a0,13254 <__subtf3+0xa9c>
   13200:	41e90633          	sub	a2,s2,t5
   13204:	40878733          	sub	a4,a5,s0
   13208:	00c938b3          	sltu	a7,s2,a2
   1320c:	00e7b5b3          	sltu	a1,a5,a4
   13210:	40b60633          	sub	a2,a2,a1
   13214:	00088313          	mv	t1,a7
   13218:	41d985b3          	sub	a1,s3,t4
   1321c:	01d9b833          	sltu	a6,s3,t4
   13220:	00e7fc63          	bgeu	a5,a4,13238 <__subtf3+0xa80>
   13224:	012f1a63          	bne	t5,s2,13238 <__subtf3+0xa80>
   13228:	fff58593          	add	a1,a1,-1
   1322c:	413e8eb3          	sub	t4,t4,s3
   13230:	001eb513          	seqz	a0,t4
   13234:	00c0006f          	j	13240 <__subtf3+0xa88>
   13238:	406585b3          	sub	a1,a1,t1
   1323c:	fe0898e3          	bnez	a7,1322c <__subtf3+0xa74>
   13240:	40db07b3          	sub	a5,s6,a3
   13244:	010566b3          	or	a3,a0,a6
   13248:	40d787b3          	sub	a5,a5,a3
   1324c:	00100493          	li	s1,1
   13250:	1bc0006f          	j	1340c <__subtf3+0xc54>
   13254:	fbc30e63          	beq	t1,t3,12a10 <__subtf3+0x258>
   13258:	07400713          	li	a4,116
   1325c:	02a75c63          	bge	a4,a0,13294 <__subtf3+0xadc>
   13260:	02012623          	sw	zero,44(sp)
   13264:	02012423          	sw	zero,40(sp)
   13268:	02012223          	sw	zero,36(sp)
   1326c:	00100713          	li	a4,1
   13270:	1140006f          	j	13384 <__subtf3+0xbcc>
   13274:	bdc480e3          	beq	s1,t3,12e34 <__subtf3+0x67c>
   13278:	02c12703          	lw	a4,44(sp)
   1327c:	000806b7          	lui	a3,0x80
   13280:	00d76733          	or	a4,a4,a3
   13284:	02e12623          	sw	a4,44(sp)
   13288:	07400713          	li	a4,116
   1328c:	fc674ae3          	blt	a4,t1,13260 <__subtf3+0xaa8>
   13290:	00030513          	mv	a0,t1
   13294:	40555693          	sra	a3,a0,0x5
   13298:	00088593          	mv	a1,a7
   1329c:	01f57513          	and	a0,a0,31
   132a0:	00000713          	li	a4,0
   132a4:	00000613          	li	a2,0
   132a8:	02d61c63          	bne	a2,a3,132e0 <__subtf3+0xb28>
   132ac:	00300613          	li	a2,3
   132b0:	40d60633          	sub	a2,a2,a3
   132b4:	00269593          	sll	a1,a3,0x2
   132b8:	02051e63          	bnez	a0,132f4 <__subtf3+0xb3c>
   132bc:	00b88333          	add	t1,a7,a1
   132c0:	00032303          	lw	t1,0(t1)
   132c4:	00150513          	add	a0,a0,1
   132c8:	00488893          	add	a7,a7,4
   132cc:	fe68ae23          	sw	t1,-4(a7)
   132d0:	fea656e3          	bge	a2,a0,132bc <__subtf3+0xb04>
   132d4:	00400613          	li	a2,4
   132d8:	40d606b3          	sub	a3,a2,a3
   132dc:	0640006f          	j	13340 <__subtf3+0xb88>
   132e0:	0005a303          	lw	t1,0(a1)
   132e4:	00160613          	add	a2,a2,1
   132e8:	00458593          	add	a1,a1,4
   132ec:	00676733          	or	a4,a4,t1
   132f0:	fb9ff06f          	j	132a8 <__subtf3+0xaf0>
   132f4:	04058893          	add	a7,a1,64
   132f8:	002888b3          	add	a7,a7,sp
   132fc:	fe08a883          	lw	a7,-32(a7)
   13300:	02000e13          	li	t3,32
   13304:	40ae0e33          	sub	t3,t3,a0
   13308:	01c898b3          	sll	a7,a7,t3
   1330c:	01176733          	or	a4,a4,a7
   13310:	00000e93          	li	t4,0
   13314:	00b808b3          	add	a7,a6,a1
   13318:	40b005b3          	neg	a1,a1
   1331c:	0acec663          	blt	t4,a2,133c8 <__subtf3+0xc10>
   13320:	00400593          	li	a1,4
   13324:	40d586b3          	sub	a3,a1,a3
   13328:	02c12583          	lw	a1,44(sp)
   1332c:	00261613          	sll	a2,a2,0x2
   13330:	04060613          	add	a2,a2,64
   13334:	00260633          	add	a2,a2,sp
   13338:	00a5d5b3          	srl	a1,a1,a0
   1333c:	feb62023          	sw	a1,-32(a2)
   13340:	00400613          	li	a2,4
   13344:	40d60633          	sub	a2,a2,a3
   13348:	00261613          	sll	a2,a2,0x2
   1334c:	00269693          	sll	a3,a3,0x2
   13350:	00800593          	li	a1,8
   13354:	00d806b3          	add	a3,a6,a3
   13358:	00b66a63          	bltu	a2,a1,1336c <__subtf3+0xbb4>
   1335c:	0006a023          	sw	zero,0(a3) # 80000 <_end+0x56030>
   13360:	0006a223          	sw	zero,4(a3)
   13364:	ff860613          	add	a2,a2,-8
   13368:	00868693          	add	a3,a3,8
   1336c:	00400593          	li	a1,4
   13370:	00b66463          	bltu	a2,a1,13378 <__subtf3+0xbc0>
   13374:	0006a023          	sw	zero,0(a3)
   13378:	02012683          	lw	a3,32(sp)
   1337c:	00e03733          	snez	a4,a4
   13380:	00d76733          	or	a4,a4,a3
   13384:	02412503          	lw	a0,36(sp)
   13388:	02e12023          	sw	a4,32(sp)
   1338c:	40e78733          	sub	a4,a5,a4
   13390:	40a90633          	sub	a2,s2,a0
   13394:	00e7b6b3          	sltu	a3,a5,a4
   13398:	00c938b3          	sltu	a7,s2,a2
   1339c:	40d60633          	sub	a2,a2,a3
   133a0:	02812683          	lw	a3,40(sp)
   133a4:	00088313          	mv	t1,a7
   133a8:	40d985b3          	sub	a1,s3,a3
   133ac:	00d9b833          	sltu	a6,s3,a3
   133b0:	04e7f063          	bgeu	a5,a4,133f0 <__subtf3+0xc38>
   133b4:	03251e63          	bne	a0,s2,133f0 <__subtf3+0xc38>
   133b8:	fff58593          	add	a1,a1,-1
   133bc:	413686b3          	sub	a3,a3,s3
   133c0:	0016b513          	seqz	a0,a3
   133c4:	0380006f          	j	133fc <__subtf3+0xc44>
   133c8:	0008a303          	lw	t1,0(a7)
   133cc:	0048af03          	lw	t5,4(a7)
   133d0:	00b88fb3          	add	t6,a7,a1
   133d4:	00a35333          	srl	t1,t1,a0
   133d8:	01cf1f33          	sll	t5,t5,t3
   133dc:	01e36333          	or	t1,t1,t5
   133e0:	006fa023          	sw	t1,0(t6)
   133e4:	001e8e93          	add	t4,t4,1
   133e8:	00488893          	add	a7,a7,4
   133ec:	f31ff06f          	j	1331c <__subtf3+0xb64>
   133f0:	406585b3          	sub	a1,a1,t1
   133f4:	00000513          	li	a0,0
   133f8:	fc0892e3          	bnez	a7,133bc <__subtf3+0xc04>
   133fc:	02c12783          	lw	a5,44(sp)
   13400:	01056533          	or	a0,a0,a6
   13404:	40fb07b3          	sub	a5,s6,a5
   13408:	40a787b3          	sub	a5,a5,a0
   1340c:	02e12823          	sw	a4,48(sp)
   13410:	00080737          	lui	a4,0x80
   13414:	02f12e23          	sw	a5,60(sp)
   13418:	02b12c23          	sw	a1,56(sp)
   1341c:	02c12a23          	sw	a2,52(sp)
   13420:	00e7f6b3          	and	a3,a5,a4
   13424:	e2068063          	beqz	a3,12a44 <__subtf3+0x28c>
   13428:	fff70713          	add	a4,a4,-1 # 7ffff <_end+0x5602f>
   1342c:	00e7f7b3          	and	a5,a5,a4
   13430:	02f12e23          	sw	a5,60(sp)
   13434:	54c0006f          	j	13980 <__subtf3+0x11c8>
   13438:	02412903          	lw	s2,36(sp)
   1343c:	02812c03          	lw	s8,40(sp)
   13440:	02c12b03          	lw	s6,44(sp)
   13444:	26030a63          	beqz	t1,136b8 <__subtf3+0xf00>
   13448:	409b8733          	sub	a4,s7,s1
   1344c:	0a049e63          	bnez	s1,13508 <__subtf3+0xd50>
   13450:	01412303          	lw	t1,20(sp)
   13454:	01812883          	lw	a7,24(sp)
   13458:	01c12683          	lw	a3,28(sp)
   1345c:	01136633          	or	a2,t1,a7
   13460:	00d66633          	or	a2,a2,a3
   13464:	00f66633          	or	a2,a2,a5
   13468:	02061063          	bnez	a2,13488 <__subtf3+0xcd0>
   1346c:	02812823          	sw	s0,48(sp)
   13470:	03212a23          	sw	s2,52(sp)
   13474:	03812c23          	sw	s8,56(sp)
   13478:	03612e23          	sw	s6,60(sp)
   1347c:	00070493          	mv	s1,a4
   13480:	00098a93          	mv	s5,s3
   13484:	dc0ff06f          	j	12a44 <__subtf3+0x28c>
   13488:	fff70813          	add	a6,a4,-1
   1348c:	04081c63          	bnez	a6,134e4 <__subtf3+0xd2c>
   13490:	40f40733          	sub	a4,s0,a5
   13494:	40690633          	sub	a2,s2,t1
   13498:	00c937b3          	sltu	a5,s2,a2
   1349c:	00e435b3          	sltu	a1,s0,a4
   134a0:	40b60633          	sub	a2,a2,a1
   134a4:	00078e13          	mv	t3,a5
   134a8:	411c05b3          	sub	a1,s8,a7
   134ac:	011c3533          	sltu	a0,s8,a7
   134b0:	00e47c63          	bgeu	s0,a4,134c8 <__subtf3+0xd10>
   134b4:	01231a63          	bne	t1,s2,134c8 <__subtf3+0xd10>
   134b8:	fff58593          	add	a1,a1,-1
   134bc:	418888b3          	sub	a7,a7,s8
   134c0:	0018b813          	seqz	a6,a7
   134c4:	00c0006f          	j	134d0 <__subtf3+0xd18>
   134c8:	41c585b3          	sub	a1,a1,t3
   134cc:	fe0798e3          	bnez	a5,134bc <__subtf3+0xd04>
   134d0:	40db07b3          	sub	a5,s6,a3
   134d4:	00a866b3          	or	a3,a6,a0
   134d8:	40d787b3          	sub	a5,a5,a3
   134dc:	00098a93          	mv	s5,s3
   134e0:	d6dff06f          	j	1324c <__subtf3+0xa94>
   134e4:	000087b7          	lui	a5,0x8
   134e8:	fff78793          	add	a5,a5,-1 # 7fff <_start-0x8001>
   134ec:	76f71263          	bne	a4,a5,13c50 <__subtf3+0x1498>
   134f0:	02812823          	sw	s0,48(sp)
   134f4:	03212a23          	sw	s2,52(sp)
   134f8:	03812c23          	sw	s8,56(sp)
   134fc:	03612e23          	sw	s6,60(sp)
   13500:	00098a93          	mv	s5,s3
   13504:	cb9ff06f          	j	131bc <__subtf3+0xa04>
   13508:	000087b7          	lui	a5,0x8
   1350c:	fff78793          	add	a5,a5,-1 # 7fff <_start-0x8001>
   13510:	fefb80e3          	beq	s7,a5,134f0 <__subtf3+0xd38>
   13514:	01c12783          	lw	a5,28(sp)
   13518:	000806b7          	lui	a3,0x80
   1351c:	00d7e7b3          	or	a5,a5,a3
   13520:	00f12e23          	sw	a5,28(sp)
   13524:	07400793          	li	a5,116
   13528:	72e7c863          	blt	a5,a4,13c58 <__subtf3+0x14a0>
   1352c:	00070813          	mv	a6,a4
   13530:	02000793          	li	a5,32
   13534:	02f847b3          	div	a5,a6,a5
   13538:	00058693          	mv	a3,a1
   1353c:	00000493          	li	s1,0
   13540:	00000713          	li	a4,0
   13544:	02f74e63          	blt	a4,a5,13580 <__subtf3+0xdc8>
   13548:	00300693          	li	a3,3
   1354c:	01f87893          	and	a7,a6,31
   13550:	40f686b3          	sub	a3,a3,a5
   13554:	00279613          	sll	a2,a5,0x2
   13558:	02089e63          	bnez	a7,13594 <__subtf3+0xddc>
   1355c:	00c58733          	add	a4,a1,a2
   13560:	00072703          	lw	a4,0(a4)
   13564:	00188893          	add	a7,a7,1
   13568:	00458593          	add	a1,a1,4
   1356c:	fee5ae23          	sw	a4,-4(a1)
   13570:	ff16d6e3          	bge	a3,a7,1355c <__subtf3+0xda4>
   13574:	00400713          	li	a4,4
   13578:	40f707b3          	sub	a5,a4,a5
   1357c:	0780006f          	j	135f4 <__subtf3+0xe3c>
   13580:	0006a603          	lw	a2,0(a3) # 80000 <_end+0x56030>
   13584:	00170713          	add	a4,a4,1
   13588:	00468693          	add	a3,a3,4
   1358c:	00c4e4b3          	or	s1,s1,a2
   13590:	fb5ff06f          	j	13544 <__subtf3+0xd8c>
   13594:	02000713          	li	a4,32
   13598:	02e86833          	rem	a6,a6,a4
   1359c:	41070833          	sub	a6,a4,a6
   135a0:	00078713          	mv	a4,a5
   135a4:	0007d463          	bgez	a5,135ac <__subtf3+0xdf4>
   135a8:	00000713          	li	a4,0
   135ac:	00271713          	sll	a4,a4,0x2
   135b0:	04070713          	add	a4,a4,64
   135b4:	00270733          	add	a4,a4,sp
   135b8:	fd072703          	lw	a4,-48(a4)
   135bc:	00000313          	li	t1,0
   135c0:	01071733          	sll	a4,a4,a6
   135c4:	00e4e4b3          	or	s1,s1,a4
   135c8:	00c50733          	add	a4,a0,a2
   135cc:	40c00633          	neg	a2,a2
   135d0:	08d34c63          	blt	t1,a3,13668 <__subtf3+0xeb0>
   135d4:	00400713          	li	a4,4
   135d8:	00269693          	sll	a3,a3,0x2
   135dc:	40f707b3          	sub	a5,a4,a5
   135e0:	04068713          	add	a4,a3,64
   135e4:	002706b3          	add	a3,a4,sp
   135e8:	01c12703          	lw	a4,28(sp)
   135ec:	01175733          	srl	a4,a4,a7
   135f0:	fce6a823          	sw	a4,-48(a3)
   135f4:	00400713          	li	a4,4
   135f8:	00000613          	li	a2,0
   135fc:	00f74663          	blt	a4,a5,13608 <__subtf3+0xe50>
   13600:	40f70733          	sub	a4,a4,a5
   13604:	00271613          	sll	a2,a4,0x2
   13608:	00279793          	sll	a5,a5,0x2
   1360c:	00f50533          	add	a0,a0,a5
   13610:	00000593          	li	a1,0
   13614:	e95fc0ef          	jal	104a8 <memset>
   13618:	01012783          	lw	a5,16(sp)
   1361c:	00903733          	snez	a4,s1
   13620:	00f76733          	or	a4,a4,a5
   13624:	01412683          	lw	a3,20(sp)
   13628:	00e12823          	sw	a4,16(sp)
   1362c:	40e40733          	sub	a4,s0,a4
   13630:	40d90633          	sub	a2,s2,a3
   13634:	00e437b3          	sltu	a5,s0,a4
   13638:	00c93833          	sltu	a6,s2,a2
   1363c:	40f60633          	sub	a2,a2,a5
   13640:	01812783          	lw	a5,24(sp)
   13644:	00080893          	mv	a7,a6
   13648:	40fc05b3          	sub	a1,s8,a5
   1364c:	00fc3533          	sltu	a0,s8,a5
   13650:	04e47063          	bgeu	s0,a4,13690 <__subtf3+0xed8>
   13654:	03269e63          	bne	a3,s2,13690 <__subtf3+0xed8>
   13658:	fff58593          	add	a1,a1,-1
   1365c:	418787b3          	sub	a5,a5,s8
   13660:	0017b693          	seqz	a3,a5
   13664:	0380006f          	j	1369c <__subtf3+0xee4>
   13668:	00072583          	lw	a1,0(a4)
   1366c:	00472e03          	lw	t3,4(a4)
   13670:	00c70eb3          	add	t4,a4,a2
   13674:	0115d5b3          	srl	a1,a1,a7
   13678:	010e1e33          	sll	t3,t3,a6
   1367c:	01c5e5b3          	or	a1,a1,t3
   13680:	00bea023          	sw	a1,0(t4)
   13684:	00130313          	add	t1,t1,1
   13688:	00470713          	add	a4,a4,4
   1368c:	f45ff06f          	j	135d0 <__subtf3+0xe18>
   13690:	411585b3          	sub	a1,a1,a7
   13694:	00000693          	li	a3,0
   13698:	fc0812e3          	bnez	a6,1365c <__subtf3+0xea4>
   1369c:	01c12783          	lw	a5,28(sp)
   136a0:	00a6e6b3          	or	a3,a3,a0
   136a4:	000b8493          	mv	s1,s7
   136a8:	40fb07b3          	sub	a5,s6,a5
   136ac:	40d787b3          	sub	a5,a5,a3
   136b0:	00098a93          	mv	s5,s3
   136b4:	d59ff06f          	j	1340c <__subtf3+0xc54>
   136b8:	00008837          	lui	a6,0x8
   136bc:	00148613          	add	a2,s1,1
   136c0:	ffe80593          	add	a1,a6,-2 # 7ffe <_start-0x8002>
   136c4:	00b67633          	and	a2,a2,a1
   136c8:	01412503          	lw	a0,20(sp)
   136cc:	01812703          	lw	a4,24(sp)
   136d0:	01c12683          	lw	a3,28(sp)
   136d4:	1e061463          	bnez	a2,138bc <__subtf3+0x1104>
   136d8:	01896633          	or	a2,s2,s8
   136dc:	00e565b3          	or	a1,a0,a4
   136e0:	01666633          	or	a2,a2,s6
   136e4:	00d5e5b3          	or	a1,a1,a3
   136e8:	00866633          	or	a2,a2,s0
   136ec:	00f5e5b3          	or	a1,a1,a5
   136f0:	10049e63          	bnez	s1,1380c <__subtf3+0x1054>
   136f4:	02059263          	bnez	a1,13718 <__subtf3+0xf60>
   136f8:	02812823          	sw	s0,48(sp)
   136fc:	03212a23          	sw	s2,52(sp)
   13700:	03812c23          	sw	s8,56(sp)
   13704:	03612e23          	sw	s6,60(sp)
   13708:	d6061ce3          	bnez	a2,13480 <__subtf3+0xcc8>
   1370c:	00000493          	li	s1,0
   13710:	00000a93          	li	s5,0
   13714:	b30ff06f          	j	12a44 <__subtf3+0x28c>
   13718:	00061c63          	bnez	a2,13730 <__subtf3+0xf78>
   1371c:	02f12823          	sw	a5,48(sp)
   13720:	02a12a23          	sw	a0,52(sp)
   13724:	02e12c23          	sw	a4,56(sp)
   13728:	02d12e23          	sw	a3,60(sp)
   1372c:	8fdff06f          	j	13028 <__subtf3+0x870>
   13730:	412505b3          	sub	a1,a0,s2
   13734:	40878633          	sub	a2,a5,s0
   13738:	00b53f33          	sltu	t5,a0,a1
   1373c:	00c7b833          	sltu	a6,a5,a2
   13740:	000f0893          	mv	a7,t5
   13744:	41058833          	sub	a6,a1,a6
   13748:	41870e33          	sub	t3,a4,s8
   1374c:	01873eb3          	sltu	t4,a4,s8
   13750:	00c7fa63          	bgeu	a5,a2,13764 <__subtf3+0xfac>
   13754:	01251863          	bne	a0,s2,13764 <__subtf3+0xfac>
   13758:	fffe0893          	add	a7,t3,-1
   1375c:	001e3313          	seqz	t1,t3
   13760:	0100006f          	j	13770 <__subtf3+0xfb8>
   13764:	411e08b3          	sub	a7,t3,a7
   13768:	00000313          	li	t1,0
   1376c:	fe0f18e3          	bnez	t5,1375c <__subtf3+0xfa4>
   13770:	01d36333          	or	t1,t1,t4
   13774:	416685b3          	sub	a1,a3,s6
   13778:	406585b3          	sub	a1,a1,t1
   1377c:	00080337          	lui	t1,0x80
   13780:	02b12e23          	sw	a1,60(sp)
   13784:	03112c23          	sw	a7,56(sp)
   13788:	03012a23          	sw	a6,52(sp)
   1378c:	02c12823          	sw	a2,48(sp)
   13790:	0065f333          	and	t1,a1,t1
   13794:	06030263          	beqz	t1,137f8 <__subtf3+0x1040>
   13798:	40a90633          	sub	a2,s2,a0
   1379c:	40f407b3          	sub	a5,s0,a5
   137a0:	00c93833          	sltu	a6,s2,a2
   137a4:	00f435b3          	sltu	a1,s0,a5
   137a8:	40b60633          	sub	a2,a2,a1
   137ac:	00080893          	mv	a7,a6
   137b0:	40ec05b3          	sub	a1,s8,a4
   137b4:	00ec3733          	sltu	a4,s8,a4
   137b8:	00f47a63          	bgeu	s0,a5,137cc <__subtf3+0x1014>
   137bc:	01251863          	bne	a0,s2,137cc <__subtf3+0x1014>
   137c0:	fff58593          	add	a1,a1,-1
   137c4:	001e3513          	seqz	a0,t3
   137c8:	0100006f          	j	137d8 <__subtf3+0x1020>
   137cc:	411585b3          	sub	a1,a1,a7
   137d0:	00000513          	li	a0,0
   137d4:	fe0818e3          	bnez	a6,137c4 <__subtf3+0x100c>
   137d8:	40db06b3          	sub	a3,s6,a3
   137dc:	00e56533          	or	a0,a0,a4
   137e0:	40a686b3          	sub	a3,a3,a0
   137e4:	02d12e23          	sw	a3,60(sp)
   137e8:	02b12c23          	sw	a1,56(sp)
   137ec:	02c12a23          	sw	a2,52(sp)
   137f0:	02f12823          	sw	a5,48(sp)
   137f4:	c8dff06f          	j	13480 <__subtf3+0xcc8>
   137f8:	01066633          	or	a2,a2,a6
   137fc:	01166633          	or	a2,a2,a7
   13800:	00b66633          	or	a2,a2,a1
   13804:	f00604e3          	beqz	a2,1370c <__subtf3+0xf54>
   13808:	821ff06f          	j	13028 <__subtf3+0x870>
   1380c:	03010893          	add	a7,sp,48
   13810:	04059e63          	bnez	a1,1386c <__subtf3+0x10b4>
   13814:	02061e63          	bnez	a2,13850 <__subtf3+0x1098>
   13818:	03012e23          	sw	a6,60(sp)
   1381c:	02012c23          	sw	zero,56(sp)
   13820:	02012a23          	sw	zero,52(sp)
   13824:	02012823          	sw	zero,48(sp)
   13828:	03c10793          	add	a5,sp,60
   1382c:	0007a703          	lw	a4,0(a5)
   13830:	ffc7a683          	lw	a3,-4(a5)
   13834:	ffc78793          	add	a5,a5,-4
   13838:	00371713          	sll	a4,a4,0x3
   1383c:	01d6d693          	srl	a3,a3,0x1d
   13840:	00d76733          	or	a4,a4,a3
   13844:	00e7a223          	sw	a4,4(a5)
   13848:	fef892e3          	bne	a7,a5,1382c <__subtf3+0x1074>
   1384c:	8c1ff06f          	j	1310c <__subtf3+0x954>
   13850:	02812823          	sw	s0,48(sp)
   13854:	03212a23          	sw	s2,52(sp)
   13858:	03812c23          	sw	s8,56(sp)
   1385c:	03612e23          	sw	s6,60(sp)
   13860:	00098a93          	mv	s5,s3
   13864:	fff80493          	add	s1,a6,-1
   13868:	9dcff06f          	j	12a44 <__subtf3+0x28c>
   1386c:	00061c63          	bnez	a2,13884 <__subtf3+0x10cc>
   13870:	02f12823          	sw	a5,48(sp)
   13874:	02a12a23          	sw	a0,52(sp)
   13878:	02e12c23          	sw	a4,56(sp)
   1387c:	02d12e23          	sw	a3,60(sp)
   13880:	fe5ff06f          	j	13864 <__subtf3+0x10ac>
   13884:	03012e23          	sw	a6,60(sp)
   13888:	02012c23          	sw	zero,56(sp)
   1388c:	02012a23          	sw	zero,52(sp)
   13890:	02012823          	sw	zero,48(sp)
   13894:	03c10793          	add	a5,sp,60
   13898:	0007a703          	lw	a4,0(a5)
   1389c:	ffc7a683          	lw	a3,-4(a5)
   138a0:	ffc78793          	add	a5,a5,-4
   138a4:	00371713          	sll	a4,a4,0x3
   138a8:	01d6d693          	srl	a3,a3,0x1d
   138ac:	00d76733          	or	a4,a4,a3
   138b0:	00e7a223          	sw	a4,4(a5)
   138b4:	fef892e3          	bne	a7,a5,13898 <__subtf3+0x10e0>
   138b8:	855ff06f          	j	1310c <__subtf3+0x954>
   138bc:	412505b3          	sub	a1,a0,s2
   138c0:	40878633          	sub	a2,a5,s0
   138c4:	00b53fb3          	sltu	t6,a0,a1
   138c8:	00c7b833          	sltu	a6,a5,a2
   138cc:	000f8893          	mv	a7,t6
   138d0:	41058833          	sub	a6,a1,a6
   138d4:	41870333          	sub	t1,a4,s8
   138d8:	01873f33          	sltu	t5,a4,s8
   138dc:	00c7fa63          	bgeu	a5,a2,138f0 <__subtf3+0x1138>
   138e0:	01251863          	bne	a0,s2,138f0 <__subtf3+0x1138>
   138e4:	fff30893          	add	a7,t1,-1 # 7ffff <_end+0x5602f>
   138e8:	00133e13          	seqz	t3,t1
   138ec:	0100006f          	j	138fc <__subtf3+0x1144>
   138f0:	411308b3          	sub	a7,t1,a7
   138f4:	00000e13          	li	t3,0
   138f8:	fe0f98e3          	bnez	t6,138e8 <__subtf3+0x1130>
   138fc:	01ee6e33          	or	t3,t3,t5
   13900:	416685b3          	sub	a1,a3,s6
   13904:	41c585b3          	sub	a1,a1,t3
   13908:	00080e37          	lui	t3,0x80
   1390c:	02b12e23          	sw	a1,60(sp)
   13910:	03112c23          	sw	a7,56(sp)
   13914:	03012a23          	sw	a6,52(sp)
   13918:	02c12823          	sw	a2,48(sp)
   1391c:	01c5fe33          	and	t3,a1,t3
   13920:	140e0863          	beqz	t3,13a70 <__subtf3+0x12b8>
   13924:	40a90633          	sub	a2,s2,a0
   13928:	40f407b3          	sub	a5,s0,a5
   1392c:	00c93833          	sltu	a6,s2,a2
   13930:	00f435b3          	sltu	a1,s0,a5
   13934:	40b60633          	sub	a2,a2,a1
   13938:	00080893          	mv	a7,a6
   1393c:	40ec05b3          	sub	a1,s8,a4
   13940:	00ec3733          	sltu	a4,s8,a4
   13944:	00f47a63          	bgeu	s0,a5,13958 <__subtf3+0x11a0>
   13948:	01251863          	bne	a0,s2,13958 <__subtf3+0x11a0>
   1394c:	fff58593          	add	a1,a1,-1
   13950:	00133e93          	seqz	t4,t1
   13954:	00c0006f          	j	13960 <__subtf3+0x11a8>
   13958:	411585b3          	sub	a1,a1,a7
   1395c:	fe081ae3          	bnez	a6,13950 <__subtf3+0x1198>
   13960:	40db06b3          	sub	a3,s6,a3
   13964:	00eeeeb3          	or	t4,t4,a4
   13968:	41d68733          	sub	a4,a3,t4
   1396c:	02e12e23          	sw	a4,60(sp)
   13970:	02b12c23          	sw	a1,56(sp)
   13974:	02c12a23          	sw	a2,52(sp)
   13978:	02f12823          	sw	a5,48(sp)
   1397c:	00098a93          	mv	s5,s3
   13980:	03c12503          	lw	a0,60(sp)
   13984:	10050063          	beqz	a0,13a84 <__subtf3+0x12cc>
   13988:	291000ef          	jal	14418 <__clzsi2>
   1398c:	ff450513          	add	a0,a0,-12
   13990:	02000713          	li	a4,32
   13994:	01f57813          	and	a6,a0,31
   13998:	02e547b3          	div	a5,a0,a4
   1399c:	12080063          	beqz	a6,13abc <__subtf3+0x1304>
   139a0:	03010313          	add	t1,sp,48
   139a4:	02e566b3          	rem	a3,a0,a4
   139a8:	40d70633          	sub	a2,a4,a3
   139ac:	ffc00693          	li	a3,-4
   139b0:	02d786b3          	mul	a3,a5,a3
   139b4:	00c68713          	add	a4,a3,12
   139b8:	00e30733          	add	a4,t1,a4
   139bc:	40d006b3          	neg	a3,a3
   139c0:	12e31663          	bne	t1,a4,13aec <__subtf3+0x1334>
   139c4:	03012683          	lw	a3,48(sp)
   139c8:	fff78713          	add	a4,a5,-1
   139cc:	00279793          	sll	a5,a5,0x2
   139d0:	04078793          	add	a5,a5,64
   139d4:	002787b3          	add	a5,a5,sp
   139d8:	010696b3          	sll	a3,a3,a6
   139dc:	fed7a823          	sw	a3,-16(a5)
   139e0:	00170713          	add	a4,a4,1
   139e4:	03010793          	add	a5,sp,48
   139e8:	00271713          	sll	a4,a4,0x2
   139ec:	00800693          	li	a3,8
   139f0:	00078893          	mv	a7,a5
   139f4:	00d76a63          	bltu	a4,a3,13a08 <__subtf3+0x1250>
   139f8:	02012823          	sw	zero,48(sp)
   139fc:	0007a223          	sw	zero,4(a5)
   13a00:	ff870713          	add	a4,a4,-8
   13a04:	03810793          	add	a5,sp,56
   13a08:	00400693          	li	a3,4
   13a0c:	00d76463          	bltu	a4,a3,13a14 <__subtf3+0x125c>
   13a10:	0007a023          	sw	zero,0(a5)
   13a14:	1c954863          	blt	a0,s1,13be4 <__subtf3+0x142c>
   13a18:	40950533          	sub	a0,a0,s1
   13a1c:	00150513          	add	a0,a0,1
   13a20:	40555713          	sra	a4,a0,0x5
   13a24:	01f57793          	and	a5,a0,31
   13a28:	00088593          	mv	a1,a7
   13a2c:	00088613          	mv	a2,a7
   13a30:	00000313          	li	t1,0
   13a34:	00000693          	li	a3,0
   13a38:	0ce69c63          	bne	a3,a4,13b10 <__subtf3+0x1358>
   13a3c:	00300693          	li	a3,3
   13a40:	40e686b3          	sub	a3,a3,a4
   13a44:	00271613          	sll	a2,a4,0x2
   13a48:	0c079e63          	bnez	a5,13b24 <__subtf3+0x136c>
   13a4c:	00c58533          	add	a0,a1,a2
   13a50:	00052503          	lw	a0,0(a0)
   13a54:	00178793          	add	a5,a5,1
   13a58:	00458593          	add	a1,a1,4
   13a5c:	fea5ae23          	sw	a0,-4(a1)
   13a60:	fef6d6e3          	bge	a3,a5,13a4c <__subtf3+0x1294>
   13a64:	00400793          	li	a5,4
   13a68:	40e78733          	sub	a4,a5,a4
   13a6c:	1040006f          	j	13b70 <__subtf3+0x13b8>
   13a70:	01066633          	or	a2,a2,a6
   13a74:	01166633          	or	a2,a2,a7
   13a78:	00b66633          	or	a2,a2,a1
   13a7c:	c80608e3          	beqz	a2,1370c <__subtf3+0xf54>
   13a80:	f01ff06f          	j	13980 <__subtf3+0x11c8>
   13a84:	03812503          	lw	a0,56(sp)
   13a88:	00050863          	beqz	a0,13a98 <__subtf3+0x12e0>
   13a8c:	18d000ef          	jal	14418 <__clzsi2>
   13a90:	02050513          	add	a0,a0,32
   13a94:	ef9ff06f          	j	1398c <__subtf3+0x11d4>
   13a98:	03412503          	lw	a0,52(sp)
   13a9c:	00050863          	beqz	a0,13aac <__subtf3+0x12f4>
   13aa0:	179000ef          	jal	14418 <__clzsi2>
   13aa4:	04050513          	add	a0,a0,64
   13aa8:	ee5ff06f          	j	1398c <__subtf3+0x11d4>
   13aac:	03012503          	lw	a0,48(sp)
   13ab0:	169000ef          	jal	14418 <__clzsi2>
   13ab4:	06050513          	add	a0,a0,96
   13ab8:	ed5ff06f          	j	1398c <__subtf3+0x11d4>
   13abc:	ffc00613          	li	a2,-4
   13ac0:	02c78633          	mul	a2,a5,a2
   13ac4:	03c10713          	add	a4,sp,60
   13ac8:	00300693          	li	a3,3
   13acc:	00c705b3          	add	a1,a4,a2
   13ad0:	0005a583          	lw	a1,0(a1)
   13ad4:	fff68693          	add	a3,a3,-1
   13ad8:	ffc70713          	add	a4,a4,-4
   13adc:	00b72223          	sw	a1,4(a4)
   13ae0:	fef6d6e3          	bge	a3,a5,13acc <__subtf3+0x1314>
   13ae4:	fff78713          	add	a4,a5,-1
   13ae8:	ef9ff06f          	j	139e0 <__subtf3+0x1228>
   13aec:	00072583          	lw	a1,0(a4)
   13af0:	ffc72883          	lw	a7,-4(a4)
   13af4:	00d70e33          	add	t3,a4,a3
   13af8:	010595b3          	sll	a1,a1,a6
   13afc:	00c8d8b3          	srl	a7,a7,a2
   13b00:	0115e5b3          	or	a1,a1,a7
   13b04:	00be2023          	sw	a1,0(t3) # 80000 <_end+0x56030>
   13b08:	ffc70713          	add	a4,a4,-4
   13b0c:	eb5ff06f          	j	139c0 <__subtf3+0x1208>
   13b10:	00062503          	lw	a0,0(a2)
   13b14:	00168693          	add	a3,a3,1
   13b18:	00460613          	add	a2,a2,4
   13b1c:	00a36333          	or	t1,t1,a0
   13b20:	f19ff06f          	j	13a38 <__subtf3+0x1280>
   13b24:	04060593          	add	a1,a2,64
   13b28:	002585b3          	add	a1,a1,sp
   13b2c:	ff05a583          	lw	a1,-16(a1)
   13b30:	02000813          	li	a6,32
   13b34:	40f80833          	sub	a6,a6,a5
   13b38:	010595b3          	sll	a1,a1,a6
   13b3c:	00b36333          	or	t1,t1,a1
   13b40:	00000e13          	li	t3,0
   13b44:	00c885b3          	add	a1,a7,a2
   13b48:	40c00633          	neg	a2,a2
   13b4c:	06de4863          	blt	t3,a3,13bbc <__subtf3+0x1404>
   13b50:	00400613          	li	a2,4
   13b54:	40e60733          	sub	a4,a2,a4
   13b58:	03c12603          	lw	a2,60(sp)
   13b5c:	00269693          	sll	a3,a3,0x2
   13b60:	04068693          	add	a3,a3,64
   13b64:	002686b3          	add	a3,a3,sp
   13b68:	00f657b3          	srl	a5,a2,a5
   13b6c:	fef6a823          	sw	a5,-16(a3)
   13b70:	00400693          	li	a3,4
   13b74:	40e686b3          	sub	a3,a3,a4
   13b78:	00271713          	sll	a4,a4,0x2
   13b7c:	00e887b3          	add	a5,a7,a4
   13b80:	00269713          	sll	a4,a3,0x2
   13b84:	00800693          	li	a3,8
   13b88:	00d76a63          	bltu	a4,a3,13b9c <__subtf3+0x13e4>
   13b8c:	0007a023          	sw	zero,0(a5)
   13b90:	0007a223          	sw	zero,4(a5)
   13b94:	ff870713          	add	a4,a4,-8
   13b98:	00878793          	add	a5,a5,8
   13b9c:	00400693          	li	a3,4
   13ba0:	00d76463          	bltu	a4,a3,13ba8 <__subtf3+0x13f0>
   13ba4:	0007a023          	sw	zero,0(a5)
   13ba8:	03012703          	lw	a4,48(sp)
   13bac:	006037b3          	snez	a5,t1
   13bb0:	00f767b3          	or	a5,a4,a5
   13bb4:	02f12823          	sw	a5,48(sp)
   13bb8:	c70ff06f          	j	13028 <__subtf3+0x870>
   13bbc:	0005a503          	lw	a0,0(a1)
   13bc0:	0045ae83          	lw	t4,4(a1)
   13bc4:	00c58f33          	add	t5,a1,a2
   13bc8:	00f55533          	srl	a0,a0,a5
   13bcc:	010e9eb3          	sll	t4,t4,a6
   13bd0:	01d56533          	or	a0,a0,t4
   13bd4:	00af2023          	sw	a0,0(t5)
   13bd8:	001e0e13          	add	t3,t3,1
   13bdc:	00458593          	add	a1,a1,4
   13be0:	f6dff06f          	j	13b4c <__subtf3+0x1394>
   13be4:	03c12783          	lw	a5,60(sp)
   13be8:	fff80737          	lui	a4,0xfff80
   13bec:	fff70713          	add	a4,a4,-1 # fff7ffff <_end+0xfff5602f>
   13bf0:	00e7f7b3          	and	a5,a5,a4
   13bf4:	40a484b3          	sub	s1,s1,a0
   13bf8:	02f12e23          	sw	a5,60(sp)
   13bfc:	e49fe06f          	j	12a44 <__subtf3+0x28c>
   13c00:	02012e23          	sw	zero,60(sp)
   13c04:	02012c23          	sw	zero,56(sp)
   13c08:	02012a23          	sw	zero,52(sp)
   13c0c:	02012823          	sw	zero,48(sp)
   13c10:	eb9fe06f          	j	12ac8 <__subtf3+0x310>
   13c14:	07400713          	li	a4,116
   13c18:	00c74463          	blt	a4,a2,13c20 <__subtf3+0x1468>
   13c1c:	fadfe06f          	j	12bc8 <__subtf3+0x410>
   13c20:	02012623          	sw	zero,44(sp)
   13c24:	02012423          	sw	zero,40(sp)
   13c28:	02012223          	sw	zero,36(sp)
   13c2c:	00100713          	li	a4,1
   13c30:	888ff06f          	j	12cb8 <__subtf3+0x500>
   13c34:	07400793          	li	a5,116
   13c38:	a2c7d663          	bge	a5,a2,12e64 <__subtf3+0x6ac>
   13c3c:	00012e23          	sw	zero,28(sp)
   13c40:	00012c23          	sw	zero,24(sp)
   13c44:	00012a23          	sw	zero,20(sp)
   13c48:	00100793          	li	a5,1
   13c4c:	b0cff06f          	j	12f58 <__subtf3+0x7a0>
   13c50:	07400793          	li	a5,116
   13c54:	8d07dee3          	bge	a5,a6,13530 <__subtf3+0xd78>
   13c58:	00012e23          	sw	zero,28(sp)
   13c5c:	00012c23          	sw	zero,24(sp)
   13c60:	00012a23          	sw	zero,20(sp)
   13c64:	00100713          	li	a4,1
   13c68:	9bdff06f          	j	13624 <__subtf3+0xe6c>

00013c6c <__fixtfsi>:
   13c6c:	00052783          	lw	a5,0(a0)
   13c70:	00452603          	lw	a2,4(a0)
   13c74:	00c52703          	lw	a4,12(a0)
   13c78:	00852683          	lw	a3,8(a0)
   13c7c:	fe010113          	add	sp,sp,-32
   13c80:	00f12023          	sw	a5,0(sp)
   13c84:	00c12223          	sw	a2,4(sp)
   13c88:	00f12823          	sw	a5,16(sp)
   13c8c:	00171613          	sll	a2,a4,0x1
   13c90:	000047b7          	lui	a5,0x4
   13c94:	00d12423          	sw	a3,8(sp)
   13c98:	00e12623          	sw	a4,12(sp)
   13c9c:	00d12c23          	sw	a3,24(sp)
   13ca0:	01165613          	srl	a2,a2,0x11
   13ca4:	ffe78593          	add	a1,a5,-2 # 3ffe <_start-0xc002>
   13ca8:	00000513          	li	a0,0
   13cac:	00c5de63          	bge	a1,a2,13cc8 <__fixtfsi+0x5c>
   13cb0:	01d78593          	add	a1,a5,29
   13cb4:	01f75813          	srl	a6,a4,0x1f
   13cb8:	00c5dc63          	bge	a1,a2,13cd0 <__fixtfsi+0x64>
   13cbc:	80000537          	lui	a0,0x80000
   13cc0:	fff54513          	not	a0,a0
   13cc4:	00a80533          	add	a0,a6,a0
   13cc8:	02010113          	add	sp,sp,32
   13ccc:	00008067          	ret
   13cd0:	01071713          	sll	a4,a4,0x10
   13cd4:	000105b7          	lui	a1,0x10
   13cd8:	01075713          	srl	a4,a4,0x10
   13cdc:	06f78793          	add	a5,a5,111
   13ce0:	00b76733          	or	a4,a4,a1
   13ce4:	40c787b3          	sub	a5,a5,a2
   13ce8:	4057d613          	sra	a2,a5,0x5
   13cec:	02000593          	li	a1,32
   13cf0:	01f7f793          	and	a5,a5,31
   13cf4:	00e12e23          	sw	a4,28(sp)
   13cf8:	40f585b3          	sub	a1,a1,a5
   13cfc:	04079a63          	bnez	a5,13d50 <__fixtfsi+0xe4>
   13d00:	00261613          	sll	a2,a2,0x2
   13d04:	02060793          	add	a5,a2,32
   13d08:	00278633          	add	a2,a5,sp
   13d0c:	ff062783          	lw	a5,-16(a2)
   13d10:	00f12823          	sw	a5,16(sp)
   13d14:	01012503          	lw	a0,16(sp)
   13d18:	fa0808e3          	beqz	a6,13cc8 <__fixtfsi+0x5c>
   13d1c:	40a00533          	neg	a0,a0
   13d20:	fa9ff06f          	j	13cc8 <__fixtfsi+0x5c>
   13d24:	00f6d6b3          	srl	a3,a3,a5
   13d28:	00b715b3          	sll	a1,a4,a1
   13d2c:	00b6e6b3          	or	a3,a3,a1
   13d30:	00d12823          	sw	a3,16(sp)
   13d34:	00100693          	li	a3,1
   13d38:	00269693          	sll	a3,a3,0x2
   13d3c:	02068693          	add	a3,a3,32
   13d40:	002686b3          	add	a3,a3,sp
   13d44:	00f75733          	srl	a4,a4,a5
   13d48:	fee6a823          	sw	a4,-16(a3)
   13d4c:	fc9ff06f          	j	13d14 <__fixtfsi+0xa8>
   13d50:	00200513          	li	a0,2
   13d54:	fca608e3          	beq	a2,a0,13d24 <__fixtfsi+0xb8>
   13d58:	00000693          	li	a3,0
   13d5c:	fddff06f          	j	13d38 <__fixtfsi+0xcc>

00013d60 <__floatsitf>:
   13d60:	fd010113          	add	sp,sp,-48
   13d64:	02912223          	sw	s1,36(sp)
   13d68:	02112623          	sw	ra,44(sp)
   13d6c:	02812423          	sw	s0,40(sp)
   13d70:	03212023          	sw	s2,32(sp)
   13d74:	00050493          	mv	s1,a0
   13d78:	12058263          	beqz	a1,13e9c <__floatsitf+0x13c>
   13d7c:	41f5d793          	sra	a5,a1,0x1f
   13d80:	00b7c433          	xor	s0,a5,a1
   13d84:	40f40433          	sub	s0,s0,a5
   13d88:	00040513          	mv	a0,s0
   13d8c:	01f5d913          	srl	s2,a1,0x1f
   13d90:	688000ef          	jal	14418 <__clzsi2>
   13d94:	05150793          	add	a5,a0,81 # 80000051 <_end+0x7ffd6081>
   13d98:	00004637          	lui	a2,0x4
   13d9c:	01e60613          	add	a2,a2,30 # 401e <_start-0xbfe2>
   13da0:	4057d713          	sra	a4,a5,0x5
   13da4:	00812823          	sw	s0,16(sp)
   13da8:	00012a23          	sw	zero,20(sp)
   13dac:	00012c23          	sw	zero,24(sp)
   13db0:	00012e23          	sw	zero,28(sp)
   13db4:	01f7f793          	and	a5,a5,31
   13db8:	40a60633          	sub	a2,a2,a0
   13dbc:	02078c63          	beqz	a5,13df4 <__floatsitf+0x94>
   13dc0:	00200693          	li	a3,2
   13dc4:	0cd71863          	bne	a4,a3,13e94 <__floatsitf+0x134>
   13dc8:	02000693          	li	a3,32
   13dcc:	40f686b3          	sub	a3,a3,a5
   13dd0:	00d456b3          	srl	a3,s0,a3
   13dd4:	00d12e23          	sw	a3,28(sp)
   13dd8:	fff70693          	add	a3,a4,-1
   13ddc:	00271713          	sll	a4,a4,0x2
   13de0:	02070713          	add	a4,a4,32
   13de4:	00270733          	add	a4,a4,sp
   13de8:	00f41433          	sll	s0,s0,a5
   13dec:	fe872823          	sw	s0,-16(a4)
   13df0:	0340006f          	j	13e24 <__floatsitf+0xc4>
   13df4:	00300793          	li	a5,3
   13df8:	40e787b3          	sub	a5,a5,a4
   13dfc:	00279793          	sll	a5,a5,0x2
   13e00:	02078793          	add	a5,a5,32
   13e04:	002787b3          	add	a5,a5,sp
   13e08:	ff07a783          	lw	a5,-16(a5)
   13e0c:	00200693          	li	a3,2
   13e10:	00f12e23          	sw	a5,28(sp)
   13e14:	00200793          	li	a5,2
   13e18:	00f71663          	bne	a4,a5,13e24 <__floatsitf+0xc4>
   13e1c:	00812c23          	sw	s0,24(sp)
   13e20:	00100693          	li	a3,1
   13e24:	00269693          	sll	a3,a3,0x2
   13e28:	00012823          	sw	zero,16(sp)
   13e2c:	00012a23          	sw	zero,20(sp)
   13e30:	ffc68693          	add	a3,a3,-4
   13e34:	00400793          	li	a5,4
   13e38:	00f6e463          	bltu	a3,a5,13e40 <__floatsitf+0xe0>
   13e3c:	00012c23          	sw	zero,24(sp)
   13e40:	00090593          	mv	a1,s2
   13e44:	01c12783          	lw	a5,28(sp)
   13e48:	00f59413          	sll	s0,a1,0xf
   13e4c:	00c46433          	or	s0,s0,a2
   13e50:	00f11623          	sh	a5,12(sp)
   13e54:	01012783          	lw	a5,16(sp)
   13e58:	00811723          	sh	s0,14(sp)
   13e5c:	02c12083          	lw	ra,44(sp)
   13e60:	00f4a023          	sw	a5,0(s1)
   13e64:	01412783          	lw	a5,20(sp)
   13e68:	02812403          	lw	s0,40(sp)
   13e6c:	02012903          	lw	s2,32(sp)
   13e70:	00f4a223          	sw	a5,4(s1)
   13e74:	01812783          	lw	a5,24(sp)
   13e78:	00048513          	mv	a0,s1
   13e7c:	00f4a423          	sw	a5,8(s1)
   13e80:	00c12783          	lw	a5,12(sp)
   13e84:	00f4a623          	sw	a5,12(s1)
   13e88:	02412483          	lw	s1,36(sp)
   13e8c:	03010113          	add	sp,sp,48
   13e90:	00008067          	ret
   13e94:	00300713          	li	a4,3
   13e98:	f41ff06f          	j	13dd8 <__floatsitf+0x78>
   13e9c:	00012e23          	sw	zero,28(sp)
   13ea0:	00012c23          	sw	zero,24(sp)
   13ea4:	00012a23          	sw	zero,20(sp)
   13ea8:	00012823          	sw	zero,16(sp)
   13eac:	00000613          	li	a2,0
   13eb0:	f95ff06f          	j	13e44 <__floatsitf+0xe4>

00013eb4 <__extenddftf2>:
   13eb4:	01465713          	srl	a4,a2,0x14
   13eb8:	00c61793          	sll	a5,a2,0xc
   13ebc:	7ff77713          	and	a4,a4,2047
   13ec0:	fd010113          	add	sp,sp,-48
   13ec4:	00c7d793          	srl	a5,a5,0xc
   13ec8:	00170693          	add	a3,a4,1
   13ecc:	02812423          	sw	s0,40(sp)
   13ed0:	02912223          	sw	s1,36(sp)
   13ed4:	03212023          	sw	s2,32(sp)
   13ed8:	02112623          	sw	ra,44(sp)
   13edc:	00b12823          	sw	a1,16(sp)
   13ee0:	00f12a23          	sw	a5,20(sp)
   13ee4:	00012e23          	sw	zero,28(sp)
   13ee8:	00012c23          	sw	zero,24(sp)
   13eec:	7fe6f693          	and	a3,a3,2046
   13ef0:	00050913          	mv	s2,a0
   13ef4:	00058413          	mv	s0,a1
   13ef8:	01f65493          	srl	s1,a2,0x1f
   13efc:	08068263          	beqz	a3,13f80 <__extenddftf2+0xcc>
   13f00:	000046b7          	lui	a3,0x4
   13f04:	c0068693          	add	a3,a3,-1024 # 3c00 <_start-0xc400>
   13f08:	00d70733          	add	a4,a4,a3
   13f0c:	0047d693          	srl	a3,a5,0x4
   13f10:	00d12e23          	sw	a3,28(sp)
   13f14:	01c79793          	sll	a5,a5,0x1c
   13f18:	0045d693          	srl	a3,a1,0x4
   13f1c:	00d7e7b3          	or	a5,a5,a3
   13f20:	01c59413          	sll	s0,a1,0x1c
   13f24:	00f12c23          	sw	a5,24(sp)
   13f28:	00812a23          	sw	s0,20(sp)
   13f2c:	00012823          	sw	zero,16(sp)
   13f30:	01c12783          	lw	a5,28(sp)
   13f34:	00f49493          	sll	s1,s1,0xf
   13f38:	00e4e4b3          	or	s1,s1,a4
   13f3c:	00f11623          	sh	a5,12(sp)
   13f40:	01012783          	lw	a5,16(sp)
   13f44:	00911723          	sh	s1,14(sp)
   13f48:	02c12083          	lw	ra,44(sp)
   13f4c:	00f92023          	sw	a5,0(s2)
   13f50:	01412783          	lw	a5,20(sp)
   13f54:	02812403          	lw	s0,40(sp)
   13f58:	02412483          	lw	s1,36(sp)
   13f5c:	00f92223          	sw	a5,4(s2)
   13f60:	01812783          	lw	a5,24(sp)
   13f64:	00090513          	mv	a0,s2
   13f68:	00f92423          	sw	a5,8(s2)
   13f6c:	00c12783          	lw	a5,12(sp)
   13f70:	00f92623          	sw	a5,12(s2)
   13f74:	02012903          	lw	s2,32(sp)
   13f78:	03010113          	add	sp,sp,48
   13f7c:	00008067          	ret
   13f80:	00b7e533          	or	a0,a5,a1
   13f84:	10071063          	bnez	a4,14084 <__extenddftf2+0x1d0>
   13f88:	fa0504e3          	beqz	a0,13f30 <__extenddftf2+0x7c>
   13f8c:	04078e63          	beqz	a5,13fe8 <__extenddftf2+0x134>
   13f90:	00078513          	mv	a0,a5
   13f94:	484000ef          	jal	14418 <__clzsi2>
   13f98:	03150693          	add	a3,a0,49
   13f9c:	4056d793          	sra	a5,a3,0x5
   13fa0:	01f6f693          	and	a3,a3,31
   13fa4:	04068863          	beqz	a3,13ff4 <__extenddftf2+0x140>
   13fa8:	ffc00613          	li	a2,-4
   13fac:	02c78633          	mul	a2,a5,a2
   13fb0:	02000813          	li	a6,32
   13fb4:	01010313          	add	t1,sp,16
   13fb8:	40d80833          	sub	a6,a6,a3
   13fbc:	00c60713          	add	a4,a2,12
   13fc0:	00e30733          	add	a4,t1,a4
   13fc4:	40c00633          	neg	a2,a2
   13fc8:	08e31c63          	bne	t1,a4,14060 <__extenddftf2+0x1ac>
   13fcc:	fff78713          	add	a4,a5,-1
   13fd0:	00279793          	sll	a5,a5,0x2
   13fd4:	02078793          	add	a5,a5,32
   13fd8:	002787b3          	add	a5,a5,sp
   13fdc:	00d416b3          	sll	a3,s0,a3
   13fe0:	fed7a823          	sw	a3,-16(a5)
   13fe4:	03c0006f          	j	14020 <__extenddftf2+0x16c>
   13fe8:	430000ef          	jal	14418 <__clzsi2>
   13fec:	02050513          	add	a0,a0,32
   13ff0:	fa9ff06f          	j	13f98 <__extenddftf2+0xe4>
   13ff4:	ffc00613          	li	a2,-4
   13ff8:	02c78633          	mul	a2,a5,a2
   13ffc:	01c10713          	add	a4,sp,28
   14000:	00300693          	li	a3,3
   14004:	00c705b3          	add	a1,a4,a2
   14008:	0005a583          	lw	a1,0(a1) # 10000 <_start>
   1400c:	fff68693          	add	a3,a3,-1
   14010:	ffc70713          	add	a4,a4,-4
   14014:	00b72223          	sw	a1,4(a4)
   14018:	fef6d6e3          	bge	a3,a5,14004 <__extenddftf2+0x150>
   1401c:	fff78713          	add	a4,a5,-1
   14020:	00170793          	add	a5,a4,1
   14024:	00279793          	sll	a5,a5,0x2
   14028:	00800693          	li	a3,8
   1402c:	01010713          	add	a4,sp,16
   14030:	00d7ea63          	bltu	a5,a3,14044 <__extenddftf2+0x190>
   14034:	00012823          	sw	zero,16(sp)
   14038:	00072223          	sw	zero,4(a4)
   1403c:	ff878793          	add	a5,a5,-8
   14040:	01810713          	add	a4,sp,24
   14044:	00400693          	li	a3,4
   14048:	00d7e463          	bltu	a5,a3,14050 <__extenddftf2+0x19c>
   1404c:	00072023          	sw	zero,0(a4)
   14050:	00004737          	lui	a4,0x4
   14054:	c0c70713          	add	a4,a4,-1012 # 3c0c <_start-0xc3f4>
   14058:	40a70733          	sub	a4,a4,a0
   1405c:	ed5ff06f          	j	13f30 <__extenddftf2+0x7c>
   14060:	00072583          	lw	a1,0(a4)
   14064:	ffc72883          	lw	a7,-4(a4)
   14068:	00c70e33          	add	t3,a4,a2
   1406c:	00d595b3          	sll	a1,a1,a3
   14070:	0108d8b3          	srl	a7,a7,a6
   14074:	0115e5b3          	or	a1,a1,a7
   14078:	00be2023          	sw	a1,0(t3)
   1407c:	ffc70713          	add	a4,a4,-4
   14080:	f49ff06f          	j	13fc8 <__extenddftf2+0x114>
   14084:	02050863          	beqz	a0,140b4 <__extenddftf2+0x200>
   14088:	01c79713          	sll	a4,a5,0x1c
   1408c:	0045d693          	srl	a3,a1,0x4
   14090:	00d76733          	or	a4,a4,a3
   14094:	00e12c23          	sw	a4,24(sp)
   14098:	0047d793          	srl	a5,a5,0x4
   1409c:	00008737          	lui	a4,0x8
   140a0:	01c59413          	sll	s0,a1,0x1c
   140a4:	00e7e7b3          	or	a5,a5,a4
   140a8:	00812a23          	sw	s0,20(sp)
   140ac:	00012823          	sw	zero,16(sp)
   140b0:	00f12e23          	sw	a5,28(sp)
   140b4:	00008737          	lui	a4,0x8
   140b8:	fff70713          	add	a4,a4,-1 # 7fff <_start-0x8001>
   140bc:	e75ff06f          	j	13f30 <__extenddftf2+0x7c>

000140c0 <__trunctfdf2>:
   140c0:	00c52583          	lw	a1,12(a0)
   140c4:	00852783          	lw	a5,8(a0)
   140c8:	00052683          	lw	a3,0(a0)
   140cc:	fe010113          	add	sp,sp,-32
   140d0:	00452703          	lw	a4,4(a0)
   140d4:	00f12423          	sw	a5,8(sp)
   140d8:	00f12c23          	sw	a5,24(sp)
   140dc:	01059793          	sll	a5,a1,0x10
   140e0:	0107d793          	srl	a5,a5,0x10
   140e4:	00d12023          	sw	a3,0(sp)
   140e8:	00d12823          	sw	a3,16(sp)
   140ec:	01010613          	add	a2,sp,16
   140f0:	00159693          	sll	a3,a1,0x1
   140f4:	00b12623          	sw	a1,12(sp)
   140f8:	00f12e23          	sw	a5,28(sp)
   140fc:	00e12223          	sw	a4,4(sp)
   14100:	00e12a23          	sw	a4,20(sp)
   14104:	0116d693          	srl	a3,a3,0x11
   14108:	01f5d593          	srl	a1,a1,0x1f
   1410c:	01c10793          	add	a5,sp,28
   14110:	00060893          	mv	a7,a2
   14114:	0007a703          	lw	a4,0(a5)
   14118:	ffc7a503          	lw	a0,-4(a5)
   1411c:	ffc78793          	add	a5,a5,-4
   14120:	00371713          	sll	a4,a4,0x3
   14124:	01d55513          	srl	a0,a0,0x1d
   14128:	00a76733          	or	a4,a4,a0
   1412c:	00e7a223          	sw	a4,4(a5)
   14130:	fef612e3          	bne	a2,a5,14114 <__trunctfdf2+0x54>
   14134:	01012503          	lw	a0,16(sp)
   14138:	00008737          	lui	a4,0x8
   1413c:	00168793          	add	a5,a3,1
   14140:	00351513          	sll	a0,a0,0x3
   14144:	ffe70713          	add	a4,a4,-2 # 7ffe <_start-0x8002>
   14148:	00a12823          	sw	a0,16(sp)
   1414c:	00e7f7b3          	and	a5,a5,a4
   14150:	22078063          	beqz	a5,14370 <__trunctfdf2+0x2b0>
   14154:	ffffc7b7          	lui	a5,0xffffc
   14158:	40078793          	add	a5,a5,1024 # ffffc400 <_end+0xfffd2430>
   1415c:	00f686b3          	add	a3,a3,a5
   14160:	7fe00793          	li	a5,2046
   14164:	28d7cc63          	blt	a5,a3,143fc <__trunctfdf2+0x33c>
   14168:	0cd05863          	blez	a3,14238 <__trunctfdf2+0x178>
   1416c:	01812603          	lw	a2,24(sp)
   14170:	01c12783          	lw	a5,28(sp)
   14174:	01412703          	lw	a4,20(sp)
   14178:	01c65813          	srl	a6,a2,0x1c
   1417c:	00479793          	sll	a5,a5,0x4
   14180:	0107e7b3          	or	a5,a5,a6
   14184:	00f12a23          	sw	a5,20(sp)
   14188:	00471793          	sll	a5,a4,0x4
   1418c:	00a7e7b3          	or	a5,a5,a0
   14190:	01c75713          	srl	a4,a4,0x1c
   14194:	00461613          	sll	a2,a2,0x4
   14198:	00f037b3          	snez	a5,a5
   1419c:	00c76733          	or	a4,a4,a2
   141a0:	00e7e7b3          	or	a5,a5,a4
   141a4:	01412703          	lw	a4,20(sp)
   141a8:	0077f613          	and	a2,a5,7
   141ac:	02060063          	beqz	a2,141cc <__trunctfdf2+0x10c>
   141b0:	00f7f613          	and	a2,a5,15
   141b4:	00400513          	li	a0,4
   141b8:	00a60a63          	beq	a2,a0,141cc <__trunctfdf2+0x10c>
   141bc:	00478613          	add	a2,a5,4
   141c0:	00f63533          	sltu	a0,a2,a5
   141c4:	00a70733          	add	a4,a4,a0
   141c8:	00060793          	mv	a5,a2
   141cc:	00800637          	lui	a2,0x800
   141d0:	00c77633          	and	a2,a4,a2
   141d4:	1e060a63          	beqz	a2,143c8 <__trunctfdf2+0x308>
   141d8:	ff800537          	lui	a0,0xff800
   141dc:	fff50513          	add	a0,a0,-1 # ff7fffff <_end+0xff7d602f>
   141e0:	00168693          	add	a3,a3,1
   141e4:	7ff00813          	li	a6,2047
   141e8:	00a77533          	and	a0,a4,a0
   141ec:	00000613          	li	a2,0
   141f0:	00000713          	li	a4,0
   141f4:	01068a63          	beq	a3,a6,14208 <__trunctfdf2+0x148>
   141f8:	0037d793          	srl	a5,a5,0x3
   141fc:	01d51613          	sll	a2,a0,0x1d
   14200:	00f66633          	or	a2,a2,a5
   14204:	00355713          	srl	a4,a0,0x3
   14208:	7ff007b7          	lui	a5,0x7ff00
   1420c:	01469693          	sll	a3,a3,0x14
   14210:	00c71713          	sll	a4,a4,0xc
   14214:	00f6f6b3          	and	a3,a3,a5
   14218:	00c75713          	srl	a4,a4,0xc
   1421c:	01f59593          	sll	a1,a1,0x1f
   14220:	00e6e6b3          	or	a3,a3,a4
   14224:	00b6e7b3          	or	a5,a3,a1
   14228:	00060513          	mv	a0,a2
   1422c:	00078593          	mv	a1,a5
   14230:	02010113          	add	sp,sp,32
   14234:	00008067          	ret
   14238:	fcc00793          	li	a5,-52
   1423c:	18f6c063          	blt	a3,a5,143bc <__trunctfdf2+0x2fc>
   14240:	01c12783          	lw	a5,28(sp)
   14244:	00080737          	lui	a4,0x80
   14248:	00060813          	mv	a6,a2
   1424c:	00f76eb3          	or	t4,a4,a5
   14250:	03d00793          	li	a5,61
   14254:	40d787b3          	sub	a5,a5,a3
   14258:	4057d693          	sra	a3,a5,0x5
   1425c:	01f7f713          	and	a4,a5,31
   14260:	01d12e23          	sw	t4,28(sp)
   14264:	00000513          	li	a0,0
   14268:	00000793          	li	a5,0
   1426c:	00082303          	lw	t1,0(a6)
   14270:	00150513          	add	a0,a0,1
   14274:	00480813          	add	a6,a6,4
   14278:	0067e7b3          	or	a5,a5,t1
   1427c:	fea698e3          	bne	a3,a0,1426c <__trunctfdf2+0x1ac>
   14280:	00300513          	li	a0,3
   14284:	40d50533          	sub	a0,a0,a3
   14288:	00269813          	sll	a6,a3,0x2
   1428c:	02071463          	bnez	a4,142b4 <__trunctfdf2+0x1f4>
   14290:	01088333          	add	t1,a7,a6
   14294:	00032303          	lw	t1,0(t1)
   14298:	00170713          	add	a4,a4,1 # 80001 <_end+0x56031>
   1429c:	00488893          	add	a7,a7,4
   142a0:	fe68ae23          	sw	t1,-4(a7)
   142a4:	fee556e3          	bge	a0,a4,14290 <__trunctfdf2+0x1d0>
   142a8:	00400713          	li	a4,4
   142ac:	40d706b3          	sub	a3,a4,a3
   142b0:	04c0006f          	j	142fc <__trunctfdf2+0x23c>
   142b4:	02080893          	add	a7,a6,32
   142b8:	002888b3          	add	a7,a7,sp
   142bc:	ff08a883          	lw	a7,-16(a7)
   142c0:	02000e13          	li	t3,32
   142c4:	40ee0e33          	sub	t3,t3,a4
   142c8:	01c898b3          	sll	a7,a7,t3
   142cc:	0117e7b3          	or	a5,a5,a7
   142d0:	00000f13          	li	t5,0
   142d4:	010608b3          	add	a7,a2,a6
   142d8:	41000833          	neg	a6,a6
   142dc:	06af4663          	blt	t5,a0,14348 <__trunctfdf2+0x288>
   142e0:	00251513          	sll	a0,a0,0x2
   142e4:	02050513          	add	a0,a0,32
   142e8:	00400813          	li	a6,4
   142ec:	00250533          	add	a0,a0,sp
   142f0:	00eed733          	srl	a4,t4,a4
   142f4:	40d806b3          	sub	a3,a6,a3
   142f8:	fee52823          	sw	a4,-16(a0)
   142fc:	00400513          	li	a0,4
   14300:	40d50533          	sub	a0,a0,a3
   14304:	00269693          	sll	a3,a3,0x2
   14308:	00d60733          	add	a4,a2,a3
   1430c:	00251693          	sll	a3,a0,0x2
   14310:	00800613          	li	a2,8
   14314:	00c6ea63          	bltu	a3,a2,14328 <__trunctfdf2+0x268>
   14318:	00072023          	sw	zero,0(a4)
   1431c:	00072223          	sw	zero,4(a4)
   14320:	ff868693          	add	a3,a3,-8
   14324:	00870713          	add	a4,a4,8
   14328:	00400613          	li	a2,4
   1432c:	00c6e463          	bltu	a3,a2,14334 <__trunctfdf2+0x274>
   14330:	00072023          	sw	zero,0(a4)
   14334:	01012703          	lw	a4,16(sp)
   14338:	00f037b3          	snez	a5,a5
   1433c:	00000693          	li	a3,0
   14340:	00e7e7b3          	or	a5,a5,a4
   14344:	e61ff06f          	j	141a4 <__trunctfdf2+0xe4>
   14348:	0008a303          	lw	t1,0(a7)
   1434c:	0048af83          	lw	t6,4(a7)
   14350:	010882b3          	add	t0,a7,a6
   14354:	00e35333          	srl	t1,t1,a4
   14358:	01cf9fb3          	sll	t6,t6,t3
   1435c:	01f36333          	or	t1,t1,t6
   14360:	0062a023          	sw	t1,0(t0) # 1055c <memset+0xb4>
   14364:	001f0f13          	add	t5,t5,1
   14368:	00488893          	add	a7,a7,4
   1436c:	f71ff06f          	j	142dc <__trunctfdf2+0x21c>
   14370:	08068863          	beqz	a3,14400 <__trunctfdf2+0x340>
   14374:	01412783          	lw	a5,20(sp)
   14378:	01812703          	lw	a4,24(sp)
   1437c:	01c12683          	lw	a3,28(sp)
   14380:	00f76633          	or	a2,a4,a5
   14384:	00d66633          	or	a2,a2,a3
   14388:	00a66633          	or	a2,a2,a0
   1438c:	08060063          	beqz	a2,1440c <__trunctfdf2+0x34c>
   14390:	00471613          	sll	a2,a4,0x4
   14394:	00469693          	sll	a3,a3,0x4
   14398:	01c7d793          	srl	a5,a5,0x1c
   1439c:	01c75713          	srl	a4,a4,0x1c
   143a0:	00d76733          	or	a4,a4,a3
   143a4:	00c7e7b3          	or	a5,a5,a2
   143a8:	004006b7          	lui	a3,0x400
   143ac:	00d76733          	or	a4,a4,a3
   143b0:	ff87f793          	and	a5,a5,-8
   143b4:	7ff00693          	li	a3,2047
   143b8:	df1ff06f          	j	141a8 <__trunctfdf2+0xe8>
   143bc:	00000693          	li	a3,0
   143c0:	00500793          	li	a5,5
   143c4:	00000713          	li	a4,0
   143c8:	0037d793          	srl	a5,a5,0x3
   143cc:	01d71613          	sll	a2,a4,0x1d
   143d0:	00f66633          	or	a2,a2,a5
   143d4:	7ff00793          	li	a5,2047
   143d8:	00375713          	srl	a4,a4,0x3
   143dc:	e2f696e3          	bne	a3,a5,14208 <__trunctfdf2+0x148>
   143e0:	00e66633          	or	a2,a2,a4
   143e4:	00000713          	li	a4,0
   143e8:	e20600e3          	beqz	a2,14208 <__trunctfdf2+0x148>
   143ec:	00080737          	lui	a4,0x80
   143f0:	00000613          	li	a2,0
   143f4:	00000593          	li	a1,0
   143f8:	e11ff06f          	j	14208 <__trunctfdf2+0x148>
   143fc:	7ff00693          	li	a3,2047
   14400:	00000713          	li	a4,0
   14404:	00000613          	li	a2,0
   14408:	e01ff06f          	j	14208 <__trunctfdf2+0x148>
   1440c:	00000713          	li	a4,0
   14410:	7ff00693          	li	a3,2047
   14414:	df5ff06f          	j	14208 <__trunctfdf2+0x148>

00014418 <__clzsi2>:
   14418:	000107b7          	lui	a5,0x10
   1441c:	02f57a63          	bgeu	a0,a5,14450 <__clzsi2+0x38>
   14420:	10053793          	sltiu	a5,a0,256
   14424:	0017c793          	xor	a5,a5,1
   14428:	00379793          	sll	a5,a5,0x3
   1442c:	00026737          	lui	a4,0x26
   14430:	02000693          	li	a3,32
   14434:	40f686b3          	sub	a3,a3,a5
   14438:	00f55533          	srl	a0,a0,a5
   1443c:	c8470793          	add	a5,a4,-892 # 25c84 <__clz_tab>
   14440:	00a787b3          	add	a5,a5,a0
   14444:	0007c503          	lbu	a0,0(a5) # 10000 <_start>
   14448:	40a68533          	sub	a0,a3,a0
   1444c:	00008067          	ret
   14450:	01000737          	lui	a4,0x1000
   14454:	01000793          	li	a5,16
   14458:	fce56ae3          	bltu	a0,a4,1442c <__clzsi2+0x14>
   1445c:	01800793          	li	a5,24
   14460:	fcdff06f          	j	1442c <__clzsi2+0x14>

00014464 <exit>:
   14464:	ff010113          	add	sp,sp,-16
   14468:	00000593          	li	a1,0
   1446c:	00812423          	sw	s0,8(sp)
   14470:	00112623          	sw	ra,12(sp)
   14474:	00050413          	mv	s0,a0
   14478:	66d030ef          	jal	182e4 <__call_exitprocs>
   1447c:	8181a503          	lw	a0,-2024(gp) # 27750 <_global_impure_ptr>
   14480:	03c52783          	lw	a5,60(a0)
   14484:	00078463          	beqz	a5,1448c <exit+0x28>
   14488:	000780e7          	jalr	a5
   1448c:	00040513          	mv	a0,s0
   14490:	814fc0ef          	jal	104a4 <_exit>

00014494 <main>:
   14494:	f5010113          	add	sp,sp,-176
   14498:	03000513          	li	a0,48
   1449c:	0a112623          	sw	ra,172(sp)
   144a0:	0a812423          	sw	s0,168(sp)
   144a4:	09612823          	sw	s6,144(sp)
   144a8:	09812423          	sw	s8,136(sp)
   144ac:	0a912223          	sw	s1,164(sp)
   144b0:	0b212023          	sw	s2,160(sp)
   144b4:	09312e23          	sw	s3,156(sp)
   144b8:	09412c23          	sw	s4,152(sp)
   144bc:	09512a23          	sw	s5,148(sp)
   144c0:	09712623          	sw	s7,140(sp)
   144c4:	09912223          	sw	s9,132(sp)
   144c8:	09a12023          	sw	s10,128(sp)
   144cc:	07b12e23          	sw	s11,124(sp)
   144d0:	061000ef          	jal	14d30 <malloc>
   144d4:	00050413          	mv	s0,a0
   144d8:	03000513          	li	a0,48
   144dc:	8481ae23          	sw	s0,-1956(gp) # 27794 <Next_Ptr_Glob>
   144e0:	051000ef          	jal	14d30 <malloc>
   144e4:	000257b7          	lui	a5,0x25
   144e8:	00025737          	lui	a4,0x25
   144ec:	92078793          	add	a5,a5,-1760 # 24920 <_getpid_r+0x4>
   144f0:	e7c70713          	add	a4,a4,-388 # 24e7c <_getpid_r+0x560>
   144f4:	0007a383          	lw	t2,0(a5)
   144f8:	0047af03          	lw	t5,4(a5)
   144fc:	0087ae83          	lw	t4,8(a5)
   14500:	00c7ae03          	lw	t3,12(a5)
   14504:	0107a303          	lw	t1,16(a5)
   14508:	00072283          	lw	t0,0(a4)
   1450c:	00472f83          	lw	t6,4(a4)
   14510:	0147a883          	lw	a7,20(a5)
   14514:	0187a803          	lw	a6,24(a5)
   14518:	01c7d583          	lhu	a1,28(a5)
   1451c:	01e7c603          	lbu	a2,30(a5)
   14520:	00852023          	sw	s0,0(a0)
   14524:	00050793          	mv	a5,a0
   14528:	00052223          	sw	zero,4(a0)
   1452c:	00872683          	lw	a3,8(a4)
   14530:	00200513          	li	a0,2
   14534:	00a7a423          	sw	a0,8(a5)
   14538:	02800513          	li	a0,40
   1453c:	0077a823          	sw	t2,16(a5)
   14540:	01e7aa23          	sw	t5,20(a5)
   14544:	01d7ac23          	sw	t4,24(a5)
   14548:	01c7ae23          	sw	t3,28(a5)
   1454c:	0267a023          	sw	t1,32(a5)
   14550:	02512823          	sw	t0,48(sp)
   14554:	03f12a23          	sw	t6,52(sp)
   14558:	00a7a623          	sw	a0,12(a5)
   1455c:	0317a223          	sw	a7,36(a5)
   14560:	0307a423          	sw	a6,40(a5)
   14564:	02b79623          	sh	a1,44(a5)
   14568:	02c78723          	sb	a2,46(a5)
   1456c:	86f1a023          	sw	a5,-1952(gp) # 27798 <Ptr_Glob>
   14570:	00c72883          	lw	a7,12(a4)
   14574:	01072803          	lw	a6,16(a4)
   14578:	01472583          	lw	a1,20(a4)
   1457c:	01872603          	lw	a2,24(a4)
   14580:	02d12c23          	sw	a3,56(sp)
   14584:	01e74783          	lbu	a5,30(a4)
   14588:	01c75683          	lhu	a3,28(a4)
   1458c:	00028c37          	lui	s8,0x28
   14590:	898c0713          	add	a4,s8,-1896 # 27898 <Arr_2_Glob>
   14594:	04f10723          	sb	a5,78(sp)
   14598:	00a00513          	li	a0,10
   1459c:	00a00793          	li	a5,10
   145a0:	64f72e23          	sw	a5,1628(a4)
   145a4:	03112e23          	sw	a7,60(sp)
   145a8:	05012023          	sw	a6,64(sp)
   145ac:	04b12223          	sw	a1,68(sp)
   145b0:	04c12423          	sw	a2,72(sp)
   145b4:	04d11623          	sh	a3,76(sp)
   145b8:	7b5000ef          	jal	1556c <putchar>
   145bc:	00025537          	lui	a0,0x25
   145c0:	94050513          	add	a0,a0,-1728 # 24940 <_getpid_r+0x24>
   145c4:	08c010ef          	jal	15650 <puts>
   145c8:	00a00513          	li	a0,10
   145cc:	7a1000ef          	jal	1556c <putchar>
   145d0:	84c1a783          	lw	a5,-1972(gp) # 27784 <Reg>
   145d4:	68078463          	beqz	a5,14c5c <main+0x7c8>
   145d8:	00025537          	lui	a0,0x25
   145dc:	97050513          	add	a0,a0,-1680 # 24970 <_getpid_r+0x54>
   145e0:	070010ef          	jal	15650 <puts>
   145e4:	00a00513          	li	a0,10
   145e8:	785000ef          	jal	1556c <putchar>
   145ec:	00025537          	lui	a0,0x25
   145f0:	9cc50513          	add	a0,a0,-1588 # 249cc <_getpid_r+0xb0>
   145f4:	725000ef          	jal	15518 <printf>
   145f8:	00a00513          	li	a0,10
   145fc:	771000ef          	jal	1556c <putchar>
   14600:	00025537          	lui	a0,0x25
   14604:	06400593          	li	a1,100
   14608:	a0450513          	add	a0,a0,-1532 # 24a04 <_getpid_r+0xe8>
   1460c:	70d000ef          	jal	15518 <printf>
   14610:	00000513          	li	a0,0
   14614:	dd9fb0ef          	jal	103ec <time>
   14618:	00050793          	mv	a5,a0
   1461c:	00000513          	li	a0,0
   14620:	84f1a423          	sw	a5,-1976(gp) # 27780 <Begin_Time>
   14624:	dd1fb0ef          	jal	103f4 <insn>
   14628:	000257b7          	lui	a5,0x25
   1462c:	e9c78793          	add	a5,a5,-356 # 24e9c <_getpid_r+0x580>
   14630:	0047a703          	lw	a4,4(a5)
   14634:	0007ad83          	lw	s11,0(a5)
   14638:	00025837          	lui	a6,0x25
   1463c:	00e12023          	sw	a4,0(sp)
   14640:	0087a703          	lw	a4,8(a5)
   14644:	00100493          	li	s1,1
   14648:	00e12223          	sw	a4,4(sp)
   1464c:	00c7a703          	lw	a4,12(a5)
   14650:	00e12423          	sw	a4,8(sp)
   14654:	0107a703          	lw	a4,16(a5)
   14658:	00e12623          	sw	a4,12(sp)
   1465c:	0147a703          	lw	a4,20(a5)
   14660:	ebc80c93          	add	s9,a6,-324 # 24ebc <_getpid_r+0x5a0>
   14664:	00e12823          	sw	a4,16(sp)
   14668:	0187a703          	lw	a4,24(a5)
   1466c:	00e12a23          	sw	a4,20(sp)
   14670:	01c7d703          	lhu	a4,28(a5)
   14674:	01e7c783          	lbu	a5,30(a5)
   14678:	00e12c23          	sw	a4,24(sp)
   1467c:	00f12e23          	sw	a5,28(sp)
   14680:	82a1ae23          	sw	a0,-1988(gp) # 27774 <Begin_Insn>
   14684:	04100713          	li	a4,65
   14688:	84e188a3          	sb	a4,-1967(gp) # 27789 <Ch_1_Glob>
   1468c:	04200713          	li	a4,66
   14690:	84e18823          	sb	a4,-1968(gp) # 27788 <Ch_2_Glob>
   14694:	00012703          	lw	a4,0(sp)
   14698:	00100793          	li	a5,1
   1469c:	05010593          	add	a1,sp,80
   146a0:	04e12a23          	sw	a4,84(sp)
   146a4:	00412703          	lw	a4,4(sp)
   146a8:	03010513          	add	a0,sp,48
   146ac:	84f1aa23          	sw	a5,-1964(gp) # 2778c <Bool_Glob>
   146b0:	04e12c23          	sw	a4,88(sp)
   146b4:	00812703          	lw	a4,8(sp)
   146b8:	02f12623          	sw	a5,44(sp)
   146bc:	05b12823          	sw	s11,80(sp)
   146c0:	04e12e23          	sw	a4,92(sp)
   146c4:	00c12703          	lw	a4,12(sp)
   146c8:	06e12023          	sw	a4,96(sp)
   146cc:	01012703          	lw	a4,16(sp)
   146d0:	06e12223          	sw	a4,100(sp)
   146d4:	01412703          	lw	a4,20(sp)
   146d8:	06e12423          	sw	a4,104(sp)
   146dc:	01812703          	lw	a4,24(sp)
   146e0:	06e11623          	sh	a4,108(sp)
   146e4:	01c12703          	lw	a4,28(sp)
   146e8:	06e10723          	sb	a4,110(sp)
   146ec:	c9dfb0ef          	jal	10388 <Func_2>
   146f0:	00153793          	seqz	a5,a0
   146f4:	02810613          	add	a2,sp,40
   146f8:	00300593          	li	a1,3
   146fc:	84f1aa23          	sw	a5,-1964(gp) # 2778c <Bool_Glob>
   14700:	00200513          	li	a0,2
   14704:	00700793          	li	a5,7
   14708:	02f12423          	sw	a5,40(sp)
   1470c:	be9fb0ef          	jal	102f4 <Proc_7>
   14710:	02812683          	lw	a3,40(sp)
   14714:	00300613          	li	a2,3
   14718:	898c0593          	add	a1,s8,-1896
   1471c:	89818513          	add	a0,gp,-1896 # 277d0 <Arr_1_Glob>
   14720:	be5fb0ef          	jal	10304 <Proc_8>
   14724:	8601a503          	lw	a0,-1952(gp) # 27798 <Ptr_Glob>
   14728:	98dfb0ef          	jal	100b4 <Proc_1>
   1472c:	8501c703          	lbu	a4,-1968(gp) # 27788 <Ch_2_Glob>
   14730:	04000793          	li	a5,64
   14734:	52e7f063          	bgeu	a5,a4,14c54 <main+0x7c0>
   14738:	04100d13          	li	s10,65
   1473c:	00300913          	li	s2,3
   14740:	000d0513          	mv	a0,s10
   14744:	04300593          	li	a1,67
   14748:	c21fb0ef          	jal	10368 <Func_1>
   1474c:	02c12783          	lw	a5,44(sp)
   14750:	001d0713          	add	a4,s10,1
   14754:	48f50863          	beq	a0,a5,14be4 <main+0x750>
   14758:	8501c783          	lbu	a5,-1968(gp) # 27788 <Ch_2_Glob>
   1475c:	0ff77d13          	zext.b	s10,a4
   14760:	ffa7f0e3          	bgeu	a5,s10,14740 <main+0x2ac>
   14764:	00191793          	sll	a5,s2,0x1
   14768:	012787b3          	add	a5,a5,s2
   1476c:	02812303          	lw	t1,40(sp)
   14770:	8511c603          	lbu	a2,-1967(gp) # 27789 <Ch_1_Glob>
   14774:	04100693          	li	a3,65
   14778:	0267c8b3          	div	a7,a5,t1
   1477c:	00088713          	mv	a4,a7
   14780:	00d61863          	bne	a2,a3,14790 <main+0x2fc>
   14784:	8581a683          	lw	a3,-1960(gp) # 27790 <Int_Glob>
   14788:	00988713          	add	a4,a7,9
   1478c:	40d70733          	sub	a4,a4,a3
   14790:	00148493          	add	s1,s1,1
   14794:	06500693          	li	a3,101
   14798:	eed496e3          	bne	s1,a3,14684 <main+0x1f0>
   1479c:	00000513          	li	a0,0
   147a0:	00612623          	sw	t1,12(sp)
   147a4:	01112423          	sw	a7,8(sp)
   147a8:	00e12223          	sw	a4,4(sp)
   147ac:	00f12023          	sw	a5,0(sp)
   147b0:	c3dfb0ef          	jal	103ec <time>
   147b4:	00050613          	mv	a2,a0
   147b8:	00000513          	li	a0,0
   147bc:	84c1a223          	sw	a2,-1980(gp) # 2777c <End_Time>
   147c0:	c35fb0ef          	jal	103f4 <insn>
   147c4:	00050613          	mv	a2,a0
   147c8:	00025537          	lui	a0,0x25
   147cc:	a3450513          	add	a0,a0,-1484 # 24a34 <_getpid_r+0x118>
   147d0:	82c1ac23          	sw	a2,-1992(gp) # 27770 <End_Insn>
   147d4:	67d000ef          	jal	15650 <puts>
   147d8:	00a00513          	li	a0,10
   147dc:	591000ef          	jal	1556c <putchar>
   147e0:	00025537          	lui	a0,0x25
   147e4:	a4450513          	add	a0,a0,-1468 # 24a44 <_getpid_r+0x128>
   147e8:	669000ef          	jal	15650 <puts>
   147ec:	00a00513          	li	a0,10
   147f0:	57d000ef          	jal	1556c <putchar>
   147f4:	8581a583          	lw	a1,-1960(gp) # 27790 <Int_Glob>
   147f8:	00025537          	lui	a0,0x25
   147fc:	a7c50513          	add	a0,a0,-1412 # 24a7c <_getpid_r+0x160>
   14800:	000254b7          	lui	s1,0x25
   14804:	515000ef          	jal	15518 <printf>
   14808:	00500593          	li	a1,5
   1480c:	a9848513          	add	a0,s1,-1384 # 24a98 <_getpid_r+0x17c>
   14810:	509000ef          	jal	15518 <printf>
   14814:	8541a583          	lw	a1,-1964(gp) # 2778c <Bool_Glob>
   14818:	00025537          	lui	a0,0x25
   1481c:	ab450513          	add	a0,a0,-1356 # 24ab4 <_getpid_r+0x198>
   14820:	4f9000ef          	jal	15518 <printf>
   14824:	00100593          	li	a1,1
   14828:	a9848513          	add	a0,s1,-1384
   1482c:	4ed000ef          	jal	15518 <printf>
   14830:	8511c583          	lbu	a1,-1967(gp) # 27789 <Ch_1_Glob>
   14834:	00025537          	lui	a0,0x25
   14838:	ad050513          	add	a0,a0,-1328 # 24ad0 <_getpid_r+0x1b4>
   1483c:	4dd000ef          	jal	15518 <printf>
   14840:	00025937          	lui	s2,0x25
   14844:	04100593          	li	a1,65
   14848:	aec90513          	add	a0,s2,-1300 # 24aec <_getpid_r+0x1d0>
   1484c:	4cd000ef          	jal	15518 <printf>
   14850:	8501c583          	lbu	a1,-1968(gp) # 27788 <Ch_2_Glob>
   14854:	00025537          	lui	a0,0x25
   14858:	b0850513          	add	a0,a0,-1272 # 24b08 <_getpid_r+0x1ec>
   1485c:	4bd000ef          	jal	15518 <printf>
   14860:	04200593          	li	a1,66
   14864:	aec90513          	add	a0,s2,-1300
   14868:	4b1000ef          	jal	15518 <printf>
   1486c:	89818b93          	add	s7,gp,-1896 # 277d0 <Arr_1_Glob>
   14870:	020ba583          	lw	a1,32(s7)
   14874:	00025537          	lui	a0,0x25
   14878:	b2450513          	add	a0,a0,-1244 # 24b24 <_getpid_r+0x208>
   1487c:	49d000ef          	jal	15518 <printf>
   14880:	00700593          	li	a1,7
   14884:	a9848513          	add	a0,s1,-1384
   14888:	491000ef          	jal	15518 <printf>
   1488c:	000287b7          	lui	a5,0x28
   14890:	89878793          	add	a5,a5,-1896 # 27898 <Arr_2_Glob>
   14894:	65c7a583          	lw	a1,1628(a5)
   14898:	00025537          	lui	a0,0x25
   1489c:	b4050513          	add	a0,a0,-1216 # 24b40 <_getpid_r+0x224>
   148a0:	479000ef          	jal	15518 <printf>
   148a4:	00025537          	lui	a0,0x25
   148a8:	b5c50513          	add	a0,a0,-1188 # 24b5c <_getpid_r+0x240>
   148ac:	5a5000ef          	jal	15650 <puts>
   148b0:	00025537          	lui	a0,0x25
   148b4:	b8850513          	add	a0,a0,-1144 # 24b88 <_getpid_r+0x26c>
   148b8:	599000ef          	jal	15650 <puts>
   148bc:	8601a583          	lw	a1,-1952(gp) # 27798 <Ptr_Glob>
   148c0:	00025637          	lui	a2,0x25
   148c4:	b9460513          	add	a0,a2,-1132 # 24b94 <_getpid_r+0x278>
   148c8:	0005a583          	lw	a1,0(a1)
   148cc:	00025c37          	lui	s8,0x25
   148d0:	00025bb7          	lui	s7,0x25
   148d4:	445000ef          	jal	15518 <printf>
   148d8:	00025537          	lui	a0,0x25
   148dc:	bb050513          	add	a0,a0,-1104 # 24bb0 <_getpid_r+0x294>
   148e0:	571000ef          	jal	15650 <puts>
   148e4:	8601a583          	lw	a1,-1952(gp) # 27798 <Ptr_Glob>
   148e8:	be0c0513          	add	a0,s8,-1056 # 24be0 <_getpid_r+0x2c4>
   148ec:	00025ab7          	lui	s5,0x25
   148f0:	0045a583          	lw	a1,4(a1)
   148f4:	00025a37          	lui	s4,0x25
   148f8:	000259b7          	lui	s3,0x25
   148fc:	41d000ef          	jal	15518 <printf>
   14900:	00000593          	li	a1,0
   14904:	a9848513          	add	a0,s1,-1384
   14908:	411000ef          	jal	15518 <printf>
   1490c:	8601a583          	lw	a1,-1952(gp) # 27798 <Ptr_Glob>
   14910:	bfcb8513          	add	a0,s7,-1028 # 24bfc <_getpid_r+0x2e0>
   14914:	0085a583          	lw	a1,8(a1)
   14918:	3e800d13          	li	s10,1000
   1491c:	3fd000ef          	jal	15518 <printf>
   14920:	00200593          	li	a1,2
   14924:	a9848513          	add	a0,s1,-1384
   14928:	3f1000ef          	jal	15518 <printf>
   1492c:	8601a583          	lw	a1,-1952(gp) # 27798 <Ptr_Glob>
   14930:	c18a8513          	add	a0,s5,-1000 # 24c18 <_getpid_r+0x2fc>
   14934:	00a00c93          	li	s9,10
   14938:	00c5a583          	lw	a1,12(a1)
   1493c:	3dd000ef          	jal	15518 <printf>
   14940:	01100593          	li	a1,17
   14944:	a9848513          	add	a0,s1,-1384
   14948:	3d1000ef          	jal	15518 <printf>
   1494c:	8601a583          	lw	a1,-1952(gp) # 27798 <Ptr_Glob>
   14950:	c34a0513          	add	a0,s4,-972 # 24c34 <_getpid_r+0x318>
   14954:	01058593          	add	a1,a1,16
   14958:	3c1000ef          	jal	15518 <printf>
   1495c:	c5098513          	add	a0,s3,-944 # 24c50 <_getpid_r+0x334>
   14960:	4f1000ef          	jal	15650 <puts>
   14964:	00025537          	lui	a0,0x25
   14968:	c8450513          	add	a0,a0,-892 # 24c84 <_getpid_r+0x368>
   1496c:	4e5000ef          	jal	15650 <puts>
   14970:	85c1a583          	lw	a1,-1956(gp) # 27794 <Next_Ptr_Glob>
   14974:	00025637          	lui	a2,0x25
   14978:	b9460513          	add	a0,a2,-1132 # 24b94 <_getpid_r+0x278>
   1497c:	0005a583          	lw	a1,0(a1)
   14980:	399000ef          	jal	15518 <printf>
   14984:	00025537          	lui	a0,0x25
   14988:	c9450513          	add	a0,a0,-876 # 24c94 <_getpid_r+0x378>
   1498c:	4c5000ef          	jal	15650 <puts>
   14990:	85c1a603          	lw	a2,-1956(gp) # 27794 <Next_Ptr_Glob>
   14994:	be0c0513          	add	a0,s8,-1056
   14998:	00462583          	lw	a1,4(a2)
   1499c:	37d000ef          	jal	15518 <printf>
   149a0:	00000593          	li	a1,0
   149a4:	a9848513          	add	a0,s1,-1384
   149a8:	371000ef          	jal	15518 <printf>
   149ac:	85c1a603          	lw	a2,-1956(gp) # 27794 <Next_Ptr_Glob>
   149b0:	bfcb8513          	add	a0,s7,-1028
   149b4:	00862583          	lw	a1,8(a2)
   149b8:	361000ef          	jal	15518 <printf>
   149bc:	00100593          	li	a1,1
   149c0:	a9848513          	add	a0,s1,-1384
   149c4:	355000ef          	jal	15518 <printf>
   149c8:	85c1a603          	lw	a2,-1956(gp) # 27794 <Next_Ptr_Glob>
   149cc:	c18a8513          	add	a0,s5,-1000
   149d0:	00c62583          	lw	a1,12(a2)
   149d4:	345000ef          	jal	15518 <printf>
   149d8:	01200593          	li	a1,18
   149dc:	a9848513          	add	a0,s1,-1384
   149e0:	339000ef          	jal	15518 <printf>
   149e4:	85c1a583          	lw	a1,-1956(gp) # 27794 <Next_Ptr_Glob>
   149e8:	c34a0513          	add	a0,s4,-972
   149ec:	01058593          	add	a1,a1,16
   149f0:	329000ef          	jal	15518 <printf>
   149f4:	c5098513          	add	a0,s3,-944
   149f8:	459000ef          	jal	15650 <puts>
   149fc:	00412703          	lw	a4,4(sp)
   14a00:	00025537          	lui	a0,0x25
   14a04:	cd450513          	add	a0,a0,-812 # 24cd4 <_getpid_r+0x3b8>
   14a08:	00070593          	mv	a1,a4
   14a0c:	30d000ef          	jal	15518 <printf>
   14a10:	00500593          	li	a1,5
   14a14:	a9848513          	add	a0,s1,-1384
   14a18:	301000ef          	jal	15518 <printf>
   14a1c:	00c12303          	lw	t1,12(sp)
   14a20:	00012783          	lw	a5,0(sp)
   14a24:	00812883          	lw	a7,8(sp)
   14a28:	00025537          	lui	a0,0x25
   14a2c:	406787b3          	sub	a5,a5,t1
   14a30:	00379593          	sll	a1,a5,0x3
   14a34:	40f585b3          	sub	a1,a1,a5
   14a38:	411585b3          	sub	a1,a1,a7
   14a3c:	cf050513          	add	a0,a0,-784 # 24cf0 <_getpid_r+0x3d4>
   14a40:	2d9000ef          	jal	15518 <printf>
   14a44:	00d00593          	li	a1,13
   14a48:	a9848513          	add	a0,s1,-1384
   14a4c:	2cd000ef          	jal	15518 <printf>
   14a50:	02812583          	lw	a1,40(sp)
   14a54:	00025537          	lui	a0,0x25
   14a58:	d0c50513          	add	a0,a0,-756 # 24d0c <_getpid_r+0x3f0>
   14a5c:	2bd000ef          	jal	15518 <printf>
   14a60:	00700593          	li	a1,7
   14a64:	a9848513          	add	a0,s1,-1384
   14a68:	2b1000ef          	jal	15518 <printf>
   14a6c:	02c12583          	lw	a1,44(sp)
   14a70:	00025537          	lui	a0,0x25
   14a74:	d2850513          	add	a0,a0,-728 # 24d28 <_getpid_r+0x40c>
   14a78:	2a1000ef          	jal	15518 <printf>
   14a7c:	00100593          	li	a1,1
   14a80:	a9848513          	add	a0,s1,-1384
   14a84:	295000ef          	jal	15518 <printf>
   14a88:	00025537          	lui	a0,0x25
   14a8c:	03010593          	add	a1,sp,48
   14a90:	d4450513          	add	a0,a0,-700 # 24d44 <_getpid_r+0x428>
   14a94:	285000ef          	jal	15518 <printf>
   14a98:	00025537          	lui	a0,0x25
   14a9c:	d6050513          	add	a0,a0,-672 # 24d60 <_getpid_r+0x444>
   14aa0:	3b1000ef          	jal	15650 <puts>
   14aa4:	00025537          	lui	a0,0x25
   14aa8:	05010593          	add	a1,sp,80
   14aac:	d9450513          	add	a0,a0,-620 # 24d94 <_getpid_r+0x478>
   14ab0:	269000ef          	jal	15518 <printf>
   14ab4:	00025537          	lui	a0,0x25
   14ab8:	db050513          	add	a0,a0,-592 # 24db0 <_getpid_r+0x494>
   14abc:	395000ef          	jal	15650 <puts>
   14ac0:	00a00513          	li	a0,10
   14ac4:	2a9000ef          	jal	1556c <putchar>
   14ac8:	8441a703          	lw	a4,-1980(gp) # 2777c <End_Time>
   14acc:	8481a603          	lw	a2,-1976(gp) # 27780 <Begin_Time>
   14ad0:	83c1a683          	lw	a3,-1988(gp) # 27774 <Begin_Insn>
   14ad4:	8381a783          	lw	a5,-1992(gp) # 27770 <End_Insn>
   14ad8:	00025537          	lui	a0,0x25
   14adc:	40c70733          	sub	a4,a4,a2
   14ae0:	40d787b3          	sub	a5,a5,a3
   14ae4:	06400593          	li	a1,100
   14ae8:	de450513          	add	a0,a0,-540 # 24de4 <_getpid_r+0x4c8>
   14aec:	84e1a023          	sw	a4,-1984(gp) # 27778 <User_Time>
   14af0:	82f1aa23          	sw	a5,-1996(gp) # 2776c <User_Insn>
   14af4:	225000ef          	jal	15518 <printf>
   14af8:	8341a603          	lw	a2,-1996(gp) # 2776c <User_Insn>
   14afc:	8401a583          	lw	a1,-1984(gp) # 27778 <User_Time>
   14b00:	00025537          	lui	a0,0x25
   14b04:	df850513          	add	a0,a0,-520 # 24df8 <_getpid_r+0x4dc>
   14b08:	211000ef          	jal	15518 <printf>
   14b0c:	8401a583          	lw	a1,-1984(gp) # 27778 <User_Time>
   14b10:	8341a783          	lw	a5,-1996(gp) # 2776c <User_Insn>
   14b14:	06400613          	li	a2,100
   14b18:	02bd05b3          	mul	a1,s10,a1
   14b1c:	00025537          	lui	a0,0x25
   14b20:	e1850513          	add	a0,a0,-488 # 24e18 <_getpid_r+0x4fc>
   14b24:	02f5c5b3          	div	a1,a1,a5
   14b28:	0395c6b3          	div	a3,a1,s9
   14b2c:	02c5c633          	div	a2,a1,a2
   14b30:	0395e733          	rem	a4,a1,s9
   14b34:	0396e6b3          	rem	a3,a3,s9
   14b38:	03966633          	rem	a2,a2,s9
   14b3c:	03a5c5b3          	div	a1,a1,s10
   14b40:	1d9000ef          	jal	15518 <printf>
   14b44:	8401a703          	lw	a4,-1984(gp) # 27778 <User_Time>
   14b48:	05f5e7b7          	lui	a5,0x5f5e
   14b4c:	10078793          	add	a5,a5,256 # 5f5e100 <_end+0x5f34130>
   14b50:	02e7c433          	div	s0,a5,a4
   14b54:	00025537          	lui	a0,0x25
   14b58:	e3c50513          	add	a0,a0,-452 # 24e3c <_getpid_r+0x520>
   14b5c:	00040593          	mv	a1,s0
   14b60:	03a40433          	mul	s0,s0,s10
   14b64:	1b5000ef          	jal	15518 <printf>
   14b68:	6dd00713          	li	a4,1757
   14b6c:	0002b637          	lui	a2,0x2b
   14b70:	e5460613          	add	a2,a2,-428 # 2ae54 <_end+0xe84>
   14b74:	001ad5b7          	lui	a1,0x1ad
   14b78:	f4858593          	add	a1,a1,-184 # 1acf48 <_end+0x182f78>
   14b7c:	00025537          	lui	a0,0x25
   14b80:	e6050513          	add	a0,a0,-416 # 24e60 <_getpid_r+0x544>
   14b84:	02e44733          	div	a4,s0,a4
   14b88:	02c44633          	div	a2,s0,a2
   14b8c:	039746b3          	div	a3,a4,s9
   14b90:	03966633          	rem	a2,a2,s9
   14b94:	03976733          	rem	a4,a4,s9
   14b98:	0396e6b3          	rem	a3,a3,s9
   14b9c:	02b445b3          	div	a1,s0,a1
   14ba0:	179000ef          	jal	15518 <printf>
   14ba4:	0ac12083          	lw	ra,172(sp)
   14ba8:	0a812403          	lw	s0,168(sp)
   14bac:	0a412483          	lw	s1,164(sp)
   14bb0:	0a012903          	lw	s2,160(sp)
   14bb4:	09c12983          	lw	s3,156(sp)
   14bb8:	09812a03          	lw	s4,152(sp)
   14bbc:	09412a83          	lw	s5,148(sp)
   14bc0:	09012b03          	lw	s6,144(sp)
   14bc4:	08c12b83          	lw	s7,140(sp)
   14bc8:	08812c03          	lw	s8,136(sp)
   14bcc:	08412c83          	lw	s9,132(sp)
   14bd0:	08012d03          	lw	s10,128(sp)
   14bd4:	07c12d83          	lw	s11,124(sp)
   14bd8:	00000513          	li	a0,0
   14bdc:	0b010113          	add	sp,sp,176
   14be0:	00008067          	ret
   14be4:	02c10593          	add	a1,sp,44
   14be8:	00000513          	li	a0,0
   14bec:	eb8fb0ef          	jal	102a4 <Proc_6>
   14bf0:	000cae03          	lw	t3,0(s9)
   14bf4:	004ca303          	lw	t1,4(s9)
   14bf8:	008ca883          	lw	a7,8(s9)
   14bfc:	00cca803          	lw	a6,12(s9)
   14c00:	010ca503          	lw	a0,16(s9)
   14c04:	014ca583          	lw	a1,20(s9)
   14c08:	018ca603          	lw	a2,24(s9)
   14c0c:	01ccd703          	lhu	a4,28(s9)
   14c10:	01ecc783          	lbu	a5,30(s9)
   14c14:	8501c683          	lbu	a3,-1968(gp) # 27788 <Ch_2_Glob>
   14c18:	001d0d13          	add	s10,s10,1
   14c1c:	05c12823          	sw	t3,80(sp)
   14c20:	04612a23          	sw	t1,84(sp)
   14c24:	05112c23          	sw	a7,88(sp)
   14c28:	05012e23          	sw	a6,92(sp)
   14c2c:	06a12023          	sw	a0,96(sp)
   14c30:	06b12223          	sw	a1,100(sp)
   14c34:	06c12423          	sw	a2,104(sp)
   14c38:	06e11623          	sh	a4,108(sp)
   14c3c:	06f10723          	sb	a5,110(sp)
   14c40:	8491ac23          	sw	s1,-1960(gp) # 27790 <Int_Glob>
   14c44:	0ffd7d13          	zext.b	s10,s10
   14c48:	00048913          	mv	s2,s1
   14c4c:	afa6fae3          	bgeu	a3,s10,14740 <main+0x2ac>
   14c50:	b15ff06f          	j	14764 <main+0x2d0>
   14c54:	00900793          	li	a5,9
   14c58:	b15ff06f          	j	1476c <main+0x2d8>
   14c5c:	00025537          	lui	a0,0x25
   14c60:	99c50513          	add	a0,a0,-1636 # 2499c <_getpid_r+0x80>
   14c64:	1ed000ef          	jal	15650 <puts>
   14c68:	00a00513          	li	a0,10
   14c6c:	101000ef          	jal	1556c <putchar>
   14c70:	97dff06f          	j	145ec <main+0x158>

00014c74 <register_fini>:
   14c74:	00000793          	li	a5,0
   14c78:	00078863          	beqz	a5,14c88 <register_fini+0x14>
   14c7c:	00019537          	lui	a0,0x19
   14c80:	ac850513          	add	a0,a0,-1336 # 18ac8 <__libc_fini_array>
   14c84:	7800306f          	j	18404 <atexit>
   14c88:	00008067          	ret

00014c8c <__errno>:
   14c8c:	8201a503          	lw	a0,-2016(gp) # 27758 <_impure_ptr>
   14c90:	00008067          	ret

00014c94 <__libc_init_array>:
   14c94:	ff010113          	add	sp,sp,-16
   14c98:	00812423          	sw	s0,8(sp)
   14c9c:	000277b7          	lui	a5,0x27
   14ca0:	00027437          	lui	s0,0x27
   14ca4:	01212023          	sw	s2,0(sp)
   14ca8:	d8878793          	add	a5,a5,-632 # 26d88 <__init_array_start>
   14cac:	d8840713          	add	a4,s0,-632 # 26d88 <__init_array_start>
   14cb0:	00112623          	sw	ra,12(sp)
   14cb4:	00912223          	sw	s1,4(sp)
   14cb8:	40e78933          	sub	s2,a5,a4
   14cbc:	02e78263          	beq	a5,a4,14ce0 <__libc_init_array+0x4c>
   14cc0:	40295913          	sra	s2,s2,0x2
   14cc4:	d8840413          	add	s0,s0,-632
   14cc8:	00000493          	li	s1,0
   14ccc:	00042783          	lw	a5,0(s0)
   14cd0:	00148493          	add	s1,s1,1
   14cd4:	00440413          	add	s0,s0,4
   14cd8:	000780e7          	jalr	a5
   14cdc:	ff24e8e3          	bltu	s1,s2,14ccc <__libc_init_array+0x38>
   14ce0:	00027437          	lui	s0,0x27
   14ce4:	000277b7          	lui	a5,0x27
   14ce8:	d9078793          	add	a5,a5,-624 # 26d90 <__do_global_dtors_aux_fini_array_entry>
   14cec:	d8840713          	add	a4,s0,-632 # 26d88 <__init_array_start>
   14cf0:	40e78933          	sub	s2,a5,a4
   14cf4:	40295913          	sra	s2,s2,0x2
   14cf8:	02e78063          	beq	a5,a4,14d18 <__libc_init_array+0x84>
   14cfc:	d8840413          	add	s0,s0,-632
   14d00:	00000493          	li	s1,0
   14d04:	00042783          	lw	a5,0(s0)
   14d08:	00148493          	add	s1,s1,1
   14d0c:	00440413          	add	s0,s0,4
   14d10:	000780e7          	jalr	a5
   14d14:	ff24e8e3          	bltu	s1,s2,14d04 <__libc_init_array+0x70>
   14d18:	00c12083          	lw	ra,12(sp)
   14d1c:	00812403          	lw	s0,8(sp)
   14d20:	00412483          	lw	s1,4(sp)
   14d24:	00012903          	lw	s2,0(sp)
   14d28:	01010113          	add	sp,sp,16
   14d2c:	00008067          	ret

00014d30 <malloc>:
   14d30:	00050593          	mv	a1,a0
   14d34:	8201a503          	lw	a0,-2016(gp) # 27758 <_impure_ptr>
   14d38:	0100006f          	j	14d48 <_malloc_r>

00014d3c <free>:
   14d3c:	00050593          	mv	a1,a0
   14d40:	8201a503          	lw	a0,-2016(gp) # 27758 <_impure_ptr>
   14d44:	71d0306f          	j	18c60 <_free_r>

00014d48 <_malloc_r>:
   14d48:	fd010113          	add	sp,sp,-48
   14d4c:	01312e23          	sw	s3,28(sp)
   14d50:	02112623          	sw	ra,44(sp)
   14d54:	02812423          	sw	s0,40(sp)
   14d58:	02912223          	sw	s1,36(sp)
   14d5c:	03212023          	sw	s2,32(sp)
   14d60:	01412c23          	sw	s4,24(sp)
   14d64:	01512a23          	sw	s5,20(sp)
   14d68:	01612823          	sw	s6,16(sp)
   14d6c:	01712623          	sw	s7,12(sp)
   14d70:	01812423          	sw	s8,8(sp)
   14d74:	01912223          	sw	s9,4(sp)
   14d78:	00b58793          	add	a5,a1,11
   14d7c:	01600713          	li	a4,22
   14d80:	00050993          	mv	s3,a0
   14d84:	08f76e63          	bltu	a4,a5,14e20 <_malloc_r+0xd8>
   14d88:	01000793          	li	a5,16
   14d8c:	22b7e063          	bltu	a5,a1,14fac <_malloc_r+0x264>
   14d90:	740000ef          	jal	154d0 <__malloc_lock>
   14d94:	01000493          	li	s1,16
   14d98:	01800793          	li	a5,24
   14d9c:	00200593          	li	a1,2
   14da0:	00027937          	lui	s2,0x27
   14da4:	1c090913          	add	s2,s2,448 # 271c0 <__malloc_av_>
   14da8:	00f907b3          	add	a5,s2,a5
   14dac:	0047a403          	lw	s0,4(a5)
   14db0:	ff878713          	add	a4,a5,-8
   14db4:	30e40663          	beq	s0,a4,150c0 <_malloc_r+0x378>
   14db8:	00442783          	lw	a5,4(s0)
   14dbc:	00c42683          	lw	a3,12(s0)
   14dc0:	00842603          	lw	a2,8(s0)
   14dc4:	ffc7f793          	and	a5,a5,-4
   14dc8:	00f407b3          	add	a5,s0,a5
   14dcc:	0047a703          	lw	a4,4(a5)
   14dd0:	00d62623          	sw	a3,12(a2)
   14dd4:	00c6a423          	sw	a2,8(a3) # 400008 <_end+0x3d6038>
   14dd8:	00176713          	or	a4,a4,1
   14ddc:	00098513          	mv	a0,s3
   14de0:	00e7a223          	sw	a4,4(a5)
   14de4:	6f0000ef          	jal	154d4 <__malloc_unlock>
   14de8:	00840513          	add	a0,s0,8
   14dec:	02c12083          	lw	ra,44(sp)
   14df0:	02812403          	lw	s0,40(sp)
   14df4:	02412483          	lw	s1,36(sp)
   14df8:	02012903          	lw	s2,32(sp)
   14dfc:	01c12983          	lw	s3,28(sp)
   14e00:	01812a03          	lw	s4,24(sp)
   14e04:	01412a83          	lw	s5,20(sp)
   14e08:	01012b03          	lw	s6,16(sp)
   14e0c:	00c12b83          	lw	s7,12(sp)
   14e10:	00812c03          	lw	s8,8(sp)
   14e14:	00412c83          	lw	s9,4(sp)
   14e18:	03010113          	add	sp,sp,48
   14e1c:	00008067          	ret
   14e20:	ff87f493          	and	s1,a5,-8
   14e24:	1807c463          	bltz	a5,14fac <_malloc_r+0x264>
   14e28:	18b4e263          	bltu	s1,a1,14fac <_malloc_r+0x264>
   14e2c:	6a4000ef          	jal	154d0 <__malloc_lock>
   14e30:	1f700793          	li	a5,503
   14e34:	3a97f063          	bgeu	a5,s1,151d4 <_malloc_r+0x48c>
   14e38:	0094d793          	srl	a5,s1,0x9
   14e3c:	18078063          	beqz	a5,14fbc <_malloc_r+0x274>
   14e40:	00400713          	li	a4,4
   14e44:	2ef76663          	bltu	a4,a5,15130 <_malloc_r+0x3e8>
   14e48:	0064d793          	srl	a5,s1,0x6
   14e4c:	03978593          	add	a1,a5,57
   14e50:	03878513          	add	a0,a5,56
   14e54:	00359693          	sll	a3,a1,0x3
   14e58:	00027937          	lui	s2,0x27
   14e5c:	1c090913          	add	s2,s2,448 # 271c0 <__malloc_av_>
   14e60:	00d906b3          	add	a3,s2,a3
   14e64:	0046a403          	lw	s0,4(a3)
   14e68:	ff868693          	add	a3,a3,-8
   14e6c:	02868663          	beq	a3,s0,14e98 <_malloc_r+0x150>
   14e70:	00f00613          	li	a2,15
   14e74:	0100006f          	j	14e84 <_malloc_r+0x13c>
   14e78:	22075e63          	bgez	a4,150b4 <_malloc_r+0x36c>
   14e7c:	00c42403          	lw	s0,12(s0)
   14e80:	00868c63          	beq	a3,s0,14e98 <_malloc_r+0x150>
   14e84:	00442783          	lw	a5,4(s0)
   14e88:	ffc7f793          	and	a5,a5,-4
   14e8c:	40978733          	sub	a4,a5,s1
   14e90:	fee654e3          	bge	a2,a4,14e78 <_malloc_r+0x130>
   14e94:	00050593          	mv	a1,a0
   14e98:	01092403          	lw	s0,16(s2)
   14e9c:	00027837          	lui	a6,0x27
   14ea0:	1c880813          	add	a6,a6,456 # 271c8 <__malloc_av_+0x8>
   14ea4:	1f040063          	beq	s0,a6,15084 <_malloc_r+0x33c>
   14ea8:	00442783          	lw	a5,4(s0)
   14eac:	00f00693          	li	a3,15
   14eb0:	ffc7f793          	and	a5,a5,-4
   14eb4:	40978733          	sub	a4,a5,s1
   14eb8:	32e6c463          	blt	a3,a4,151e0 <_malloc_r+0x498>
   14ebc:	01092a23          	sw	a6,20(s2)
   14ec0:	01092823          	sw	a6,16(s2)
   14ec4:	2e075863          	bgez	a4,151b4 <_malloc_r+0x46c>
   14ec8:	1ff00713          	li	a4,511
   14ecc:	00492503          	lw	a0,4(s2)
   14ed0:	20f76063          	bltu	a4,a5,150d0 <_malloc_r+0x388>
   14ed4:	ff87f713          	and	a4,a5,-8
   14ed8:	00870713          	add	a4,a4,8
   14edc:	00e90733          	add	a4,s2,a4
   14ee0:	00072683          	lw	a3,0(a4)
   14ee4:	0057d613          	srl	a2,a5,0x5
   14ee8:	00100793          	li	a5,1
   14eec:	00c797b3          	sll	a5,a5,a2
   14ef0:	00f56533          	or	a0,a0,a5
   14ef4:	ff870793          	add	a5,a4,-8
   14ef8:	00f42623          	sw	a5,12(s0)
   14efc:	00d42423          	sw	a3,8(s0)
   14f00:	00a92223          	sw	a0,4(s2)
   14f04:	00872023          	sw	s0,0(a4)
   14f08:	0086a623          	sw	s0,12(a3)
   14f0c:	4025d793          	sra	a5,a1,0x2
   14f10:	00100613          	li	a2,1
   14f14:	00f61633          	sll	a2,a2,a5
   14f18:	0ac56a63          	bltu	a0,a2,14fcc <_malloc_r+0x284>
   14f1c:	00a677b3          	and	a5,a2,a0
   14f20:	02079463          	bnez	a5,14f48 <_malloc_r+0x200>
   14f24:	00161613          	sll	a2,a2,0x1
   14f28:	ffc5f593          	and	a1,a1,-4
   14f2c:	00a677b3          	and	a5,a2,a0
   14f30:	00458593          	add	a1,a1,4
   14f34:	00079a63          	bnez	a5,14f48 <_malloc_r+0x200>
   14f38:	00161613          	sll	a2,a2,0x1
   14f3c:	00a677b3          	and	a5,a2,a0
   14f40:	00458593          	add	a1,a1,4
   14f44:	fe078ae3          	beqz	a5,14f38 <_malloc_r+0x1f0>
   14f48:	00f00893          	li	a7,15
   14f4c:	00359313          	sll	t1,a1,0x3
   14f50:	00690333          	add	t1,s2,t1
   14f54:	00030513          	mv	a0,t1
   14f58:	00c52783          	lw	a5,12(a0)
   14f5c:	00058e13          	mv	t3,a1
   14f60:	1ef50a63          	beq	a0,a5,15154 <_malloc_r+0x40c>
   14f64:	0047a703          	lw	a4,4(a5)
   14f68:	00078413          	mv	s0,a5
   14f6c:	00c7a783          	lw	a5,12(a5)
   14f70:	ffc77713          	and	a4,a4,-4
   14f74:	409706b3          	sub	a3,a4,s1
   14f78:	1ed8ca63          	blt	a7,a3,1516c <_malloc_r+0x424>
   14f7c:	fe06c2e3          	bltz	a3,14f60 <_malloc_r+0x218>
   14f80:	00e40733          	add	a4,s0,a4
   14f84:	00472683          	lw	a3,4(a4)
   14f88:	00842603          	lw	a2,8(s0)
   14f8c:	00098513          	mv	a0,s3
   14f90:	0016e693          	or	a3,a3,1
   14f94:	00d72223          	sw	a3,4(a4)
   14f98:	00f62623          	sw	a5,12(a2)
   14f9c:	00c7a423          	sw	a2,8(a5)
   14fa0:	534000ef          	jal	154d4 <__malloc_unlock>
   14fa4:	00840513          	add	a0,s0,8
   14fa8:	e45ff06f          	j	14dec <_malloc_r+0xa4>
   14fac:	00c00793          	li	a5,12
   14fb0:	00f9a023          	sw	a5,0(s3)
   14fb4:	00000513          	li	a0,0
   14fb8:	e35ff06f          	j	14dec <_malloc_r+0xa4>
   14fbc:	20000693          	li	a3,512
   14fc0:	04000593          	li	a1,64
   14fc4:	03f00513          	li	a0,63
   14fc8:	e91ff06f          	j	14e58 <_malloc_r+0x110>
   14fcc:	00892403          	lw	s0,8(s2)
   14fd0:	00442783          	lw	a5,4(s0)
   14fd4:	ffc7fb13          	and	s6,a5,-4
   14fd8:	009b6863          	bltu	s6,s1,14fe8 <_malloc_r+0x2a0>
   14fdc:	409b0733          	sub	a4,s6,s1
   14fe0:	00f00793          	li	a5,15
   14fe4:	0ae7c463          	blt	a5,a4,1508c <_malloc_r+0x344>
   14fe8:	8701aa83          	lw	s5,-1936(gp) # 277a8 <__malloc_top_pad>
   14fec:	8241a703          	lw	a4,-2012(gp) # 2775c <__malloc_sbrk_base>
   14ff0:	fff00793          	li	a5,-1
   14ff4:	01640a33          	add	s4,s0,s6
   14ff8:	01548ab3          	add	s5,s1,s5
   14ffc:	3af70863          	beq	a4,a5,153ac <_malloc_r+0x664>
   15000:	000017b7          	lui	a5,0x1
   15004:	00f78793          	add	a5,a5,15 # 100f <_start-0xeff1>
   15008:	00fa8ab3          	add	s5,s5,a5
   1500c:	fffff7b7          	lui	a5,0xfffff
   15010:	00fafab3          	and	s5,s5,a5
   15014:	000a8593          	mv	a1,s5
   15018:	00098513          	mv	a0,s3
   1501c:	640000ef          	jal	1565c <_sbrk_r>
   15020:	fff00793          	li	a5,-1
   15024:	00050b93          	mv	s7,a0
   15028:	20f50663          	beq	a0,a5,15234 <_malloc_r+0x4ec>
   1502c:	21456263          	bltu	a0,s4,15230 <_malloc_r+0x4e8>
   15030:	0002ac37          	lui	s8,0x2a
   15034:	fa8c0c13          	add	s8,s8,-88 # 29fa8 <__malloc_current_mallinfo>
   15038:	000c2583          	lw	a1,0(s8)
   1503c:	00ba85b3          	add	a1,s5,a1
   15040:	00bc2023          	sw	a1,0(s8)
   15044:	00058713          	mv	a4,a1
   15048:	28aa1863          	bne	s4,a0,152d8 <_malloc_r+0x590>
   1504c:	01451793          	sll	a5,a0,0x14
   15050:	28079463          	bnez	a5,152d8 <_malloc_r+0x590>
   15054:	00892b83          	lw	s7,8(s2)
   15058:	015b07b3          	add	a5,s6,s5
   1505c:	0017e793          	or	a5,a5,1
   15060:	00fba223          	sw	a5,4(s7)
   15064:	86c1a683          	lw	a3,-1940(gp) # 277a4 <__malloc_max_sbrked_mem>
   15068:	00b6f463          	bgeu	a3,a1,15070 <_malloc_r+0x328>
   1506c:	86b1a623          	sw	a1,-1940(gp) # 277a4 <__malloc_max_sbrked_mem>
   15070:	8681a683          	lw	a3,-1944(gp) # 277a0 <__malloc_max_total_mem>
   15074:	00b6f463          	bgeu	a3,a1,1507c <_malloc_r+0x334>
   15078:	86b1a423          	sw	a1,-1944(gp) # 277a0 <__malloc_max_total_mem>
   1507c:	000b8413          	mv	s0,s7
   15080:	1bc0006f          	j	1523c <_malloc_r+0x4f4>
   15084:	00492503          	lw	a0,4(s2)
   15088:	e85ff06f          	j	14f0c <_malloc_r+0x1c4>
   1508c:	0014e793          	or	a5,s1,1
   15090:	00f42223          	sw	a5,4(s0)
   15094:	009404b3          	add	s1,s0,s1
   15098:	00992423          	sw	s1,8(s2)
   1509c:	00176713          	or	a4,a4,1
   150a0:	00098513          	mv	a0,s3
   150a4:	00e4a223          	sw	a4,4(s1)
   150a8:	42c000ef          	jal	154d4 <__malloc_unlock>
   150ac:	00840513          	add	a0,s0,8
   150b0:	d3dff06f          	j	14dec <_malloc_r+0xa4>
   150b4:	00c42683          	lw	a3,12(s0)
   150b8:	00842603          	lw	a2,8(s0)
   150bc:	d0dff06f          	j	14dc8 <_malloc_r+0x80>
   150c0:	00c7a403          	lw	s0,12(a5) # fffff00c <_end+0xfffd503c>
   150c4:	00258593          	add	a1,a1,2
   150c8:	dc8788e3          	beq	a5,s0,14e98 <_malloc_r+0x150>
   150cc:	cedff06f          	j	14db8 <_malloc_r+0x70>
   150d0:	0097d713          	srl	a4,a5,0x9
   150d4:	00400693          	li	a3,4
   150d8:	14e6f263          	bgeu	a3,a4,1521c <_malloc_r+0x4d4>
   150dc:	01400693          	li	a3,20
   150e0:	30e6ec63          	bltu	a3,a4,153f8 <_malloc_r+0x6b0>
   150e4:	05c70613          	add	a2,a4,92
   150e8:	05b70693          	add	a3,a4,91
   150ec:	00361613          	sll	a2,a2,0x3
   150f0:	00c90633          	add	a2,s2,a2
   150f4:	00062703          	lw	a4,0(a2)
   150f8:	ff860613          	add	a2,a2,-8
   150fc:	00e61863          	bne	a2,a4,1510c <_malloc_r+0x3c4>
   15100:	2b40006f          	j	153b4 <_malloc_r+0x66c>
   15104:	00872703          	lw	a4,8(a4)
   15108:	00e60863          	beq	a2,a4,15118 <_malloc_r+0x3d0>
   1510c:	00472683          	lw	a3,4(a4)
   15110:	ffc6f693          	and	a3,a3,-4
   15114:	fed7e8e3          	bltu	a5,a3,15104 <_malloc_r+0x3bc>
   15118:	00c72603          	lw	a2,12(a4)
   1511c:	00c42623          	sw	a2,12(s0)
   15120:	00e42423          	sw	a4,8(s0)
   15124:	00862423          	sw	s0,8(a2)
   15128:	00872623          	sw	s0,12(a4)
   1512c:	de1ff06f          	j	14f0c <_malloc_r+0x1c4>
   15130:	01400713          	li	a4,20
   15134:	12f77663          	bgeu	a4,a5,15260 <_malloc_r+0x518>
   15138:	05400713          	li	a4,84
   1513c:	2cf76c63          	bltu	a4,a5,15414 <_malloc_r+0x6cc>
   15140:	00c4d793          	srl	a5,s1,0xc
   15144:	06f78593          	add	a1,a5,111
   15148:	06e78513          	add	a0,a5,110
   1514c:	00359693          	sll	a3,a1,0x3
   15150:	d09ff06f          	j	14e58 <_malloc_r+0x110>
   15154:	001e0e13          	add	t3,t3,1
   15158:	003e7793          	and	a5,t3,3
   1515c:	00850513          	add	a0,a0,8
   15160:	10078e63          	beqz	a5,1527c <_malloc_r+0x534>
   15164:	00c52783          	lw	a5,12(a0)
   15168:	df9ff06f          	j	14f60 <_malloc_r+0x218>
   1516c:	00842603          	lw	a2,8(s0)
   15170:	0014e593          	or	a1,s1,1
   15174:	00b42223          	sw	a1,4(s0)
   15178:	00f62623          	sw	a5,12(a2)
   1517c:	00c7a423          	sw	a2,8(a5)
   15180:	009404b3          	add	s1,s0,s1
   15184:	00992a23          	sw	s1,20(s2)
   15188:	00992823          	sw	s1,16(s2)
   1518c:	0016e793          	or	a5,a3,1
   15190:	0104a623          	sw	a6,12(s1)
   15194:	0104a423          	sw	a6,8(s1)
   15198:	00f4a223          	sw	a5,4(s1)
   1519c:	00e40733          	add	a4,s0,a4
   151a0:	00098513          	mv	a0,s3
   151a4:	00d72023          	sw	a3,0(a4)
   151a8:	32c000ef          	jal	154d4 <__malloc_unlock>
   151ac:	00840513          	add	a0,s0,8
   151b0:	c3dff06f          	j	14dec <_malloc_r+0xa4>
   151b4:	00f407b3          	add	a5,s0,a5
   151b8:	0047a703          	lw	a4,4(a5)
   151bc:	00098513          	mv	a0,s3
   151c0:	00176713          	or	a4,a4,1
   151c4:	00e7a223          	sw	a4,4(a5)
   151c8:	30c000ef          	jal	154d4 <__malloc_unlock>
   151cc:	00840513          	add	a0,s0,8
   151d0:	c1dff06f          	j	14dec <_malloc_r+0xa4>
   151d4:	0034d593          	srl	a1,s1,0x3
   151d8:	00848793          	add	a5,s1,8
   151dc:	bc5ff06f          	j	14da0 <_malloc_r+0x58>
   151e0:	0014e693          	or	a3,s1,1
   151e4:	00d42223          	sw	a3,4(s0)
   151e8:	009404b3          	add	s1,s0,s1
   151ec:	00992a23          	sw	s1,20(s2)
   151f0:	00992823          	sw	s1,16(s2)
   151f4:	00176693          	or	a3,a4,1
   151f8:	0104a623          	sw	a6,12(s1)
   151fc:	0104a423          	sw	a6,8(s1)
   15200:	00d4a223          	sw	a3,4(s1)
   15204:	00f407b3          	add	a5,s0,a5
   15208:	00098513          	mv	a0,s3
   1520c:	00e7a023          	sw	a4,0(a5)
   15210:	2c4000ef          	jal	154d4 <__malloc_unlock>
   15214:	00840513          	add	a0,s0,8
   15218:	bd5ff06f          	j	14dec <_malloc_r+0xa4>
   1521c:	0067d713          	srl	a4,a5,0x6
   15220:	03970613          	add	a2,a4,57
   15224:	03870693          	add	a3,a4,56
   15228:	00361613          	sll	a2,a2,0x3
   1522c:	ec5ff06f          	j	150f0 <_malloc_r+0x3a8>
   15230:	09240a63          	beq	s0,s2,152c4 <_malloc_r+0x57c>
   15234:	00892403          	lw	s0,8(s2)
   15238:	00442783          	lw	a5,4(s0)
   1523c:	ffc7f793          	and	a5,a5,-4
   15240:	40978733          	sub	a4,a5,s1
   15244:	0097e663          	bltu	a5,s1,15250 <_malloc_r+0x508>
   15248:	00f00793          	li	a5,15
   1524c:	e4e7c0e3          	blt	a5,a4,1508c <_malloc_r+0x344>
   15250:	00098513          	mv	a0,s3
   15254:	280000ef          	jal	154d4 <__malloc_unlock>
   15258:	00000513          	li	a0,0
   1525c:	b91ff06f          	j	14dec <_malloc_r+0xa4>
   15260:	05c78593          	add	a1,a5,92
   15264:	05b78513          	add	a0,a5,91
   15268:	00359693          	sll	a3,a1,0x3
   1526c:	bedff06f          	j	14e58 <_malloc_r+0x110>
   15270:	00832783          	lw	a5,8(t1)
   15274:	fff58593          	add	a1,a1,-1
   15278:	24679863          	bne	a5,t1,154c8 <_malloc_r+0x780>
   1527c:	0035f793          	and	a5,a1,3
   15280:	ff830313          	add	t1,t1,-8
   15284:	fe0796e3          	bnez	a5,15270 <_malloc_r+0x528>
   15288:	00492703          	lw	a4,4(s2)
   1528c:	fff64793          	not	a5,a2
   15290:	00e7f7b3          	and	a5,a5,a4
   15294:	00f92223          	sw	a5,4(s2)
   15298:	00161613          	sll	a2,a2,0x1
   1529c:	d2c7e8e3          	bltu	a5,a2,14fcc <_malloc_r+0x284>
   152a0:	d20606e3          	beqz	a2,14fcc <_malloc_r+0x284>
   152a4:	00f67733          	and	a4,a2,a5
   152a8:	00071a63          	bnez	a4,152bc <_malloc_r+0x574>
   152ac:	00161613          	sll	a2,a2,0x1
   152b0:	00f67733          	and	a4,a2,a5
   152b4:	004e0e13          	add	t3,t3,4
   152b8:	fe070ae3          	beqz	a4,152ac <_malloc_r+0x564>
   152bc:	000e0593          	mv	a1,t3
   152c0:	c8dff06f          	j	14f4c <_malloc_r+0x204>
   152c4:	0002ac37          	lui	s8,0x2a
   152c8:	fa8c0c13          	add	s8,s8,-88 # 29fa8 <__malloc_current_mallinfo>
   152cc:	000c2703          	lw	a4,0(s8)
   152d0:	00ea8733          	add	a4,s5,a4
   152d4:	00ec2023          	sw	a4,0(s8)
   152d8:	8241a683          	lw	a3,-2012(gp) # 2775c <__malloc_sbrk_base>
   152dc:	fff00793          	li	a5,-1
   152e0:	14f68863          	beq	a3,a5,15430 <_malloc_r+0x6e8>
   152e4:	414b87b3          	sub	a5,s7,s4
   152e8:	00e787b3          	add	a5,a5,a4
   152ec:	00fc2023          	sw	a5,0(s8)
   152f0:	007bfc93          	and	s9,s7,7
   152f4:	0c0c8c63          	beqz	s9,153cc <_malloc_r+0x684>
   152f8:	00001737          	lui	a4,0x1
   152fc:	419b8bb3          	sub	s7,s7,s9
   15300:	00870593          	add	a1,a4,8 # 1008 <_start-0xeff8>
   15304:	008b8b93          	add	s7,s7,8
   15308:	419585b3          	sub	a1,a1,s9
   1530c:	015b8ab3          	add	s5,s7,s5
   15310:	415585b3          	sub	a1,a1,s5
   15314:	fff70713          	add	a4,a4,-1
   15318:	00e5fa33          	and	s4,a1,a4
   1531c:	000a0593          	mv	a1,s4
   15320:	00098513          	mv	a0,s3
   15324:	338000ef          	jal	1565c <_sbrk_r>
   15328:	fff00793          	li	a5,-1
   1532c:	14f50863          	beq	a0,a5,1547c <_malloc_r+0x734>
   15330:	41750533          	sub	a0,a0,s7
   15334:	01450ab3          	add	s5,a0,s4
   15338:	000c2703          	lw	a4,0(s8)
   1533c:	01792423          	sw	s7,8(s2)
   15340:	001ae793          	or	a5,s5,1
   15344:	00ea05b3          	add	a1,s4,a4
   15348:	00bc2023          	sw	a1,0(s8)
   1534c:	00fba223          	sw	a5,4(s7)
   15350:	d1240ae3          	beq	s0,s2,15064 <_malloc_r+0x31c>
   15354:	00f00693          	li	a3,15
   15358:	0f66f063          	bgeu	a3,s6,15438 <_malloc_r+0x6f0>
   1535c:	00442703          	lw	a4,4(s0)
   15360:	ff4b0793          	add	a5,s6,-12
   15364:	ff87f793          	and	a5,a5,-8
   15368:	00177713          	and	a4,a4,1
   1536c:	00f76733          	or	a4,a4,a5
   15370:	00e42223          	sw	a4,4(s0)
   15374:	00500613          	li	a2,5
   15378:	00f40733          	add	a4,s0,a5
   1537c:	00c72223          	sw	a2,4(a4)
   15380:	00c72423          	sw	a2,8(a4)
   15384:	00f6e663          	bltu	a3,a5,15390 <_malloc_r+0x648>
   15388:	004ba783          	lw	a5,4(s7)
   1538c:	cd9ff06f          	j	15064 <_malloc_r+0x31c>
   15390:	00840593          	add	a1,s0,8
   15394:	00098513          	mv	a0,s3
   15398:	0c9030ef          	jal	18c60 <_free_r>
   1539c:	00892b83          	lw	s7,8(s2)
   153a0:	000c2583          	lw	a1,0(s8)
   153a4:	004ba783          	lw	a5,4(s7)
   153a8:	cbdff06f          	j	15064 <_malloc_r+0x31c>
   153ac:	010a8a93          	add	s5,s5,16
   153b0:	c65ff06f          	j	15014 <_malloc_r+0x2cc>
   153b4:	4026d693          	sra	a3,a3,0x2
   153b8:	00100793          	li	a5,1
   153bc:	00d797b3          	sll	a5,a5,a3
   153c0:	00f56533          	or	a0,a0,a5
   153c4:	00a92223          	sw	a0,4(s2)
   153c8:	d55ff06f          	j	1511c <_malloc_r+0x3d4>
   153cc:	015b85b3          	add	a1,s7,s5
   153d0:	40b005b3          	neg	a1,a1
   153d4:	01459593          	sll	a1,a1,0x14
   153d8:	0145da13          	srl	s4,a1,0x14
   153dc:	000a0593          	mv	a1,s4
   153e0:	00098513          	mv	a0,s3
   153e4:	278000ef          	jal	1565c <_sbrk_r>
   153e8:	fff00793          	li	a5,-1
   153ec:	f4f512e3          	bne	a0,a5,15330 <_malloc_r+0x5e8>
   153f0:	00000a13          	li	s4,0
   153f4:	f45ff06f          	j	15338 <_malloc_r+0x5f0>
   153f8:	05400693          	li	a3,84
   153fc:	04e6e463          	bltu	a3,a4,15444 <_malloc_r+0x6fc>
   15400:	00c7d713          	srl	a4,a5,0xc
   15404:	06f70613          	add	a2,a4,111
   15408:	06e70693          	add	a3,a4,110
   1540c:	00361613          	sll	a2,a2,0x3
   15410:	ce1ff06f          	j	150f0 <_malloc_r+0x3a8>
   15414:	15400713          	li	a4,340
   15418:	04f76463          	bltu	a4,a5,15460 <_malloc_r+0x718>
   1541c:	00f4d793          	srl	a5,s1,0xf
   15420:	07878593          	add	a1,a5,120
   15424:	07778513          	add	a0,a5,119
   15428:	00359693          	sll	a3,a1,0x3
   1542c:	a2dff06f          	j	14e58 <_malloc_r+0x110>
   15430:	8371a223          	sw	s7,-2012(gp) # 2775c <__malloc_sbrk_base>
   15434:	ebdff06f          	j	152f0 <_malloc_r+0x5a8>
   15438:	00100793          	li	a5,1
   1543c:	00fba223          	sw	a5,4(s7)
   15440:	e11ff06f          	j	15250 <_malloc_r+0x508>
   15444:	15400693          	li	a3,340
   15448:	04e6e463          	bltu	a3,a4,15490 <_malloc_r+0x748>
   1544c:	00f7d713          	srl	a4,a5,0xf
   15450:	07870613          	add	a2,a4,120
   15454:	07770693          	add	a3,a4,119
   15458:	00361613          	sll	a2,a2,0x3
   1545c:	c95ff06f          	j	150f0 <_malloc_r+0x3a8>
   15460:	55400713          	li	a4,1364
   15464:	04f76463          	bltu	a4,a5,154ac <_malloc_r+0x764>
   15468:	0124d793          	srl	a5,s1,0x12
   1546c:	07d78593          	add	a1,a5,125
   15470:	07c78513          	add	a0,a5,124
   15474:	00359693          	sll	a3,a1,0x3
   15478:	9e1ff06f          	j	14e58 <_malloc_r+0x110>
   1547c:	ff8c8c93          	add	s9,s9,-8
   15480:	019a8ab3          	add	s5,s5,s9
   15484:	417a8ab3          	sub	s5,s5,s7
   15488:	00000a13          	li	s4,0
   1548c:	eadff06f          	j	15338 <_malloc_r+0x5f0>
   15490:	55400693          	li	a3,1364
   15494:	02e6e463          	bltu	a3,a4,154bc <_malloc_r+0x774>
   15498:	0127d713          	srl	a4,a5,0x12
   1549c:	07d70613          	add	a2,a4,125
   154a0:	07c70693          	add	a3,a4,124
   154a4:	00361613          	sll	a2,a2,0x3
   154a8:	c49ff06f          	j	150f0 <_malloc_r+0x3a8>
   154ac:	3f800693          	li	a3,1016
   154b0:	07f00593          	li	a1,127
   154b4:	07e00513          	li	a0,126
   154b8:	9a1ff06f          	j	14e58 <_malloc_r+0x110>
   154bc:	3f800613          	li	a2,1016
   154c0:	07e00693          	li	a3,126
   154c4:	c2dff06f          	j	150f0 <_malloc_r+0x3a8>
   154c8:	00492783          	lw	a5,4(s2)
   154cc:	dcdff06f          	j	15298 <_malloc_r+0x550>

000154d0 <__malloc_lock>:
   154d0:	00008067          	ret

000154d4 <__malloc_unlock>:
   154d4:	00008067          	ret

000154d8 <_printf_r>:
   154d8:	fc010113          	add	sp,sp,-64
   154dc:	02c12423          	sw	a2,40(sp)
   154e0:	02d12623          	sw	a3,44(sp)
   154e4:	02e12823          	sw	a4,48(sp)
   154e8:	02f12a23          	sw	a5,52(sp)
   154ec:	03012c23          	sw	a6,56(sp)
   154f0:	03112e23          	sw	a7,60(sp)
   154f4:	00058613          	mv	a2,a1
   154f8:	00852583          	lw	a1,8(a0)
   154fc:	02810693          	add	a3,sp,40
   15500:	00112e23          	sw	ra,28(sp)
   15504:	00d12623          	sw	a3,12(sp)
   15508:	23c000ef          	jal	15744 <_vfprintf_r>
   1550c:	01c12083          	lw	ra,28(sp)
   15510:	04010113          	add	sp,sp,64
   15514:	00008067          	ret

00015518 <printf>:
   15518:	8201a303          	lw	t1,-2016(gp) # 27758 <_impure_ptr>
   1551c:	fc010113          	add	sp,sp,-64
   15520:	02c12423          	sw	a2,40(sp)
   15524:	02d12623          	sw	a3,44(sp)
   15528:	02b12223          	sw	a1,36(sp)
   1552c:	02e12823          	sw	a4,48(sp)
   15530:	02f12a23          	sw	a5,52(sp)
   15534:	03012c23          	sw	a6,56(sp)
   15538:	03112e23          	sw	a7,60(sp)
   1553c:	00832583          	lw	a1,8(t1)
   15540:	02410693          	add	a3,sp,36
   15544:	00050613          	mv	a2,a0
   15548:	00030513          	mv	a0,t1
   1554c:	00112e23          	sw	ra,28(sp)
   15550:	00d12623          	sw	a3,12(sp)
   15554:	1f0000ef          	jal	15744 <_vfprintf_r>
   15558:	01c12083          	lw	ra,28(sp)
   1555c:	04010113          	add	sp,sp,64
   15560:	00008067          	ret

00015564 <_putchar_r>:
   15564:	00852603          	lw	a2,8(a0)
   15568:	4700806f          	j	1d9d8 <_putc_r>

0001556c <putchar>:
   1556c:	8201a783          	lw	a5,-2016(gp) # 27758 <_impure_ptr>
   15570:	00050593          	mv	a1,a0
   15574:	0087a603          	lw	a2,8(a5)
   15578:	00078513          	mv	a0,a5
   1557c:	45c0806f          	j	1d9d8 <_putc_r>

00015580 <_puts_r>:
   15580:	fc010113          	add	sp,sp,-64
   15584:	02812c23          	sw	s0,56(sp)
   15588:	00050413          	mv	s0,a0
   1558c:	00058513          	mv	a0,a1
   15590:	02912a23          	sw	s1,52(sp)
   15594:	02112e23          	sw	ra,60(sp)
   15598:	00058493          	mv	s1,a1
   1559c:	11c000ef          	jal	156b8 <strlen>
   155a0:	000257b7          	lui	a5,0x25
   155a4:	e7878793          	add	a5,a5,-392 # 24e78 <_getpid_r+0x55c>
   155a8:	02f12423          	sw	a5,40(sp)
   155ac:	00100793          	li	a5,1
   155b0:	02f12623          	sw	a5,44(sp)
   155b4:	03842703          	lw	a4,56(s0)
   155b8:	02010793          	add	a5,sp,32
   155bc:	00150693          	add	a3,a0,1
   155c0:	00f12a23          	sw	a5,20(sp)
   155c4:	00200793          	li	a5,2
   155c8:	02912023          	sw	s1,32(sp)
   155cc:	02a12223          	sw	a0,36(sp)
   155d0:	00d12e23          	sw	a3,28(sp)
   155d4:	00f12c23          	sw	a5,24(sp)
   155d8:	00842583          	lw	a1,8(s0)
   155dc:	06070063          	beqz	a4,1563c <_puts_r+0xbc>
   155e0:	00c59783          	lh	a5,12(a1)
   155e4:	01279713          	sll	a4,a5,0x12
   155e8:	02074263          	bltz	a4,1560c <_puts_r+0x8c>
   155ec:	0645a703          	lw	a4,100(a1)
   155f0:	000026b7          	lui	a3,0x2
   155f4:	00d7e7b3          	or	a5,a5,a3
   155f8:	ffffe6b7          	lui	a3,0xffffe
   155fc:	fff68693          	add	a3,a3,-1 # ffffdfff <_end+0xfffd402f>
   15600:	00d77733          	and	a4,a4,a3
   15604:	00f59623          	sh	a5,12(a1)
