
dhry.elf:     file format elf32-littleriscv


Disassembly of section .text:

00008000 <_start>:
    8000:	00013197          	auipc	gp,0x13
    8004:	eb818193          	addi	gp,gp,-328 # 1aeb8 <__global_pointer$>
    8008:	87018513          	addi	a0,gp,-1936 # 1a728 <Dhrystones_Per_Second>
    800c:	00015617          	auipc	a2,0x15
    8010:	25860613          	addi	a2,a2,600 # 1d264 <_end>
    8014:	40a60633          	sub	a2,a2,a0
    8018:	00000593          	li	a1,0
    801c:	478000ef          	jal	8494 <memset>
    8020:	00007517          	auipc	a0,0x7
    8024:	f7450513          	addi	a0,a0,-140 # ef94 <atexit>
    8028:	00050863          	beqz	a0,8038 <_start+0x38>
    802c:	0000c517          	auipc	a0,0xc
    8030:	42450513          	addi	a0,a0,1060 # 14450 <__libc_fini_array>
    8034:	761060ef          	jal	ef94 <atexit>
    8038:	501060ef          	jal	ed38 <__libc_init_array>
    803c:	00012503          	lw	a0,0(sp)
    8040:	00410593          	addi	a1,sp,4
    8044:	00000613          	li	a2,0
    8048:	334050ef          	jal	d37c <main>
    804c:	3040506f          	j	d350 <exit>

00008050 <__do_global_dtors_aux>:
    8050:	ff010113          	addi	sp,sp,-16
    8054:	00812423          	sw	s0,8(sp)
    8058:	8c81c783          	lbu	a5,-1848(gp) # 1a780 <completed.1>
    805c:	00112623          	sw	ra,12(sp)
    8060:	02079263          	bnez	a5,8084 <__do_global_dtors_aux+0x34>
    8064:	00000793          	li	a5,0
    8068:	00078a63          	beqz	a5,807c <__do_global_dtors_aux+0x2c>
    806c:	0001a537          	lui	a0,0x1a
    8070:	00050513          	mv	a0,a0
    8074:	00000097          	auipc	ra,0x0
    8078:	000000e7          	jalr	zero # 0 <_start-0x8000>
    807c:	00100793          	li	a5,1
    8080:	8cf18423          	sb	a5,-1848(gp) # 1a780 <completed.1>
    8084:	00c12083          	lw	ra,12(sp)
    8088:	00812403          	lw	s0,8(sp)
    808c:	01010113          	addi	sp,sp,16
    8090:	00008067          	ret

00008094 <frame_dummy>:
    8094:	00000793          	li	a5,0
    8098:	00078c63          	beqz	a5,80b0 <frame_dummy+0x1c>
    809c:	0001a537          	lui	a0,0x1a
    80a0:	8cc18593          	addi	a1,gp,-1844 # 1a784 <object.0>
    80a4:	00050513          	mv	a0,a0
    80a8:	00000317          	auipc	t1,0x0
    80ac:	00000067          	jr	zero # 0 <_start-0x8000>
    80b0:	00008067          	ret

000080b4 <Proc_1>:
    80b4:	ff010113          	addi	sp,sp,-16
    80b8:	01212023          	sw	s2,0(sp)
    80bc:	8a41a783          	lw	a5,-1884(gp) # 1a75c <Ptr_Glob>
    80c0:	00812423          	sw	s0,8(sp)
    80c4:	00052403          	lw	s0,0(a0) # 1a000 <__EH_FRAME_BEGIN__>
    80c8:	0007a703          	lw	a4,0(a5)
    80cc:	0047af83          	lw	t6,4(a5)
    80d0:	0087af03          	lw	t5,8(a5)
    80d4:	0107ae83          	lw	t4,16(a5)
    80d8:	0147ae03          	lw	t3,20(a5)
    80dc:	0187a303          	lw	t1,24(a5)
    80e0:	01c7a883          	lw	a7,28(a5)
    80e4:	0207a803          	lw	a6,32(a5)
    80e8:	02c7a603          	lw	a2,44(a5)
    80ec:	0287a583          	lw	a1,40(a5)
    80f0:	00112623          	sw	ra,12(sp)
    80f4:	00912223          	sw	s1,4(sp)
    80f8:	00050493          	mv	s1,a0
    80fc:	0247a503          	lw	a0,36(a5)
    8100:	00e42023          	sw	a4,0(s0)
    8104:	0004a683          	lw	a3,0(s1)
    8108:	00500713          	li	a4,5
    810c:	01f42223          	sw	t6,4(s0)
    8110:	01e42423          	sw	t5,8(s0)
    8114:	01d42823          	sw	t4,16(s0)
    8118:	01c42a23          	sw	t3,20(s0)
    811c:	00642c23          	sw	t1,24(s0)
    8120:	01142e23          	sw	a7,28(s0)
    8124:	03042023          	sw	a6,32(s0)
    8128:	02a42223          	sw	a0,36(s0)
    812c:	02c42623          	sw	a2,44(s0)
    8130:	02b42423          	sw	a1,40(s0)
    8134:	00e4a623          	sw	a4,12(s1)
    8138:	00d42023          	sw	a3,0(s0)
    813c:	0007a783          	lw	a5,0(a5)
    8140:	89c1a583          	lw	a1,-1892(gp) # 1a754 <Int_Glob>
    8144:	00f42023          	sw	a5,0(s0)
    8148:	8a41a603          	lw	a2,-1884(gp) # 1a75c <Ptr_Glob>
    814c:	00e42623          	sw	a4,12(s0)
    8150:	00a00513          	li	a0,10
    8154:	00c60613          	addi	a2,a2,12
    8158:	19c000ef          	jal	82f4 <Proc_7>
    815c:	00442783          	lw	a5,4(s0)
    8160:	08078063          	beqz	a5,81e0 <Proc_1+0x12c>
    8164:	0004a783          	lw	a5,0(s1)
    8168:	00c12083          	lw	ra,12(sp)
    816c:	00812403          	lw	s0,8(sp)
    8170:	0007af83          	lw	t6,0(a5)
    8174:	0047af03          	lw	t5,4(a5)
    8178:	0087ae83          	lw	t4,8(a5)
    817c:	00c7ae03          	lw	t3,12(a5)
    8180:	0107a303          	lw	t1,16(a5)
    8184:	0147a883          	lw	a7,20(a5)
    8188:	0187a803          	lw	a6,24(a5)
    818c:	01c7a583          	lw	a1,28(a5)
    8190:	0207a603          	lw	a2,32(a5)
    8194:	0247a683          	lw	a3,36(a5)
    8198:	0287a703          	lw	a4,40(a5)
    819c:	02c7a783          	lw	a5,44(a5)
    81a0:	01f4a023          	sw	t6,0(s1)
    81a4:	01e4a223          	sw	t5,4(s1)
    81a8:	01d4a423          	sw	t4,8(s1)
    81ac:	01c4a623          	sw	t3,12(s1)
    81b0:	0064a823          	sw	t1,16(s1)
    81b4:	0114aa23          	sw	a7,20(s1)
    81b8:	0104ac23          	sw	a6,24(s1)
    81bc:	00b4ae23          	sw	a1,28(s1)
    81c0:	02c4a023          	sw	a2,32(s1)
    81c4:	02d4a223          	sw	a3,36(s1)
    81c8:	02e4a423          	sw	a4,40(s1)
    81cc:	02f4a623          	sw	a5,44(s1)
    81d0:	00012903          	lw	s2,0(sp)
    81d4:	00412483          	lw	s1,4(sp)
    81d8:	01010113          	addi	sp,sp,16
    81dc:	00008067          	ret
    81e0:	0084a503          	lw	a0,8(s1)
    81e4:	00600793          	li	a5,6
    81e8:	00f42623          	sw	a5,12(s0)
    81ec:	00840593          	addi	a1,s0,8
    81f0:	0b4000ef          	jal	82a4 <Proc_6>
    81f4:	8a41a783          	lw	a5,-1884(gp) # 1a75c <Ptr_Glob>
    81f8:	00c42503          	lw	a0,12(s0)
    81fc:	00c40613          	addi	a2,s0,12
    8200:	0007a783          	lw	a5,0(a5)
    8204:	00c12083          	lw	ra,12(sp)
    8208:	00412483          	lw	s1,4(sp)
    820c:	00f42023          	sw	a5,0(s0)
    8210:	00812403          	lw	s0,8(sp)
    8214:	00012903          	lw	s2,0(sp)
    8218:	00a00593          	li	a1,10
    821c:	01010113          	addi	sp,sp,16
    8220:	0d40006f          	j	82f4 <Proc_7>

00008224 <Proc_2>:
    8224:	8951c703          	lbu	a4,-1899(gp) # 1a74d <Ch_1_Glob>
    8228:	04100793          	li	a5,65
    822c:	00f70463          	beq	a4,a5,8234 <Proc_2+0x10>
    8230:	00008067          	ret
    8234:	00052783          	lw	a5,0(a0)
    8238:	89c1a703          	lw	a4,-1892(gp) # 1a754 <Int_Glob>
    823c:	00978793          	addi	a5,a5,9
    8240:	40e787b3          	sub	a5,a5,a4
    8244:	00f52023          	sw	a5,0(a0)
    8248:	00008067          	ret

0000824c <Proc_3>:
    824c:	8a41a603          	lw	a2,-1884(gp) # 1a75c <Ptr_Glob>
    8250:	00060863          	beqz	a2,8260 <Proc_3+0x14>
    8254:	00062703          	lw	a4,0(a2)
    8258:	00e52023          	sw	a4,0(a0)
    825c:	8a41a603          	lw	a2,-1884(gp) # 1a75c <Ptr_Glob>
    8260:	89c1a583          	lw	a1,-1892(gp) # 1a754 <Int_Glob>
    8264:	00c60613          	addi	a2,a2,12
    8268:	00a00513          	li	a0,10
    826c:	0880006f          	j	82f4 <Proc_7>

00008270 <Proc_4>:
    8270:	8951c783          	lbu	a5,-1899(gp) # 1a74d <Ch_1_Glob>
    8274:	8981a683          	lw	a3,-1896(gp) # 1a750 <Bool_Glob>
    8278:	fbf78793          	addi	a5,a5,-65
    827c:	0017b793          	seqz	a5,a5
    8280:	00d7e7b3          	or	a5,a5,a3
    8284:	88f1ac23          	sw	a5,-1896(gp) # 1a750 <Bool_Glob>
    8288:	04200713          	li	a4,66
    828c:	88e18a23          	sb	a4,-1900(gp) # 1a74c <Ch_2_Glob>
    8290:	00008067          	ret

00008294 <Proc_5>:
    8294:	04100713          	li	a4,65
    8298:	88e18aa3          	sb	a4,-1899(gp) # 1a74d <Ch_1_Glob>
    829c:	8801ac23          	sw	zero,-1896(gp) # 1a750 <Bool_Glob>
    82a0:	00008067          	ret

000082a4 <Proc_6>:
    82a4:	00200793          	li	a5,2
    82a8:	02f50c63          	beq	a0,a5,82e0 <Proc_6+0x3c>
    82ac:	00300713          	li	a4,3
    82b0:	00e5a023          	sw	a4,0(a1)
    82b4:	00100713          	li	a4,1
    82b8:	00e50a63          	beq	a0,a4,82cc <Proc_6+0x28>
    82bc:	00400713          	li	a4,4
    82c0:	02e50663          	beq	a0,a4,82ec <Proc_6+0x48>
    82c4:	00050a63          	beqz	a0,82d8 <Proc_6+0x34>
    82c8:	00008067          	ret
    82cc:	89c1a703          	lw	a4,-1892(gp) # 1a754 <Int_Glob>
    82d0:	06400793          	li	a5,100
    82d4:	fee7dae3          	bge	a5,a4,82c8 <Proc_6+0x24>
    82d8:	0005a023          	sw	zero,0(a1)
    82dc:	00008067          	ret
    82e0:	00100793          	li	a5,1
    82e4:	00f5a023          	sw	a5,0(a1)
    82e8:	00008067          	ret
    82ec:	00f5a023          	sw	a5,0(a1)
    82f0:	00008067          	ret

000082f4 <Proc_7>:
    82f4:	00250513          	addi	a0,a0,2
    82f8:	00b505b3          	add	a1,a0,a1
    82fc:	00b62023          	sw	a1,0(a2)
    8300:	00008067          	ret

00008304 <Proc_8>:
    8304:	00560713          	addi	a4,a2,5
    8308:	0c800813          	li	a6,200
    830c:	03070833          	mul	a6,a4,a6
    8310:	00261613          	slli	a2,a2,0x2
    8314:	00271793          	slli	a5,a4,0x2
    8318:	00f50533          	add	a0,a0,a5
    831c:	00d52023          	sw	a3,0(a0)
    8320:	06e52c23          	sw	a4,120(a0)
    8324:	00d52223          	sw	a3,4(a0)
    8328:	00c807b3          	add	a5,a6,a2
    832c:	00f587b3          	add	a5,a1,a5
    8330:	0107a683          	lw	a3,16(a5)
    8334:	00e7aa23          	sw	a4,20(a5)
    8338:	00e7ac23          	sw	a4,24(a5)
    833c:	00168713          	addi	a4,a3,1
    8340:	00e7a823          	sw	a4,16(a5)
    8344:	00052703          	lw	a4,0(a0)
    8348:	010585b3          	add	a1,a1,a6
    834c:	00c585b3          	add	a1,a1,a2
    8350:	000017b7          	lui	a5,0x1
    8354:	00b787b3          	add	a5,a5,a1
    8358:	fae7aa23          	sw	a4,-76(a5) # fb4 <_start-0x704c>
    835c:	00500713          	li	a4,5
    8360:	88e1ae23          	sw	a4,-1892(gp) # 1a754 <Int_Glob>
    8364:	00008067          	ret

00008368 <Func_1>:
    8368:	0ff57513          	zext.b	a0,a0
    836c:	0ff5f593          	zext.b	a1,a1
    8370:	00b50663          	beq	a0,a1,837c <Func_1+0x14>
    8374:	00000513          	li	a0,0
    8378:	00008067          	ret
    837c:	88a18aa3          	sb	a0,-1899(gp) # 1a74d <Ch_1_Glob>
    8380:	00100513          	li	a0,1
    8384:	00008067          	ret

00008388 <Func_2>:
    8388:	ff010113          	addi	sp,sp,-16
    838c:	00112623          	sw	ra,12(sp)
    8390:	00254703          	lbu	a4,2(a0)
    8394:	0035c783          	lbu	a5,3(a1)
    8398:	02e78663          	beq	a5,a4,83c4 <Func_2+0x3c>
    839c:	1d4000ef          	jal	8570 <strcmp>
    83a0:	00000793          	li	a5,0
    83a4:	00a05863          	blez	a0,83b4 <Func_2+0x2c>
    83a8:	00a00713          	li	a4,10
    83ac:	88e1ae23          	sw	a4,-1892(gp) # 1a754 <Int_Glob>
    83b0:	00100793          	li	a5,1
    83b4:	00c12083          	lw	ra,12(sp)
    83b8:	00078513          	mv	a0,a5
    83bc:	01010113          	addi	sp,sp,16
    83c0:	00008067          	ret
    83c4:	88f18aa3          	sb	a5,-1899(gp) # 1a74d <Ch_1_Glob>
    83c8:	fd1ff06f          	j	8398 <Func_2+0x10>

000083cc <Func_3>:
    83cc:	ffe50513          	addi	a0,a0,-2
    83d0:	00153513          	seqz	a0,a0
    83d4:	00008067          	ret

000083d8 <time>:
    83d8:	c0002573          	rdcycle	a0
    83dc:	00008067          	ret

000083e0 <insn>:
    83e0:	c0202573          	rdinstret	a0
    83e4:	00008067          	ret

000083e8 <_access>:
    83e8:	0040006f          	j	83ec <unimplemented_syscall>

000083ec <unimplemented_syscall>:
    83ec:	000197b7          	lui	a5,0x19
    83f0:	6dc78793          	addi	a5,a5,1756 # 196dc <_getpid_r+0x5c0>
    83f4:	05500713          	li	a4,85
    83f8:	100006b7          	lui	a3,0x10000
    83fc:	00178793          	addi	a5,a5,1
    8400:	00e6a023          	sw	a4,0(a3) # 10000000 <_end+0xffe2d9c>
    8404:	0007c703          	lbu	a4,0(a5)
    8408:	fe071ae3          	bnez	a4,83fc <unimplemented_syscall+0x10>
    840c:	00100073          	ebreak

00008410 <_read>:
    8410:	00000513          	li	a0,0
    8414:	00008067          	ret

00008418 <_write>:
    8418:	00c58733          	add	a4,a1,a2
    841c:	00060513          	mv	a0,a2
    8420:	00e58c63          	beq	a1,a4,8438 <_write+0x20>
    8424:	100006b7          	lui	a3,0x10000
    8428:	0005c783          	lbu	a5,0(a1)
    842c:	00158593          	addi	a1,a1,1
    8430:	00f6a023          	sw	a5,0(a3) # 10000000 <_end+0xffe2d9c>
    8434:	feb71ae3          	bne	a4,a1,8428 <_write+0x10>
    8438:	00008067          	ret

0000843c <_close>:
    843c:	00000513          	li	a0,0
    8440:	00008067          	ret

00008444 <_fstat>:
    8444:	ff010113          	addi	sp,sp,-16
    8448:	00112623          	sw	ra,12(sp)
    844c:	0e5060ef          	jal	ed30 <__errno>
    8450:	00c12083          	lw	ra,12(sp)
    8454:	00200793          	li	a5,2
    8458:	00f52023          	sw	a5,0(a0)
    845c:	fff00513          	li	a0,-1
    8460:	01010113          	addi	sp,sp,16
    8464:	00008067          	ret

00008468 <_sbrk>:
    8468:	8a81a703          	lw	a4,-1880(gp) # 1a760 <heap_end.0>
    846c:	00050793          	mv	a5,a0
    8470:	00070513          	mv	a0,a4
    8474:	00071863          	bnez	a4,8484 <_sbrk+0x1c>
    8478:	0001d537          	lui	a0,0x1d
    847c:	26450713          	addi	a4,a0,612 # 1d264 <_end>
    8480:	26450513          	addi	a0,a0,612
    8484:	00e787b3          	add	a5,a5,a4
    8488:	8af1a423          	sw	a5,-1880(gp) # 1a760 <heap_end.0>
    848c:	00008067          	ret

00008490 <_exit>:
    8490:	00100073          	ebreak

00008494 <memset>:
    8494:	00f00313          	li	t1,15
    8498:	00050713          	mv	a4,a0
    849c:	02c37e63          	bgeu	t1,a2,84d8 <memset+0x44>
    84a0:	00f77793          	andi	a5,a4,15
    84a4:	0a079063          	bnez	a5,8544 <memset+0xb0>
    84a8:	08059263          	bnez	a1,852c <memset+0x98>
    84ac:	ff067693          	andi	a3,a2,-16
    84b0:	00f67613          	andi	a2,a2,15
    84b4:	00e686b3          	add	a3,a3,a4
    84b8:	00b72023          	sw	a1,0(a4)
    84bc:	00b72223          	sw	a1,4(a4)
    84c0:	00b72423          	sw	a1,8(a4)
    84c4:	00b72623          	sw	a1,12(a4)
    84c8:	01070713          	addi	a4,a4,16
    84cc:	fed766e3          	bltu	a4,a3,84b8 <memset+0x24>
    84d0:	00061463          	bnez	a2,84d8 <memset+0x44>
    84d4:	00008067          	ret
    84d8:	40c306b3          	sub	a3,t1,a2
    84dc:	00269693          	slli	a3,a3,0x2
    84e0:	00000297          	auipc	t0,0x0
    84e4:	005686b3          	add	a3,a3,t0
    84e8:	00c68067          	jr	12(a3)
    84ec:	00b70723          	sb	a1,14(a4)
    84f0:	00b706a3          	sb	a1,13(a4)
    84f4:	00b70623          	sb	a1,12(a4)
    84f8:	00b705a3          	sb	a1,11(a4)
    84fc:	00b70523          	sb	a1,10(a4)
    8500:	00b704a3          	sb	a1,9(a4)
    8504:	00b70423          	sb	a1,8(a4)
    8508:	00b703a3          	sb	a1,7(a4)
    850c:	00b70323          	sb	a1,6(a4)
    8510:	00b702a3          	sb	a1,5(a4)
    8514:	00b70223          	sb	a1,4(a4)
    8518:	00b701a3          	sb	a1,3(a4)
    851c:	00b70123          	sb	a1,2(a4)
    8520:	00b700a3          	sb	a1,1(a4)
    8524:	00b70023          	sb	a1,0(a4)
    8528:	00008067          	ret
    852c:	0ff5f593          	zext.b	a1,a1
    8530:	00859693          	slli	a3,a1,0x8
    8534:	00d5e5b3          	or	a1,a1,a3
    8538:	01059693          	slli	a3,a1,0x10
    853c:	00d5e5b3          	or	a1,a1,a3
    8540:	f6dff06f          	j	84ac <memset+0x18>
    8544:	00279693          	slli	a3,a5,0x2
    8548:	00000297          	auipc	t0,0x0
    854c:	005686b3          	add	a3,a3,t0
    8550:	00008293          	mv	t0,ra
    8554:	fa0680e7          	jalr	-96(a3)
    8558:	00028093          	mv	ra,t0
    855c:	ff078793          	addi	a5,a5,-16
    8560:	40f70733          	sub	a4,a4,a5
    8564:	00f60633          	add	a2,a2,a5
    8568:	f6c378e3          	bgeu	t1,a2,84d8 <memset+0x44>
    856c:	f3dff06f          	j	84a8 <memset+0x14>

00008570 <strcmp>:
    8570:	00b56733          	or	a4,a0,a1
    8574:	fff00393          	li	t2,-1
    8578:	00377713          	andi	a4,a4,3
    857c:	10071063          	bnez	a4,867c <strcmp+0x10c>
    8580:	7f7f87b7          	lui	a5,0x7f7f8
    8584:	f7f78793          	addi	a5,a5,-129 # 7f7f7f7f <_end+0x7f7dad1b>
    8588:	00052603          	lw	a2,0(a0)
    858c:	0005a683          	lw	a3,0(a1)
    8590:	00f672b3          	and	t0,a2,a5
    8594:	00f66333          	or	t1,a2,a5
    8598:	00f282b3          	add	t0,t0,a5
    859c:	0062e2b3          	or	t0,t0,t1
    85a0:	10729263          	bne	t0,t2,86a4 <strcmp+0x134>
    85a4:	08d61663          	bne	a2,a3,8630 <strcmp+0xc0>
    85a8:	00452603          	lw	a2,4(a0)
    85ac:	0045a683          	lw	a3,4(a1)
    85b0:	00f672b3          	and	t0,a2,a5
    85b4:	00f66333          	or	t1,a2,a5
    85b8:	00f282b3          	add	t0,t0,a5
    85bc:	0062e2b3          	or	t0,t0,t1
    85c0:	0c729e63          	bne	t0,t2,869c <strcmp+0x12c>
    85c4:	06d61663          	bne	a2,a3,8630 <strcmp+0xc0>
    85c8:	00852603          	lw	a2,8(a0)
    85cc:	0085a683          	lw	a3,8(a1)
    85d0:	00f672b3          	and	t0,a2,a5
    85d4:	00f66333          	or	t1,a2,a5
    85d8:	00f282b3          	add	t0,t0,a5
    85dc:	0062e2b3          	or	t0,t0,t1
    85e0:	0c729863          	bne	t0,t2,86b0 <strcmp+0x140>
    85e4:	04d61663          	bne	a2,a3,8630 <strcmp+0xc0>
    85e8:	00c52603          	lw	a2,12(a0)
    85ec:	00c5a683          	lw	a3,12(a1)
    85f0:	00f672b3          	and	t0,a2,a5
    85f4:	00f66333          	or	t1,a2,a5
    85f8:	00f282b3          	add	t0,t0,a5
    85fc:	0062e2b3          	or	t0,t0,t1
    8600:	0c729263          	bne	t0,t2,86c4 <strcmp+0x154>
    8604:	02d61663          	bne	a2,a3,8630 <strcmp+0xc0>
    8608:	01052603          	lw	a2,16(a0)
    860c:	0105a683          	lw	a3,16(a1)
    8610:	00f672b3          	and	t0,a2,a5
    8614:	00f66333          	or	t1,a2,a5
    8618:	00f282b3          	add	t0,t0,a5
    861c:	0062e2b3          	or	t0,t0,t1
    8620:	0a729c63          	bne	t0,t2,86d8 <strcmp+0x168>
    8624:	01450513          	addi	a0,a0,20
    8628:	01458593          	addi	a1,a1,20
    862c:	f4d60ee3          	beq	a2,a3,8588 <strcmp+0x18>
    8630:	01061713          	slli	a4,a2,0x10
    8634:	01069793          	slli	a5,a3,0x10
    8638:	00f71e63          	bne	a4,a5,8654 <strcmp+0xe4>
    863c:	01065713          	srli	a4,a2,0x10
    8640:	0106d793          	srli	a5,a3,0x10
    8644:	40f70533          	sub	a0,a4,a5
    8648:	0ff57593          	zext.b	a1,a0
    864c:	02059063          	bnez	a1,866c <strcmp+0xfc>
    8650:	00008067          	ret
    8654:	01075713          	srli	a4,a4,0x10
    8658:	0107d793          	srli	a5,a5,0x10
    865c:	40f70533          	sub	a0,a4,a5
    8660:	0ff57593          	zext.b	a1,a0
    8664:	00059463          	bnez	a1,866c <strcmp+0xfc>
    8668:	00008067          	ret
    866c:	0ff77713          	zext.b	a4,a4
    8670:	0ff7f793          	zext.b	a5,a5
    8674:	40f70533          	sub	a0,a4,a5
    8678:	00008067          	ret
    867c:	00054603          	lbu	a2,0(a0)
    8680:	0005c683          	lbu	a3,0(a1)
    8684:	00150513          	addi	a0,a0,1
    8688:	00158593          	addi	a1,a1,1
    868c:	00d61463          	bne	a2,a3,8694 <strcmp+0x124>
    8690:	fe0616e3          	bnez	a2,867c <strcmp+0x10c>
    8694:	40d60533          	sub	a0,a2,a3
    8698:	00008067          	ret
    869c:	00450513          	addi	a0,a0,4
    86a0:	00458593          	addi	a1,a1,4
    86a4:	fcd61ce3          	bne	a2,a3,867c <strcmp+0x10c>
    86a8:	00000513          	li	a0,0
    86ac:	00008067          	ret
    86b0:	00850513          	addi	a0,a0,8
    86b4:	00858593          	addi	a1,a1,8
    86b8:	fcd612e3          	bne	a2,a3,867c <strcmp+0x10c>
    86bc:	00000513          	li	a0,0
    86c0:	00008067          	ret
    86c4:	00c50513          	addi	a0,a0,12
    86c8:	00c58593          	addi	a1,a1,12
    86cc:	fad618e3          	bne	a2,a3,867c <strcmp+0x10c>
    86d0:	00000513          	li	a0,0
    86d4:	00008067          	ret
    86d8:	01050513          	addi	a0,a0,16
    86dc:	01058593          	addi	a1,a1,16
    86e0:	f8d61ee3          	bne	a2,a3,867c <strcmp+0x10c>
    86e4:	00000513          	li	a0,0
    86e8:	00008067          	ret

000086ec <__adddf3>:
    86ec:	00100837          	lui	a6,0x100
    86f0:	fff80813          	addi	a6,a6,-1 # fffff <_end+0xe2d9b>
    86f4:	fe010113          	addi	sp,sp,-32
    86f8:	00b878b3          	and	a7,a6,a1
    86fc:	0145d713          	srli	a4,a1,0x14
    8700:	01d55793          	srli	a5,a0,0x1d
    8704:	00d87833          	and	a6,a6,a3
    8708:	00912a23          	sw	s1,20(sp)
    870c:	7ff77493          	andi	s1,a4,2047
    8710:	00389713          	slli	a4,a7,0x3
    8714:	0146d893          	srli	a7,a3,0x14
    8718:	00381813          	slli	a6,a6,0x3
    871c:	01212823          	sw	s2,16(sp)
    8720:	00e7e7b3          	or	a5,a5,a4
    8724:	7ff8f893          	andi	a7,a7,2047
    8728:	01d65713          	srli	a4,a2,0x1d
    872c:	00112e23          	sw	ra,28(sp)
    8730:	00812c23          	sw	s0,24(sp)
    8734:	01312623          	sw	s3,12(sp)
    8738:	01f5d913          	srli	s2,a1,0x1f
    873c:	01f6d693          	srli	a3,a3,0x1f
    8740:	01076733          	or	a4,a4,a6
    8744:	00351513          	slli	a0,a0,0x3
    8748:	00361613          	slli	a2,a2,0x3
    874c:	41148833          	sub	a6,s1,a7
    8750:	2ad91a63          	bne	s2,a3,8a04 <__adddf3+0x318>
    8754:	11005c63          	blez	a6,886c <__adddf3+0x180>
    8758:	04089063          	bnez	a7,8798 <__adddf3+0xac>
    875c:	00c766b3          	or	a3,a4,a2
    8760:	66068063          	beqz	a3,8dc0 <__adddf3+0x6d4>
    8764:	fff80593          	addi	a1,a6,-1
    8768:	02059063          	bnez	a1,8788 <__adddf3+0x9c>
    876c:	00c50633          	add	a2,a0,a2
    8770:	00a636b3          	sltu	a3,a2,a0
    8774:	00e78733          	add	a4,a5,a4
    8778:	00060513          	mv	a0,a2
    877c:	00d707b3          	add	a5,a4,a3
    8780:	00100493          	li	s1,1
    8784:	06c0006f          	j	87f0 <__adddf3+0x104>
    8788:	7ff00693          	li	a3,2047
    878c:	02d81063          	bne	a6,a3,87ac <__adddf3+0xc0>
    8790:	7ff00493          	li	s1,2047
    8794:	1f80006f          	j	898c <__adddf3+0x2a0>
    8798:	7ff00693          	li	a3,2047
    879c:	1ed48863          	beq	s1,a3,898c <__adddf3+0x2a0>
    87a0:	008006b7          	lui	a3,0x800
    87a4:	00d76733          	or	a4,a4,a3
    87a8:	00080593          	mv	a1,a6
    87ac:	03800693          	li	a3,56
    87b0:	0ab6c863          	blt	a3,a1,8860 <__adddf3+0x174>
    87b4:	01f00693          	li	a3,31
    87b8:	06b6ca63          	blt	a3,a1,882c <__adddf3+0x140>
    87bc:	02000813          	li	a6,32
    87c0:	40b80833          	sub	a6,a6,a1
    87c4:	010716b3          	sll	a3,a4,a6
    87c8:	00b658b3          	srl	a7,a2,a1
    87cc:	01061833          	sll	a6,a2,a6
    87d0:	0116e6b3          	or	a3,a3,a7
    87d4:	01003833          	snez	a6,a6
    87d8:	0106e6b3          	or	a3,a3,a6
    87dc:	00b755b3          	srl	a1,a4,a1
    87e0:	00a68533          	add	a0,a3,a0
    87e4:	00f585b3          	add	a1,a1,a5
    87e8:	00d536b3          	sltu	a3,a0,a3
    87ec:	00d587b3          	add	a5,a1,a3
    87f0:	00879713          	slli	a4,a5,0x8
    87f4:	18075c63          	bgez	a4,898c <__adddf3+0x2a0>
    87f8:	00148493          	addi	s1,s1,1
    87fc:	7ff00713          	li	a4,2047
    8800:	5ae48a63          	beq	s1,a4,8db4 <__adddf3+0x6c8>
    8804:	ff800737          	lui	a4,0xff800
    8808:	fff70713          	addi	a4,a4,-1 # ff7fffff <_end+0xff7e2d9b>
    880c:	00e7f733          	and	a4,a5,a4
    8810:	00155793          	srli	a5,a0,0x1
    8814:	00157513          	andi	a0,a0,1
    8818:	00a7e7b3          	or	a5,a5,a0
    881c:	01f71513          	slli	a0,a4,0x1f
    8820:	00f56533          	or	a0,a0,a5
    8824:	00175793          	srli	a5,a4,0x1
    8828:	1640006f          	j	898c <__adddf3+0x2a0>
    882c:	fe058693          	addi	a3,a1,-32
    8830:	02000893          	li	a7,32
    8834:	00d756b3          	srl	a3,a4,a3
    8838:	00000813          	li	a6,0
    883c:	01158863          	beq	a1,a7,884c <__adddf3+0x160>
    8840:	04000813          	li	a6,64
    8844:	40b80833          	sub	a6,a6,a1
    8848:	01071833          	sll	a6,a4,a6
    884c:	00c86833          	or	a6,a6,a2
    8850:	01003833          	snez	a6,a6
    8854:	0106e6b3          	or	a3,a3,a6
    8858:	00000593          	li	a1,0
    885c:	f85ff06f          	j	87e0 <__adddf3+0xf4>
    8860:	00c766b3          	or	a3,a4,a2
    8864:	00d036b3          	snez	a3,a3
    8868:	ff1ff06f          	j	8858 <__adddf3+0x16c>
    886c:	0c080a63          	beqz	a6,8940 <__adddf3+0x254>
    8870:	409886b3          	sub	a3,a7,s1
    8874:	02049463          	bnez	s1,889c <__adddf3+0x1b0>
    8878:	00a7e5b3          	or	a1,a5,a0
    887c:	50058e63          	beqz	a1,8d98 <__adddf3+0x6ac>
    8880:	fff68593          	addi	a1,a3,-1 # 7fffff <_end+0x7e2d9b>
    8884:	ee0584e3          	beqz	a1,876c <__adddf3+0x80>
    8888:	7ff00813          	li	a6,2047
    888c:	03069263          	bne	a3,a6,88b0 <__adddf3+0x1c4>
    8890:	00070793          	mv	a5,a4
    8894:	00060513          	mv	a0,a2
    8898:	ef9ff06f          	j	8790 <__adddf3+0xa4>
    889c:	7ff00593          	li	a1,2047
    88a0:	feb888e3          	beq	a7,a1,8890 <__adddf3+0x1a4>
    88a4:	008005b7          	lui	a1,0x800
    88a8:	00b7e7b3          	or	a5,a5,a1
    88ac:	00068593          	mv	a1,a3
    88b0:	03800693          	li	a3,56
    88b4:	08b6c063          	blt	a3,a1,8934 <__adddf3+0x248>
    88b8:	01f00693          	li	a3,31
    88bc:	04b6c263          	blt	a3,a1,8900 <__adddf3+0x214>
    88c0:	02000813          	li	a6,32
    88c4:	40b80833          	sub	a6,a6,a1
    88c8:	010796b3          	sll	a3,a5,a6
    88cc:	00b55333          	srl	t1,a0,a1
    88d0:	01051833          	sll	a6,a0,a6
    88d4:	0066e6b3          	or	a3,a3,t1
    88d8:	01003833          	snez	a6,a6
    88dc:	0106e6b3          	or	a3,a3,a6
    88e0:	00b7d5b3          	srl	a1,a5,a1
    88e4:	00c68633          	add	a2,a3,a2
    88e8:	00e585b3          	add	a1,a1,a4
    88ec:	00d636b3          	sltu	a3,a2,a3
    88f0:	00060513          	mv	a0,a2
    88f4:	00d587b3          	add	a5,a1,a3
    88f8:	00088493          	mv	s1,a7
    88fc:	ef5ff06f          	j	87f0 <__adddf3+0x104>
    8900:	fe058693          	addi	a3,a1,-32 # 7fffe0 <_end+0x7e2d7c>
    8904:	02000313          	li	t1,32
    8908:	00d7d6b3          	srl	a3,a5,a3
    890c:	00000813          	li	a6,0
    8910:	00658863          	beq	a1,t1,8920 <__adddf3+0x234>
    8914:	04000813          	li	a6,64
    8918:	40b80833          	sub	a6,a6,a1
    891c:	01079833          	sll	a6,a5,a6
    8920:	00a86833          	or	a6,a6,a0
    8924:	01003833          	snez	a6,a6
    8928:	0106e6b3          	or	a3,a3,a6
    892c:	00000593          	li	a1,0
    8930:	fb5ff06f          	j	88e4 <__adddf3+0x1f8>
    8934:	00a7e6b3          	or	a3,a5,a0
    8938:	00d036b3          	snez	a3,a3
    893c:	ff1ff06f          	j	892c <__adddf3+0x240>
    8940:	00148693          	addi	a3,s1,1
    8944:	7fe6f593          	andi	a1,a3,2046
    8948:	08059663          	bnez	a1,89d4 <__adddf3+0x2e8>
    894c:	00a7e6b3          	or	a3,a5,a0
    8950:	06049263          	bnez	s1,89b4 <__adddf3+0x2c8>
    8954:	44068863          	beqz	a3,8da4 <__adddf3+0x6b8>
    8958:	00c766b3          	or	a3,a4,a2
    895c:	02068863          	beqz	a3,898c <__adddf3+0x2a0>
    8960:	00c50633          	add	a2,a0,a2
    8964:	00a636b3          	sltu	a3,a2,a0
    8968:	00e78733          	add	a4,a5,a4
    896c:	00d707b3          	add	a5,a4,a3
    8970:	00879713          	slli	a4,a5,0x8
    8974:	00060513          	mv	a0,a2
    8978:	00075a63          	bgez	a4,898c <__adddf3+0x2a0>
    897c:	ff800737          	lui	a4,0xff800
    8980:	fff70713          	addi	a4,a4,-1 # ff7fffff <_end+0xff7e2d9b>
    8984:	00e7f7b3          	and	a5,a5,a4
    8988:	00100493          	li	s1,1
    898c:	00757713          	andi	a4,a0,7
    8990:	44070863          	beqz	a4,8de0 <__adddf3+0x6f4>
    8994:	00f57713          	andi	a4,a0,15
    8998:	00400693          	li	a3,4
    899c:	44d70263          	beq	a4,a3,8de0 <__adddf3+0x6f4>
    89a0:	00450713          	addi	a4,a0,4
    89a4:	00a736b3          	sltu	a3,a4,a0
    89a8:	00d787b3          	add	a5,a5,a3
    89ac:	00070513          	mv	a0,a4
    89b0:	4300006f          	j	8de0 <__adddf3+0x6f4>
    89b4:	ec068ee3          	beqz	a3,8890 <__adddf3+0x1a4>
    89b8:	00c76633          	or	a2,a4,a2
    89bc:	dc060ae3          	beqz	a2,8790 <__adddf3+0xa4>
    89c0:	00000913          	li	s2,0
    89c4:	004007b7          	lui	a5,0x400
    89c8:	00000513          	li	a0,0
    89cc:	7ff00493          	li	s1,2047
    89d0:	4100006f          	j	8de0 <__adddf3+0x6f4>
    89d4:	7ff00593          	li	a1,2047
    89d8:	3cb68c63          	beq	a3,a1,8db0 <__adddf3+0x6c4>
    89dc:	00c50633          	add	a2,a0,a2
    89e0:	00a63533          	sltu	a0,a2,a0
    89e4:	00e78733          	add	a4,a5,a4
    89e8:	00a70733          	add	a4,a4,a0
    89ec:	01f71513          	slli	a0,a4,0x1f
    89f0:	00165613          	srli	a2,a2,0x1
    89f4:	00c56533          	or	a0,a0,a2
    89f8:	00175793          	srli	a5,a4,0x1
    89fc:	00068493          	mv	s1,a3
    8a00:	f8dff06f          	j	898c <__adddf3+0x2a0>
    8a04:	0f005c63          	blez	a6,8afc <__adddf3+0x410>
    8a08:	08089e63          	bnez	a7,8aa4 <__adddf3+0x3b8>
    8a0c:	00c766b3          	or	a3,a4,a2
    8a10:	3a068863          	beqz	a3,8dc0 <__adddf3+0x6d4>
    8a14:	fff80693          	addi	a3,a6,-1
    8a18:	02069063          	bnez	a3,8a38 <__adddf3+0x34c>
    8a1c:	40c50633          	sub	a2,a0,a2
    8a20:	00c536b3          	sltu	a3,a0,a2
    8a24:	40e78733          	sub	a4,a5,a4
    8a28:	00060513          	mv	a0,a2
    8a2c:	40d707b3          	sub	a5,a4,a3
    8a30:	00100493          	li	s1,1
    8a34:	0540006f          	j	8a88 <__adddf3+0x39c>
    8a38:	7ff00593          	li	a1,2047
    8a3c:	d4b80ae3          	beq	a6,a1,8790 <__adddf3+0xa4>
    8a40:	03800593          	li	a1,56
    8a44:	0ad5c663          	blt	a1,a3,8af0 <__adddf3+0x404>
    8a48:	01f00593          	li	a1,31
    8a4c:	06d5c863          	blt	a1,a3,8abc <__adddf3+0x3d0>
    8a50:	02000813          	li	a6,32
    8a54:	40d80833          	sub	a6,a6,a3
    8a58:	00d658b3          	srl	a7,a2,a3
    8a5c:	010715b3          	sll	a1,a4,a6
    8a60:	01061833          	sll	a6,a2,a6
    8a64:	0115e5b3          	or	a1,a1,a7
    8a68:	01003833          	snez	a6,a6
    8a6c:	0105e633          	or	a2,a1,a6
    8a70:	00d756b3          	srl	a3,a4,a3
    8a74:	40c50633          	sub	a2,a0,a2
    8a78:	00c53733          	sltu	a4,a0,a2
    8a7c:	40d786b3          	sub	a3,a5,a3
    8a80:	00060513          	mv	a0,a2
    8a84:	40e687b3          	sub	a5,a3,a4
    8a88:	00879713          	slli	a4,a5,0x8
    8a8c:	f00750e3          	bgez	a4,898c <__adddf3+0x2a0>
    8a90:	00800437          	lui	s0,0x800
    8a94:	fff40413          	addi	s0,s0,-1 # 7fffff <_end+0x7e2d9b>
    8a98:	0087f433          	and	s0,a5,s0
    8a9c:	00050993          	mv	s3,a0
    8aa0:	2100006f          	j	8cb0 <__adddf3+0x5c4>
    8aa4:	7ff00693          	li	a3,2047
    8aa8:	eed482e3          	beq	s1,a3,898c <__adddf3+0x2a0>
    8aac:	008006b7          	lui	a3,0x800
    8ab0:	00d76733          	or	a4,a4,a3
    8ab4:	00080693          	mv	a3,a6
    8ab8:	f89ff06f          	j	8a40 <__adddf3+0x354>
    8abc:	fe068593          	addi	a1,a3,-32 # 7fffe0 <_end+0x7e2d7c>
    8ac0:	02000893          	li	a7,32
    8ac4:	00b755b3          	srl	a1,a4,a1
    8ac8:	00000813          	li	a6,0
    8acc:	01168863          	beq	a3,a7,8adc <__adddf3+0x3f0>
    8ad0:	04000813          	li	a6,64
    8ad4:	40d80833          	sub	a6,a6,a3
    8ad8:	01071833          	sll	a6,a4,a6
    8adc:	00c86833          	or	a6,a6,a2
    8ae0:	01003833          	snez	a6,a6
    8ae4:	0105e633          	or	a2,a1,a6
    8ae8:	00000693          	li	a3,0
    8aec:	f89ff06f          	j	8a74 <__adddf3+0x388>
    8af0:	00c76633          	or	a2,a4,a2
    8af4:	00c03633          	snez	a2,a2
    8af8:	ff1ff06f          	j	8ae8 <__adddf3+0x3fc>
    8afc:	0e080863          	beqz	a6,8bec <__adddf3+0x500>
    8b00:	40988833          	sub	a6,a7,s1
    8b04:	04049263          	bnez	s1,8b48 <__adddf3+0x45c>
    8b08:	00a7e5b3          	or	a1,a5,a0
    8b0c:	2a058e63          	beqz	a1,8dc8 <__adddf3+0x6dc>
    8b10:	fff80593          	addi	a1,a6,-1
    8b14:	00059e63          	bnez	a1,8b30 <__adddf3+0x444>
    8b18:	40a60533          	sub	a0,a2,a0
    8b1c:	40f70733          	sub	a4,a4,a5
    8b20:	00a63633          	sltu	a2,a2,a0
    8b24:	40c707b3          	sub	a5,a4,a2
    8b28:	00068913          	mv	s2,a3
    8b2c:	f05ff06f          	j	8a30 <__adddf3+0x344>
    8b30:	7ff00313          	li	t1,2047
    8b34:	02681463          	bne	a6,t1,8b5c <__adddf3+0x470>
    8b38:	00070793          	mv	a5,a4
    8b3c:	00060513          	mv	a0,a2
    8b40:	7ff00493          	li	s1,2047
    8b44:	0d00006f          	j	8c14 <__adddf3+0x528>
    8b48:	7ff00593          	li	a1,2047
    8b4c:	feb886e3          	beq	a7,a1,8b38 <__adddf3+0x44c>
    8b50:	008005b7          	lui	a1,0x800
    8b54:	00b7e7b3          	or	a5,a5,a1
    8b58:	00080593          	mv	a1,a6
    8b5c:	03800813          	li	a6,56
    8b60:	08b84063          	blt	a6,a1,8be0 <__adddf3+0x4f4>
    8b64:	01f00813          	li	a6,31
    8b68:	04b84263          	blt	a6,a1,8bac <__adddf3+0x4c0>
    8b6c:	02000313          	li	t1,32
    8b70:	40b30333          	sub	t1,t1,a1
    8b74:	00b55e33          	srl	t3,a0,a1
    8b78:	00679833          	sll	a6,a5,t1
    8b7c:	00651333          	sll	t1,a0,t1
    8b80:	01c86833          	or	a6,a6,t3
    8b84:	00603333          	snez	t1,t1
    8b88:	00686533          	or	a0,a6,t1
    8b8c:	00b7d5b3          	srl	a1,a5,a1
    8b90:	40a60533          	sub	a0,a2,a0
    8b94:	40b705b3          	sub	a1,a4,a1
    8b98:	00a63633          	sltu	a2,a2,a0
    8b9c:	40c587b3          	sub	a5,a1,a2
    8ba0:	00088493          	mv	s1,a7
    8ba4:	00068913          	mv	s2,a3
    8ba8:	ee1ff06f          	j	8a88 <__adddf3+0x39c>
    8bac:	fe058813          	addi	a6,a1,-32 # 7fffe0 <_end+0x7e2d7c>
    8bb0:	02000e13          	li	t3,32
    8bb4:	0107d833          	srl	a6,a5,a6
    8bb8:	00000313          	li	t1,0
    8bbc:	01c58863          	beq	a1,t3,8bcc <__adddf3+0x4e0>
    8bc0:	04000313          	li	t1,64
    8bc4:	40b30333          	sub	t1,t1,a1
    8bc8:	00679333          	sll	t1,a5,t1
    8bcc:	00a36333          	or	t1,t1,a0
    8bd0:	00603333          	snez	t1,t1
    8bd4:	00686533          	or	a0,a6,t1
    8bd8:	00000593          	li	a1,0
    8bdc:	fb5ff06f          	j	8b90 <__adddf3+0x4a4>
    8be0:	00a7e533          	or	a0,a5,a0
    8be4:	00a03533          	snez	a0,a0
    8be8:	ff1ff06f          	j	8bd8 <__adddf3+0x4ec>
    8bec:	00148593          	addi	a1,s1,1
    8bf0:	7fe5f593          	andi	a1,a1,2046
    8bf4:	08059663          	bnez	a1,8c80 <__adddf3+0x594>
    8bf8:	00a7e833          	or	a6,a5,a0
    8bfc:	00c765b3          	or	a1,a4,a2
    8c00:	06049063          	bnez	s1,8c60 <__adddf3+0x574>
    8c04:	00081c63          	bnez	a6,8c1c <__adddf3+0x530>
    8c08:	10058e63          	beqz	a1,8d24 <__adddf3+0x638>
    8c0c:	00070793          	mv	a5,a4
    8c10:	00060513          	mv	a0,a2
    8c14:	00068913          	mv	s2,a3
    8c18:	d75ff06f          	j	898c <__adddf3+0x2a0>
    8c1c:	d60588e3          	beqz	a1,898c <__adddf3+0x2a0>
    8c20:	40c50833          	sub	a6,a0,a2
    8c24:	010538b3          	sltu	a7,a0,a6
    8c28:	40e785b3          	sub	a1,a5,a4
    8c2c:	411585b3          	sub	a1,a1,a7
    8c30:	00859893          	slli	a7,a1,0x8
    8c34:	0008dc63          	bgez	a7,8c4c <__adddf3+0x560>
    8c38:	40a60533          	sub	a0,a2,a0
    8c3c:	40f70733          	sub	a4,a4,a5
    8c40:	00a63633          	sltu	a2,a2,a0
    8c44:	40c707b3          	sub	a5,a4,a2
    8c48:	fcdff06f          	j	8c14 <__adddf3+0x528>
    8c4c:	00b86533          	or	a0,a6,a1
    8c50:	18050463          	beqz	a0,8dd8 <__adddf3+0x6ec>
    8c54:	00058793          	mv	a5,a1
    8c58:	00080513          	mv	a0,a6
    8c5c:	d31ff06f          	j	898c <__adddf3+0x2a0>
    8c60:	00081c63          	bnez	a6,8c78 <__adddf3+0x58c>
    8c64:	d4058ee3          	beqz	a1,89c0 <__adddf3+0x2d4>
    8c68:	00070793          	mv	a5,a4
    8c6c:	00060513          	mv	a0,a2
    8c70:	00068913          	mv	s2,a3
    8c74:	b1dff06f          	j	8790 <__adddf3+0xa4>
    8c78:	b0058ce3          	beqz	a1,8790 <__adddf3+0xa4>
    8c7c:	d45ff06f          	j	89c0 <__adddf3+0x2d4>
    8c80:	40c505b3          	sub	a1,a0,a2
    8c84:	00b53833          	sltu	a6,a0,a1
    8c88:	40e78433          	sub	s0,a5,a4
    8c8c:	41040433          	sub	s0,s0,a6
    8c90:	00841813          	slli	a6,s0,0x8
    8c94:	00058993          	mv	s3,a1
    8c98:	08085063          	bgez	a6,8d18 <__adddf3+0x62c>
    8c9c:	40a609b3          	sub	s3,a2,a0
    8ca0:	40f70433          	sub	s0,a4,a5
    8ca4:	01363633          	sltu	a2,a2,s3
    8ca8:	40c40433          	sub	s0,s0,a2
    8cac:	00068913          	mv	s2,a3
    8cb0:	06040e63          	beqz	s0,8d2c <__adddf3+0x640>
    8cb4:	00040513          	mv	a0,s0
    8cb8:	64c040ef          	jal	d304 <__clzsi2>
    8cbc:	ff850693          	addi	a3,a0,-8
    8cc0:	02000793          	li	a5,32
    8cc4:	40d787b3          	sub	a5,a5,a3
    8cc8:	00d41433          	sll	s0,s0,a3
    8ccc:	00f9d7b3          	srl	a5,s3,a5
    8cd0:	0087e7b3          	or	a5,a5,s0
    8cd4:	00d99433          	sll	s0,s3,a3
    8cd8:	0a96c463          	blt	a3,s1,8d80 <__adddf3+0x694>
    8cdc:	409686b3          	sub	a3,a3,s1
    8ce0:	00168613          	addi	a2,a3,1
    8ce4:	01f00713          	li	a4,31
    8ce8:	06c74263          	blt	a4,a2,8d4c <__adddf3+0x660>
    8cec:	02000713          	li	a4,32
    8cf0:	40c70733          	sub	a4,a4,a2
    8cf4:	00e79533          	sll	a0,a5,a4
    8cf8:	00c456b3          	srl	a3,s0,a2
    8cfc:	00e41733          	sll	a4,s0,a4
    8d00:	00d56533          	or	a0,a0,a3
    8d04:	00e03733          	snez	a4,a4
    8d08:	00e56533          	or	a0,a0,a4
    8d0c:	00c7d7b3          	srl	a5,a5,a2
    8d10:	00000493          	li	s1,0
    8d14:	c79ff06f          	j	898c <__adddf3+0x2a0>
    8d18:	0085e5b3          	or	a1,a1,s0
    8d1c:	f8059ae3          	bnez	a1,8cb0 <__adddf3+0x5c4>
    8d20:	00000493          	li	s1,0
    8d24:	00000913          	li	s2,0
    8d28:	08c0006f          	j	8db4 <__adddf3+0x6c8>
    8d2c:	00098513          	mv	a0,s3
    8d30:	5d4040ef          	jal	d304 <__clzsi2>
    8d34:	01850693          	addi	a3,a0,24
    8d38:	01f00793          	li	a5,31
    8d3c:	f8d7d2e3          	bge	a5,a3,8cc0 <__adddf3+0x5d4>
    8d40:	ff850793          	addi	a5,a0,-8
    8d44:	00f997b3          	sll	a5,s3,a5
    8d48:	f91ff06f          	j	8cd8 <__adddf3+0x5ec>
    8d4c:	fe168693          	addi	a3,a3,-31
    8d50:	00d7d533          	srl	a0,a5,a3
    8d54:	02000693          	li	a3,32
    8d58:	00000713          	li	a4,0
    8d5c:	00d60863          	beq	a2,a3,8d6c <__adddf3+0x680>
    8d60:	04000713          	li	a4,64
    8d64:	40c70733          	sub	a4,a4,a2
    8d68:	00e79733          	sll	a4,a5,a4
    8d6c:	00e46733          	or	a4,s0,a4
    8d70:	00e03733          	snez	a4,a4
    8d74:	00e56533          	or	a0,a0,a4
    8d78:	00000793          	li	a5,0
    8d7c:	f95ff06f          	j	8d10 <__adddf3+0x624>
    8d80:	ff800737          	lui	a4,0xff800
    8d84:	fff70713          	addi	a4,a4,-1 # ff7fffff <_end+0xff7e2d9b>
    8d88:	40d484b3          	sub	s1,s1,a3
    8d8c:	00e7f7b3          	and	a5,a5,a4
    8d90:	00040513          	mv	a0,s0
    8d94:	bf9ff06f          	j	898c <__adddf3+0x2a0>
    8d98:	00070793          	mv	a5,a4
    8d9c:	00060513          	mv	a0,a2
    8da0:	c5dff06f          	j	89fc <__adddf3+0x310>
    8da4:	00070793          	mv	a5,a4
    8da8:	00060513          	mv	a0,a2
    8dac:	be1ff06f          	j	898c <__adddf3+0x2a0>
    8db0:	7ff00493          	li	s1,2047
    8db4:	00000793          	li	a5,0
    8db8:	00000513          	li	a0,0
    8dbc:	0240006f          	j	8de0 <__adddf3+0x6f4>
    8dc0:	00080493          	mv	s1,a6
    8dc4:	bc9ff06f          	j	898c <__adddf3+0x2a0>
    8dc8:	00070793          	mv	a5,a4
    8dcc:	00060513          	mv	a0,a2
    8dd0:	00080493          	mv	s1,a6
    8dd4:	e41ff06f          	j	8c14 <__adddf3+0x528>
    8dd8:	00000793          	li	a5,0
    8ddc:	00000913          	li	s2,0
    8de0:	00879713          	slli	a4,a5,0x8
    8de4:	00075e63          	bgez	a4,8e00 <__adddf3+0x714>
    8de8:	00148493          	addi	s1,s1,1
    8dec:	7ff00713          	li	a4,2047
    8df0:	08e48263          	beq	s1,a4,8e74 <__adddf3+0x788>
    8df4:	ff800737          	lui	a4,0xff800
    8df8:	fff70713          	addi	a4,a4,-1 # ff7fffff <_end+0xff7e2d9b>
    8dfc:	00e7f7b3          	and	a5,a5,a4
    8e00:	01d79693          	slli	a3,a5,0x1d
    8e04:	00355513          	srli	a0,a0,0x3
    8e08:	7ff00713          	li	a4,2047
    8e0c:	00a6e6b3          	or	a3,a3,a0
    8e10:	0037d793          	srli	a5,a5,0x3
    8e14:	00e49e63          	bne	s1,a4,8e30 <__adddf3+0x744>
    8e18:	00f6e6b3          	or	a3,a3,a5
    8e1c:	00000793          	li	a5,0
    8e20:	00068863          	beqz	a3,8e30 <__adddf3+0x744>
    8e24:	000807b7          	lui	a5,0x80
    8e28:	00000693          	li	a3,0
    8e2c:	00000913          	li	s2,0
    8e30:	01449713          	slli	a4,s1,0x14
    8e34:	7ff00637          	lui	a2,0x7ff00
    8e38:	00c79793          	slli	a5,a5,0xc
    8e3c:	00c77733          	and	a4,a4,a2
    8e40:	01c12083          	lw	ra,28(sp)
    8e44:	01812403          	lw	s0,24(sp)
    8e48:	00c7d793          	srli	a5,a5,0xc
    8e4c:	00f767b3          	or	a5,a4,a5
    8e50:	01f91713          	slli	a4,s2,0x1f
    8e54:	00e7e633          	or	a2,a5,a4
    8e58:	01412483          	lw	s1,20(sp)
    8e5c:	01012903          	lw	s2,16(sp)
    8e60:	00c12983          	lw	s3,12(sp)
    8e64:	00068513          	mv	a0,a3
    8e68:	00060593          	mv	a1,a2
    8e6c:	02010113          	addi	sp,sp,32
    8e70:	00008067          	ret
    8e74:	00000793          	li	a5,0
    8e78:	00000513          	li	a0,0
    8e7c:	f85ff06f          	j	8e00 <__adddf3+0x714>

00008e80 <__divdf3>:
    8e80:	fd010113          	addi	sp,sp,-48
    8e84:	0145d813          	srli	a6,a1,0x14
    8e88:	02912223          	sw	s1,36(sp)
    8e8c:	03212023          	sw	s2,32(sp)
    8e90:	01312e23          	sw	s3,28(sp)
    8e94:	01612823          	sw	s6,16(sp)
    8e98:	01712623          	sw	s7,12(sp)
    8e9c:	00c59493          	slli	s1,a1,0xc
    8ea0:	02112623          	sw	ra,44(sp)
    8ea4:	02812423          	sw	s0,40(sp)
    8ea8:	01412c23          	sw	s4,24(sp)
    8eac:	01512a23          	sw	s5,20(sp)
    8eb0:	7ff87813          	andi	a6,a6,2047
    8eb4:	00050b13          	mv	s6,a0
    8eb8:	00060b93          	mv	s7,a2
    8ebc:	00068913          	mv	s2,a3
    8ec0:	00c4d493          	srli	s1,s1,0xc
    8ec4:	01f5d993          	srli	s3,a1,0x1f
    8ec8:	0a080063          	beqz	a6,8f68 <__divdf3+0xe8>
    8ecc:	7ff00793          	li	a5,2047
    8ed0:	10f80063          	beq	a6,a5,8fd0 <__divdf3+0x150>
    8ed4:	01d55a13          	srli	s4,a0,0x1d
    8ed8:	00349493          	slli	s1,s1,0x3
    8edc:	009a6a33          	or	s4,s4,s1
    8ee0:	008007b7          	lui	a5,0x800
    8ee4:	00fa6a33          	or	s4,s4,a5
    8ee8:	00351413          	slli	s0,a0,0x3
    8eec:	c0180a93          	addi	s5,a6,-1023
    8ef0:	00000b13          	li	s6,0
    8ef4:	01495713          	srli	a4,s2,0x14
    8ef8:	00c91493          	slli	s1,s2,0xc
    8efc:	7ff77713          	andi	a4,a4,2047
    8f00:	00c4d493          	srli	s1,s1,0xc
    8f04:	01f95913          	srli	s2,s2,0x1f
    8f08:	10070263          	beqz	a4,900c <__divdf3+0x18c>
    8f0c:	7ff00793          	li	a5,2047
    8f10:	16f70663          	beq	a4,a5,907c <__divdf3+0x1fc>
    8f14:	00349493          	slli	s1,s1,0x3
    8f18:	01dbd793          	srli	a5,s7,0x1d
    8f1c:	0097e7b3          	or	a5,a5,s1
    8f20:	008004b7          	lui	s1,0x800
    8f24:	0097e4b3          	or	s1,a5,s1
    8f28:	003b9f13          	slli	t5,s7,0x3
    8f2c:	c0170713          	addi	a4,a4,-1023
    8f30:	00000793          	li	a5,0
    8f34:	40ea8833          	sub	a6,s5,a4
    8f38:	002b1713          	slli	a4,s6,0x2
    8f3c:	00f76733          	or	a4,a4,a5
    8f40:	fff70713          	addi	a4,a4,-1
    8f44:	00e00693          	li	a3,14
    8f48:	0129c633          	xor	a2,s3,s2
    8f4c:	16e6e463          	bltu	a3,a4,90b4 <__divdf3+0x234>
    8f50:	0001a6b7          	lui	a3,0x1a
    8f54:	00271713          	slli	a4,a4,0x2
    8f58:	df468693          	addi	a3,a3,-524 # 19df4 <_ctype_+0x104>
    8f5c:	00d70733          	add	a4,a4,a3
    8f60:	00072703          	lw	a4,0(a4)
    8f64:	00070067          	jr	a4
    8f68:	00a4ea33          	or	s4,s1,a0
    8f6c:	060a0e63          	beqz	s4,8fe8 <__divdf3+0x168>
    8f70:	02048e63          	beqz	s1,8fac <__divdf3+0x12c>
    8f74:	00048513          	mv	a0,s1
    8f78:	38c040ef          	jal	d304 <__clzsi2>
    8f7c:	ff550793          	addi	a5,a0,-11
    8f80:	01d00a13          	li	s4,29
    8f84:	ff850713          	addi	a4,a0,-8
    8f88:	40fa0a33          	sub	s4,s4,a5
    8f8c:	00e494b3          	sll	s1,s1,a4
    8f90:	014b5a33          	srl	s4,s6,s4
    8f94:	009a6a33          	or	s4,s4,s1
    8f98:	00eb14b3          	sll	s1,s6,a4
    8f9c:	c0d00813          	li	a6,-1011
    8fa0:	40a80ab3          	sub	s5,a6,a0
    8fa4:	00048413          	mv	s0,s1
    8fa8:	f49ff06f          	j	8ef0 <__divdf3+0x70>
    8fac:	358040ef          	jal	d304 <__clzsi2>
    8fb0:	00050a13          	mv	s4,a0
    8fb4:	015a0793          	addi	a5,s4,21
    8fb8:	01c00713          	li	a4,28
    8fbc:	02050513          	addi	a0,a0,32
    8fc0:	fcf750e3          	bge	a4,a5,8f80 <__divdf3+0x100>
    8fc4:	ff8a0a13          	addi	s4,s4,-8
    8fc8:	014b1a33          	sll	s4,s6,s4
    8fcc:	fd1ff06f          	j	8f9c <__divdf3+0x11c>
    8fd0:	00a4ea33          	or	s4,s1,a0
    8fd4:	020a1263          	bnez	s4,8ff8 <__divdf3+0x178>
    8fd8:	00000413          	li	s0,0
    8fdc:	7ff00a93          	li	s5,2047
    8fe0:	00200b13          	li	s6,2
    8fe4:	f11ff06f          	j	8ef4 <__divdf3+0x74>
    8fe8:	00000413          	li	s0,0
    8fec:	00000a93          	li	s5,0
    8ff0:	00100b13          	li	s6,1
    8ff4:	f01ff06f          	j	8ef4 <__divdf3+0x74>
    8ff8:	00050413          	mv	s0,a0
    8ffc:	00048a13          	mv	s4,s1
    9000:	7ff00a93          	li	s5,2047
    9004:	00300b13          	li	s6,3
    9008:	eedff06f          	j	8ef4 <__divdf3+0x74>
    900c:	0174ef33          	or	t5,s1,s7
    9010:	080f0263          	beqz	t5,9094 <__divdf3+0x214>
    9014:	04048063          	beqz	s1,9054 <__divdf3+0x1d4>
    9018:	00048513          	mv	a0,s1
    901c:	2e8040ef          	jal	d304 <__clzsi2>
    9020:	ff550713          	addi	a4,a0,-11
    9024:	01d00793          	li	a5,29
    9028:	ff850693          	addi	a3,a0,-8
    902c:	40e787b3          	sub	a5,a5,a4
    9030:	00d494b3          	sll	s1,s1,a3
    9034:	00fbd7b3          	srl	a5,s7,a5
    9038:	0097e7b3          	or	a5,a5,s1
    903c:	00db94b3          	sll	s1,s7,a3
    9040:	c0d00713          	li	a4,-1011
    9044:	00048f13          	mv	t5,s1
    9048:	40a70733          	sub	a4,a4,a0
    904c:	00078493          	mv	s1,a5
    9050:	ee1ff06f          	j	8f30 <__divdf3+0xb0>
    9054:	000b8513          	mv	a0,s7
    9058:	2ac040ef          	jal	d304 <__clzsi2>
    905c:	00050793          	mv	a5,a0
    9060:	01578713          	addi	a4,a5,21 # 800015 <_end+0x7e2db1>
    9064:	01c00693          	li	a3,28
    9068:	02050513          	addi	a0,a0,32
    906c:	fae6dce3          	bge	a3,a4,9024 <__divdf3+0x1a4>
    9070:	ff878793          	addi	a5,a5,-8
    9074:	00fb97b3          	sll	a5,s7,a5
    9078:	fc9ff06f          	j	9040 <__divdf3+0x1c0>
    907c:	0174ef33          	or	t5,s1,s7
    9080:	020f1263          	bnez	t5,90a4 <__divdf3+0x224>
    9084:	00000493          	li	s1,0
    9088:	7ff00713          	li	a4,2047
    908c:	00200793          	li	a5,2
    9090:	ea5ff06f          	j	8f34 <__divdf3+0xb4>
    9094:	00000493          	li	s1,0
    9098:	00000713          	li	a4,0
    909c:	00100793          	li	a5,1
    90a0:	e95ff06f          	j	8f34 <__divdf3+0xb4>
    90a4:	000b8f13          	mv	t5,s7
    90a8:	7ff00713          	li	a4,2047
    90ac:	00300793          	li	a5,3
    90b0:	e85ff06f          	j	8f34 <__divdf3+0xb4>
    90b4:	0144e663          	bltu	s1,s4,90c0 <__divdf3+0x240>
    90b8:	349a1c63          	bne	s4,s1,9410 <__divdf3+0x590>
    90bc:	35e46a63          	bltu	s0,t5,9410 <__divdf3+0x590>
    90c0:	01fa1693          	slli	a3,s4,0x1f
    90c4:	00145793          	srli	a5,s0,0x1
    90c8:	01f41713          	slli	a4,s0,0x1f
    90cc:	001a5a13          	srli	s4,s4,0x1
    90d0:	00f6e433          	or	s0,a3,a5
    90d4:	00849893          	slli	a7,s1,0x8
    90d8:	018f5593          	srli	a1,t5,0x18
    90dc:	0115e5b3          	or	a1,a1,a7
    90e0:	0108d893          	srli	a7,a7,0x10
    90e4:	031a5eb3          	divu	t4,s4,a7
    90e8:	01059313          	slli	t1,a1,0x10
    90ec:	01035313          	srli	t1,t1,0x10
    90f0:	01045793          	srli	a5,s0,0x10
    90f4:	008f1513          	slli	a0,t5,0x8
    90f8:	031a7a33          	remu	s4,s4,a7
    90fc:	000e8693          	mv	a3,t4
    9100:	03d30e33          	mul	t3,t1,t4
    9104:	010a1a13          	slli	s4,s4,0x10
    9108:	0147e7b3          	or	a5,a5,s4
    910c:	01c7fe63          	bgeu	a5,t3,9128 <__divdf3+0x2a8>
    9110:	00f587b3          	add	a5,a1,a5
    9114:	fffe8693          	addi	a3,t4,-1
    9118:	00b7e863          	bltu	a5,a1,9128 <__divdf3+0x2a8>
    911c:	01c7f663          	bgeu	a5,t3,9128 <__divdf3+0x2a8>
    9120:	ffee8693          	addi	a3,t4,-2
    9124:	00b787b3          	add	a5,a5,a1
    9128:	41c787b3          	sub	a5,a5,t3
    912c:	0317df33          	divu	t5,a5,a7
    9130:	01041413          	slli	s0,s0,0x10
    9134:	01045413          	srli	s0,s0,0x10
    9138:	0317f7b3          	remu	a5,a5,a7
    913c:	000f0e13          	mv	t3,t5
    9140:	03e30eb3          	mul	t4,t1,t5
    9144:	01079793          	slli	a5,a5,0x10
    9148:	00f467b3          	or	a5,s0,a5
    914c:	01d7fe63          	bgeu	a5,t4,9168 <__divdf3+0x2e8>
    9150:	00f587b3          	add	a5,a1,a5
    9154:	ffff0e13          	addi	t3,t5,-1
    9158:	00b7e863          	bltu	a5,a1,9168 <__divdf3+0x2e8>
    915c:	01d7f663          	bgeu	a5,t4,9168 <__divdf3+0x2e8>
    9160:	ffef0e13          	addi	t3,t5,-2
    9164:	00b787b3          	add	a5,a5,a1
    9168:	01069693          	slli	a3,a3,0x10
    916c:	00010437          	lui	s0,0x10
    9170:	01c6e2b3          	or	t0,a3,t3
    9174:	fff40e13          	addi	t3,s0,-1 # ffff <_vfprintf_r+0xc13>
    9178:	01c2f6b3          	and	a3,t0,t3
    917c:	0102df93          	srli	t6,t0,0x10
    9180:	01c57e33          	and	t3,a0,t3
    9184:	41d787b3          	sub	a5,a5,t4
    9188:	01055e93          	srli	t4,a0,0x10
    918c:	02de03b3          	mul	t2,t3,a3
    9190:	03cf84b3          	mul	s1,t6,t3
    9194:	02de86b3          	mul	a3,t4,a3
    9198:	00968f33          	add	t5,a3,s1
    919c:	0103d693          	srli	a3,t2,0x10
    91a0:	01e686b3          	add	a3,a3,t5
    91a4:	03df8fb3          	mul	t6,t6,t4
    91a8:	0096f463          	bgeu	a3,s1,91b0 <__divdf3+0x330>
    91ac:	008f8fb3          	add	t6,t6,s0
    91b0:	0106df13          	srli	t5,a3,0x10
    91b4:	01ff0f33          	add	t5,t5,t6
    91b8:	00010fb7          	lui	t6,0x10
    91bc:	ffff8f93          	addi	t6,t6,-1 # ffff <_vfprintf_r+0xc13>
    91c0:	01f6f6b3          	and	a3,a3,t6
    91c4:	01069693          	slli	a3,a3,0x10
    91c8:	01f3f3b3          	and	t2,t2,t6
    91cc:	007686b3          	add	a3,a3,t2
    91d0:	01e7e863          	bltu	a5,t5,91e0 <__divdf3+0x360>
    91d4:	00028493          	mv	s1,t0
    91d8:	05e79863          	bne	a5,t5,9228 <__divdf3+0x3a8>
    91dc:	04d77663          	bgeu	a4,a3,9228 <__divdf3+0x3a8>
    91e0:	00a70fb3          	add	t6,a4,a0
    91e4:	00efb3b3          	sltu	t2,t6,a4
    91e8:	00b38433          	add	s0,t2,a1
    91ec:	008787b3          	add	a5,a5,s0
    91f0:	fff28493          	addi	s1,t0,-1 # 8547 <memset+0xb3>
    91f4:	000f8713          	mv	a4,t6
    91f8:	00f5e663          	bltu	a1,a5,9204 <__divdf3+0x384>
    91fc:	02f59663          	bne	a1,a5,9228 <__divdf3+0x3a8>
    9200:	02039463          	bnez	t2,9228 <__divdf3+0x3a8>
    9204:	01e7e663          	bltu	a5,t5,9210 <__divdf3+0x390>
    9208:	02ff1063          	bne	t5,a5,9228 <__divdf3+0x3a8>
    920c:	00dffe63          	bgeu	t6,a3,9228 <__divdf3+0x3a8>
    9210:	01f50fb3          	add	t6,a0,t6
    9214:	000f8713          	mv	a4,t6
    9218:	00afbfb3          	sltu	t6,t6,a0
    921c:	00bf8fb3          	add	t6,t6,a1
    9220:	ffe28493          	addi	s1,t0,-2
    9224:	01f787b3          	add	a5,a5,t6
    9228:	40d706b3          	sub	a3,a4,a3
    922c:	41e787b3          	sub	a5,a5,t5
    9230:	00d73733          	sltu	a4,a4,a3
    9234:	40e787b3          	sub	a5,a5,a4
    9238:	fff00f13          	li	t5,-1
    923c:	12f58663          	beq	a1,a5,9368 <__divdf3+0x4e8>
    9240:	0317dfb3          	divu	t6,a5,a7
    9244:	0106d713          	srli	a4,a3,0x10
    9248:	0317f7b3          	remu	a5,a5,a7
    924c:	03f30f33          	mul	t5,t1,t6
    9250:	01079793          	slli	a5,a5,0x10
    9254:	00f767b3          	or	a5,a4,a5
    9258:	000f8713          	mv	a4,t6
    925c:	01e7fe63          	bgeu	a5,t5,9278 <__divdf3+0x3f8>
    9260:	00f587b3          	add	a5,a1,a5
    9264:	ffff8713          	addi	a4,t6,-1
    9268:	00b7e863          	bltu	a5,a1,9278 <__divdf3+0x3f8>
    926c:	01e7f663          	bgeu	a5,t5,9278 <__divdf3+0x3f8>
    9270:	ffef8713          	addi	a4,t6,-2
    9274:	00b787b3          	add	a5,a5,a1
    9278:	41e787b3          	sub	a5,a5,t5
    927c:	0317df33          	divu	t5,a5,a7
    9280:	01069693          	slli	a3,a3,0x10
    9284:	0106d693          	srli	a3,a3,0x10
    9288:	0317f7b3          	remu	a5,a5,a7
    928c:	000f0893          	mv	a7,t5
    9290:	03e30333          	mul	t1,t1,t5
    9294:	01079793          	slli	a5,a5,0x10
    9298:	00f6e7b3          	or	a5,a3,a5
    929c:	0067fe63          	bgeu	a5,t1,92b8 <__divdf3+0x438>
    92a0:	00f587b3          	add	a5,a1,a5
    92a4:	ffff0893          	addi	a7,t5,-1
    92a8:	00b7e863          	bltu	a5,a1,92b8 <__divdf3+0x438>
    92ac:	0067f663          	bgeu	a5,t1,92b8 <__divdf3+0x438>
    92b0:	ffef0893          	addi	a7,t5,-2
    92b4:	00b787b3          	add	a5,a5,a1
    92b8:	01071693          	slli	a3,a4,0x10
    92bc:	0116e6b3          	or	a3,a3,a7
    92c0:	01069713          	slli	a4,a3,0x10
    92c4:	01075713          	srli	a4,a4,0x10
    92c8:	406787b3          	sub	a5,a5,t1
    92cc:	0106d313          	srli	t1,a3,0x10
    92d0:	03c70f33          	mul	t5,a4,t3
    92d4:	03c30e33          	mul	t3,t1,t3
    92d8:	026e8333          	mul	t1,t4,t1
    92dc:	02ee8eb3          	mul	t4,t4,a4
    92e0:	010f5713          	srli	a4,t5,0x10
    92e4:	01ce8eb3          	add	t4,t4,t3
    92e8:	01d70733          	add	a4,a4,t4
    92ec:	01c77663          	bgeu	a4,t3,92f8 <__divdf3+0x478>
    92f0:	000108b7          	lui	a7,0x10
    92f4:	01130333          	add	t1,t1,a7
    92f8:	01075893          	srli	a7,a4,0x10
    92fc:	006888b3          	add	a7,a7,t1
    9300:	00010337          	lui	t1,0x10
    9304:	fff30313          	addi	t1,t1,-1 # ffff <_vfprintf_r+0xc13>
    9308:	00677733          	and	a4,a4,t1
    930c:	01071713          	slli	a4,a4,0x10
    9310:	006f7f33          	and	t5,t5,t1
    9314:	01e70733          	add	a4,a4,t5
    9318:	0117e863          	bltu	a5,a7,9328 <__divdf3+0x4a8>
    931c:	23179c63          	bne	a5,a7,9554 <__divdf3+0x6d4>
    9320:	00068f13          	mv	t5,a3
    9324:	04070263          	beqz	a4,9368 <__divdf3+0x4e8>
    9328:	00f587b3          	add	a5,a1,a5
    932c:	fff68f13          	addi	t5,a3,-1
    9330:	00078313          	mv	t1,a5
    9334:	02b7e463          	bltu	a5,a1,935c <__divdf3+0x4dc>
    9338:	0117e663          	bltu	a5,a7,9344 <__divdf3+0x4c4>
    933c:	21179a63          	bne	a5,a7,9550 <__divdf3+0x6d0>
    9340:	02e57063          	bgeu	a0,a4,9360 <__divdf3+0x4e0>
    9344:	ffe68f13          	addi	t5,a3,-2
    9348:	00151693          	slli	a3,a0,0x1
    934c:	00a6b333          	sltu	t1,a3,a0
    9350:	00b30333          	add	t1,t1,a1
    9354:	00678333          	add	t1,a5,t1
    9358:	00068513          	mv	a0,a3
    935c:	01131463          	bne	t1,a7,9364 <__divdf3+0x4e4>
    9360:	00a70463          	beq	a4,a0,9368 <__divdf3+0x4e8>
    9364:	001f6f13          	ori	t5,t5,1
    9368:	3ff80713          	addi	a4,a6,1023
    936c:	10e05263          	blez	a4,9470 <__divdf3+0x5f0>
    9370:	007f7793          	andi	a5,t5,7
    9374:	02078063          	beqz	a5,9394 <__divdf3+0x514>
    9378:	00ff7793          	andi	a5,t5,15
    937c:	00400693          	li	a3,4
    9380:	00d78a63          	beq	a5,a3,9394 <__divdf3+0x514>
    9384:	004f0793          	addi	a5,t5,4
    9388:	01e7b6b3          	sltu	a3,a5,t5
    938c:	00d484b3          	add	s1,s1,a3
    9390:	00078f13          	mv	t5,a5
    9394:	00749793          	slli	a5,s1,0x7
    9398:	0007da63          	bgez	a5,93ac <__divdf3+0x52c>
    939c:	ff0007b7          	lui	a5,0xff000
    93a0:	fff78793          	addi	a5,a5,-1 # feffffff <_end+0xfefe2d9b>
    93a4:	00f4f4b3          	and	s1,s1,a5
    93a8:	40080713          	addi	a4,a6,1024
    93ac:	7fe00793          	li	a5,2046
    93b0:	08e7ca63          	blt	a5,a4,9444 <__divdf3+0x5c4>
    93b4:	003f5f13          	srli	t5,t5,0x3
    93b8:	01d49793          	slli	a5,s1,0x1d
    93bc:	01e7ef33          	or	t5,a5,t5
    93c0:	0034d513          	srli	a0,s1,0x3
    93c4:	00c51513          	slli	a0,a0,0xc
    93c8:	02c12083          	lw	ra,44(sp)
    93cc:	02812403          	lw	s0,40(sp)
    93d0:	00c55513          	srli	a0,a0,0xc
    93d4:	01471713          	slli	a4,a4,0x14
    93d8:	00a76733          	or	a4,a4,a0
    93dc:	01f61613          	slli	a2,a2,0x1f
    93e0:	00c767b3          	or	a5,a4,a2
    93e4:	02412483          	lw	s1,36(sp)
    93e8:	02012903          	lw	s2,32(sp)
    93ec:	01c12983          	lw	s3,28(sp)
    93f0:	01812a03          	lw	s4,24(sp)
    93f4:	01412a83          	lw	s5,20(sp)
    93f8:	01012b03          	lw	s6,16(sp)
    93fc:	00c12b83          	lw	s7,12(sp)
    9400:	000f0513          	mv	a0,t5
    9404:	00078593          	mv	a1,a5
    9408:	03010113          	addi	sp,sp,48
    940c:	00008067          	ret
    9410:	fff80813          	addi	a6,a6,-1
    9414:	00000713          	li	a4,0
    9418:	cbdff06f          	j	90d4 <__divdf3+0x254>
    941c:	00098613          	mv	a2,s3
    9420:	000a0493          	mv	s1,s4
    9424:	00040f13          	mv	t5,s0
    9428:	000b0793          	mv	a5,s6
    942c:	00300713          	li	a4,3
    9430:	0ee78863          	beq	a5,a4,9520 <__divdf3+0x6a0>
    9434:	00100713          	li	a4,1
    9438:	0ee78e63          	beq	a5,a4,9534 <__divdf3+0x6b4>
    943c:	00200713          	li	a4,2
    9440:	f2e794e3          	bne	a5,a4,9368 <__divdf3+0x4e8>
    9444:	00000513          	li	a0,0
    9448:	00000f13          	li	t5,0
    944c:	7ff00713          	li	a4,2047
    9450:	f75ff06f          	j	93c4 <__divdf3+0x544>
    9454:	00090613          	mv	a2,s2
    9458:	fd5ff06f          	j	942c <__divdf3+0x5ac>
    945c:	000804b7          	lui	s1,0x80
    9460:	00000f13          	li	t5,0
    9464:	00000613          	li	a2,0
    9468:	00300793          	li	a5,3
    946c:	fc1ff06f          	j	942c <__divdf3+0x5ac>
    9470:	00100513          	li	a0,1
    9474:	40e50533          	sub	a0,a0,a4
    9478:	03800793          	li	a5,56
    947c:	0aa7cc63          	blt	a5,a0,9534 <__divdf3+0x6b4>
    9480:	01f00793          	li	a5,31
    9484:	06a7c463          	blt	a5,a0,94ec <__divdf3+0x66c>
    9488:	41e80813          	addi	a6,a6,1054
    948c:	010497b3          	sll	a5,s1,a6
    9490:	00af5733          	srl	a4,t5,a0
    9494:	010f1833          	sll	a6,t5,a6
    9498:	00e7e7b3          	or	a5,a5,a4
    949c:	01003833          	snez	a6,a6
    94a0:	0107e7b3          	or	a5,a5,a6
    94a4:	00a4d533          	srl	a0,s1,a0
    94a8:	0077f713          	andi	a4,a5,7
    94ac:	02070063          	beqz	a4,94cc <__divdf3+0x64c>
    94b0:	00f7f713          	andi	a4,a5,15
    94b4:	00400693          	li	a3,4
    94b8:	00d70a63          	beq	a4,a3,94cc <__divdf3+0x64c>
    94bc:	00478713          	addi	a4,a5,4
    94c0:	00f736b3          	sltu	a3,a4,a5
    94c4:	00d50533          	add	a0,a0,a3
    94c8:	00070793          	mv	a5,a4
    94cc:	00851713          	slli	a4,a0,0x8
    94d0:	06074863          	bltz	a4,9540 <__divdf3+0x6c0>
    94d4:	01d51f13          	slli	t5,a0,0x1d
    94d8:	0037d793          	srli	a5,a5,0x3
    94dc:	00ff6f33          	or	t5,t5,a5
    94e0:	00355513          	srli	a0,a0,0x3
    94e4:	00000713          	li	a4,0
    94e8:	eddff06f          	j	93c4 <__divdf3+0x544>
    94ec:	fe100793          	li	a5,-31
    94f0:	40e787b3          	sub	a5,a5,a4
    94f4:	02000693          	li	a3,32
    94f8:	00f4d7b3          	srl	a5,s1,a5
    94fc:	00000713          	li	a4,0
    9500:	00d50663          	beq	a0,a3,950c <__divdf3+0x68c>
    9504:	43e80713          	addi	a4,a6,1086
    9508:	00e49733          	sll	a4,s1,a4
    950c:	01e76733          	or	a4,a4,t5
    9510:	00e03733          	snez	a4,a4
    9514:	00e7e7b3          	or	a5,a5,a4
    9518:	00000513          	li	a0,0
    951c:	f8dff06f          	j	94a8 <__divdf3+0x628>
    9520:	00080537          	lui	a0,0x80
    9524:	00000f13          	li	t5,0
    9528:	7ff00713          	li	a4,2047
    952c:	00000613          	li	a2,0
    9530:	e95ff06f          	j	93c4 <__divdf3+0x544>
    9534:	00000513          	li	a0,0
    9538:	00000f13          	li	t5,0
    953c:	fa9ff06f          	j	94e4 <__divdf3+0x664>
    9540:	00000513          	li	a0,0
    9544:	00000f13          	li	t5,0
    9548:	00100713          	li	a4,1
    954c:	e79ff06f          	j	93c4 <__divdf3+0x544>
    9550:	000f0693          	mv	a3,t5
    9554:	00068f13          	mv	t5,a3
    9558:	e0dff06f          	j	9364 <__divdf3+0x4e4>

0000955c <__eqdf2>:
    955c:	0145d713          	srli	a4,a1,0x14
    9560:	001007b7          	lui	a5,0x100
    9564:	fff78793          	addi	a5,a5,-1 # fffff <_end+0xe2d9b>
    9568:	0146d813          	srli	a6,a3,0x14
    956c:	00050313          	mv	t1,a0
    9570:	00050e93          	mv	t4,a0
    9574:	7ff77713          	andi	a4,a4,2047
    9578:	7ff00513          	li	a0,2047
    957c:	00b7f8b3          	and	a7,a5,a1
    9580:	00060f13          	mv	t5,a2
    9584:	00d7f7b3          	and	a5,a5,a3
    9588:	01f5d593          	srli	a1,a1,0x1f
    958c:	7ff87813          	andi	a6,a6,2047
    9590:	01f6d693          	srli	a3,a3,0x1f
    9594:	00a71c63          	bne	a4,a0,95ac <__eqdf2+0x50>
    9598:	0068ee33          	or	t3,a7,t1
    959c:	00100513          	li	a0,1
    95a0:	000e1463          	bnez	t3,95a8 <__eqdf2+0x4c>
    95a4:	00e80663          	beq	a6,a4,95b0 <__eqdf2+0x54>
    95a8:	00008067          	ret
    95ac:	00a81863          	bne	a6,a0,95bc <__eqdf2+0x60>
    95b0:	00c7e633          	or	a2,a5,a2
    95b4:	00100513          	li	a0,1
    95b8:	fe0618e3          	bnez	a2,95a8 <__eqdf2+0x4c>
    95bc:	00100513          	li	a0,1
    95c0:	ff0714e3          	bne	a4,a6,95a8 <__eqdf2+0x4c>
    95c4:	fef892e3          	bne	a7,a5,95a8 <__eqdf2+0x4c>
    95c8:	ffee90e3          	bne	t4,t5,95a8 <__eqdf2+0x4c>
    95cc:	00d58a63          	beq	a1,a3,95e0 <__eqdf2+0x84>
    95d0:	fc071ce3          	bnez	a4,95a8 <__eqdf2+0x4c>
    95d4:	0068e8b3          	or	a7,a7,t1
    95d8:	01103533          	snez	a0,a7
    95dc:	00008067          	ret
    95e0:	00000513          	li	a0,0
    95e4:	00008067          	ret

000095e8 <__gedf2>:
    95e8:	0146d793          	srli	a5,a3,0x14
    95ec:	0145d893          	srli	a7,a1,0x14
    95f0:	00100737          	lui	a4,0x100
    95f4:	fff70713          	addi	a4,a4,-1 # fffff <_end+0xe2d9b>
    95f8:	00050813          	mv	a6,a0
    95fc:	00050e13          	mv	t3,a0
    9600:	7ff8f893          	andi	a7,a7,2047
    9604:	7ff7f513          	andi	a0,a5,2047
    9608:	7ff00793          	li	a5,2047
    960c:	00b77333          	and	t1,a4,a1
    9610:	00060e93          	mv	t4,a2
    9614:	00d77733          	and	a4,a4,a3
    9618:	01f5d593          	srli	a1,a1,0x1f
    961c:	01f6d693          	srli	a3,a3,0x1f
    9620:	00f89663          	bne	a7,a5,962c <__gedf2+0x44>
    9624:	010367b3          	or	a5,t1,a6
    9628:	06079c63          	bnez	a5,96a0 <__gedf2+0xb8>
    962c:	7ff00793          	li	a5,2047
    9630:	00f51663          	bne	a0,a5,963c <__gedf2+0x54>
    9634:	00c767b3          	or	a5,a4,a2
    9638:	06079463          	bnez	a5,96a0 <__gedf2+0xb8>
    963c:	00000793          	li	a5,0
    9640:	00089663          	bnez	a7,964c <__gedf2+0x64>
    9644:	01036833          	or	a6,t1,a6
    9648:	00183793          	seqz	a5,a6
    964c:	04051e63          	bnez	a0,96a8 <__gedf2+0xc0>
    9650:	00c76633          	or	a2,a4,a2
    9654:	00078c63          	beqz	a5,966c <__gedf2+0x84>
    9658:	02060063          	beqz	a2,9678 <__gedf2+0x90>
    965c:	00100513          	li	a0,1
    9660:	00069c63          	bnez	a3,9678 <__gedf2+0x90>
    9664:	fff00513          	li	a0,-1
    9668:	00008067          	ret
    966c:	04061063          	bnez	a2,96ac <__gedf2+0xc4>
    9670:	fff00513          	li	a0,-1
    9674:	04058463          	beqz	a1,96bc <__gedf2+0xd4>
    9678:	00008067          	ret
    967c:	fea8c0e3          	blt	a7,a0,965c <__gedf2+0x74>
    9680:	fe6768e3          	bltu	a4,t1,9670 <__gedf2+0x88>
    9684:	00e31863          	bne	t1,a4,9694 <__gedf2+0xac>
    9688:	ffcee4e3          	bltu	t4,t3,9670 <__gedf2+0x88>
    968c:	00000513          	li	a0,0
    9690:	ffde74e3          	bgeu	t3,t4,9678 <__gedf2+0x90>
    9694:	00100513          	li	a0,1
    9698:	fe0590e3          	bnez	a1,9678 <__gedf2+0x90>
    969c:	fc9ff06f          	j	9664 <__gedf2+0x7c>
    96a0:	ffe00513          	li	a0,-2
    96a4:	00008067          	ret
    96a8:	fa079ae3          	bnez	a5,965c <__gedf2+0x74>
    96ac:	fcb692e3          	bne	a3,a1,9670 <__gedf2+0x88>
    96b0:	fd1556e3          	bge	a0,a7,967c <__gedf2+0x94>
    96b4:	fff00513          	li	a0,-1
    96b8:	fc0690e3          	bnez	a3,9678 <__gedf2+0x90>
    96bc:	00100513          	li	a0,1
    96c0:	00008067          	ret

000096c4 <__ledf2>:
    96c4:	0146d793          	srli	a5,a3,0x14
    96c8:	0145d893          	srli	a7,a1,0x14
    96cc:	00100737          	lui	a4,0x100
    96d0:	fff70713          	addi	a4,a4,-1 # fffff <_end+0xe2d9b>
    96d4:	00050813          	mv	a6,a0
    96d8:	00050e13          	mv	t3,a0
    96dc:	7ff8f893          	andi	a7,a7,2047
    96e0:	7ff7f513          	andi	a0,a5,2047
    96e4:	7ff00793          	li	a5,2047
    96e8:	00b77333          	and	t1,a4,a1
    96ec:	00060e93          	mv	t4,a2
    96f0:	00d77733          	and	a4,a4,a3
    96f4:	01f5d593          	srli	a1,a1,0x1f
    96f8:	01f6d693          	srli	a3,a3,0x1f
    96fc:	00f89663          	bne	a7,a5,9708 <__ledf2+0x44>
    9700:	010367b3          	or	a5,t1,a6
    9704:	06079c63          	bnez	a5,977c <__ledf2+0xb8>
    9708:	7ff00793          	li	a5,2047
    970c:	00f51663          	bne	a0,a5,9718 <__ledf2+0x54>
    9710:	00c767b3          	or	a5,a4,a2
    9714:	06079463          	bnez	a5,977c <__ledf2+0xb8>
    9718:	00000793          	li	a5,0
    971c:	00089663          	bnez	a7,9728 <__ledf2+0x64>
    9720:	01036833          	or	a6,t1,a6
    9724:	00183793          	seqz	a5,a6
    9728:	04051e63          	bnez	a0,9784 <__ledf2+0xc0>
    972c:	00c76633          	or	a2,a4,a2
    9730:	00078c63          	beqz	a5,9748 <__ledf2+0x84>
    9734:	02060063          	beqz	a2,9754 <__ledf2+0x90>
    9738:	00100513          	li	a0,1
    973c:	00069c63          	bnez	a3,9754 <__ledf2+0x90>
    9740:	fff00513          	li	a0,-1
    9744:	00008067          	ret
    9748:	04061063          	bnez	a2,9788 <__ledf2+0xc4>
    974c:	fff00513          	li	a0,-1
    9750:	04058463          	beqz	a1,9798 <__ledf2+0xd4>
    9754:	00008067          	ret
    9758:	fea8c0e3          	blt	a7,a0,9738 <__ledf2+0x74>
    975c:	fe6768e3          	bltu	a4,t1,974c <__ledf2+0x88>
    9760:	00e31863          	bne	t1,a4,9770 <__ledf2+0xac>
    9764:	ffcee4e3          	bltu	t4,t3,974c <__ledf2+0x88>
    9768:	00000513          	li	a0,0
    976c:	ffde74e3          	bgeu	t3,t4,9754 <__ledf2+0x90>
    9770:	00100513          	li	a0,1
    9774:	fe0590e3          	bnez	a1,9754 <__ledf2+0x90>
    9778:	fc9ff06f          	j	9740 <__ledf2+0x7c>
    977c:	00200513          	li	a0,2
    9780:	00008067          	ret
    9784:	fa079ae3          	bnez	a5,9738 <__ledf2+0x74>
    9788:	fcb692e3          	bne	a3,a1,974c <__ledf2+0x88>
    978c:	fd1556e3          	bge	a0,a7,9758 <__ledf2+0x94>
    9790:	fff00513          	li	a0,-1
    9794:	fc0690e3          	bnez	a3,9754 <__ledf2+0x90>
    9798:	00100513          	li	a0,1
    979c:	00008067          	ret

000097a0 <__muldf3>:
    97a0:	fd010113          	addi	sp,sp,-48
    97a4:	01512a23          	sw	s5,20(sp)
    97a8:	0145da93          	srli	s5,a1,0x14
    97ac:	02812423          	sw	s0,40(sp)
    97b0:	02912223          	sw	s1,36(sp)
    97b4:	01312e23          	sw	s3,28(sp)
    97b8:	01412c23          	sw	s4,24(sp)
    97bc:	01612823          	sw	s6,16(sp)
    97c0:	00c59493          	slli	s1,a1,0xc
    97c4:	02112623          	sw	ra,44(sp)
    97c8:	03212023          	sw	s2,32(sp)
    97cc:	01712623          	sw	s7,12(sp)
    97d0:	7ffafa93          	andi	s5,s5,2047
    97d4:	00050413          	mv	s0,a0
    97d8:	00060b13          	mv	s6,a2
    97dc:	00068993          	mv	s3,a3
    97e0:	00c4d493          	srli	s1,s1,0xc
    97e4:	01f5da13          	srli	s4,a1,0x1f
    97e8:	240a8e63          	beqz	s5,9a44 <__muldf3+0x2a4>
    97ec:	7ff00793          	li	a5,2047
    97f0:	2cfa8063          	beq	s5,a5,9ab0 <__muldf3+0x310>
    97f4:	00349493          	slli	s1,s1,0x3
    97f8:	01d55793          	srli	a5,a0,0x1d
    97fc:	0097e7b3          	or	a5,a5,s1
    9800:	008004b7          	lui	s1,0x800
    9804:	0097e4b3          	or	s1,a5,s1
    9808:	00351913          	slli	s2,a0,0x3
    980c:	c01a8a93          	addi	s5,s5,-1023
    9810:	00000b93          	li	s7,0
    9814:	0149d713          	srli	a4,s3,0x14
    9818:	00c99413          	slli	s0,s3,0xc
    981c:	7ff77713          	andi	a4,a4,2047
    9820:	00c45413          	srli	s0,s0,0xc
    9824:	01f9d993          	srli	s3,s3,0x1f
    9828:	2c070063          	beqz	a4,9ae8 <__muldf3+0x348>
    982c:	7ff00793          	li	a5,2047
    9830:	32f70463          	beq	a4,a5,9b58 <__muldf3+0x3b8>
    9834:	00341413          	slli	s0,s0,0x3
    9838:	01db5793          	srli	a5,s6,0x1d
    983c:	0087e7b3          	or	a5,a5,s0
    9840:	00800437          	lui	s0,0x800
    9844:	0087e433          	or	s0,a5,s0
    9848:	c0170693          	addi	a3,a4,-1023
    984c:	003b1793          	slli	a5,s6,0x3
    9850:	00000713          	li	a4,0
    9854:	00da8ab3          	add	s5,s5,a3
    9858:	002b9693          	slli	a3,s7,0x2
    985c:	00e6e6b3          	or	a3,a3,a4
    9860:	00a00613          	li	a2,10
    9864:	001a8513          	addi	a0,s5,1
    9868:	40d64663          	blt	a2,a3,9c74 <__muldf3+0x4d4>
    986c:	00200613          	li	a2,2
    9870:	013a45b3          	xor	a1,s4,s3
    9874:	30d64e63          	blt	a2,a3,9b90 <__muldf3+0x3f0>
    9878:	fff68693          	addi	a3,a3,-1
    987c:	00100613          	li	a2,1
    9880:	32d67a63          	bgeu	a2,a3,9bb4 <__muldf3+0x414>
    9884:	00010337          	lui	t1,0x10
    9888:	fff30e13          	addi	t3,t1,-1 # ffff <_vfprintf_r+0xc13>
    988c:	01095713          	srli	a4,s2,0x10
    9890:	0107d893          	srli	a7,a5,0x10
    9894:	01c97933          	and	s2,s2,t3
    9898:	01c7ff33          	and	t5,a5,t3
    989c:	03e907b3          	mul	a5,s2,t5
    98a0:	03e70eb3          	mul	t4,a4,t5
    98a4:	0107d813          	srli	a6,a5,0x10
    98a8:	03288633          	mul	a2,a7,s2
    98ac:	01d60633          	add	a2,a2,t4
    98b0:	00c80833          	add	a6,a6,a2
    98b4:	031706b3          	mul	a3,a4,a7
    98b8:	01d87463          	bgeu	a6,t4,98c0 <__muldf3+0x120>
    98bc:	006686b3          	add	a3,a3,t1
    98c0:	01085293          	srli	t0,a6,0x10
    98c4:	01c87833          	and	a6,a6,t3
    98c8:	01c7f7b3          	and	a5,a5,t3
    98cc:	01045613          	srli	a2,s0,0x10
    98d0:	01c47e33          	and	t3,s0,t3
    98d4:	01081813          	slli	a6,a6,0x10
    98d8:	00f80833          	add	a6,a6,a5
    98dc:	03c90eb3          	mul	t4,s2,t3
    98e0:	03c707b3          	mul	a5,a4,t3
    98e4:	03260933          	mul	s2,a2,s2
    98e8:	02c70333          	mul	t1,a4,a2
    98ec:	00f90933          	add	s2,s2,a5
    98f0:	010ed713          	srli	a4,t4,0x10
    98f4:	01270733          	add	a4,a4,s2
    98f8:	00f77663          	bgeu	a4,a5,9904 <__muldf3+0x164>
    98fc:	000107b7          	lui	a5,0x10
    9900:	00f30333          	add	t1,t1,a5
    9904:	00010437          	lui	s0,0x10
    9908:	01075793          	srli	a5,a4,0x10
    990c:	fff40f93          	addi	t6,s0,-1 # ffff <_vfprintf_r+0xc13>
    9910:	00678333          	add	t1,a5,t1
    9914:	01f777b3          	and	a5,a4,t6
    9918:	01fefeb3          	and	t4,t4,t6
    991c:	01079793          	slli	a5,a5,0x10
    9920:	01f4ffb3          	and	t6,s1,t6
    9924:	01d787b3          	add	a5,a5,t4
    9928:	0104de93          	srli	t4,s1,0x10
    992c:	03ff03b3          	mul	t2,t5,t6
    9930:	00f282b3          	add	t0,t0,a5
    9934:	03ee8f33          	mul	t5,t4,t5
    9938:	0103d713          	srli	a4,t2,0x10
    993c:	03d884b3          	mul	s1,a7,t4
    9940:	03f888b3          	mul	a7,a7,t6
    9944:	01e888b3          	add	a7,a7,t5
    9948:	01170733          	add	a4,a4,a7
    994c:	01e77463          	bgeu	a4,t5,9954 <__muldf3+0x1b4>
    9950:	008484b3          	add	s1,s1,s0
    9954:	01075f13          	srli	t5,a4,0x10
    9958:	009f0f33          	add	t5,t5,s1
    995c:	000104b7          	lui	s1,0x10
    9960:	fff48413          	addi	s0,s1,-1 # ffff <_vfprintf_r+0xc13>
    9964:	00877733          	and	a4,a4,s0
    9968:	0083f3b3          	and	t2,t2,s0
    996c:	01071713          	slli	a4,a4,0x10
    9970:	007708b3          	add	a7,a4,t2
    9974:	03fe03b3          	mul	t2,t3,t6
    9978:	03ce8e33          	mul	t3,t4,t3
    997c:	03d60eb3          	mul	t4,a2,t4
    9980:	03f60633          	mul	a2,a2,t6
    9984:	0103df93          	srli	t6,t2,0x10
    9988:	01c60633          	add	a2,a2,t3
    998c:	00cf8fb3          	add	t6,t6,a2
    9990:	01cff463          	bgeu	t6,t3,9998 <__muldf3+0x1f8>
    9994:	009e8eb3          	add	t4,t4,s1
    9998:	008ff733          	and	a4,t6,s0
    999c:	0083f3b3          	and	t2,t2,s0
    99a0:	01071713          	slli	a4,a4,0x10
    99a4:	005686b3          	add	a3,a3,t0
    99a8:	00770733          	add	a4,a4,t2
    99ac:	00670333          	add	t1,a4,t1
    99b0:	00f6b7b3          	sltu	a5,a3,a5
    99b4:	00f307b3          	add	a5,t1,a5
    99b8:	00e33633          	sltu	a2,t1,a4
    99bc:	011688b3          	add	a7,a3,a7
    99c0:	0067b333          	sltu	t1,a5,t1
    99c4:	00666633          	or	a2,a2,t1
    99c8:	00d8b6b3          	sltu	a3,a7,a3
    99cc:	01e78333          	add	t1,a5,t5
    99d0:	00d306b3          	add	a3,t1,a3
    99d4:	00f33733          	sltu	a4,t1,a5
    99d8:	010fdf93          	srli	t6,t6,0x10
    99dc:	0066b333          	sltu	t1,a3,t1
    99e0:	00989793          	slli	a5,a7,0x9
    99e4:	01f60633          	add	a2,a2,t6
    99e8:	00676733          	or	a4,a4,t1
    99ec:	00c70733          	add	a4,a4,a2
    99f0:	0107e7b3          	or	a5,a5,a6
    99f4:	01d70733          	add	a4,a4,t4
    99f8:	00f037b3          	snez	a5,a5
    99fc:	0178d893          	srli	a7,a7,0x17
    9a00:	00971713          	slli	a4,a4,0x9
    9a04:	0176d413          	srli	s0,a3,0x17
    9a08:	0117e7b3          	or	a5,a5,a7
    9a0c:	00969693          	slli	a3,a3,0x9
    9a10:	00d7e7b3          	or	a5,a5,a3
    9a14:	00771693          	slli	a3,a4,0x7
    9a18:	00876433          	or	s0,a4,s0
    9a1c:	0206d063          	bgez	a3,9a3c <__muldf3+0x29c>
    9a20:	0017d713          	srli	a4,a5,0x1
    9a24:	0017f793          	andi	a5,a5,1
    9a28:	00f76733          	or	a4,a4,a5
    9a2c:	01f41793          	slli	a5,s0,0x1f
    9a30:	00f767b3          	or	a5,a4,a5
    9a34:	00145413          	srli	s0,s0,0x1
    9a38:	00050a93          	mv	s5,a0
    9a3c:	000a8513          	mv	a0,s5
    9a40:	18c0006f          	j	9bcc <__muldf3+0x42c>
    9a44:	00a4e933          	or	s2,s1,a0
    9a48:	08090063          	beqz	s2,9ac8 <__muldf3+0x328>
    9a4c:	04048063          	beqz	s1,9a8c <__muldf3+0x2ec>
    9a50:	00048513          	mv	a0,s1
    9a54:	0b1030ef          	jal	d304 <__clzsi2>
    9a58:	ff550713          	addi	a4,a0,-11 # 7fff5 <_end+0x62d91>
    9a5c:	01d00793          	li	a5,29
    9a60:	ff850693          	addi	a3,a0,-8
    9a64:	40e787b3          	sub	a5,a5,a4
    9a68:	00d494b3          	sll	s1,s1,a3
    9a6c:	00f457b3          	srl	a5,s0,a5
    9a70:	0097e7b3          	or	a5,a5,s1
    9a74:	00d414b3          	sll	s1,s0,a3
    9a78:	c0d00a93          	li	s5,-1011
    9a7c:	00048913          	mv	s2,s1
    9a80:	40aa8ab3          	sub	s5,s5,a0
    9a84:	00078493          	mv	s1,a5
    9a88:	d89ff06f          	j	9810 <__muldf3+0x70>
    9a8c:	079030ef          	jal	d304 <__clzsi2>
    9a90:	00050793          	mv	a5,a0
    9a94:	01578713          	addi	a4,a5,21 # 10015 <_vfprintf_r+0xc29>
    9a98:	01c00693          	li	a3,28
    9a9c:	02050513          	addi	a0,a0,32
    9aa0:	fae6dee3          	bge	a3,a4,9a5c <__muldf3+0x2bc>
    9aa4:	ff878793          	addi	a5,a5,-8
    9aa8:	00f417b3          	sll	a5,s0,a5
    9aac:	fcdff06f          	j	9a78 <__muldf3+0x2d8>
    9ab0:	00a4e933          	or	s2,s1,a0
    9ab4:	02091263          	bnez	s2,9ad8 <__muldf3+0x338>
    9ab8:	00000493          	li	s1,0
    9abc:	7ff00a93          	li	s5,2047
    9ac0:	00200b93          	li	s7,2
    9ac4:	d51ff06f          	j	9814 <__muldf3+0x74>
    9ac8:	00000493          	li	s1,0
    9acc:	00000a93          	li	s5,0
    9ad0:	00100b93          	li	s7,1
    9ad4:	d41ff06f          	j	9814 <__muldf3+0x74>
    9ad8:	00050913          	mv	s2,a0
    9adc:	7ff00a93          	li	s5,2047
    9ae0:	00300b93          	li	s7,3
    9ae4:	d31ff06f          	j	9814 <__muldf3+0x74>
    9ae8:	016467b3          	or	a5,s0,s6
    9aec:	08078263          	beqz	a5,9b70 <__muldf3+0x3d0>
    9af0:	04040063          	beqz	s0,9b30 <__muldf3+0x390>
    9af4:	00040513          	mv	a0,s0
    9af8:	00d030ef          	jal	d304 <__clzsi2>
    9afc:	ff550693          	addi	a3,a0,-11
    9b00:	01d00713          	li	a4,29
    9b04:	ff850793          	addi	a5,a0,-8
    9b08:	40d70733          	sub	a4,a4,a3
    9b0c:	00f41433          	sll	s0,s0,a5
    9b10:	00eb5733          	srl	a4,s6,a4
    9b14:	00876733          	or	a4,a4,s0
    9b18:	00fb1433          	sll	s0,s6,a5
    9b1c:	c0d00693          	li	a3,-1011
    9b20:	00040793          	mv	a5,s0
    9b24:	40a686b3          	sub	a3,a3,a0
    9b28:	00070413          	mv	s0,a4
    9b2c:	d25ff06f          	j	9850 <__muldf3+0xb0>
    9b30:	000b0513          	mv	a0,s6
    9b34:	7d0030ef          	jal	d304 <__clzsi2>
    9b38:	00050793          	mv	a5,a0
    9b3c:	01578693          	addi	a3,a5,21
    9b40:	01c00713          	li	a4,28
    9b44:	02050513          	addi	a0,a0,32
    9b48:	fad75ce3          	bge	a4,a3,9b00 <__muldf3+0x360>
    9b4c:	ff878793          	addi	a5,a5,-8
    9b50:	00fb1733          	sll	a4,s6,a5
    9b54:	fc9ff06f          	j	9b1c <__muldf3+0x37c>
    9b58:	016467b3          	or	a5,s0,s6
    9b5c:	02079263          	bnez	a5,9b80 <__muldf3+0x3e0>
    9b60:	00000413          	li	s0,0
    9b64:	7ff00693          	li	a3,2047
    9b68:	00200713          	li	a4,2
    9b6c:	ce9ff06f          	j	9854 <__muldf3+0xb4>
    9b70:	00000413          	li	s0,0
    9b74:	00000693          	li	a3,0
    9b78:	00100713          	li	a4,1
    9b7c:	cd9ff06f          	j	9854 <__muldf3+0xb4>
    9b80:	000b0793          	mv	a5,s6
    9b84:	7ff00693          	li	a3,2047
    9b88:	00300713          	li	a4,3
    9b8c:	cc9ff06f          	j	9854 <__muldf3+0xb4>
    9b90:	00100613          	li	a2,1
    9b94:	00d61633          	sll	a2,a2,a3
    9b98:	53067693          	andi	a3,a2,1328
    9b9c:	0e069663          	bnez	a3,9c88 <__muldf3+0x4e8>
    9ba0:	24067813          	andi	a6,a2,576
    9ba4:	1a081a63          	bnez	a6,9d58 <__muldf3+0x5b8>
    9ba8:	08867613          	andi	a2,a2,136
    9bac:	cc060ce3          	beqz	a2,9884 <__muldf3+0xe4>
    9bb0:	00098593          	mv	a1,s3
    9bb4:	00200693          	li	a3,2
    9bb8:	18d70863          	beq	a4,a3,9d48 <__muldf3+0x5a8>
    9bbc:	00300693          	li	a3,3
    9bc0:	1ad70463          	beq	a4,a3,9d68 <__muldf3+0x5c8>
    9bc4:	00100693          	li	a3,1
    9bc8:	1ad70663          	beq	a4,a3,9d74 <__muldf3+0x5d4>
    9bcc:	3ff50613          	addi	a2,a0,1023
    9bd0:	0cc05463          	blez	a2,9c98 <__muldf3+0x4f8>
    9bd4:	0077f713          	andi	a4,a5,7
    9bd8:	02070063          	beqz	a4,9bf8 <__muldf3+0x458>
    9bdc:	00f7f713          	andi	a4,a5,15
    9be0:	00400693          	li	a3,4
    9be4:	00d70a63          	beq	a4,a3,9bf8 <__muldf3+0x458>
    9be8:	00478713          	addi	a4,a5,4
    9bec:	00f736b3          	sltu	a3,a4,a5
    9bf0:	00d40433          	add	s0,s0,a3
    9bf4:	00070793          	mv	a5,a4
    9bf8:	00741713          	slli	a4,s0,0x7
    9bfc:	00075a63          	bgez	a4,9c10 <__muldf3+0x470>
    9c00:	ff000737          	lui	a4,0xff000
    9c04:	fff70713          	addi	a4,a4,-1 # feffffff <_end+0xfefe2d9b>
    9c08:	00e47433          	and	s0,s0,a4
    9c0c:	40050613          	addi	a2,a0,1024
    9c10:	7fe00713          	li	a4,2046
    9c14:	12c74a63          	blt	a4,a2,9d48 <__muldf3+0x5a8>
    9c18:	0037d793          	srli	a5,a5,0x3
    9c1c:	01d41693          	slli	a3,s0,0x1d
    9c20:	00f6e6b3          	or	a3,a3,a5
    9c24:	00345713          	srli	a4,s0,0x3
    9c28:	00c71713          	slli	a4,a4,0xc
    9c2c:	02c12083          	lw	ra,44(sp)
    9c30:	02812403          	lw	s0,40(sp)
    9c34:	01461613          	slli	a2,a2,0x14
    9c38:	00c75713          	srli	a4,a4,0xc
    9c3c:	01f59593          	slli	a1,a1,0x1f
    9c40:	00e66633          	or	a2,a2,a4
    9c44:	00b667b3          	or	a5,a2,a1
    9c48:	02412483          	lw	s1,36(sp)
    9c4c:	02012903          	lw	s2,32(sp)
    9c50:	01c12983          	lw	s3,28(sp)
    9c54:	01812a03          	lw	s4,24(sp)
    9c58:	01412a83          	lw	s5,20(sp)
    9c5c:	01012b03          	lw	s6,16(sp)
    9c60:	00c12b83          	lw	s7,12(sp)
    9c64:	00068513          	mv	a0,a3
    9c68:	00078593          	mv	a1,a5
    9c6c:	03010113          	addi	sp,sp,48
    9c70:	00008067          	ret
    9c74:	00f00613          	li	a2,15
    9c78:	0ec68863          	beq	a3,a2,9d68 <__muldf3+0x5c8>
    9c7c:	00b00613          	li	a2,11
    9c80:	000a0593          	mv	a1,s4
    9c84:	f2c686e3          	beq	a3,a2,9bb0 <__muldf3+0x410>
    9c88:	00048413          	mv	s0,s1
    9c8c:	00090793          	mv	a5,s2
    9c90:	000b8713          	mv	a4,s7
    9c94:	f21ff06f          	j	9bb4 <__muldf3+0x414>
    9c98:	00100713          	li	a4,1
    9c9c:	40c70733          	sub	a4,a4,a2
    9ca0:	03800693          	li	a3,56
    9ca4:	0ce6c863          	blt	a3,a4,9d74 <__muldf3+0x5d4>
    9ca8:	01f00693          	li	a3,31
    9cac:	06e6c463          	blt	a3,a4,9d14 <__muldf3+0x574>
    9cb0:	41e50513          	addi	a0,a0,1054
    9cb4:	00e7d633          	srl	a2,a5,a4
    9cb8:	00a416b3          	sll	a3,s0,a0
    9cbc:	00a79533          	sll	a0,a5,a0
    9cc0:	00c6e6b3          	or	a3,a3,a2
    9cc4:	00a03533          	snez	a0,a0
    9cc8:	00a6e7b3          	or	a5,a3,a0
    9ccc:	00e45733          	srl	a4,s0,a4
    9cd0:	0077f693          	andi	a3,a5,7
    9cd4:	02068063          	beqz	a3,9cf4 <__muldf3+0x554>
    9cd8:	00f7f693          	andi	a3,a5,15
    9cdc:	00400613          	li	a2,4
    9ce0:	00c68a63          	beq	a3,a2,9cf4 <__muldf3+0x554>
    9ce4:	00478693          	addi	a3,a5,4
    9ce8:	00f6b633          	sltu	a2,a3,a5
    9cec:	00c70733          	add	a4,a4,a2
    9cf0:	00068793          	mv	a5,a3
    9cf4:	00871693          	slli	a3,a4,0x8
    9cf8:	0806c463          	bltz	a3,9d80 <__muldf3+0x5e0>
    9cfc:	01d71693          	slli	a3,a4,0x1d
    9d00:	0037d793          	srli	a5,a5,0x3
    9d04:	00f6e6b3          	or	a3,a3,a5
    9d08:	00375713          	srli	a4,a4,0x3
    9d0c:	00000613          	li	a2,0
    9d10:	f19ff06f          	j	9c28 <__muldf3+0x488>
    9d14:	fe100693          	li	a3,-31
    9d18:	40c686b3          	sub	a3,a3,a2
    9d1c:	02000813          	li	a6,32
    9d20:	00d456b3          	srl	a3,s0,a3
    9d24:	00000613          	li	a2,0
    9d28:	01070663          	beq	a4,a6,9d34 <__muldf3+0x594>
    9d2c:	43e50613          	addi	a2,a0,1086
    9d30:	00c41633          	sll	a2,s0,a2
    9d34:	00f66633          	or	a2,a2,a5
    9d38:	00c03633          	snez	a2,a2
    9d3c:	00c6e7b3          	or	a5,a3,a2
    9d40:	00000713          	li	a4,0
    9d44:	f8dff06f          	j	9cd0 <__muldf3+0x530>
    9d48:	00000713          	li	a4,0
    9d4c:	00000693          	li	a3,0
    9d50:	7ff00613          	li	a2,2047
    9d54:	ed5ff06f          	j	9c28 <__muldf3+0x488>
    9d58:	00080737          	lui	a4,0x80
    9d5c:	7ff00613          	li	a2,2047
    9d60:	00000593          	li	a1,0
    9d64:	ec5ff06f          	j	9c28 <__muldf3+0x488>
    9d68:	00080737          	lui	a4,0x80
    9d6c:	00000693          	li	a3,0
    9d70:	fedff06f          	j	9d5c <__muldf3+0x5bc>
    9d74:	00000713          	li	a4,0
    9d78:	00000693          	li	a3,0
    9d7c:	f91ff06f          	j	9d0c <__muldf3+0x56c>
    9d80:	00000713          	li	a4,0
    9d84:	00000693          	li	a3,0
    9d88:	00100613          	li	a2,1
    9d8c:	e9dff06f          	j	9c28 <__muldf3+0x488>

00009d90 <__subdf3>:
    9d90:	00100837          	lui	a6,0x100
    9d94:	fff80813          	addi	a6,a6,-1 # fffff <_end+0xe2d9b>
    9d98:	fe010113          	addi	sp,sp,-32
    9d9c:	00b878b3          	and	a7,a6,a1
    9da0:	0145d713          	srli	a4,a1,0x14
    9da4:	01d55793          	srli	a5,a0,0x1d
    9da8:	00d87833          	and	a6,a6,a3
    9dac:	01212823          	sw	s2,16(sp)
    9db0:	7ff77913          	andi	s2,a4,2047
    9db4:	00389713          	slli	a4,a7,0x3
    9db8:	0146d893          	srli	a7,a3,0x14
    9dbc:	00912a23          	sw	s1,20(sp)
    9dc0:	00e7e7b3          	or	a5,a5,a4
    9dc4:	01f5d493          	srli	s1,a1,0x1f
    9dc8:	01d65713          	srli	a4,a2,0x1d
    9dcc:	00381813          	slli	a6,a6,0x3
    9dd0:	00112e23          	sw	ra,28(sp)
    9dd4:	00812c23          	sw	s0,24(sp)
    9dd8:	01312623          	sw	s3,12(sp)
    9ddc:	7ff8f893          	andi	a7,a7,2047
    9de0:	7ff00593          	li	a1,2047
    9de4:	00351513          	slli	a0,a0,0x3
    9de8:	01f6d693          	srli	a3,a3,0x1f
    9dec:	01076733          	or	a4,a4,a6
    9df0:	00361613          	slli	a2,a2,0x3
    9df4:	00b89663          	bne	a7,a1,9e00 <__subdf3+0x70>
    9df8:	00c765b3          	or	a1,a4,a2
    9dfc:	00059463          	bnez	a1,9e04 <__subdf3+0x74>
    9e00:	0016c693          	xori	a3,a3,1
    9e04:	41190833          	sub	a6,s2,a7
    9e08:	2a969a63          	bne	a3,s1,a0bc <__subdf3+0x32c>
    9e0c:	11005c63          	blez	a6,9f24 <__subdf3+0x194>
    9e10:	04089063          	bnez	a7,9e50 <__subdf3+0xc0>
    9e14:	00c766b3          	or	a3,a4,a2
    9e18:	66068063          	beqz	a3,a478 <__subdf3+0x6e8>
    9e1c:	fff80593          	addi	a1,a6,-1
    9e20:	02059063          	bnez	a1,9e40 <__subdf3+0xb0>
    9e24:	00c50633          	add	a2,a0,a2
    9e28:	00a636b3          	sltu	a3,a2,a0
    9e2c:	00e78733          	add	a4,a5,a4
    9e30:	00060513          	mv	a0,a2
    9e34:	00d707b3          	add	a5,a4,a3
    9e38:	00100913          	li	s2,1
    9e3c:	06c0006f          	j	9ea8 <__subdf3+0x118>
    9e40:	7ff00693          	li	a3,2047
    9e44:	02d81063          	bne	a6,a3,9e64 <__subdf3+0xd4>
    9e48:	7ff00913          	li	s2,2047
    9e4c:	1f80006f          	j	a044 <__subdf3+0x2b4>
    9e50:	7ff00693          	li	a3,2047
    9e54:	1ed90863          	beq	s2,a3,a044 <__subdf3+0x2b4>
    9e58:	008006b7          	lui	a3,0x800
    9e5c:	00d76733          	or	a4,a4,a3
    9e60:	00080593          	mv	a1,a6
    9e64:	03800693          	li	a3,56
    9e68:	0ab6c863          	blt	a3,a1,9f18 <__subdf3+0x188>
    9e6c:	01f00693          	li	a3,31
    9e70:	06b6ca63          	blt	a3,a1,9ee4 <__subdf3+0x154>
    9e74:	02000813          	li	a6,32
    9e78:	40b80833          	sub	a6,a6,a1
    9e7c:	010716b3          	sll	a3,a4,a6
    9e80:	00b658b3          	srl	a7,a2,a1
    9e84:	01061833          	sll	a6,a2,a6
    9e88:	0116e6b3          	or	a3,a3,a7
    9e8c:	01003833          	snez	a6,a6
    9e90:	0106e6b3          	or	a3,a3,a6
    9e94:	00b755b3          	srl	a1,a4,a1
    9e98:	00a68533          	add	a0,a3,a0
    9e9c:	00f585b3          	add	a1,a1,a5
    9ea0:	00d536b3          	sltu	a3,a0,a3
    9ea4:	00d587b3          	add	a5,a1,a3
    9ea8:	00879713          	slli	a4,a5,0x8
    9eac:	18075c63          	bgez	a4,a044 <__subdf3+0x2b4>
    9eb0:	00190913          	addi	s2,s2,1
    9eb4:	7ff00713          	li	a4,2047
    9eb8:	5ae90a63          	beq	s2,a4,a46c <__subdf3+0x6dc>
    9ebc:	ff800737          	lui	a4,0xff800
    9ec0:	fff70713          	addi	a4,a4,-1 # ff7fffff <_end+0xff7e2d9b>
    9ec4:	00e7f733          	and	a4,a5,a4
    9ec8:	00155793          	srli	a5,a0,0x1
    9ecc:	00157513          	andi	a0,a0,1
    9ed0:	00a7e7b3          	or	a5,a5,a0
    9ed4:	01f71513          	slli	a0,a4,0x1f
    9ed8:	00f56533          	or	a0,a0,a5
    9edc:	00175793          	srli	a5,a4,0x1
    9ee0:	1640006f          	j	a044 <__subdf3+0x2b4>
    9ee4:	fe058693          	addi	a3,a1,-32
    9ee8:	02000893          	li	a7,32
    9eec:	00d756b3          	srl	a3,a4,a3
    9ef0:	00000813          	li	a6,0
    9ef4:	01158863          	beq	a1,a7,9f04 <__subdf3+0x174>
    9ef8:	04000813          	li	a6,64
    9efc:	40b80833          	sub	a6,a6,a1
    9f00:	01071833          	sll	a6,a4,a6
    9f04:	00c86833          	or	a6,a6,a2
    9f08:	01003833          	snez	a6,a6
    9f0c:	0106e6b3          	or	a3,a3,a6
    9f10:	00000593          	li	a1,0
    9f14:	f85ff06f          	j	9e98 <__subdf3+0x108>
    9f18:	00c766b3          	or	a3,a4,a2
    9f1c:	00d036b3          	snez	a3,a3
    9f20:	ff1ff06f          	j	9f10 <__subdf3+0x180>
    9f24:	0c080a63          	beqz	a6,9ff8 <__subdf3+0x268>
    9f28:	412886b3          	sub	a3,a7,s2
    9f2c:	02091463          	bnez	s2,9f54 <__subdf3+0x1c4>
    9f30:	00a7e5b3          	or	a1,a5,a0
    9f34:	50058e63          	beqz	a1,a450 <__subdf3+0x6c0>
    9f38:	fff68593          	addi	a1,a3,-1 # 7fffff <_end+0x7e2d9b>
    9f3c:	ee0584e3          	beqz	a1,9e24 <__subdf3+0x94>
    9f40:	7ff00813          	li	a6,2047
    9f44:	03069263          	bne	a3,a6,9f68 <__subdf3+0x1d8>
    9f48:	00070793          	mv	a5,a4
    9f4c:	00060513          	mv	a0,a2
    9f50:	ef9ff06f          	j	9e48 <__subdf3+0xb8>
    9f54:	7ff00593          	li	a1,2047
    9f58:	feb888e3          	beq	a7,a1,9f48 <__subdf3+0x1b8>
    9f5c:	008005b7          	lui	a1,0x800
    9f60:	00b7e7b3          	or	a5,a5,a1
    9f64:	00068593          	mv	a1,a3
    9f68:	03800693          	li	a3,56
    9f6c:	08b6c063          	blt	a3,a1,9fec <__subdf3+0x25c>
    9f70:	01f00693          	li	a3,31
    9f74:	04b6c263          	blt	a3,a1,9fb8 <__subdf3+0x228>
    9f78:	02000813          	li	a6,32
    9f7c:	40b80833          	sub	a6,a6,a1
    9f80:	010796b3          	sll	a3,a5,a6
    9f84:	00b55333          	srl	t1,a0,a1
    9f88:	01051833          	sll	a6,a0,a6
    9f8c:	0066e6b3          	or	a3,a3,t1
    9f90:	01003833          	snez	a6,a6
    9f94:	0106e6b3          	or	a3,a3,a6
    9f98:	00b7d5b3          	srl	a1,a5,a1
    9f9c:	00c68633          	add	a2,a3,a2
    9fa0:	00e585b3          	add	a1,a1,a4
    9fa4:	00d636b3          	sltu	a3,a2,a3
    9fa8:	00060513          	mv	a0,a2
    9fac:	00d587b3          	add	a5,a1,a3
    9fb0:	00088913          	mv	s2,a7
    9fb4:	ef5ff06f          	j	9ea8 <__subdf3+0x118>
    9fb8:	fe058693          	addi	a3,a1,-32 # 7fffe0 <_end+0x7e2d7c>
    9fbc:	02000313          	li	t1,32
    9fc0:	00d7d6b3          	srl	a3,a5,a3
    9fc4:	00000813          	li	a6,0
    9fc8:	00658863          	beq	a1,t1,9fd8 <__subdf3+0x248>
    9fcc:	04000813          	li	a6,64
    9fd0:	40b80833          	sub	a6,a6,a1
    9fd4:	01079833          	sll	a6,a5,a6
    9fd8:	00a86833          	or	a6,a6,a0
    9fdc:	01003833          	snez	a6,a6
    9fe0:	0106e6b3          	or	a3,a3,a6
    9fe4:	00000593          	li	a1,0
    9fe8:	fb5ff06f          	j	9f9c <__subdf3+0x20c>
    9fec:	00a7e6b3          	or	a3,a5,a0
    9ff0:	00d036b3          	snez	a3,a3
    9ff4:	ff1ff06f          	j	9fe4 <__subdf3+0x254>
    9ff8:	00190693          	addi	a3,s2,1
    9ffc:	7fe6f593          	andi	a1,a3,2046
    a000:	08059663          	bnez	a1,a08c <__subdf3+0x2fc>
    a004:	00a7e6b3          	or	a3,a5,a0
    a008:	06091263          	bnez	s2,a06c <__subdf3+0x2dc>
    a00c:	44068863          	beqz	a3,a45c <__subdf3+0x6cc>
    a010:	00c766b3          	or	a3,a4,a2
    a014:	02068863          	beqz	a3,a044 <__subdf3+0x2b4>
    a018:	00c50633          	add	a2,a0,a2
    a01c:	00a636b3          	sltu	a3,a2,a0
    a020:	00e78733          	add	a4,a5,a4
    a024:	00d707b3          	add	a5,a4,a3
    a028:	00879713          	slli	a4,a5,0x8
    a02c:	00060513          	mv	a0,a2
    a030:	00075a63          	bgez	a4,a044 <__subdf3+0x2b4>
    a034:	ff800737          	lui	a4,0xff800
    a038:	fff70713          	addi	a4,a4,-1 # ff7fffff <_end+0xff7e2d9b>
    a03c:	00e7f7b3          	and	a5,a5,a4
    a040:	00100913          	li	s2,1
    a044:	00757713          	andi	a4,a0,7
    a048:	44070863          	beqz	a4,a498 <__subdf3+0x708>
    a04c:	00f57713          	andi	a4,a0,15
    a050:	00400693          	li	a3,4
    a054:	44d70263          	beq	a4,a3,a498 <__subdf3+0x708>
    a058:	00450713          	addi	a4,a0,4
    a05c:	00a736b3          	sltu	a3,a4,a0
    a060:	00d787b3          	add	a5,a5,a3
    a064:	00070513          	mv	a0,a4
    a068:	4300006f          	j	a498 <__subdf3+0x708>
    a06c:	ec068ee3          	beqz	a3,9f48 <__subdf3+0x1b8>
    a070:	00c76633          	or	a2,a4,a2
    a074:	dc060ae3          	beqz	a2,9e48 <__subdf3+0xb8>
    a078:	00000493          	li	s1,0
    a07c:	004007b7          	lui	a5,0x400
    a080:	00000513          	li	a0,0
    a084:	7ff00913          	li	s2,2047
    a088:	4100006f          	j	a498 <__subdf3+0x708>
    a08c:	7ff00593          	li	a1,2047
    a090:	3cb68c63          	beq	a3,a1,a468 <__subdf3+0x6d8>
    a094:	00c50633          	add	a2,a0,a2
    a098:	00a63533          	sltu	a0,a2,a0
    a09c:	00e78733          	add	a4,a5,a4
    a0a0:	00a70733          	add	a4,a4,a0
    a0a4:	01f71513          	slli	a0,a4,0x1f
    a0a8:	00165613          	srli	a2,a2,0x1
    a0ac:	00c56533          	or	a0,a0,a2
    a0b0:	00175793          	srli	a5,a4,0x1
    a0b4:	00068913          	mv	s2,a3
    a0b8:	f8dff06f          	j	a044 <__subdf3+0x2b4>
    a0bc:	0f005c63          	blez	a6,a1b4 <__subdf3+0x424>
    a0c0:	08089e63          	bnez	a7,a15c <__subdf3+0x3cc>
    a0c4:	00c766b3          	or	a3,a4,a2
    a0c8:	3a068863          	beqz	a3,a478 <__subdf3+0x6e8>
    a0cc:	fff80693          	addi	a3,a6,-1
    a0d0:	02069063          	bnez	a3,a0f0 <__subdf3+0x360>
    a0d4:	40c50633          	sub	a2,a0,a2
    a0d8:	00c536b3          	sltu	a3,a0,a2
    a0dc:	40e78733          	sub	a4,a5,a4
    a0e0:	00060513          	mv	a0,a2
    a0e4:	40d707b3          	sub	a5,a4,a3
    a0e8:	00100913          	li	s2,1
    a0ec:	0540006f          	j	a140 <__subdf3+0x3b0>
    a0f0:	7ff00593          	li	a1,2047
    a0f4:	d4b80ae3          	beq	a6,a1,9e48 <__subdf3+0xb8>
    a0f8:	03800593          	li	a1,56
    a0fc:	0ad5c663          	blt	a1,a3,a1a8 <__subdf3+0x418>
    a100:	01f00593          	li	a1,31
    a104:	06d5c863          	blt	a1,a3,a174 <__subdf3+0x3e4>
    a108:	02000813          	li	a6,32
    a10c:	40d80833          	sub	a6,a6,a3
    a110:	00d658b3          	srl	a7,a2,a3
    a114:	010715b3          	sll	a1,a4,a6
    a118:	01061833          	sll	a6,a2,a6
    a11c:	0115e5b3          	or	a1,a1,a7
    a120:	01003833          	snez	a6,a6
    a124:	0105e633          	or	a2,a1,a6
    a128:	00d756b3          	srl	a3,a4,a3
    a12c:	40c50633          	sub	a2,a0,a2
    a130:	00c53733          	sltu	a4,a0,a2
    a134:	40d786b3          	sub	a3,a5,a3
    a138:	00060513          	mv	a0,a2
    a13c:	40e687b3          	sub	a5,a3,a4
    a140:	00879713          	slli	a4,a5,0x8
    a144:	f00750e3          	bgez	a4,a044 <__subdf3+0x2b4>
    a148:	00800437          	lui	s0,0x800
    a14c:	fff40413          	addi	s0,s0,-1 # 7fffff <_end+0x7e2d9b>
    a150:	0087f433          	and	s0,a5,s0
    a154:	00050993          	mv	s3,a0
    a158:	2100006f          	j	a368 <__subdf3+0x5d8>
    a15c:	7ff00693          	li	a3,2047
    a160:	eed902e3          	beq	s2,a3,a044 <__subdf3+0x2b4>
    a164:	008006b7          	lui	a3,0x800
    a168:	00d76733          	or	a4,a4,a3
    a16c:	00080693          	mv	a3,a6
    a170:	f89ff06f          	j	a0f8 <__subdf3+0x368>
    a174:	fe068593          	addi	a1,a3,-32 # 7fffe0 <_end+0x7e2d7c>
    a178:	02000893          	li	a7,32
    a17c:	00b755b3          	srl	a1,a4,a1
    a180:	00000813          	li	a6,0
    a184:	01168863          	beq	a3,a7,a194 <__subdf3+0x404>
    a188:	04000813          	li	a6,64
    a18c:	40d80833          	sub	a6,a6,a3
    a190:	01071833          	sll	a6,a4,a6
    a194:	00c86833          	or	a6,a6,a2
    a198:	01003833          	snez	a6,a6
    a19c:	0105e633          	or	a2,a1,a6
    a1a0:	00000693          	li	a3,0
    a1a4:	f89ff06f          	j	a12c <__subdf3+0x39c>
    a1a8:	00c76633          	or	a2,a4,a2
    a1ac:	00c03633          	snez	a2,a2
    a1b0:	ff1ff06f          	j	a1a0 <__subdf3+0x410>
    a1b4:	0e080863          	beqz	a6,a2a4 <__subdf3+0x514>
    a1b8:	41288833          	sub	a6,a7,s2
    a1bc:	04091263          	bnez	s2,a200 <__subdf3+0x470>
    a1c0:	00a7e5b3          	or	a1,a5,a0
    a1c4:	2a058e63          	beqz	a1,a480 <__subdf3+0x6f0>
    a1c8:	fff80593          	addi	a1,a6,-1
    a1cc:	00059e63          	bnez	a1,a1e8 <__subdf3+0x458>
    a1d0:	40a60533          	sub	a0,a2,a0
    a1d4:	40f70733          	sub	a4,a4,a5
    a1d8:	00a63633          	sltu	a2,a2,a0
    a1dc:	40c707b3          	sub	a5,a4,a2
    a1e0:	00068493          	mv	s1,a3
    a1e4:	f05ff06f          	j	a0e8 <__subdf3+0x358>
    a1e8:	7ff00313          	li	t1,2047
    a1ec:	02681463          	bne	a6,t1,a214 <__subdf3+0x484>
    a1f0:	00070793          	mv	a5,a4
    a1f4:	00060513          	mv	a0,a2
    a1f8:	7ff00913          	li	s2,2047
    a1fc:	0d00006f          	j	a2cc <__subdf3+0x53c>
    a200:	7ff00593          	li	a1,2047
    a204:	feb886e3          	beq	a7,a1,a1f0 <__subdf3+0x460>
    a208:	008005b7          	lui	a1,0x800
    a20c:	00b7e7b3          	or	a5,a5,a1
    a210:	00080593          	mv	a1,a6
    a214:	03800813          	li	a6,56
    a218:	08b84063          	blt	a6,a1,a298 <__subdf3+0x508>
    a21c:	01f00813          	li	a6,31
    a220:	04b84263          	blt	a6,a1,a264 <__subdf3+0x4d4>
    a224:	02000313          	li	t1,32
    a228:	40b30333          	sub	t1,t1,a1
    a22c:	00b55e33          	srl	t3,a0,a1
    a230:	00679833          	sll	a6,a5,t1
    a234:	00651333          	sll	t1,a0,t1
    a238:	01c86833          	or	a6,a6,t3
    a23c:	00603333          	snez	t1,t1
    a240:	00686533          	or	a0,a6,t1
    a244:	00b7d5b3          	srl	a1,a5,a1
    a248:	40a60533          	sub	a0,a2,a0
    a24c:	40b705b3          	sub	a1,a4,a1
    a250:	00a63633          	sltu	a2,a2,a0
    a254:	40c587b3          	sub	a5,a1,a2
    a258:	00088913          	mv	s2,a7
    a25c:	00068493          	mv	s1,a3
    a260:	ee1ff06f          	j	a140 <__subdf3+0x3b0>
    a264:	fe058813          	addi	a6,a1,-32 # 7fffe0 <_end+0x7e2d7c>
    a268:	02000e13          	li	t3,32
    a26c:	0107d833          	srl	a6,a5,a6
    a270:	00000313          	li	t1,0
    a274:	01c58863          	beq	a1,t3,a284 <__subdf3+0x4f4>
    a278:	04000313          	li	t1,64
    a27c:	40b30333          	sub	t1,t1,a1
    a280:	00679333          	sll	t1,a5,t1
    a284:	00a36333          	or	t1,t1,a0
    a288:	00603333          	snez	t1,t1
    a28c:	00686533          	or	a0,a6,t1
    a290:	00000593          	li	a1,0
    a294:	fb5ff06f          	j	a248 <__subdf3+0x4b8>
    a298:	00a7e533          	or	a0,a5,a0
    a29c:	00a03533          	snez	a0,a0
    a2a0:	ff1ff06f          	j	a290 <__subdf3+0x500>
    a2a4:	00190593          	addi	a1,s2,1
    a2a8:	7fe5f593          	andi	a1,a1,2046
    a2ac:	08059663          	bnez	a1,a338 <__subdf3+0x5a8>
    a2b0:	00c765b3          	or	a1,a4,a2
    a2b4:	00a7e833          	or	a6,a5,a0
    a2b8:	06091063          	bnez	s2,a318 <__subdf3+0x588>
    a2bc:	00081c63          	bnez	a6,a2d4 <__subdf3+0x544>
    a2c0:	10058e63          	beqz	a1,a3dc <__subdf3+0x64c>
    a2c4:	00070793          	mv	a5,a4
    a2c8:	00060513          	mv	a0,a2
    a2cc:	00068493          	mv	s1,a3
    a2d0:	d75ff06f          	j	a044 <__subdf3+0x2b4>
    a2d4:	d60588e3          	beqz	a1,a044 <__subdf3+0x2b4>
    a2d8:	40c50833          	sub	a6,a0,a2
    a2dc:	010538b3          	sltu	a7,a0,a6
    a2e0:	40e785b3          	sub	a1,a5,a4
    a2e4:	411585b3          	sub	a1,a1,a7
    a2e8:	00859893          	slli	a7,a1,0x8
    a2ec:	0008dc63          	bgez	a7,a304 <__subdf3+0x574>
    a2f0:	40a60533          	sub	a0,a2,a0
    a2f4:	40f70733          	sub	a4,a4,a5
    a2f8:	00a63633          	sltu	a2,a2,a0
    a2fc:	40c707b3          	sub	a5,a4,a2
    a300:	fcdff06f          	j	a2cc <__subdf3+0x53c>
    a304:	00b86533          	or	a0,a6,a1
    a308:	18050463          	beqz	a0,a490 <__subdf3+0x700>
    a30c:	00058793          	mv	a5,a1
    a310:	00080513          	mv	a0,a6
    a314:	d31ff06f          	j	a044 <__subdf3+0x2b4>
    a318:	00081c63          	bnez	a6,a330 <__subdf3+0x5a0>
    a31c:	d4058ee3          	beqz	a1,a078 <__subdf3+0x2e8>
    a320:	00070793          	mv	a5,a4
    a324:	00060513          	mv	a0,a2
    a328:	00068493          	mv	s1,a3
    a32c:	b1dff06f          	j	9e48 <__subdf3+0xb8>
    a330:	b0058ce3          	beqz	a1,9e48 <__subdf3+0xb8>
    a334:	d45ff06f          	j	a078 <__subdf3+0x2e8>
    a338:	40c505b3          	sub	a1,a0,a2
    a33c:	00b53833          	sltu	a6,a0,a1
    a340:	40e78433          	sub	s0,a5,a4
    a344:	41040433          	sub	s0,s0,a6
    a348:	00841813          	slli	a6,s0,0x8
    a34c:	00058993          	mv	s3,a1
    a350:	08085063          	bgez	a6,a3d0 <__subdf3+0x640>
    a354:	40a609b3          	sub	s3,a2,a0
    a358:	40f70433          	sub	s0,a4,a5
    a35c:	01363633          	sltu	a2,a2,s3
    a360:	40c40433          	sub	s0,s0,a2
    a364:	00068493          	mv	s1,a3
    a368:	06040e63          	beqz	s0,a3e4 <__subdf3+0x654>
    a36c:	00040513          	mv	a0,s0
    a370:	795020ef          	jal	d304 <__clzsi2>
    a374:	ff850693          	addi	a3,a0,-8
    a378:	02000793          	li	a5,32
    a37c:	40d787b3          	sub	a5,a5,a3
    a380:	00d41433          	sll	s0,s0,a3
    a384:	00f9d7b3          	srl	a5,s3,a5
    a388:	0087e7b3          	or	a5,a5,s0
    a38c:	00d99433          	sll	s0,s3,a3
    a390:	0b26c463          	blt	a3,s2,a438 <__subdf3+0x6a8>
    a394:	412686b3          	sub	a3,a3,s2
    a398:	00168613          	addi	a2,a3,1
    a39c:	01f00713          	li	a4,31
    a3a0:	06c74263          	blt	a4,a2,a404 <__subdf3+0x674>
    a3a4:	02000713          	li	a4,32
    a3a8:	40c70733          	sub	a4,a4,a2
    a3ac:	00e79533          	sll	a0,a5,a4
    a3b0:	00c456b3          	srl	a3,s0,a2
    a3b4:	00e41733          	sll	a4,s0,a4
    a3b8:	00d56533          	or	a0,a0,a3
    a3bc:	00e03733          	snez	a4,a4
    a3c0:	00e56533          	or	a0,a0,a4
    a3c4:	00c7d7b3          	srl	a5,a5,a2
    a3c8:	00000913          	li	s2,0
    a3cc:	c79ff06f          	j	a044 <__subdf3+0x2b4>
    a3d0:	0085e5b3          	or	a1,a1,s0
    a3d4:	f8059ae3          	bnez	a1,a368 <__subdf3+0x5d8>
    a3d8:	00000913          	li	s2,0
    a3dc:	00000493          	li	s1,0
    a3e0:	08c0006f          	j	a46c <__subdf3+0x6dc>
    a3e4:	00098513          	mv	a0,s3
    a3e8:	71d020ef          	jal	d304 <__clzsi2>
    a3ec:	01850693          	addi	a3,a0,24
    a3f0:	01f00793          	li	a5,31
    a3f4:	f8d7d2e3          	bge	a5,a3,a378 <__subdf3+0x5e8>
    a3f8:	ff850793          	addi	a5,a0,-8
    a3fc:	00f997b3          	sll	a5,s3,a5
    a400:	f91ff06f          	j	a390 <__subdf3+0x600>
    a404:	fe168693          	addi	a3,a3,-31
    a408:	00d7d533          	srl	a0,a5,a3
    a40c:	02000693          	li	a3,32
    a410:	00000713          	li	a4,0
    a414:	00d60863          	beq	a2,a3,a424 <__subdf3+0x694>
    a418:	04000713          	li	a4,64
    a41c:	40c70733          	sub	a4,a4,a2
    a420:	00e79733          	sll	a4,a5,a4
    a424:	00e46733          	or	a4,s0,a4
    a428:	00e03733          	snez	a4,a4
    a42c:	00e56533          	or	a0,a0,a4
    a430:	00000793          	li	a5,0
    a434:	f95ff06f          	j	a3c8 <__subdf3+0x638>
    a438:	ff800737          	lui	a4,0xff800
    a43c:	fff70713          	addi	a4,a4,-1 # ff7fffff <_end+0xff7e2d9b>
    a440:	40d90933          	sub	s2,s2,a3
    a444:	00e7f7b3          	and	a5,a5,a4
    a448:	00040513          	mv	a0,s0
    a44c:	bf9ff06f          	j	a044 <__subdf3+0x2b4>
    a450:	00070793          	mv	a5,a4
    a454:	00060513          	mv	a0,a2
    a458:	c5dff06f          	j	a0b4 <__subdf3+0x324>
    a45c:	00070793          	mv	a5,a4
    a460:	00060513          	mv	a0,a2
    a464:	be1ff06f          	j	a044 <__subdf3+0x2b4>
    a468:	7ff00913          	li	s2,2047
    a46c:	00000793          	li	a5,0
    a470:	00000513          	li	a0,0
    a474:	0240006f          	j	a498 <__subdf3+0x708>
    a478:	00080913          	mv	s2,a6
    a47c:	bc9ff06f          	j	a044 <__subdf3+0x2b4>
    a480:	00070793          	mv	a5,a4
    a484:	00060513          	mv	a0,a2
    a488:	00080913          	mv	s2,a6
    a48c:	e41ff06f          	j	a2cc <__subdf3+0x53c>
    a490:	00000793          	li	a5,0
    a494:	00000493          	li	s1,0
    a498:	00879713          	slli	a4,a5,0x8
    a49c:	00075e63          	bgez	a4,a4b8 <__subdf3+0x728>
    a4a0:	00190913          	addi	s2,s2,1
    a4a4:	7ff00713          	li	a4,2047
    a4a8:	08e90263          	beq	s2,a4,a52c <__subdf3+0x79c>
    a4ac:	ff800737          	lui	a4,0xff800
    a4b0:	fff70713          	addi	a4,a4,-1 # ff7fffff <_end+0xff7e2d9b>
    a4b4:	00e7f7b3          	and	a5,a5,a4
    a4b8:	01d79693          	slli	a3,a5,0x1d
    a4bc:	00355513          	srli	a0,a0,0x3
    a4c0:	7ff00713          	li	a4,2047
    a4c4:	00a6e6b3          	or	a3,a3,a0
    a4c8:	0037d793          	srli	a5,a5,0x3
    a4cc:	00e91e63          	bne	s2,a4,a4e8 <__subdf3+0x758>
    a4d0:	00f6e6b3          	or	a3,a3,a5
    a4d4:	00000793          	li	a5,0
    a4d8:	00068863          	beqz	a3,a4e8 <__subdf3+0x758>
    a4dc:	000807b7          	lui	a5,0x80
    a4e0:	00000693          	li	a3,0
    a4e4:	00000493          	li	s1,0
    a4e8:	01491713          	slli	a4,s2,0x14
    a4ec:	7ff00637          	lui	a2,0x7ff00
    a4f0:	00c79793          	slli	a5,a5,0xc
    a4f4:	00c77733          	and	a4,a4,a2
    a4f8:	01c12083          	lw	ra,28(sp)
    a4fc:	01812403          	lw	s0,24(sp)
    a500:	00c7d793          	srli	a5,a5,0xc
    a504:	00f767b3          	or	a5,a4,a5
    a508:	01f49713          	slli	a4,s1,0x1f
    a50c:	00e7e633          	or	a2,a5,a4
    a510:	01412483          	lw	s1,20(sp)
    a514:	01012903          	lw	s2,16(sp)
    a518:	00c12983          	lw	s3,12(sp)
    a51c:	00068513          	mv	a0,a3
    a520:	00060593          	mv	a1,a2
    a524:	02010113          	addi	sp,sp,32
    a528:	00008067          	ret
    a52c:	00000793          	li	a5,0
    a530:	00000513          	li	a0,0
    a534:	f85ff06f          	j	a4b8 <__subdf3+0x728>

0000a538 <__fixdfsi>:
    a538:	0145d713          	srli	a4,a1,0x14
    a53c:	001006b7          	lui	a3,0x100
    a540:	fff68793          	addi	a5,a3,-1 # fffff <_end+0xe2d9b>
    a544:	7ff77713          	andi	a4,a4,2047
    a548:	3fe00613          	li	a2,1022
    a54c:	00b7f7b3          	and	a5,a5,a1
    a550:	01f5d593          	srli	a1,a1,0x1f
    a554:	04e65e63          	bge	a2,a4,a5b0 <__fixdfsi+0x78>
    a558:	41d00613          	li	a2,1053
    a55c:	00e65a63          	bge	a2,a4,a570 <__fixdfsi+0x38>
    a560:	80000537          	lui	a0,0x80000
    a564:	fff50513          	addi	a0,a0,-1 # 7fffffff <_end+0x7ffe2d9b>
    a568:	00a58533          	add	a0,a1,a0
    a56c:	00008067          	ret
    a570:	00d7e7b3          	or	a5,a5,a3
    a574:	43300693          	li	a3,1075
    a578:	40e686b3          	sub	a3,a3,a4
    a57c:	01f00613          	li	a2,31
    a580:	02d64063          	blt	a2,a3,a5a0 <__fixdfsi+0x68>
    a584:	bed70713          	addi	a4,a4,-1043
    a588:	00e797b3          	sll	a5,a5,a4
    a58c:	00d55533          	srl	a0,a0,a3
    a590:	00a7e533          	or	a0,a5,a0
    a594:	02058063          	beqz	a1,a5b4 <__fixdfsi+0x7c>
    a598:	40a00533          	neg	a0,a0
    a59c:	00008067          	ret
    a5a0:	41300693          	li	a3,1043
    a5a4:	40e68733          	sub	a4,a3,a4
    a5a8:	00e7d533          	srl	a0,a5,a4
    a5ac:	fe9ff06f          	j	a594 <__fixdfsi+0x5c>
    a5b0:	00000513          	li	a0,0
    a5b4:	00008067          	ret

0000a5b8 <__floatsidf>:
    a5b8:	ff010113          	addi	sp,sp,-16
    a5bc:	00112623          	sw	ra,12(sp)
    a5c0:	00812423          	sw	s0,8(sp)
    a5c4:	00912223          	sw	s1,4(sp)
    a5c8:	08050663          	beqz	a0,a654 <__floatsidf+0x9c>
    a5cc:	41f55793          	srai	a5,a0,0x1f
    a5d0:	00a7c433          	xor	s0,a5,a0
    a5d4:	40f40433          	sub	s0,s0,a5
    a5d8:	01f55493          	srli	s1,a0,0x1f
    a5dc:	00040513          	mv	a0,s0
    a5e0:	525020ef          	jal	d304 <__clzsi2>
    a5e4:	41e00713          	li	a4,1054
    a5e8:	00a00793          	li	a5,10
    a5ec:	40a70733          	sub	a4,a4,a0
    a5f0:	04a7c863          	blt	a5,a0,a640 <__floatsidf+0x88>
    a5f4:	00b00793          	li	a5,11
    a5f8:	40a787b3          	sub	a5,a5,a0
    a5fc:	01550513          	addi	a0,a0,21
    a600:	00f457b3          	srl	a5,s0,a5
    a604:	00a41433          	sll	s0,s0,a0
    a608:	00048513          	mv	a0,s1
    a60c:	00c79793          	slli	a5,a5,0xc
    a610:	00c7d793          	srli	a5,a5,0xc
    a614:	01471713          	slli	a4,a4,0x14
    a618:	01f51513          	slli	a0,a0,0x1f
    a61c:	00f76733          	or	a4,a4,a5
    a620:	00c12083          	lw	ra,12(sp)
    a624:	00a767b3          	or	a5,a4,a0
    a628:	00040513          	mv	a0,s0
    a62c:	00812403          	lw	s0,8(sp)
    a630:	00412483          	lw	s1,4(sp)
    a634:	00078593          	mv	a1,a5
    a638:	01010113          	addi	sp,sp,16
    a63c:	00008067          	ret
    a640:	ff550513          	addi	a0,a0,-11
    a644:	00a417b3          	sll	a5,s0,a0
    a648:	00048513          	mv	a0,s1
    a64c:	00000413          	li	s0,0
    a650:	fbdff06f          	j	a60c <__floatsidf+0x54>
    a654:	00000713          	li	a4,0
    a658:	00000793          	li	a5,0
    a65c:	ff1ff06f          	j	a64c <__floatsidf+0x94>

0000a660 <__eqtf2>:
    a660:	00c52783          	lw	a5,12(a0)
    a664:	0005af03          	lw	t5,0(a1)
    a668:	0045af83          	lw	t6,4(a1)
    a66c:	0085a283          	lw	t0,8(a1)
    a670:	00c5a583          	lw	a1,12(a1)
    a674:	00008737          	lui	a4,0x8
    a678:	0107d693          	srli	a3,a5,0x10
    a67c:	fff70713          	addi	a4,a4,-1 # 7fff <_start-0x1>
    a680:	01079813          	slli	a6,a5,0x10
    a684:	01059e93          	slli	t4,a1,0x10
    a688:	01f7d613          	srli	a2,a5,0x1f
    a68c:	00e6f6b3          	and	a3,a3,a4
    a690:	0105d793          	srli	a5,a1,0x10
    a694:	00052883          	lw	a7,0(a0)
    a698:	00452303          	lw	t1,4(a0)
    a69c:	00852e03          	lw	t3,8(a0)
    a6a0:	ff010113          	addi	sp,sp,-16
    a6a4:	01085813          	srli	a6,a6,0x10
    a6a8:	010ede93          	srli	t4,t4,0x10
    a6ac:	00e7f7b3          	and	a5,a5,a4
    a6b0:	01f5d593          	srli	a1,a1,0x1f
    a6b4:	02e69063          	bne	a3,a4,a6d4 <__eqtf2+0x74>
    a6b8:	0068e733          	or	a4,a7,t1
    a6bc:	01c76733          	or	a4,a4,t3
    a6c0:	01076733          	or	a4,a4,a6
    a6c4:	00100513          	li	a0,1
    a6c8:	04071a63          	bnez	a4,a71c <__eqtf2+0xbc>
    a6cc:	04d79863          	bne	a5,a3,a71c <__eqtf2+0xbc>
    a6d0:	0080006f          	j	a6d8 <__eqtf2+0x78>
    a6d4:	00e79c63          	bne	a5,a4,a6ec <__eqtf2+0x8c>
    a6d8:	01ff6733          	or	a4,t5,t6
    a6dc:	00576733          	or	a4,a4,t0
    a6e0:	01d76733          	or	a4,a4,t4
    a6e4:	00100513          	li	a0,1
    a6e8:	02071a63          	bnez	a4,a71c <__eqtf2+0xbc>
    a6ec:	00100513          	li	a0,1
    a6f0:	02d79663          	bne	a5,a3,a71c <__eqtf2+0xbc>
    a6f4:	03e89463          	bne	a7,t5,a71c <__eqtf2+0xbc>
    a6f8:	03f31263          	bne	t1,t6,a71c <__eqtf2+0xbc>
    a6fc:	025e1063          	bne	t3,t0,a71c <__eqtf2+0xbc>
    a700:	01d81e63          	bne	a6,t4,a71c <__eqtf2+0xbc>
    a704:	02b60063          	beq	a2,a1,a724 <__eqtf2+0xc4>
    a708:	00079a63          	bnez	a5,a71c <__eqtf2+0xbc>
    a70c:	0068e533          	or	a0,a7,t1
    a710:	01c56533          	or	a0,a0,t3
    a714:	01056533          	or	a0,a0,a6
    a718:	00a03533          	snez	a0,a0
    a71c:	01010113          	addi	sp,sp,16
    a720:	00008067          	ret
    a724:	00000513          	li	a0,0
    a728:	ff5ff06f          	j	a71c <__eqtf2+0xbc>

0000a72c <__getf2>:
    a72c:	00c52783          	lw	a5,12(a0)
    a730:	00c5a683          	lw	a3,12(a1)
    a734:	00008737          	lui	a4,0x8
    a738:	0107d613          	srli	a2,a5,0x10
    a73c:	fff70713          	addi	a4,a4,-1 # 7fff <_start-0x1>
    a740:	01079813          	slli	a6,a5,0x10
    a744:	01069293          	slli	t0,a3,0x10
    a748:	00052883          	lw	a7,0(a0)
    a74c:	00452303          	lw	t1,4(a0)
    a750:	00852e03          	lw	t3,8(a0)
    a754:	00e67633          	and	a2,a2,a4
    a758:	0106d513          	srli	a0,a3,0x10
    a75c:	0005ae83          	lw	t4,0(a1)
    a760:	0045af03          	lw	t5,4(a1)
    a764:	0085af83          	lw	t6,8(a1)
    a768:	ff010113          	addi	sp,sp,-16
    a76c:	01085813          	srli	a6,a6,0x10
    a770:	01f7d793          	srli	a5,a5,0x1f
    a774:	0102d293          	srli	t0,t0,0x10
    a778:	00e57533          	and	a0,a0,a4
    a77c:	01f6d693          	srli	a3,a3,0x1f
    a780:	00e61a63          	bne	a2,a4,a794 <__getf2+0x68>
    a784:	01136733          	or	a4,t1,a7
    a788:	01c76733          	or	a4,a4,t3
    a78c:	01076733          	or	a4,a4,a6
    a790:	0a071463          	bnez	a4,a838 <__getf2+0x10c>
    a794:	00008737          	lui	a4,0x8
    a798:	fff70713          	addi	a4,a4,-1 # 7fff <_start-0x1>
    a79c:	00e51a63          	bne	a0,a4,a7b0 <__getf2+0x84>
    a7a0:	01eee733          	or	a4,t4,t5
    a7a4:	01f76733          	or	a4,a4,t6
    a7a8:	00576733          	or	a4,a4,t0
    a7ac:	08071663          	bnez	a4,a838 <__getf2+0x10c>
    a7b0:	00000713          	li	a4,0
    a7b4:	00061a63          	bnez	a2,a7c8 <__getf2+0x9c>
    a7b8:	01136733          	or	a4,t1,a7
    a7bc:	01c76733          	or	a4,a4,t3
    a7c0:	01076733          	or	a4,a4,a6
    a7c4:	00173713          	seqz	a4,a4
    a7c8:	06051c63          	bnez	a0,a840 <__getf2+0x114>
    a7cc:	01eee5b3          	or	a1,t4,t5
    a7d0:	01f5e5b3          	or	a1,a1,t6
    a7d4:	0055e5b3          	or	a1,a1,t0
    a7d8:	00070c63          	beqz	a4,a7f0 <__getf2+0xc4>
    a7dc:	02058063          	beqz	a1,a7fc <__getf2+0xd0>
    a7e0:	00100513          	li	a0,1
    a7e4:	00069c63          	bnez	a3,a7fc <__getf2+0xd0>
    a7e8:	fff00513          	li	a0,-1
    a7ec:	0100006f          	j	a7fc <__getf2+0xd0>
    a7f0:	04059a63          	bnez	a1,a844 <__getf2+0x118>
    a7f4:	fff00513          	li	a0,-1
    a7f8:	04078e63          	beqz	a5,a854 <__getf2+0x128>
    a7fc:	01010113          	addi	sp,sp,16
    a800:	00008067          	ret
    a804:	fca64ee3          	blt	a2,a0,a7e0 <__getf2+0xb4>
    a808:	ff02e6e3          	bltu	t0,a6,a7f4 <__getf2+0xc8>
    a80c:	02581063          	bne	a6,t0,a82c <__getf2+0x100>
    a810:	ffcfe2e3          	bltu	t6,t3,a7f4 <__getf2+0xc8>
    a814:	01fe1c63          	bne	t3,t6,a82c <__getf2+0x100>
    a818:	fc6f6ee3          	bltu	t5,t1,a7f4 <__getf2+0xc8>
    a81c:	01e31863          	bne	t1,t5,a82c <__getf2+0x100>
    a820:	fd1eeae3          	bltu	t4,a7,a7f4 <__getf2+0xc8>
    a824:	00000513          	li	a0,0
    a828:	fdd8fae3          	bgeu	a7,t4,a7fc <__getf2+0xd0>
    a82c:	00100513          	li	a0,1
    a830:	fc0796e3          	bnez	a5,a7fc <__getf2+0xd0>
    a834:	fb5ff06f          	j	a7e8 <__getf2+0xbc>
    a838:	ffe00513          	li	a0,-2
    a83c:	fc1ff06f          	j	a7fc <__getf2+0xd0>
    a840:	fa0710e3          	bnez	a4,a7e0 <__getf2+0xb4>
    a844:	faf698e3          	bne	a3,a5,a7f4 <__getf2+0xc8>
    a848:	fac55ee3          	bge	a0,a2,a804 <__getf2+0xd8>
    a84c:	fff00513          	li	a0,-1
    a850:	fa0696e3          	bnez	a3,a7fc <__getf2+0xd0>
    a854:	00100513          	li	a0,1
    a858:	fa5ff06f          	j	a7fc <__getf2+0xd0>

0000a85c <__letf2>:
    a85c:	00c52783          	lw	a5,12(a0)
    a860:	00c5a683          	lw	a3,12(a1)
    a864:	00008737          	lui	a4,0x8
    a868:	0107d613          	srli	a2,a5,0x10
    a86c:	fff70713          	addi	a4,a4,-1 # 7fff <_start-0x1>
    a870:	01079813          	slli	a6,a5,0x10
    a874:	01069293          	slli	t0,a3,0x10
    a878:	00052883          	lw	a7,0(a0)
    a87c:	00452303          	lw	t1,4(a0)
    a880:	00852e03          	lw	t3,8(a0)
    a884:	00e67633          	and	a2,a2,a4
    a888:	0106d513          	srli	a0,a3,0x10
    a88c:	0005ae83          	lw	t4,0(a1)
    a890:	0045af03          	lw	t5,4(a1)
    a894:	0085af83          	lw	t6,8(a1)
    a898:	ff010113          	addi	sp,sp,-16
    a89c:	01085813          	srli	a6,a6,0x10
    a8a0:	01f7d793          	srli	a5,a5,0x1f
    a8a4:	0102d293          	srli	t0,t0,0x10
    a8a8:	00e57533          	and	a0,a0,a4
    a8ac:	01f6d693          	srli	a3,a3,0x1f
    a8b0:	00e61a63          	bne	a2,a4,a8c4 <__letf2+0x68>
    a8b4:	01136733          	or	a4,t1,a7
    a8b8:	01c76733          	or	a4,a4,t3
    a8bc:	01076733          	or	a4,a4,a6
    a8c0:	0a071463          	bnez	a4,a968 <__letf2+0x10c>
    a8c4:	00008737          	lui	a4,0x8
    a8c8:	fff70713          	addi	a4,a4,-1 # 7fff <_start-0x1>
    a8cc:	00e51a63          	bne	a0,a4,a8e0 <__letf2+0x84>
    a8d0:	01eee733          	or	a4,t4,t5
    a8d4:	01f76733          	or	a4,a4,t6
    a8d8:	00576733          	or	a4,a4,t0
    a8dc:	08071663          	bnez	a4,a968 <__letf2+0x10c>
    a8e0:	00000713          	li	a4,0
    a8e4:	00061a63          	bnez	a2,a8f8 <__letf2+0x9c>
    a8e8:	01136733          	or	a4,t1,a7
    a8ec:	01c76733          	or	a4,a4,t3
    a8f0:	01076733          	or	a4,a4,a6
    a8f4:	00173713          	seqz	a4,a4
    a8f8:	06051c63          	bnez	a0,a970 <__letf2+0x114>
    a8fc:	01eee5b3          	or	a1,t4,t5
    a900:	01f5e5b3          	or	a1,a1,t6
    a904:	0055e5b3          	or	a1,a1,t0
    a908:	00070c63          	beqz	a4,a920 <__letf2+0xc4>
    a90c:	02058063          	beqz	a1,a92c <__letf2+0xd0>
    a910:	00100513          	li	a0,1
    a914:	00069c63          	bnez	a3,a92c <__letf2+0xd0>
    a918:	fff00513          	li	a0,-1
    a91c:	0100006f          	j	a92c <__letf2+0xd0>
    a920:	04059a63          	bnez	a1,a974 <__letf2+0x118>
    a924:	fff00513          	li	a0,-1
    a928:	04078e63          	beqz	a5,a984 <__letf2+0x128>
    a92c:	01010113          	addi	sp,sp,16
    a930:	00008067          	ret
    a934:	fca64ee3          	blt	a2,a0,a910 <__letf2+0xb4>
    a938:	ff02e6e3          	bltu	t0,a6,a924 <__letf2+0xc8>
    a93c:	02581063          	bne	a6,t0,a95c <__letf2+0x100>
    a940:	ffcfe2e3          	bltu	t6,t3,a924 <__letf2+0xc8>
    a944:	01fe1c63          	bne	t3,t6,a95c <__letf2+0x100>
    a948:	fc6f6ee3          	bltu	t5,t1,a924 <__letf2+0xc8>
    a94c:	01e31863          	bne	t1,t5,a95c <__letf2+0x100>
    a950:	fd1eeae3          	bltu	t4,a7,a924 <__letf2+0xc8>
    a954:	00000513          	li	a0,0
    a958:	fdd8fae3          	bgeu	a7,t4,a92c <__letf2+0xd0>
    a95c:	00100513          	li	a0,1
    a960:	fc0796e3          	bnez	a5,a92c <__letf2+0xd0>
    a964:	fb5ff06f          	j	a918 <__letf2+0xbc>
    a968:	00200513          	li	a0,2
    a96c:	fc1ff06f          	j	a92c <__letf2+0xd0>
    a970:	fa0710e3          	bnez	a4,a910 <__letf2+0xb4>
    a974:	faf698e3          	bne	a3,a5,a924 <__letf2+0xc8>
    a978:	fac55ee3          	bge	a0,a2,a934 <__letf2+0xd8>
    a97c:	fff00513          	li	a0,-1
    a980:	fa0696e3          	bnez	a3,a92c <__letf2+0xd0>
    a984:	00100513          	li	a0,1
    a988:	fa5ff06f          	j	a92c <__letf2+0xd0>

0000a98c <__multf3>:
    a98c:	f5010113          	addi	sp,sp,-176
    a990:	09412c23          	sw	s4,152(sp)
    a994:	00c5aa03          	lw	s4,12(a1)
    a998:	0005a783          	lw	a5,0(a1)
    a99c:	0085a683          	lw	a3,8(a1)
    a9a0:	0a812423          	sw	s0,168(sp)
    a9a4:	00050413          	mv	s0,a0
    a9a8:	0045a503          	lw	a0,4(a1)
    a9ac:	010a1713          	slli	a4,s4,0x10
    a9b0:	0b212023          	sw	s2,160(sp)
    a9b4:	09312e23          	sw	s3,156(sp)
    a9b8:	00062903          	lw	s2,0(a2) # 7ff00000 <_end+0x7fee2d9c>
    a9bc:	00c62983          	lw	s3,12(a2)
    a9c0:	09512a23          	sw	s5,148(sp)
    a9c4:	09612823          	sw	s6,144(sp)
    a9c8:	00862a83          	lw	s5,8(a2)
    a9cc:	00462b03          	lw	s6,4(a2)
    a9d0:	00008637          	lui	a2,0x8
    a9d4:	0a912223          	sw	s1,164(sp)
    a9d8:	01075713          	srli	a4,a4,0x10
    a9dc:	010a5493          	srli	s1,s4,0x10
    a9e0:	fff60613          	addi	a2,a2,-1 # 7fff <_start-0x1>
    a9e4:	05412e23          	sw	s4,92(sp)
    a9e8:	0a112623          	sw	ra,172(sp)
    a9ec:	09712623          	sw	s7,140(sp)
    a9f0:	09812423          	sw	s8,136(sp)
    a9f4:	09912223          	sw	s9,132(sp)
    a9f8:	09a12023          	sw	s10,128(sp)
    a9fc:	07b12e23          	sw	s11,124(sp)
    aa00:	04f12823          	sw	a5,80(sp)
    aa04:	04a12a23          	sw	a0,84(sp)
    aa08:	04d12c23          	sw	a3,88(sp)
    aa0c:	02f12023          	sw	a5,32(sp)
    aa10:	02a12223          	sw	a0,36(sp)
    aa14:	02d12423          	sw	a3,40(sp)
    aa18:	02e12623          	sw	a4,44(sp)
    aa1c:	00c4f4b3          	and	s1,s1,a2
    aa20:	01fa5a13          	srli	s4,s4,0x1f
    aa24:	080482e3          	beqz	s1,b2a8 <__multf3+0x91c>
    aa28:	1ac48ce3          	beq	s1,a2,b3e0 <__multf3+0xa54>
    aa2c:	000106b7          	lui	a3,0x10
    aa30:	00d76733          	or	a4,a4,a3
    aa34:	02e12623          	sw	a4,44(sp)
    aa38:	02010593          	addi	a1,sp,32
    aa3c:	02c10713          	addi	a4,sp,44
    aa40:	00072683          	lw	a3,0(a4)
    aa44:	ffc72603          	lw	a2,-4(a4)
    aa48:	ffc70713          	addi	a4,a4,-4
    aa4c:	00369693          	slli	a3,a3,0x3
    aa50:	01d65613          	srli	a2,a2,0x1d
    aa54:	00c6e6b3          	or	a3,a3,a2
    aa58:	00d72223          	sw	a3,4(a4)
    aa5c:	fee592e3          	bne	a1,a4,aa40 <__multf3+0xb4>
    aa60:	00379793          	slli	a5,a5,0x3
    aa64:	02f12023          	sw	a5,32(sp)
    aa68:	ffffc7b7          	lui	a5,0xffffc
    aa6c:	00178793          	addi	a5,a5,1 # ffffc001 <_end+0xfffded9d>
    aa70:	00f484b3          	add	s1,s1,a5
    aa74:	00000b93          	li	s7,0
    aa78:	01099513          	slli	a0,s3,0x10
    aa7c:	00008737          	lui	a4,0x8
    aa80:	0109d793          	srli	a5,s3,0x10
    aa84:	01055513          	srli	a0,a0,0x10
    aa88:	fff70713          	addi	a4,a4,-1 # 7fff <_start-0x1>
    aa8c:	05312e23          	sw	s3,92(sp)
    aa90:	05212823          	sw	s2,80(sp)
    aa94:	05612a23          	sw	s6,84(sp)
    aa98:	05512c23          	sw	s5,88(sp)
    aa9c:	03212823          	sw	s2,48(sp)
    aaa0:	03612a23          	sw	s6,52(sp)
    aaa4:	03512c23          	sw	s5,56(sp)
    aaa8:	02a12e23          	sw	a0,60(sp)
    aaac:	00e7f7b3          	and	a5,a5,a4
    aab0:	01f9d993          	srli	s3,s3,0x1f
    aab4:	14078ae3          	beqz	a5,b408 <__multf3+0xa7c>
    aab8:	28e784e3          	beq	a5,a4,b540 <__multf3+0xbb4>
    aabc:	00010737          	lui	a4,0x10
    aac0:	00e56533          	or	a0,a0,a4
    aac4:	02a12e23          	sw	a0,60(sp)
    aac8:	03010593          	addi	a1,sp,48
    aacc:	03c10713          	addi	a4,sp,60
    aad0:	00072683          	lw	a3,0(a4) # 10000 <_vfprintf_r+0xc14>
    aad4:	ffc72603          	lw	a2,-4(a4)
    aad8:	ffc70713          	addi	a4,a4,-4
    aadc:	00369693          	slli	a3,a3,0x3
    aae0:	01d65613          	srli	a2,a2,0x1d
    aae4:	00c6e6b3          	or	a3,a3,a2
    aae8:	00d72223          	sw	a3,4(a4)
    aaec:	fee592e3          	bne	a1,a4,aad0 <__multf3+0x144>
    aaf0:	ffffc737          	lui	a4,0xffffc
    aaf4:	00391913          	slli	s2,s2,0x3
    aaf8:	00170713          	addi	a4,a4,1 # ffffc001 <_end+0xfffded9d>
    aafc:	03212823          	sw	s2,48(sp)
    ab00:	00e787b3          	add	a5,a5,a4
    ab04:	00000693          	li	a3,0
    ab08:	009787b3          	add	a5,a5,s1
    ab0c:	00f12623          	sw	a5,12(sp)
    ab10:	00178793          	addi	a5,a5,1
    ab14:	00f12423          	sw	a5,8(sp)
    ab18:	002b9793          	slli	a5,s7,0x2
    ab1c:	00d7e7b3          	or	a5,a5,a3
    ab20:	00a00713          	li	a4,10
    ab24:	28f742e3          	blt	a4,a5,b5a8 <__multf3+0xc1c>
    ab28:	013a4733          	xor	a4,s4,s3
    ab2c:	00e12223          	sw	a4,4(sp)
    ab30:	00200713          	li	a4,2
    ab34:	22f74ae3          	blt	a4,a5,b568 <__multf3+0xbdc>
    ab38:	fff78793          	addi	a5,a5,-1
    ab3c:	00100713          	li	a4,1
    ab40:	28f770e3          	bgeu	a4,a5,b5c0 <__multf3+0xc34>
    ab44:	02012883          	lw	a7,32(sp)
    ab48:	03012f03          	lw	t5,48(sp)
    ab4c:	000105b7          	lui	a1,0x10
    ab50:	fff58713          	addi	a4,a1,-1 # ffff <_vfprintf_r+0xc13>
    ab54:	0108d913          	srli	s2,a7,0x10
    ab58:	010f5493          	srli	s1,t5,0x10
    ab5c:	00e8f8b3          	and	a7,a7,a4
    ab60:	00ef7f33          	and	t5,t5,a4
    ab64:	031f0633          	mul	a2,t5,a7
    ab68:	03e90533          	mul	a0,s2,t5
    ab6c:	01065793          	srli	a5,a2,0x10
    ab70:	031486b3          	mul	a3,s1,a7
    ab74:	00a686b3          	add	a3,a3,a0
    ab78:	00d787b3          	add	a5,a5,a3
    ab7c:	02990bb3          	mul	s7,s2,s1
    ab80:	00a7f463          	bgeu	a5,a0,ab88 <__multf3+0x1fc>
    ab84:	00bb8bb3          	add	s7,s7,a1
    ab88:	03412e83          	lw	t4,52(sp)
    ab8c:	0107d693          	srli	a3,a5,0x10
    ab90:	00e7f7b3          	and	a5,a5,a4
    ab94:	00e67633          	and	a2,a2,a4
    ab98:	01079793          	slli	a5,a5,0x10
    ab9c:	00c787b3          	add	a5,a5,a2
    aba0:	010ed293          	srli	t0,t4,0x10
    aba4:	00eefeb3          	and	t4,t4,a4
    aba8:	03d90633          	mul	a2,s2,t4
    abac:	00f12823          	sw	a5,16(sp)
    abb0:	04f12823          	sw	a5,80(sp)
    abb4:	03128733          	mul	a4,t0,a7
    abb8:	031e87b3          	mul	a5,t4,a7
    abbc:	00c70733          	add	a4,a4,a2
    abc0:	0107d313          	srli	t1,a5,0x10
    abc4:	00e30333          	add	t1,t1,a4
    abc8:	02590b33          	mul	s6,s2,t0
    abcc:	00c37663          	bgeu	t1,a2,abd8 <__multf3+0x24c>
    abd0:	00010737          	lui	a4,0x10
    abd4:	00eb0b33          	add	s6,s6,a4
    abd8:	02412803          	lw	a6,36(sp)
    abdc:	00010737          	lui	a4,0x10
    abe0:	fff70613          	addi	a2,a4,-1 # ffff <_vfprintf_r+0xc13>
    abe4:	01035513          	srli	a0,t1,0x10
    abe8:	00c37333          	and	t1,t1,a2
    abec:	00c7f7b3          	and	a5,a5,a2
    abf0:	01085393          	srli	t2,a6,0x10
    abf4:	01031313          	slli	t1,t1,0x10
    abf8:	00c87833          	and	a6,a6,a2
    abfc:	00f30333          	add	t1,t1,a5
    ac00:	03e38fb3          	mul	t6,t2,t5
    ac04:	006686b3          	add	a3,a3,t1
    ac08:	03e807b3          	mul	a5,a6,t5
    ac0c:	03048e33          	mul	t3,s1,a6
    ac10:	0107d613          	srli	a2,a5,0x10
    ac14:	01fe0e33          	add	t3,t3,t6
    ac18:	01c60633          	add	a2,a2,t3
    ac1c:	027485b3          	mul	a1,s1,t2
    ac20:	01f67463          	bgeu	a2,t6,ac28 <__multf3+0x29c>
    ac24:	00e585b3          	add	a1,a1,a4
    ac28:	01065a93          	srli	s5,a2,0x10
    ac2c:	00010737          	lui	a4,0x10
    ac30:	00ba8ab3          	add	s5,s5,a1
    ac34:	fff70593          	addi	a1,a4,-1 # ffff <_vfprintf_r+0xc13>
    ac38:	00b7f7b3          	and	a5,a5,a1
    ac3c:	00b67633          	and	a2,a2,a1
    ac40:	01061613          	slli	a2,a2,0x10
    ac44:	030e85b3          	mul	a1,t4,a6
    ac48:	00f60633          	add	a2,a2,a5
    ac4c:	03d38fb3          	mul	t6,t2,t4
    ac50:	0105d793          	srli	a5,a1,0x10
    ac54:	03028e33          	mul	t3,t0,a6
    ac58:	01fe0e33          	add	t3,t3,t6
    ac5c:	01c787b3          	add	a5,a5,t3
    ac60:	027289b3          	mul	s3,t0,t2
    ac64:	01f7f463          	bgeu	a5,t6,ac6c <__multf3+0x2e0>
    ac68:	00e989b3          	add	s3,s3,a4
    ac6c:	0107d713          	srli	a4,a5,0x10
    ac70:	01370733          	add	a4,a4,s3
    ac74:	00010a37          	lui	s4,0x10
    ac78:	00e12a23          	sw	a4,20(sp)
    ac7c:	fffa0713          	addi	a4,s4,-1 # ffff <_vfprintf_r+0xc13>
    ac80:	03812e03          	lw	t3,56(sp)
    ac84:	00e7f7b3          	and	a5,a5,a4
    ac88:	00e5f5b3          	and	a1,a1,a4
    ac8c:	01079793          	slli	a5,a5,0x10
    ac90:	00b787b3          	add	a5,a5,a1
    ac94:	00f12c23          	sw	a5,24(sp)
    ac98:	010e5793          	srli	a5,t3,0x10
    ac9c:	00ee7e33          	and	t3,t3,a4
    aca0:	031e05b3          	mul	a1,t3,a7
    aca4:	03c90c33          	mul	s8,s2,t3
    aca8:	0105d713          	srli	a4,a1,0x10
    acac:	031789b3          	mul	s3,a5,a7
    acb0:	018989b3          	add	s3,s3,s8
    acb4:	01370733          	add	a4,a4,s3
    acb8:	02f90fb3          	mul	t6,s2,a5
    acbc:	01877463          	bgeu	a4,s8,acc4 <__multf3+0x338>
    acc0:	014f8fb3          	add	t6,t6,s4
    acc4:	01075993          	srli	s3,a4,0x10
    acc8:	00010cb7          	lui	s9,0x10
    accc:	01f98fb3          	add	t6,s3,t6
    acd0:	fffc8993          	addi	s3,s9,-1 # ffff <_vfprintf_r+0xc13>
    acd4:	01377733          	and	a4,a4,s3
    acd8:	0135f5b3          	and	a1,a1,s3
    acdc:	01071713          	slli	a4,a4,0x10
    ace0:	00b70733          	add	a4,a4,a1
    ace4:	02812583          	lw	a1,40(sp)
    ace8:	01f12e23          	sw	t6,28(sp)
    acec:	0105df93          	srli	t6,a1,0x10
    acf0:	0135f5b3          	and	a1,a1,s3
    acf4:	03e58a33          	mul	s4,a1,t5
    acf8:	03ef8d33          	mul	s10,t6,t5
    acfc:	010a5d93          	srli	s11,s4,0x10
    ad00:	02b489b3          	mul	s3,s1,a1
    ad04:	01a989b3          	add	s3,s3,s10
    ad08:	013d89b3          	add	s3,s11,s3
    ad0c:	03f48c33          	mul	s8,s1,t6
    ad10:	01a9f463          	bgeu	s3,s10,ad18 <__multf3+0x38c>
    ad14:	019c0c33          	add	s8,s8,s9
    ad18:	00db86b3          	add	a3,s7,a3
    ad1c:	0066b333          	sltu	t1,a3,t1
    ad20:	0109dd13          	srli	s10,s3,0x10
    ad24:	00650533          	add	a0,a0,t1
    ad28:	00010cb7          	lui	s9,0x10
    ad2c:	01650533          	add	a0,a0,s6
    ad30:	018d0d33          	add	s10,s10,s8
    ad34:	00c68633          	add	a2,a3,a2
    ad38:	fffc8c13          	addi	s8,s9,-1 # ffff <_vfprintf_r+0xc13>
    ad3c:	01550ab3          	add	s5,a0,s5
    ad40:	0189f9b3          	and	s3,s3,s8
    ad44:	00d636b3          	sltu	a3,a2,a3
    ad48:	00da86b3          	add	a3,s5,a3
    ad4c:	01099993          	slli	s3,s3,0x10
    ad50:	018a7a33          	and	s4,s4,s8
    ad54:	01498a33          	add	s4,s3,s4
    ad58:	00aab9b3          	sltu	s3,s5,a0
    ad5c:	0156bab3          	sltu	s5,a3,s5
    ad60:	0159e9b3          	or	s3,s3,s5
    ad64:	00653533          	sltu	a0,a0,t1
    ad68:	00a98533          	add	a0,s3,a0
    ad6c:	01812303          	lw	t1,24(sp)
    ad70:	01412983          	lw	s3,20(sp)
    ad74:	04c12a23          	sw	a2,84(sp)
    ad78:	00668333          	add	t1,a3,t1
    ad7c:	01350ab3          	add	s5,a0,s3
    ad80:	01c12983          	lw	s3,28(sp)
    ad84:	00d336b3          	sltu	a3,t1,a3
    ad88:	00da86b3          	add	a3,s5,a3
    ad8c:	00e30733          	add	a4,t1,a4
    ad90:	01368b33          	add	s6,a3,s3
    ad94:	00673333          	sltu	t1,a4,t1
    ad98:	006b0333          	add	t1,s6,t1
    ad9c:	01470a33          	add	s4,a4,s4
    ada0:	01a30d33          	add	s10,t1,s10
    ada4:	00ea3733          	sltu	a4,s4,a4
    ada8:	00aab533          	sltu	a0,s5,a0
    adac:	00ed0733          	add	a4,s10,a4
    adb0:	0156bab3          	sltu	s5,a3,s5
    adb4:	00db36b3          	sltu	a3,s6,a3
    adb8:	01633b33          	sltu	s6,t1,s6
    adbc:	0166e6b3          	or	a3,a3,s6
    adc0:	006d39b3          	sltu	s3,s10,t1
    adc4:	01556ab3          	or	s5,a0,s5
    adc8:	01a73d33          	sltu	s10,a4,s10
    adcc:	00da8ab3          	add	s5,s5,a3
    add0:	01a9e9b3          	or	s3,s3,s10
    add4:	015989b3          	add	s3,s3,s5
    add8:	03c12a83          	lw	s5,60(sp)
    addc:	05412c23          	sw	s4,88(sp)
    ade0:	010adb13          	srli	s6,s5,0x10
    ade4:	018afab3          	and	s5,s5,s8
    ade8:	031a86b3          	mul	a3,s5,a7
    adec:	03590533          	mul	a0,s2,s5
    adf0:	031b08b3          	mul	a7,s6,a7
    adf4:	00a88333          	add	t1,a7,a0
    adf8:	0106d893          	srli	a7,a3,0x10
    adfc:	006888b3          	add	a7,a7,t1
    ae00:	03690933          	mul	s2,s2,s6
    ae04:	00a8f463          	bgeu	a7,a0,ae0c <__multf3+0x480>
    ae08:	01990933          	add	s2,s2,s9
    ae0c:	02c12b83          	lw	s7,44(sp)
    ae10:	0108d513          	srli	a0,a7,0x10
    ae14:	01250533          	add	a0,a0,s2
    ae18:	00010c37          	lui	s8,0x10
    ae1c:	00a12a23          	sw	a0,20(sp)
    ae20:	fffc0513          	addi	a0,s8,-1 # ffff <_vfprintf_r+0xc13>
    ae24:	010bd913          	srli	s2,s7,0x10
    ae28:	00abfbb3          	and	s7,s7,a0
    ae2c:	00a6f6b3          	and	a3,a3,a0
    ae30:	00a8f8b3          	and	a7,a7,a0
    ae34:	03248333          	mul	t1,s1,s2
    ae38:	01089893          	slli	a7,a7,0x10
    ae3c:	00d888b3          	add	a7,a7,a3
    ae40:	03eb8533          	mul	a0,s7,t5
    ae44:	037484b3          	mul	s1,s1,s7
    ae48:	01055693          	srli	a3,a0,0x10
    ae4c:	03e90f33          	mul	t5,s2,t5
    ae50:	01e484b3          	add	s1,s1,t5
    ae54:	009686b3          	add	a3,a3,s1
    ae58:	01e6f463          	bgeu	a3,t5,ae60 <__multf3+0x4d4>
    ae5c:	01830333          	add	t1,t1,s8
    ae60:	0106df13          	srli	t5,a3,0x10
    ae64:	006f0333          	add	t1,t5,t1
    ae68:	00010cb7          	lui	s9,0x10
    ae6c:	00612c23          	sw	t1,24(sp)
    ae70:	fffc8313          	addi	t1,s9,-1 # ffff <_vfprintf_r+0xc13>
    ae74:	00657533          	and	a0,a0,t1
    ae78:	0066f6b3          	and	a3,a3,t1
    ae7c:	03c38f33          	mul	t5,t2,t3
    ae80:	01069693          	slli	a3,a3,0x10
    ae84:	00a686b3          	add	a3,a3,a0
    ae88:	03c80333          	mul	t1,a6,t3
    ae8c:	030784b3          	mul	s1,a5,a6
    ae90:	01035513          	srli	a0,t1,0x10
    ae94:	01e484b3          	add	s1,s1,t5
    ae98:	00950533          	add	a0,a0,s1
    ae9c:	02f38c33          	mul	s8,t2,a5
    aea0:	01e57463          	bgeu	a0,t5,aea8 <__multf3+0x51c>
    aea4:	019c0c33          	add	s8,s8,s9
    aea8:	00010d37          	lui	s10,0x10
    aeac:	fffd0f13          	addi	t5,s10,-1 # ffff <_vfprintf_r+0xc13>
    aeb0:	01055493          	srli	s1,a0,0x10
    aeb4:	01e57533          	and	a0,a0,t5
    aeb8:	01e37333          	and	t1,t1,t5
    aebc:	01051513          	slli	a0,a0,0x10
    aec0:	018484b3          	add	s1,s1,s8
    aec4:	02b28f33          	mul	t5,t0,a1
    aec8:	00650533          	add	a0,a0,t1
    aecc:	03df8c33          	mul	s8,t6,t4
    aed0:	02be8333          	mul	t1,t4,a1
    aed4:	018f0f33          	add	t5,t5,s8
    aed8:	01035d93          	srli	s11,t1,0x10
    aedc:	01ed8f33          	add	t5,s11,t5
    aee0:	03f28cb3          	mul	s9,t0,t6
    aee4:	018f7463          	bgeu	t5,s8,aeec <__multf3+0x560>
    aee8:	01ac8cb3          	add	s9,s9,s10
    aeec:	010f5c13          	srli	s8,t5,0x10
    aef0:	019c0c33          	add	s8,s8,s9
    aef4:	00010cb7          	lui	s9,0x10
    aef8:	fffc8d13          	addi	s10,s9,-1 # ffff <_vfprintf_r+0xc13>
    aefc:	01af7f33          	and	t5,t5,s10
    af00:	010f1f13          	slli	t5,t5,0x10
    af04:	01a37333          	and	t1,t1,s10
    af08:	006f0333          	add	t1,t5,t1
    af0c:	01412f03          	lw	t5,20(sp)
    af10:	011708b3          	add	a7,a4,a7
    af14:	01812d03          	lw	s10,24(sp)
    af18:	01e98f33          	add	t5,s3,t5
    af1c:	00e8b733          	sltu	a4,a7,a4
    af20:	00ef0733          	add	a4,t5,a4
    af24:	00d886b3          	add	a3,a7,a3
    af28:	01a70d33          	add	s10,a4,s10
    af2c:	0116b8b3          	sltu	a7,a3,a7
    af30:	011d08b3          	add	a7,s10,a7
    af34:	00a68533          	add	a0,a3,a0
    af38:	009884b3          	add	s1,a7,s1
    af3c:	00d536b3          	sltu	a3,a0,a3
    af40:	00d486b3          	add	a3,s1,a3
    af44:	013f39b3          	sltu	s3,t5,s3
    af48:	01e73f33          	sltu	t5,a4,t5
    af4c:	00ed3733          	sltu	a4,s10,a4
    af50:	01a8bd33          	sltu	s10,a7,s10
    af54:	01e9ef33          	or	t5,s3,t5
    af58:	0114b8b3          	sltu	a7,s1,a7
    af5c:	01a76733          	or	a4,a4,s10
    af60:	0096b4b3          	sltu	s1,a3,s1
    af64:	01868c33          	add	s8,a3,s8
    af68:	00ef0733          	add	a4,t5,a4
    af6c:	0098e8b3          	or	a7,a7,s1
    af70:	00e884b3          	add	s1,a7,a4
    af74:	03cf8f33          	mul	t5,t6,t3
    af78:	00dc38b3          	sltu	a7,s8,a3
    af7c:	00650333          	add	t1,a0,t1
    af80:	00a33533          	sltu	a0,t1,a0
    af84:	00ac0533          	add	a0,s8,a0
    af88:	01853c33          	sltu	s8,a0,s8
    af8c:	0188e8b3          	or	a7,a7,s8
    af90:	04612e23          	sw	t1,92(sp)
    af94:	009888b3          	add	a7,a7,s1
    af98:	02be06b3          	mul	a3,t3,a1
    af9c:	02b789b3          	mul	s3,a5,a1
    afa0:	0106d713          	srli	a4,a3,0x10
    afa4:	01e989b3          	add	s3,s3,t5
    afa8:	01370733          	add	a4,a4,s3
    afac:	03f784b3          	mul	s1,a5,t6
    afb0:	01e77463          	bgeu	a4,t5,afb8 <__multf3+0x62c>
    afb4:	019484b3          	add	s1,s1,s9
    afb8:	01075f13          	srli	t5,a4,0x10
    afbc:	009f0f33          	add	t5,t5,s1
    afc0:	000104b7          	lui	s1,0x10
    afc4:	fff48993          	addi	s3,s1,-1 # ffff <_vfprintf_r+0xc13>
    afc8:	01377733          	and	a4,a4,s3
    afcc:	0136f6b3          	and	a3,a3,s3
    afd0:	01071713          	slli	a4,a4,0x10
    afd4:	035389b3          	mul	s3,t2,s5
    afd8:	00d70733          	add	a4,a4,a3
    afdc:	030a86b3          	mul	a3,s5,a6
    afe0:	030b0833          	mul	a6,s6,a6
    afe4:	01380c33          	add	s8,a6,s3
    afe8:	0106d813          	srli	a6,a3,0x10
    afec:	01880833          	add	a6,a6,s8
    aff0:	036383b3          	mul	t2,t2,s6
    aff4:	01387463          	bgeu	a6,s3,affc <__multf3+0x670>
    aff8:	009383b3          	add	t2,t2,s1
    affc:	01085493          	srli	s1,a6,0x10
    b000:	00010c37          	lui	s8,0x10
    b004:	007483b3          	add	t2,s1,t2
    b008:	fffc0493          	addi	s1,s8,-1 # ffff <_vfprintf_r+0xc13>
    b00c:	0096f6b3          	and	a3,a3,s1
    b010:	00987833          	and	a6,a6,s1
    b014:	01081813          	slli	a6,a6,0x10
    b018:	03db89b3          	mul	s3,s7,t4
    b01c:	00d80833          	add	a6,a6,a3
    b020:	03d90eb3          	mul	t4,s2,t4
    b024:	0109d693          	srli	a3,s3,0x10
    b028:	032284b3          	mul	s1,t0,s2
    b02c:	037282b3          	mul	t0,t0,s7
    b030:	01d282b3          	add	t0,t0,t4
    b034:	005686b3          	add	a3,a3,t0
    b038:	01d6f463          	bgeu	a3,t4,b040 <__multf3+0x6b4>
    b03c:	018484b3          	add	s1,s1,s8
    b040:	0106de93          	srli	t4,a3,0x10
    b044:	009e8eb3          	add	t4,t4,s1
    b048:	000104b7          	lui	s1,0x10
    b04c:	fff48293          	addi	t0,s1,-1 # ffff <_vfprintf_r+0xc13>
    b050:	0056f6b3          	and	a3,a3,t0
    b054:	0059f9b3          	and	s3,s3,t0
    b058:	01069693          	slli	a3,a3,0x10
    b05c:	02ba82b3          	mul	t0,s5,a1
    b060:	013686b3          	add	a3,a3,s3
    b064:	02bb05b3          	mul	a1,s6,a1
    b068:	035f89b3          	mul	s3,t6,s5
    b06c:	01358c33          	add	s8,a1,s3
    b070:	0102d593          	srli	a1,t0,0x10
    b074:	018585b3          	add	a1,a1,s8
    b078:	036f8fb3          	mul	t6,t6,s6
    b07c:	0135f463          	bgeu	a1,s3,b084 <__multf3+0x6f8>
    b080:	009f8fb3          	add	t6,t6,s1
    b084:	0105d493          	srli	s1,a1,0x10
    b088:	01f48fb3          	add	t6,s1,t6
    b08c:	000104b7          	lui	s1,0x10
    b090:	fff48993          	addi	s3,s1,-1 # ffff <_vfprintf_r+0xc13>
    b094:	0135f5b3          	and	a1,a1,s3
    b098:	0132f2b3          	and	t0,t0,s3
    b09c:	01059593          	slli	a1,a1,0x10
    b0a0:	032789b3          	mul	s3,a5,s2
    b0a4:	005585b3          	add	a1,a1,t0
    b0a8:	037787b3          	mul	a5,a5,s7
    b0ac:	03cb82b3          	mul	t0,s7,t3
    b0b0:	03c90e33          	mul	t3,s2,t3
    b0b4:	0102dc13          	srli	s8,t0,0x10
    b0b8:	01c787b3          	add	a5,a5,t3
    b0bc:	00fc07b3          	add	a5,s8,a5
    b0c0:	01c7f463          	bgeu	a5,t3,b0c8 <__multf3+0x73c>
    b0c4:	009989b3          	add	s3,s3,s1
    b0c8:	00e50733          	add	a4,a0,a4
    b0cc:	01070833          	add	a6,a4,a6
    b0d0:	01e88f33          	add	t5,a7,t5
    b0d4:	00a73533          	sltu	a0,a4,a0
    b0d8:	00af0533          	add	a0,t5,a0
    b0dc:	00d806b3          	add	a3,a6,a3
    b0e0:	007503b3          	add	t2,a0,t2
    b0e4:	00e83733          	sltu	a4,a6,a4
    b0e8:	06d12023          	sw	a3,96(sp)
    b0ec:	0106b6b3          	sltu	a3,a3,a6
    b0f0:	037a8833          	mul	a6,s5,s7
    b0f4:	00e38733          	add	a4,t2,a4
    b0f8:	01d70eb3          	add	t4,a4,t4
    b0fc:	00de86b3          	add	a3,t4,a3
    b100:	0107de13          	srli	t3,a5,0x10
    b104:	011f38b3          	sltu	a7,t5,a7
    b108:	000104b7          	lui	s1,0x10
    b10c:	01e53f33          	sltu	t5,a0,t5
    b110:	00a3b533          	sltu	a0,t2,a0
    b114:	007733b3          	sltu	t2,a4,t2
    b118:	03590ab3          	mul	s5,s2,s5
    b11c:	013e0e33          	add	t3,t3,s3
    b120:	00756533          	or	a0,a0,t2
    b124:	fff48993          	addi	s3,s1,-1 # ffff <_vfprintf_r+0xc13>
    b128:	00eeb733          	sltu	a4,t4,a4
    b12c:	01e8e8b3          	or	a7,a7,t5
    b130:	01d6beb3          	sltu	t4,a3,t4
    b134:	00a888b3          	add	a7,a7,a0
    b138:	0137f7b3          	and	a5,a5,s3
    b13c:	01d76733          	or	a4,a4,t4
    b140:	032b0933          	mul	s2,s6,s2
    b144:	00b685b3          	add	a1,a3,a1
    b148:	01170733          	add	a4,a4,a7
    b14c:	01079793          	slli	a5,a5,0x10
    b150:	0132f2b3          	and	t0,t0,s3
    b154:	01f70fb3          	add	t6,a4,t6
    b158:	005787b3          	add	a5,a5,t0
    b15c:	00d5b6b3          	sltu	a3,a1,a3
    b160:	00df86b3          	add	a3,t6,a3
    b164:	00f587b3          	add	a5,a1,a5
    b168:	037b0b33          	mul	s6,s6,s7
    b16c:	00efb733          	sltu	a4,t6,a4
    b170:	01c68e33          	add	t3,a3,t3
    b174:	01f6bfb3          	sltu	t6,a3,t6
    b178:	06f12223          	sw	a5,100(sp)
    b17c:	00b7b7b3          	sltu	a5,a5,a1
    b180:	01f76533          	or	a0,a4,t6
    b184:	00fe07b3          	add	a5,t3,a5
    b188:	01085713          	srli	a4,a6,0x10
    b18c:	00de36b3          	sltu	a3,t3,a3
    b190:	015b0b33          	add	s6,s6,s5
    b194:	01c7be33          	sltu	t3,a5,t3
    b198:	01670733          	add	a4,a4,s6
    b19c:	01c6e6b3          	or	a3,a3,t3
    b1a0:	01577463          	bgeu	a4,s5,b1a8 <__multf3+0x81c>
    b1a4:	00990933          	add	s2,s2,s1
    b1a8:	01075593          	srli	a1,a4,0x10
    b1ac:	00a585b3          	add	a1,a1,a0
    b1b0:	00010537          	lui	a0,0x10
    b1b4:	fff50513          	addi	a0,a0,-1 # ffff <_vfprintf_r+0xc13>
    b1b8:	00a77733          	and	a4,a4,a0
    b1bc:	01071713          	slli	a4,a4,0x10
    b1c0:	00a87833          	and	a6,a6,a0
    b1c4:	01070733          	add	a4,a4,a6
    b1c8:	00e78733          	add	a4,a5,a4
    b1cc:	00d586b3          	add	a3,a1,a3
    b1d0:	00f737b3          	sltu	a5,a4,a5
    b1d4:	00f687b3          	add	a5,a3,a5
    b1d8:	012787b3          	add	a5,a5,s2
    b1dc:	06f12623          	sw	a5,108(sp)
    b1e0:	01012783          	lw	a5,16(sp)
    b1e4:	00d31313          	slli	t1,t1,0xd
    b1e8:	06e12423          	sw	a4,104(sp)
    b1ec:	00c7e7b3          	or	a5,a5,a2
    b1f0:	0147e7b3          	or	a5,a5,s4
    b1f4:	00f36333          	or	t1,t1,a5
    b1f8:	06010613          	addi	a2,sp,96
    b1fc:	05010793          	addi	a5,sp,80
    b200:	00c7a703          	lw	a4,12(a5)
    b204:	0107a683          	lw	a3,16(a5)
    b208:	00478793          	addi	a5,a5,4
    b20c:	01375713          	srli	a4,a4,0x13
    b210:	00d69693          	slli	a3,a3,0xd
    b214:	00d76733          	or	a4,a4,a3
    b218:	fee7ae23          	sw	a4,-4(a5)
    b21c:	fef612e3          	bne	a2,a5,b200 <__multf3+0x874>
    b220:	05012783          	lw	a5,80(sp)
    b224:	00603333          	snez	t1,t1
    b228:	05c12703          	lw	a4,92(sp)
    b22c:	00f36333          	or	t1,t1,a5
    b230:	05812783          	lw	a5,88(sp)
    b234:	04e12623          	sw	a4,76(sp)
    b238:	04612023          	sw	t1,64(sp)
    b23c:	04f12423          	sw	a5,72(sp)
    b240:	05412783          	lw	a5,84(sp)
    b244:	04f12223          	sw	a5,68(sp)
    b248:	00b71793          	slli	a5,a4,0xb
    b24c:	0407d863          	bgez	a5,b29c <__multf3+0x910>
    b250:	01f31313          	slli	t1,t1,0x1f
    b254:	04010793          	addi	a5,sp,64
    b258:	04c10593          	addi	a1,sp,76
    b25c:	0007a683          	lw	a3,0(a5)
    b260:	0047a603          	lw	a2,4(a5)
    b264:	00478793          	addi	a5,a5,4
    b268:	0016d693          	srli	a3,a3,0x1
    b26c:	01f61613          	slli	a2,a2,0x1f
    b270:	00c6e6b3          	or	a3,a3,a2
    b274:	fed7ae23          	sw	a3,-4(a5)
    b278:	fef592e3          	bne	a1,a5,b25c <__multf3+0x8d0>
    b27c:	04012783          	lw	a5,64(sp)
    b280:	00603333          	snez	t1,t1
    b284:	00175713          	srli	a4,a4,0x1
    b288:	0067e7b3          	or	a5,a5,t1
    b28c:	04f12023          	sw	a5,64(sp)
    b290:	00812783          	lw	a5,8(sp)
    b294:	04e12623          	sw	a4,76(sp)
    b298:	00f12623          	sw	a5,12(sp)
    b29c:	00c12783          	lw	a5,12(sp)
    b2a0:	00f12423          	sw	a5,8(sp)
    b2a4:	3780006f          	j	b61c <__multf3+0xc90>
    b2a8:	00a7e633          	or	a2,a5,a0
    b2ac:	00d66633          	or	a2,a2,a3
    b2b0:	00e66633          	or	a2,a2,a4
    b2b4:	14060463          	beqz	a2,b3fc <__multf3+0xa70>
    b2b8:	0a070063          	beqz	a4,b358 <__multf3+0x9cc>
    b2bc:	00070513          	mv	a0,a4
    b2c0:	044020ef          	jal	d304 <__clzsi2>
    b2c4:	ff450713          	addi	a4,a0,-12
    b2c8:	40575593          	srai	a1,a4,0x5
    b2cc:	01f77713          	andi	a4,a4,31
    b2d0:	0a070e63          	beqz	a4,b38c <__multf3+0xa00>
    b2d4:	ffc00693          	li	a3,-4
    b2d8:	02d586b3          	mul	a3,a1,a3
    b2dc:	02000813          	li	a6,32
    b2e0:	02010313          	addi	t1,sp,32
    b2e4:	40e80833          	sub	a6,a6,a4
    b2e8:	00c68793          	addi	a5,a3,12 # 1000c <_vfprintf_r+0xc20>
    b2ec:	00f307b3          	add	a5,t1,a5
    b2f0:	40d006b3          	neg	a3,a3
    b2f4:	0cf31463          	bne	t1,a5,b3bc <__multf3+0xa30>
    b2f8:	fff58793          	addi	a5,a1,-1
    b2fc:	00259593          	slli	a1,a1,0x2
    b300:	05058693          	addi	a3,a1,80
    b304:	02010613          	addi	a2,sp,32
    b308:	00c685b3          	add	a1,a3,a2
    b30c:	02012683          	lw	a3,32(sp)
    b310:	00e69733          	sll	a4,a3,a4
    b314:	fae5a823          	sw	a4,-80(a1)
    b318:	00178793          	addi	a5,a5,1
    b31c:	00279793          	slli	a5,a5,0x2
    b320:	00800693          	li	a3,8
    b324:	02010713          	addi	a4,sp,32
    b328:	00d7ea63          	bltu	a5,a3,b33c <__multf3+0x9b0>
    b32c:	02012023          	sw	zero,32(sp)
    b330:	00072223          	sw	zero,4(a4)
    b334:	ff878793          	addi	a5,a5,-8
    b338:	02810713          	addi	a4,sp,40
    b33c:	00400693          	li	a3,4
    b340:	00d7e463          	bltu	a5,a3,b348 <__multf3+0x9bc>
    b344:	00072023          	sw	zero,0(a4)
    b348:	ffffc4b7          	lui	s1,0xffffc
    b34c:	01148493          	addi	s1,s1,17 # ffffc011 <_end+0xfffdedad>
    b350:	40a484b3          	sub	s1,s1,a0
    b354:	f20ff06f          	j	aa74 <__multf3+0xe8>
    b358:	00068a63          	beqz	a3,b36c <__multf3+0x9e0>
    b35c:	00068513          	mv	a0,a3
    b360:	7a5010ef          	jal	d304 <__clzsi2>
    b364:	02050513          	addi	a0,a0,32
    b368:	f5dff06f          	j	b2c4 <__multf3+0x938>
    b36c:	00050863          	beqz	a0,b37c <__multf3+0x9f0>
    b370:	795010ef          	jal	d304 <__clzsi2>
    b374:	04050513          	addi	a0,a0,64
    b378:	f4dff06f          	j	b2c4 <__multf3+0x938>
    b37c:	00078513          	mv	a0,a5
    b380:	785010ef          	jal	d304 <__clzsi2>
    b384:	06050513          	addi	a0,a0,96
    b388:	f3dff06f          	j	b2c4 <__multf3+0x938>
    b38c:	ffc00693          	li	a3,-4
    b390:	02d586b3          	mul	a3,a1,a3
    b394:	02c10793          	addi	a5,sp,44
    b398:	00300713          	li	a4,3
    b39c:	00d78633          	add	a2,a5,a3
    b3a0:	00062603          	lw	a2,0(a2)
    b3a4:	fff70713          	addi	a4,a4,-1
    b3a8:	ffc78793          	addi	a5,a5,-4
    b3ac:	00c7a223          	sw	a2,4(a5)
    b3b0:	feb756e3          	bge	a4,a1,b39c <__multf3+0xa10>
    b3b4:	fff58793          	addi	a5,a1,-1
    b3b8:	f61ff06f          	j	b318 <__multf3+0x98c>
    b3bc:	0007a603          	lw	a2,0(a5)
    b3c0:	ffc7a883          	lw	a7,-4(a5)
    b3c4:	00d78e33          	add	t3,a5,a3
    b3c8:	00e61633          	sll	a2,a2,a4
    b3cc:	0108d8b3          	srl	a7,a7,a6
    b3d0:	01166633          	or	a2,a2,a7
    b3d4:	00ce2023          	sw	a2,0(t3)
    b3d8:	ffc78793          	addi	a5,a5,-4
    b3dc:	f19ff06f          	j	b2f4 <__multf3+0x968>
    b3e0:	00a7e7b3          	or	a5,a5,a0
    b3e4:	00d7e7b3          	or	a5,a5,a3
    b3e8:	00e7e7b3          	or	a5,a5,a4
    b3ec:	00200b93          	li	s7,2
    b3f0:	e8078463          	beqz	a5,aa78 <__multf3+0xec>
    b3f4:	00300b93          	li	s7,3
    b3f8:	e80ff06f          	j	aa78 <__multf3+0xec>
    b3fc:	00000493          	li	s1,0
    b400:	00100b93          	li	s7,1
    b404:	e74ff06f          	j	aa78 <__multf3+0xec>
    b408:	016967b3          	or	a5,s2,s6
    b40c:	0157e7b3          	or	a5,a5,s5
    b410:	00a7e7b3          	or	a5,a5,a0
    b414:	14078463          	beqz	a5,b55c <__multf3+0xbd0>
    b418:	08050e63          	beqz	a0,b4b4 <__multf3+0xb28>
    b41c:	6e9010ef          	jal	d304 <__clzsi2>
    b420:	ff450693          	addi	a3,a0,-12
    b424:	4056d793          	srai	a5,a3,0x5
    b428:	01f6f693          	andi	a3,a3,31
    b42c:	0c068063          	beqz	a3,b4ec <__multf3+0xb60>
    b430:	ffc00613          	li	a2,-4
    b434:	02c78633          	mul	a2,a5,a2
    b438:	02000813          	li	a6,32
    b43c:	03010313          	addi	t1,sp,48
    b440:	40d80833          	sub	a6,a6,a3
    b444:	00c60713          	addi	a4,a2,12
    b448:	00e30733          	add	a4,t1,a4
    b44c:	40c00633          	neg	a2,a2
    b450:	0ce31663          	bne	t1,a4,b51c <__multf3+0xb90>
    b454:	fff78713          	addi	a4,a5,-1
    b458:	00279793          	slli	a5,a5,0x2
    b45c:	02010613          	addi	a2,sp,32
    b460:	05078793          	addi	a5,a5,80
    b464:	00c787b3          	add	a5,a5,a2
    b468:	03012603          	lw	a2,48(sp)
    b46c:	00d616b3          	sll	a3,a2,a3
    b470:	fcd7a023          	sw	a3,-64(a5)
    b474:	00170793          	addi	a5,a4,1
    b478:	00279793          	slli	a5,a5,0x2
    b47c:	00800693          	li	a3,8
    b480:	03010713          	addi	a4,sp,48
    b484:	00d7ea63          	bltu	a5,a3,b498 <__multf3+0xb0c>
    b488:	02012823          	sw	zero,48(sp)
    b48c:	00072223          	sw	zero,4(a4)
    b490:	ff878793          	addi	a5,a5,-8
    b494:	03810713          	addi	a4,sp,56
    b498:	00400693          	li	a3,4
    b49c:	00d7e463          	bltu	a5,a3,b4a4 <__multf3+0xb18>
    b4a0:	00072023          	sw	zero,0(a4)
    b4a4:	ffffc7b7          	lui	a5,0xffffc
    b4a8:	01178793          	addi	a5,a5,17 # ffffc011 <_end+0xfffdedad>
    b4ac:	40a787b3          	sub	a5,a5,a0
    b4b0:	e54ff06f          	j	ab04 <__multf3+0x178>
    b4b4:	000a8a63          	beqz	s5,b4c8 <__multf3+0xb3c>
    b4b8:	000a8513          	mv	a0,s5
    b4bc:	649010ef          	jal	d304 <__clzsi2>
    b4c0:	02050513          	addi	a0,a0,32
    b4c4:	f5dff06f          	j	b420 <__multf3+0xa94>
    b4c8:	000b0a63          	beqz	s6,b4dc <__multf3+0xb50>
    b4cc:	000b0513          	mv	a0,s6
    b4d0:	635010ef          	jal	d304 <__clzsi2>
    b4d4:	04050513          	addi	a0,a0,64
    b4d8:	f49ff06f          	j	b420 <__multf3+0xa94>
    b4dc:	00090513          	mv	a0,s2
    b4e0:	625010ef          	jal	d304 <__clzsi2>
    b4e4:	06050513          	addi	a0,a0,96
    b4e8:	f39ff06f          	j	b420 <__multf3+0xa94>
    b4ec:	ffc00613          	li	a2,-4
    b4f0:	02c78633          	mul	a2,a5,a2
    b4f4:	03c10713          	addi	a4,sp,60
    b4f8:	00300693          	li	a3,3
    b4fc:	00c705b3          	add	a1,a4,a2
    b500:	0005a583          	lw	a1,0(a1)
    b504:	fff68693          	addi	a3,a3,-1
    b508:	ffc70713          	addi	a4,a4,-4
    b50c:	00b72223          	sw	a1,4(a4)
    b510:	fef6d6e3          	bge	a3,a5,b4fc <__multf3+0xb70>
    b514:	fff78713          	addi	a4,a5,-1
    b518:	f5dff06f          	j	b474 <__multf3+0xae8>
    b51c:	00072583          	lw	a1,0(a4)
    b520:	ffc72883          	lw	a7,-4(a4)
    b524:	00c70e33          	add	t3,a4,a2
    b528:	00d595b3          	sll	a1,a1,a3
    b52c:	0108d8b3          	srl	a7,a7,a6
    b530:	0115e5b3          	or	a1,a1,a7
    b534:	00be2023          	sw	a1,0(t3)
    b538:	ffc70713          	addi	a4,a4,-4
    b53c:	f15ff06f          	j	b450 <__multf3+0xac4>
    b540:	01696933          	or	s2,s2,s6
    b544:	01596933          	or	s2,s2,s5
    b548:	00a96933          	or	s2,s2,a0
    b54c:	00200693          	li	a3,2
    b550:	da090c63          	beqz	s2,ab08 <__multf3+0x17c>
    b554:	00300693          	li	a3,3
    b558:	db0ff06f          	j	ab08 <__multf3+0x17c>
    b55c:	00000793          	li	a5,0
    b560:	00100693          	li	a3,1
    b564:	da4ff06f          	j	ab08 <__multf3+0x17c>
    b568:	00100713          	li	a4,1
    b56c:	00f717b3          	sll	a5,a4,a5
    b570:	5307f713          	andi	a4,a5,1328
    b574:	06071863          	bnez	a4,b5e4 <__multf3+0xc58>
    b578:	0887f713          	andi	a4,a5,136
    b57c:	04071063          	bnez	a4,b5bc <__multf3+0xc30>
    b580:	2407f793          	andi	a5,a5,576
    b584:	dc078063          	beqz	a5,ab44 <__multf3+0x1b8>
    b588:	000087b7          	lui	a5,0x8
    b58c:	04f12623          	sw	a5,76(sp)
    b590:	04012423          	sw	zero,72(sp)
    b594:	04012223          	sw	zero,68(sp)
    b598:	04012023          	sw	zero,64(sp)
    b59c:	fff78793          	addi	a5,a5,-1 # 7fff <_start-0x1>
    b5a0:	00012223          	sw	zero,4(sp)
    b5a4:	1440006f          	j	b6e8 <__multf3+0xd5c>
    b5a8:	00f00713          	li	a4,15
    b5ac:	fce78ee3          	beq	a5,a4,b588 <__multf3+0xbfc>
    b5b0:	00b00713          	li	a4,11
    b5b4:	01412223          	sw	s4,4(sp)
    b5b8:	02e79663          	bne	a5,a4,b5e4 <__multf3+0xc58>
    b5bc:	01312223          	sw	s3,4(sp)
    b5c0:	03012783          	lw	a5,48(sp)
    b5c4:	00068b93          	mv	s7,a3
    b5c8:	04f12023          	sw	a5,64(sp)
    b5cc:	03412783          	lw	a5,52(sp)
    b5d0:	04f12223          	sw	a5,68(sp)
    b5d4:	03812783          	lw	a5,56(sp)
    b5d8:	04f12423          	sw	a5,72(sp)
    b5dc:	03c12783          	lw	a5,60(sp)
    b5e0:	0200006f          	j	b600 <__multf3+0xc74>
    b5e4:	02012783          	lw	a5,32(sp)
    b5e8:	04f12023          	sw	a5,64(sp)
    b5ec:	02412783          	lw	a5,36(sp)
    b5f0:	04f12223          	sw	a5,68(sp)
    b5f4:	02812783          	lw	a5,40(sp)
    b5f8:	04f12423          	sw	a5,72(sp)
    b5fc:	02c12783          	lw	a5,44(sp)
    b600:	04f12623          	sw	a5,76(sp)
    b604:	00200793          	li	a5,2
    b608:	36fb8663          	beq	s7,a5,b974 <__multf3+0xfe8>
    b60c:	00300793          	li	a5,3
    b610:	f6fb8ce3          	beq	s7,a5,b588 <__multf3+0xbfc>
    b614:	00100793          	li	a5,1
    b618:	34fb8463          	beq	s7,a5,b960 <__multf3+0xfd4>
    b61c:	00812703          	lw	a4,8(sp)
    b620:	000047b7          	lui	a5,0x4
    b624:	fff78793          	addi	a5,a5,-1 # 3fff <_start-0x4001>
    b628:	00f707b3          	add	a5,a4,a5
    b62c:	12f05a63          	blez	a5,b760 <__multf3+0xdd4>
    b630:	04012703          	lw	a4,64(sp)
    b634:	00777693          	andi	a3,a4,7
    b638:	04068463          	beqz	a3,b680 <__multf3+0xcf4>
    b63c:	00f77693          	andi	a3,a4,15
    b640:	00400613          	li	a2,4
    b644:	02c68e63          	beq	a3,a2,b680 <__multf3+0xcf4>
    b648:	00470713          	addi	a4,a4,4
    b64c:	00473693          	sltiu	a3,a4,4
    b650:	04e12023          	sw	a4,64(sp)
    b654:	04412703          	lw	a4,68(sp)
    b658:	00e68733          	add	a4,a3,a4
    b65c:	04e12223          	sw	a4,68(sp)
    b660:	00d73733          	sltu	a4,a4,a3
    b664:	04812683          	lw	a3,72(sp)
    b668:	00e68733          	add	a4,a3,a4
    b66c:	04e12423          	sw	a4,72(sp)
    b670:	00d73733          	sltu	a4,a4,a3
    b674:	04c12683          	lw	a3,76(sp)
    b678:	00d70733          	add	a4,a4,a3
    b67c:	04e12623          	sw	a4,76(sp)
    b680:	04c12703          	lw	a4,76(sp)
    b684:	00b71693          	slli	a3,a4,0xb
    b688:	0206d063          	bgez	a3,b6a8 <__multf3+0xd1c>
    b68c:	fff007b7          	lui	a5,0xfff00
    b690:	fff78793          	addi	a5,a5,-1 # ffefffff <_end+0xffee2d9b>
    b694:	00f77733          	and	a4,a4,a5
    b698:	04e12623          	sw	a4,76(sp)
    b69c:	00812703          	lw	a4,8(sp)
    b6a0:	000047b7          	lui	a5,0x4
    b6a4:	00f707b3          	add	a5,a4,a5
    b6a8:	04010713          	addi	a4,sp,64
    b6ac:	04c10593          	addi	a1,sp,76
    b6b0:	00072683          	lw	a3,0(a4)
    b6b4:	00472603          	lw	a2,4(a4)
    b6b8:	00470713          	addi	a4,a4,4
    b6bc:	0036d693          	srli	a3,a3,0x3
    b6c0:	01d61613          	slli	a2,a2,0x1d
    b6c4:	00c6e6b3          	or	a3,a3,a2
    b6c8:	fed72e23          	sw	a3,-4(a4)
    b6cc:	fee592e3          	bne	a1,a4,b6b0 <__multf3+0xd24>
    b6d0:	000086b7          	lui	a3,0x8
    b6d4:	ffe68693          	addi	a3,a3,-2 # 7ffe <_start-0x2>
    b6d8:	04c12703          	lw	a4,76(sp)
    b6dc:	28f6cc63          	blt	a3,a5,b974 <__multf3+0xfe8>
    b6e0:	00375713          	srli	a4,a4,0x3
    b6e4:	04e12623          	sw	a4,76(sp)
    b6e8:	04c12703          	lw	a4,76(sp)
    b6ec:	0ac12083          	lw	ra,172(sp)
    b6f0:	00040513          	mv	a0,s0
    b6f4:	04e11e23          	sh	a4,92(sp)
    b6f8:	00412703          	lw	a4,4(sp)
    b6fc:	0a412483          	lw	s1,164(sp)
    b700:	0a012903          	lw	s2,160(sp)
    b704:	00f71713          	slli	a4,a4,0xf
    b708:	00f767b3          	or	a5,a4,a5
    b70c:	04f11f23          	sh	a5,94(sp)
    b710:	04012783          	lw	a5,64(sp)
    b714:	09c12983          	lw	s3,156(sp)
    b718:	09812a03          	lw	s4,152(sp)
    b71c:	00f42023          	sw	a5,0(s0)
    b720:	04412783          	lw	a5,68(sp)
    b724:	09412a83          	lw	s5,148(sp)
    b728:	09012b03          	lw	s6,144(sp)
    b72c:	00f42223          	sw	a5,4(s0)
    b730:	04812783          	lw	a5,72(sp)
    b734:	08c12b83          	lw	s7,140(sp)
    b738:	08812c03          	lw	s8,136(sp)
    b73c:	00f42423          	sw	a5,8(s0)
    b740:	05c12783          	lw	a5,92(sp)
    b744:	08412c83          	lw	s9,132(sp)
    b748:	08012d03          	lw	s10,128(sp)
    b74c:	00f42623          	sw	a5,12(s0)
    b750:	0a812403          	lw	s0,168(sp)
    b754:	07c12d83          	lw	s11,124(sp)
    b758:	0b010113          	addi	sp,sp,176
    b75c:	00008067          	ret
    b760:	00100693          	li	a3,1
    b764:	40f686b3          	sub	a3,a3,a5
    b768:	07400793          	li	a5,116
    b76c:	1cd7ca63          	blt	a5,a3,b940 <__multf3+0xfb4>
    b770:	04010613          	addi	a2,sp,64
    b774:	4056d713          	srai	a4,a3,0x5
    b778:	00060513          	mv	a0,a2
    b77c:	01f6f693          	andi	a3,a3,31
    b780:	00000793          	li	a5,0
    b784:	00000593          	li	a1,0
    b788:	02e59e63          	bne	a1,a4,b7c4 <__multf3+0xe38>
    b78c:	00300593          	li	a1,3
    b790:	40e585b3          	sub	a1,a1,a4
    b794:	00271513          	slli	a0,a4,0x2
    b798:	04069063          	bnez	a3,b7d8 <__multf3+0xe4c>
    b79c:	00060813          	mv	a6,a2
    b7a0:	00a808b3          	add	a7,a6,a0
    b7a4:	0008a883          	lw	a7,0(a7) # 10000 <_vfprintf_r+0xc14>
    b7a8:	00168693          	addi	a3,a3,1
    b7ac:	00480813          	addi	a6,a6,4
    b7b0:	ff182e23          	sw	a7,-4(a6)
    b7b4:	fed5d6e3          	bge	a1,a3,b7a0 <__multf3+0xe14>
    b7b8:	00400693          	li	a3,4
    b7bc:	40e68733          	sub	a4,a3,a4
    b7c0:	06c0006f          	j	b82c <__multf3+0xea0>
    b7c4:	00052803          	lw	a6,0(a0)
    b7c8:	00158593          	addi	a1,a1,1
    b7cc:	00450513          	addi	a0,a0,4
    b7d0:	0107e7b3          	or	a5,a5,a6
    b7d4:	fb5ff06f          	j	b788 <__multf3+0xdfc>
    b7d8:	05050813          	addi	a6,a0,80
    b7dc:	02010893          	addi	a7,sp,32
    b7e0:	01180833          	add	a6,a6,a7
    b7e4:	fd082803          	lw	a6,-48(a6)
    b7e8:	02000313          	li	t1,32
    b7ec:	40d30333          	sub	t1,t1,a3
    b7f0:	00681833          	sll	a6,a6,t1
    b7f4:	0107e7b3          	or	a5,a5,a6
    b7f8:	00000e13          	li	t3,0
    b7fc:	00a60833          	add	a6,a2,a0
    b800:	40a00533          	neg	a0,a0
    b804:	0ebe4063          	blt	t3,a1,b8e4 <__multf3+0xf58>
    b808:	00400513          	li	a0,4
    b80c:	00259593          	slli	a1,a1,0x2
    b810:	40e50733          	sub	a4,a0,a4
    b814:	05058593          	addi	a1,a1,80
    b818:	02010513          	addi	a0,sp,32
    b81c:	00a585b3          	add	a1,a1,a0
    b820:	04c12503          	lw	a0,76(sp)
    b824:	00d556b3          	srl	a3,a0,a3
    b828:	fcd5a823          	sw	a3,-48(a1)
    b82c:	00400693          	li	a3,4
    b830:	40e686b3          	sub	a3,a3,a4
    b834:	00269693          	slli	a3,a3,0x2
    b838:	00271713          	slli	a4,a4,0x2
    b83c:	00800593          	li	a1,8
    b840:	00e60733          	add	a4,a2,a4
    b844:	00b6ea63          	bltu	a3,a1,b858 <__multf3+0xecc>
    b848:	00072023          	sw	zero,0(a4)
    b84c:	00072223          	sw	zero,4(a4)
    b850:	ff868693          	addi	a3,a3,-8
    b854:	00870713          	addi	a4,a4,8
    b858:	00400593          	li	a1,4
    b85c:	00b6e463          	bltu	a3,a1,b864 <__multf3+0xed8>
    b860:	00072023          	sw	zero,0(a4)
    b864:	04012703          	lw	a4,64(sp)
    b868:	00f037b3          	snez	a5,a5
    b86c:	00e7e7b3          	or	a5,a5,a4
    b870:	04f12023          	sw	a5,64(sp)
    b874:	0077f713          	andi	a4,a5,7
    b878:	04070463          	beqz	a4,b8c0 <__multf3+0xf34>
    b87c:	00f7f713          	andi	a4,a5,15
    b880:	00400693          	li	a3,4
    b884:	02d70e63          	beq	a4,a3,b8c0 <__multf3+0xf34>
    b888:	04412703          	lw	a4,68(sp)
    b88c:	00478793          	addi	a5,a5,4 # 4004 <_start-0x3ffc>
    b890:	04f12023          	sw	a5,64(sp)
    b894:	0047b793          	sltiu	a5,a5,4
    b898:	00f707b3          	add	a5,a4,a5
    b89c:	04f12223          	sw	a5,68(sp)
    b8a0:	00e7b7b3          	sltu	a5,a5,a4
    b8a4:	04812703          	lw	a4,72(sp)
    b8a8:	00f707b3          	add	a5,a4,a5
    b8ac:	04f12423          	sw	a5,72(sp)
    b8b0:	00e7b7b3          	sltu	a5,a5,a4
    b8b4:	04c12703          	lw	a4,76(sp)
    b8b8:	00e787b3          	add	a5,a5,a4
    b8bc:	04f12623          	sw	a5,76(sp)
    b8c0:	04c12703          	lw	a4,76(sp)
    b8c4:	00c71793          	slli	a5,a4,0xc
    b8c8:	0407d263          	bgez	a5,b90c <__multf3+0xf80>
    b8cc:	04012623          	sw	zero,76(sp)
    b8d0:	04012423          	sw	zero,72(sp)
    b8d4:	04012223          	sw	zero,68(sp)
    b8d8:	04012023          	sw	zero,64(sp)
    b8dc:	00100793          	li	a5,1
    b8e0:	e09ff06f          	j	b6e8 <__multf3+0xd5c>
    b8e4:	00082883          	lw	a7,0(a6)
    b8e8:	00482e83          	lw	t4,4(a6)
    b8ec:	00a80f33          	add	t5,a6,a0
    b8f0:	00d8d8b3          	srl	a7,a7,a3
    b8f4:	006e9eb3          	sll	t4,t4,t1
    b8f8:	01d8e8b3          	or	a7,a7,t4
    b8fc:	011f2023          	sw	a7,0(t5)
    b900:	001e0e13          	addi	t3,t3,1
    b904:	00480813          	addi	a6,a6,4
    b908:	efdff06f          	j	b804 <__multf3+0xe78>
    b90c:	00c60593          	addi	a1,a2,12
    b910:	00062783          	lw	a5,0(a2)
    b914:	00462683          	lw	a3,4(a2)
    b918:	00460613          	addi	a2,a2,4
    b91c:	0037d793          	srli	a5,a5,0x3
    b920:	01d69693          	slli	a3,a3,0x1d
    b924:	00d7e7b3          	or	a5,a5,a3
    b928:	fef62e23          	sw	a5,-4(a2)
    b92c:	fec592e3          	bne	a1,a2,b910 <__multf3+0xf84>
    b930:	00375713          	srli	a4,a4,0x3
    b934:	04e12623          	sw	a4,76(sp)
    b938:	00000793          	li	a5,0
    b93c:	dadff06f          	j	b6e8 <__multf3+0xd5c>
    b940:	04412703          	lw	a4,68(sp)
    b944:	04012783          	lw	a5,64(sp)
    b948:	00e7e7b3          	or	a5,a5,a4
    b94c:	04812703          	lw	a4,72(sp)
    b950:	00e7e7b3          	or	a5,a5,a4
    b954:	04c12703          	lw	a4,76(sp)
    b958:	00e7e7b3          	or	a5,a5,a4
    b95c:	fc078ee3          	beqz	a5,b938 <__multf3+0xfac>
    b960:	04012623          	sw	zero,76(sp)
    b964:	04012423          	sw	zero,72(sp)
    b968:	04012223          	sw	zero,68(sp)
    b96c:	04012023          	sw	zero,64(sp)
    b970:	fc9ff06f          	j	b938 <__multf3+0xfac>
    b974:	000087b7          	lui	a5,0x8
    b978:	04012623          	sw	zero,76(sp)
    b97c:	04012423          	sw	zero,72(sp)
    b980:	04012223          	sw	zero,68(sp)
    b984:	04012023          	sw	zero,64(sp)
    b988:	fff78793          	addi	a5,a5,-1 # 7fff <_start-0x1>
    b98c:	d5dff06f          	j	b6e8 <__multf3+0xd5c>

0000b990 <__subtf3>:
    b990:	f9010113          	addi	sp,sp,-112
    b994:	0085a703          	lw	a4,8(a1)
    b998:	05512a23          	sw	s5,84(sp)
    b99c:	00c5aa83          	lw	s5,12(a1)
    b9a0:	0005a783          	lw	a5,0(a1)
    b9a4:	0045a683          	lw	a3,4(a1)
    b9a8:	02e12c23          	sw	a4,56(sp)
    b9ac:	00e12c23          	sw	a4,24(sp)
    b9b0:	010a9713          	slli	a4,s5,0x10
    b9b4:	06912223          	sw	s1,100(sp)
    b9b8:	01075713          	srli	a4,a4,0x10
    b9bc:	001a9493          	slli	s1,s5,0x1
    b9c0:	00462803          	lw	a6,4(a2)
    b9c4:	00862583          	lw	a1,8(a2)
    b9c8:	06812423          	sw	s0,104(sp)
    b9cc:	07212023          	sw	s2,96(sp)
    b9d0:	00062403          	lw	s0,0(a2)
    b9d4:	00c62903          	lw	s2,12(a2)
    b9d8:	05412c23          	sw	s4,88(sp)
    b9dc:	03512e23          	sw	s5,60(sp)
    b9e0:	00050a13          	mv	s4,a0
    b9e4:	06112623          	sw	ra,108(sp)
    b9e8:	05312e23          	sw	s3,92(sp)
    b9ec:	05612823          	sw	s6,80(sp)
    b9f0:	05712623          	sw	s7,76(sp)
    b9f4:	05812423          	sw	s8,72(sp)
    b9f8:	02f12823          	sw	a5,48(sp)
    b9fc:	02d12a23          	sw	a3,52(sp)
    ba00:	00f12823          	sw	a5,16(sp)
    ba04:	00d12a23          	sw	a3,20(sp)
    ba08:	00e12e23          	sw	a4,28(sp)
    ba0c:	0114d493          	srli	s1,s1,0x11
    ba10:	01fada93          	srli	s5,s5,0x1f
    ba14:	01010513          	addi	a0,sp,16
    ba18:	01c10613          	addi	a2,sp,28
    ba1c:	00062703          	lw	a4,0(a2)
    ba20:	ffc62683          	lw	a3,-4(a2)
    ba24:	ffc60613          	addi	a2,a2,-4
    ba28:	00371713          	slli	a4,a4,0x3
    ba2c:	01d6d693          	srli	a3,a3,0x1d
    ba30:	00d76733          	or	a4,a4,a3
    ba34:	00e62223          	sw	a4,4(a2)
    ba38:	fec512e3          	bne	a0,a2,ba1c <__subtf3+0x8c>
    ba3c:	01091713          	slli	a4,s2,0x10
    ba40:	00191b93          	slli	s7,s2,0x1
    ba44:	00379793          	slli	a5,a5,0x3
    ba48:	01075713          	srli	a4,a4,0x10
    ba4c:	03012a23          	sw	a6,52(sp)
    ba50:	03212e23          	sw	s2,60(sp)
    ba54:	03012223          	sw	a6,36(sp)
    ba58:	00f12823          	sw	a5,16(sp)
    ba5c:	02812823          	sw	s0,48(sp)
    ba60:	02b12c23          	sw	a1,56(sp)
    ba64:	02812023          	sw	s0,32(sp)
    ba68:	02b12423          	sw	a1,40(sp)
    ba6c:	02e12623          	sw	a4,44(sp)
    ba70:	011bdb93          	srli	s7,s7,0x11
    ba74:	01f95913          	srli	s2,s2,0x1f
    ba78:	02010813          	addi	a6,sp,32
    ba7c:	02c10313          	addi	t1,sp,44
    ba80:	00032703          	lw	a4,0(t1)
    ba84:	ffc32683          	lw	a3,-4(t1)
    ba88:	ffc30313          	addi	t1,t1,-4
    ba8c:	00371713          	slli	a4,a4,0x3
    ba90:	01d6d693          	srli	a3,a3,0x1d
    ba94:	00d76733          	or	a4,a4,a3
    ba98:	00e32223          	sw	a4,4(t1)
    ba9c:	fe6812e3          	bne	a6,t1,ba80 <__subtf3+0xf0>
    baa0:	00341413          	slli	s0,s0,0x3
    baa4:	00008737          	lui	a4,0x8
    baa8:	02812023          	sw	s0,32(sp)
    baac:	fff70713          	addi	a4,a4,-1 # 7fff <_start-0x1>
    bab0:	02eb9063          	bne	s7,a4,bad0 <__subtf3+0x140>
    bab4:	02812683          	lw	a3,40(sp)
    bab8:	02412703          	lw	a4,36(sp)
    babc:	00d76733          	or	a4,a4,a3
    bac0:	02c12683          	lw	a3,44(sp)
    bac4:	00d76733          	or	a4,a4,a3
    bac8:	00876733          	or	a4,a4,s0
    bacc:	00071463          	bnez	a4,bad4 <__subtf3+0x144>
    bad0:	00194913          	xori	s2,s2,1
    bad4:	417488b3          	sub	a7,s1,s7
    bad8:	095916e3          	bne	s2,s5,c364 <__subtf3+0x9d4>
    badc:	45105263          	blez	a7,bf20 <__subtf3+0x590>
    bae0:	01412903          	lw	s2,20(sp)
    bae4:	01812983          	lw	s3,24(sp)
    bae8:	01c12b03          	lw	s6,28(sp)
    baec:	0a0b9263          	bnez	s7,bb90 <__subtf3+0x200>
    baf0:	02412683          	lw	a3,36(sp)
    baf4:	02812703          	lw	a4,40(sp)
    baf8:	02c12583          	lw	a1,44(sp)
    bafc:	00e6e633          	or	a2,a3,a4
    bb00:	00b66633          	or	a2,a2,a1
    bb04:	00866633          	or	a2,a2,s0
    bb08:	00061e63          	bnez	a2,bb24 <__subtf3+0x194>
    bb0c:	02f12823          	sw	a5,48(sp)
    bb10:	03212a23          	sw	s2,52(sp)
    bb14:	03312c23          	sw	s3,56(sp)
    bb18:	03612e23          	sw	s6,60(sp)
    bb1c:	00088493          	mv	s1,a7
    bb20:	08c0006f          	j	bbac <__subtf3+0x21c>
    bb24:	fff88613          	addi	a2,a7,-1
    bb28:	04061863          	bnez	a2,bb78 <__subtf3+0x1e8>
    bb2c:	00878433          	add	s0,a5,s0
    bb30:	01268933          	add	s2,a3,s2
    bb34:	02812823          	sw	s0,48(sp)
    bb38:	00f43433          	sltu	s0,s0,a5
    bb3c:	00890433          	add	s0,s2,s0
    bb40:	02812a23          	sw	s0,52(sp)
    bb44:	00d936b3          	sltu	a3,s2,a3
    bb48:	01243433          	sltu	s0,s0,s2
    bb4c:	013709b3          	add	s3,a4,s3
    bb50:	0086e6b3          	or	a3,a3,s0
    bb54:	00d986b3          	add	a3,s3,a3
    bb58:	02d12c23          	sw	a3,56(sp)
    bb5c:	00e9b7b3          	sltu	a5,s3,a4
    bb60:	0136b6b3          	sltu	a3,a3,s3
    bb64:	00d7e7b3          	or	a5,a5,a3
    bb68:	016585b3          	add	a1,a1,s6
    bb6c:	00b787b3          	add	a5,a5,a1
    bb70:	00100493          	li	s1,1
    bb74:	2fc0006f          	j	be70 <__subtf3+0x4e0>
    bb78:	00008737          	lui	a4,0x8
    bb7c:	fff70713          	addi	a4,a4,-1 # 7fff <_start-0x1>
    bb80:	00e88463          	beq	a7,a4,bb88 <__subtf3+0x1f8>
    bb84:	2500106f          	j	cdd4 <__subtf3+0x1444>
    bb88:	02f12823          	sw	a5,48(sp)
    bb8c:	4400006f          	j	bfcc <__subtf3+0x63c>
    bb90:	00008737          	lui	a4,0x8
    bb94:	fff70713          	addi	a4,a4,-1 # 7fff <_start-0x1>
    bb98:	16e49a63          	bne	s1,a4,bd0c <__subtf3+0x37c>
    bb9c:	02f12823          	sw	a5,48(sp)
    bba0:	03212a23          	sw	s2,52(sp)
    bba4:	03312c23          	sw	s3,56(sp)
    bba8:	03612e23          	sw	s6,60(sp)
    bbac:	03012783          	lw	a5,48(sp)
    bbb0:	0077f713          	andi	a4,a5,7
    bbb4:	04070463          	beqz	a4,bbfc <__subtf3+0x26c>
    bbb8:	00f7f713          	andi	a4,a5,15
    bbbc:	00400693          	li	a3,4
    bbc0:	02d70e63          	beq	a4,a3,bbfc <__subtf3+0x26c>
    bbc4:	03412703          	lw	a4,52(sp)
    bbc8:	00478793          	addi	a5,a5,4
    bbcc:	02f12823          	sw	a5,48(sp)
    bbd0:	0047b793          	sltiu	a5,a5,4
    bbd4:	00f707b3          	add	a5,a4,a5
    bbd8:	02f12a23          	sw	a5,52(sp)
    bbdc:	00e7b7b3          	sltu	a5,a5,a4
    bbe0:	03812703          	lw	a4,56(sp)
    bbe4:	00f707b3          	add	a5,a4,a5
    bbe8:	02f12c23          	sw	a5,56(sp)
    bbec:	00e7b7b3          	sltu	a5,a5,a4
    bbf0:	03c12703          	lw	a4,60(sp)
    bbf4:	00e787b3          	add	a5,a5,a4
    bbf8:	02f12e23          	sw	a5,60(sp)
    bbfc:	03c12783          	lw	a5,60(sp)
    bc00:	00c79713          	slli	a4,a5,0xc
    bc04:	02075463          	bgez	a4,bc2c <__subtf3+0x29c>
    bc08:	00008737          	lui	a4,0x8
    bc0c:	00148493          	addi	s1,s1,1
    bc10:	fff70713          	addi	a4,a4,-1 # 7fff <_start-0x1>
    bc14:	00e49463          	bne	s1,a4,bc1c <__subtf3+0x28c>
    bc18:	1a80106f          	j	cdc0 <__subtf3+0x1430>
    bc1c:	fff80737          	lui	a4,0xfff80
    bc20:	fff70713          	addi	a4,a4,-1 # fff7ffff <_end+0xfff62d9b>
    bc24:	00e7f7b3          	and	a5,a5,a4
    bc28:	02f12e23          	sw	a5,60(sp)
    bc2c:	03010793          	addi	a5,sp,48
    bc30:	03c10613          	addi	a2,sp,60
    bc34:	0007a703          	lw	a4,0(a5)
    bc38:	0047a683          	lw	a3,4(a5)
    bc3c:	00478793          	addi	a5,a5,4
    bc40:	00375713          	srli	a4,a4,0x3
    bc44:	01d69693          	slli	a3,a3,0x1d
    bc48:	00d76733          	or	a4,a4,a3
    bc4c:	fee7ae23          	sw	a4,-4(a5)
    bc50:	fec792e3          	bne	a5,a2,bc34 <__subtf3+0x2a4>
    bc54:	03c12703          	lw	a4,60(sp)
    bc58:	000086b7          	lui	a3,0x8
    bc5c:	fff68793          	addi	a5,a3,-1 # 7fff <_start-0x1>
    bc60:	00375713          	srli	a4,a4,0x3
    bc64:	02e12e23          	sw	a4,60(sp)
    bc68:	02f49a63          	bne	s1,a5,bc9c <__subtf3+0x30c>
    bc6c:	03412603          	lw	a2,52(sp)
    bc70:	03012783          	lw	a5,48(sp)
    bc74:	00c7e7b3          	or	a5,a5,a2
    bc78:	03812603          	lw	a2,56(sp)
    bc7c:	00c7e7b3          	or	a5,a5,a2
    bc80:	00e7e7b3          	or	a5,a5,a4
    bc84:	00078c63          	beqz	a5,bc9c <__subtf3+0x30c>
    bc88:	02d12e23          	sw	a3,60(sp)
    bc8c:	02012c23          	sw	zero,56(sp)
    bc90:	02012a23          	sw	zero,52(sp)
    bc94:	02012823          	sw	zero,48(sp)
    bc98:	00000a93          	li	s5,0
    bc9c:	03c12783          	lw	a5,60(sp)
    bca0:	01149493          	slli	s1,s1,0x11
    bca4:	0114d493          	srli	s1,s1,0x11
    bca8:	00f11623          	sh	a5,12(sp)
    bcac:	03012783          	lw	a5,48(sp)
    bcb0:	00fa9a93          	slli	s5,s5,0xf
    bcb4:	009aeab3          	or	s5,s5,s1
    bcb8:	00fa2023          	sw	a5,0(s4)
    bcbc:	03412783          	lw	a5,52(sp)
    bcc0:	01511723          	sh	s5,14(sp)
    bcc4:	06c12083          	lw	ra,108(sp)
    bcc8:	00fa2223          	sw	a5,4(s4)
    bccc:	03812783          	lw	a5,56(sp)
    bcd0:	06812403          	lw	s0,104(sp)
    bcd4:	06412483          	lw	s1,100(sp)
    bcd8:	00fa2423          	sw	a5,8(s4)
    bcdc:	00c12783          	lw	a5,12(sp)
    bce0:	06012903          	lw	s2,96(sp)
    bce4:	05c12983          	lw	s3,92(sp)
    bce8:	00fa2623          	sw	a5,12(s4)
    bcec:	05412a83          	lw	s5,84(sp)
    bcf0:	05012b03          	lw	s6,80(sp)
    bcf4:	04c12b83          	lw	s7,76(sp)
    bcf8:	04812c03          	lw	s8,72(sp)
    bcfc:	000a0513          	mv	a0,s4
    bd00:	05812a03          	lw	s4,88(sp)
    bd04:	07010113          	addi	sp,sp,112
    bd08:	00008067          	ret
    bd0c:	02c12703          	lw	a4,44(sp)
    bd10:	000806b7          	lui	a3,0x80
    bd14:	00d76733          	or	a4,a4,a3
    bd18:	02e12623          	sw	a4,44(sp)
    bd1c:	07400713          	li	a4,116
    bd20:	01175463          	bge	a4,a7,bd28 <__subtf3+0x398>
    bd24:	0bc0106f          	j	cde0 <__subtf3+0x1450>
    bd28:	00088613          	mv	a2,a7
    bd2c:	40565693          	srai	a3,a2,0x5
    bd30:	00030513          	mv	a0,t1
    bd34:	01f67613          	andi	a2,a2,31
    bd38:	00000713          	li	a4,0
    bd3c:	00000593          	li	a1,0
    bd40:	02d59c63          	bne	a1,a3,bd78 <__subtf3+0x3e8>
    bd44:	00300593          	li	a1,3
    bd48:	40d585b3          	sub	a1,a1,a3
    bd4c:	00269513          	slli	a0,a3,0x2
    bd50:	02061e63          	bnez	a2,bd8c <__subtf3+0x3fc>
    bd54:	00a308b3          	add	a7,t1,a0
    bd58:	0008a883          	lw	a7,0(a7)
    bd5c:	00160613          	addi	a2,a2,1
    bd60:	00430313          	addi	t1,t1,4
    bd64:	ff132e23          	sw	a7,-4(t1)
    bd68:	fec5d6e3          	bge	a1,a2,bd54 <__subtf3+0x3c4>
    bd6c:	00400613          	li	a2,4
    bd70:	40d606b3          	sub	a3,a2,a3
    bd74:	0640006f          	j	bdd8 <__subtf3+0x448>
    bd78:	00052883          	lw	a7,0(a0)
    bd7c:	00158593          	addi	a1,a1,1
    bd80:	00450513          	addi	a0,a0,4
    bd84:	01176733          	or	a4,a4,a7
    bd88:	fb9ff06f          	j	bd40 <__subtf3+0x3b0>
    bd8c:	04050893          	addi	a7,a0,64
    bd90:	002888b3          	add	a7,a7,sp
    bd94:	fe08a883          	lw	a7,-32(a7)
    bd98:	02000e13          	li	t3,32
    bd9c:	40ce0e33          	sub	t3,t3,a2
    bda0:	01c898b3          	sll	a7,a7,t3
    bda4:	01176733          	or	a4,a4,a7
    bda8:	00000e93          	li	t4,0
    bdac:	00a808b3          	add	a7,a6,a0
    bdb0:	40a00533          	neg	a0,a0
    bdb4:	14bec263          	blt	t4,a1,bef8 <__subtf3+0x568>
    bdb8:	00400513          	li	a0,4
    bdbc:	40d506b3          	sub	a3,a0,a3
    bdc0:	02c12503          	lw	a0,44(sp)
    bdc4:	00259593          	slli	a1,a1,0x2
    bdc8:	04058593          	addi	a1,a1,64
    bdcc:	002585b3          	add	a1,a1,sp
    bdd0:	00c55633          	srl	a2,a0,a2
    bdd4:	fec5a023          	sw	a2,-32(a1)
    bdd8:	00400613          	li	a2,4
    bddc:	40d60633          	sub	a2,a2,a3
    bde0:	00261613          	slli	a2,a2,0x2
    bde4:	00269693          	slli	a3,a3,0x2
    bde8:	00800593          	li	a1,8
    bdec:	00d806b3          	add	a3,a6,a3
    bdf0:	00b66a63          	bltu	a2,a1,be04 <__subtf3+0x474>
    bdf4:	0006a023          	sw	zero,0(a3) # 80000 <_end+0x62d9c>
    bdf8:	0006a223          	sw	zero,4(a3)
    bdfc:	ff860613          	addi	a2,a2,-8
    be00:	00868693          	addi	a3,a3,8
    be04:	00400593          	li	a1,4
    be08:	00b66463          	bltu	a2,a1,be10 <__subtf3+0x480>
    be0c:	0006a023          	sw	zero,0(a3)
    be10:	02012683          	lw	a3,32(sp)
    be14:	00e03733          	snez	a4,a4
    be18:	00d76733          	or	a4,a4,a3
    be1c:	02412683          	lw	a3,36(sp)
    be20:	02e12023          	sw	a4,32(sp)
    be24:	00e78733          	add	a4,a5,a4
    be28:	01268933          	add	s2,a3,s2
    be2c:	02e12823          	sw	a4,48(sp)
    be30:	00f73733          	sltu	a4,a4,a5
    be34:	02812783          	lw	a5,40(sp)
    be38:	00e90733          	add	a4,s2,a4
    be3c:	02e12a23          	sw	a4,52(sp)
    be40:	00d936b3          	sltu	a3,s2,a3
    be44:	01273733          	sltu	a4,a4,s2
    be48:	013789b3          	add	s3,a5,s3
    be4c:	00e6e733          	or	a4,a3,a4
    be50:	00e98733          	add	a4,s3,a4
    be54:	02e12c23          	sw	a4,56(sp)
    be58:	00f9b7b3          	sltu	a5,s3,a5
    be5c:	01373733          	sltu	a4,a4,s3
    be60:	00e7e7b3          	or	a5,a5,a4
    be64:	02c12703          	lw	a4,44(sp)
    be68:	00eb0733          	add	a4,s6,a4
    be6c:	00e787b3          	add	a5,a5,a4
    be70:	02f12e23          	sw	a5,60(sp)
    be74:	00c79713          	slli	a4,a5,0xc
    be78:	d2075ae3          	bgez	a4,bbac <__subtf3+0x21c>
    be7c:	03012683          	lw	a3,48(sp)
    be80:	fff80737          	lui	a4,0xfff80
    be84:	fff70713          	addi	a4,a4,-1 # fff7ffff <_end+0xfff62d9b>
    be88:	00e7f7b3          	and	a5,a5,a4
    be8c:	02f12e23          	sw	a5,60(sp)
    be90:	00148493          	addi	s1,s1,1
    be94:	01f69693          	slli	a3,a3,0x1f
    be98:	03010713          	addi	a4,sp,48
    be9c:	03c10513          	addi	a0,sp,60
    bea0:	00072603          	lw	a2,0(a4)
    bea4:	00472583          	lw	a1,4(a4)
    bea8:	00470713          	addi	a4,a4,4
    beac:	00165613          	srli	a2,a2,0x1
    beb0:	01f59593          	slli	a1,a1,0x1f
    beb4:	00b66633          	or	a2,a2,a1
    beb8:	fec72e23          	sw	a2,-4(a4)
    bebc:	fee512e3          	bne	a0,a4,bea0 <__subtf3+0x510>
    bec0:	03012703          	lw	a4,48(sp)
    bec4:	0017d793          	srli	a5,a5,0x1
    bec8:	02f12e23          	sw	a5,60(sp)
    becc:	00d037b3          	snez	a5,a3
    bed0:	00f767b3          	or	a5,a4,a5
    bed4:	02f12823          	sw	a5,48(sp)
    bed8:	000087b7          	lui	a5,0x8
    bedc:	fff78793          	addi	a5,a5,-1 # 7fff <_start-0x1>
    bee0:	ccf496e3          	bne	s1,a5,bbac <__subtf3+0x21c>
    bee4:	02012e23          	sw	zero,60(sp)
    bee8:	02012c23          	sw	zero,56(sp)
    beec:	02012a23          	sw	zero,52(sp)
    bef0:	02012823          	sw	zero,48(sp)
    bef4:	cb9ff06f          	j	bbac <__subtf3+0x21c>
    bef8:	0008a303          	lw	t1,0(a7)
    befc:	0048af03          	lw	t5,4(a7)
    bf00:	00a88fb3          	add	t6,a7,a0
    bf04:	00c35333          	srl	t1,t1,a2
    bf08:	01cf1f33          	sll	t5,t5,t3
    bf0c:	01e36333          	or	t1,t1,t5
    bf10:	006fa023          	sw	t1,0(t6)
    bf14:	001e8e93          	addi	t4,t4,1
    bf18:	00488893          	addi	a7,a7,4
    bf1c:	e99ff06f          	j	bdb4 <__subtf3+0x424>
    bf20:	02412903          	lw	s2,36(sp)
    bf24:	02812983          	lw	s3,40(sp)
    bf28:	02c12b03          	lw	s6,44(sp)
    bf2c:	26088263          	beqz	a7,c190 <__subtf3+0x800>
    bf30:	409b8833          	sub	a6,s7,s1
    bf34:	0a049c63          	bnez	s1,bfec <__subtf3+0x65c>
    bf38:	01412683          	lw	a3,20(sp)
    bf3c:	01812703          	lw	a4,24(sp)
    bf40:	01c12883          	lw	a7,28(sp)
    bf44:	00e6e5b3          	or	a1,a3,a4
    bf48:	0115e5b3          	or	a1,a1,a7
    bf4c:	00f5e5b3          	or	a1,a1,a5
    bf50:	00059e63          	bnez	a1,bf6c <__subtf3+0x5dc>
    bf54:	02812823          	sw	s0,48(sp)
    bf58:	03212a23          	sw	s2,52(sp)
    bf5c:	03312c23          	sw	s3,56(sp)
    bf60:	03612e23          	sw	s6,60(sp)
    bf64:	00080493          	mv	s1,a6
    bf68:	c45ff06f          	j	bbac <__subtf3+0x21c>
    bf6c:	fff80593          	addi	a1,a6,-1
    bf70:	04059663          	bnez	a1,bfbc <__subtf3+0x62c>
    bf74:	00878433          	add	s0,a5,s0
    bf78:	01268933          	add	s2,a3,s2
    bf7c:	02812823          	sw	s0,48(sp)
    bf80:	00f43433          	sltu	s0,s0,a5
    bf84:	00890433          	add	s0,s2,s0
    bf88:	02812a23          	sw	s0,52(sp)
    bf8c:	00d936b3          	sltu	a3,s2,a3
    bf90:	01243433          	sltu	s0,s0,s2
    bf94:	013709b3          	add	s3,a4,s3
    bf98:	0086e6b3          	or	a3,a3,s0
    bf9c:	00d986b3          	add	a3,s3,a3
    bfa0:	02d12c23          	sw	a3,56(sp)
    bfa4:	00e9b7b3          	sltu	a5,s3,a4
    bfa8:	0136b6b3          	sltu	a3,a3,s3
    bfac:	00d7e7b3          	or	a5,a5,a3
    bfb0:	016888b3          	add	a7,a7,s6
    bfb4:	011787b3          	add	a5,a5,a7
    bfb8:	bb9ff06f          	j	bb70 <__subtf3+0x1e0>
    bfbc:	000087b7          	lui	a5,0x8
    bfc0:	fff78793          	addi	a5,a5,-1 # 7fff <_start-0x1>
    bfc4:	62f818e3          	bne	a6,a5,cdf4 <__subtf3+0x1464>
    bfc8:	02812823          	sw	s0,48(sp)
    bfcc:	03212a23          	sw	s2,52(sp)
    bfd0:	03312c23          	sw	s3,56(sp)
    bfd4:	03612e23          	sw	s6,60(sp)
    bfd8:	000084b7          	lui	s1,0x8
    bfdc:	fff48493          	addi	s1,s1,-1 # 7fff <_start-0x1>
    bfe0:	bcdff06f          	j	bbac <__subtf3+0x21c>
    bfe4:	00078413          	mv	s0,a5
    bfe8:	fe1ff06f          	j	bfc8 <__subtf3+0x638>
    bfec:	000087b7          	lui	a5,0x8
    bff0:	fff78793          	addi	a5,a5,-1 # 7fff <_start-0x1>
    bff4:	fcfb8ae3          	beq	s7,a5,bfc8 <__subtf3+0x638>
    bff8:	01c12783          	lw	a5,28(sp)
    bffc:	00080737          	lui	a4,0x80
    c000:	00e7e7b3          	or	a5,a5,a4
    c004:	00f12e23          	sw	a5,28(sp)
    c008:	07400793          	li	a5,116
    c00c:	5f07c8e3          	blt	a5,a6,cdfc <__subtf3+0x146c>
    c010:	00080593          	mv	a1,a6
    c014:	02000713          	li	a4,32
    c018:	02e5c733          	div	a4,a1,a4
    c01c:	00060693          	mv	a3,a2
    c020:	00000493          	li	s1,0
    c024:	00000793          	li	a5,0
    c028:	02e7ce63          	blt	a5,a4,c064 <__subtf3+0x6d4>
    c02c:	00300793          	li	a5,3
    c030:	01f5f893          	andi	a7,a1,31
    c034:	40e787b3          	sub	a5,a5,a4
    c038:	00271813          	slli	a6,a4,0x2
    c03c:	02089e63          	bnez	a7,c078 <__subtf3+0x6e8>
    c040:	010606b3          	add	a3,a2,a6
    c044:	0006a683          	lw	a3,0(a3)
    c048:	00188893          	addi	a7,a7,1
    c04c:	00460613          	addi	a2,a2,4
    c050:	fed62e23          	sw	a3,-4(a2)
    c054:	ff17d6e3          	bge	a5,a7,c040 <__subtf3+0x6b0>
    c058:	00400793          	li	a5,4
    c05c:	40e78733          	sub	a4,a5,a4
    c060:	0780006f          	j	c0d8 <__subtf3+0x748>
    c064:	0006a803          	lw	a6,0(a3)
    c068:	00178793          	addi	a5,a5,1
    c06c:	00468693          	addi	a3,a3,4
    c070:	0104e4b3          	or	s1,s1,a6
    c074:	fb5ff06f          	j	c028 <__subtf3+0x698>
    c078:	02000693          	li	a3,32
    c07c:	02d5e5b3          	rem	a1,a1,a3
    c080:	40b685b3          	sub	a1,a3,a1
    c084:	00070693          	mv	a3,a4
    c088:	00075463          	bgez	a4,c090 <__subtf3+0x700>
    c08c:	00000693          	li	a3,0
    c090:	00269693          	slli	a3,a3,0x2
    c094:	04068693          	addi	a3,a3,64
    c098:	002686b3          	add	a3,a3,sp
    c09c:	fd06a683          	lw	a3,-48(a3)
    c0a0:	00000313          	li	t1,0
    c0a4:	00b696b3          	sll	a3,a3,a1
    c0a8:	00d4e4b3          	or	s1,s1,a3
    c0ac:	010506b3          	add	a3,a0,a6
    c0b0:	41000833          	neg	a6,a6
    c0b4:	0af34a63          	blt	t1,a5,c168 <__subtf3+0x7d8>
    c0b8:	00400693          	li	a3,4
    c0bc:	40e68733          	sub	a4,a3,a4
    c0c0:	01c12683          	lw	a3,28(sp)
    c0c4:	00279793          	slli	a5,a5,0x2
    c0c8:	04078793          	addi	a5,a5,64
    c0cc:	002787b3          	add	a5,a5,sp
    c0d0:	0116d6b3          	srl	a3,a3,a7
    c0d4:	fcd7a823          	sw	a3,-48(a5)
    c0d8:	00572793          	slti	a5,a4,5
    c0dc:	00000613          	li	a2,0
    c0e0:	00078863          	beqz	a5,c0f0 <__subtf3+0x760>
    c0e4:	00400613          	li	a2,4
    c0e8:	40e60633          	sub	a2,a2,a4
    c0ec:	00261613          	slli	a2,a2,0x2
    c0f0:	00271713          	slli	a4,a4,0x2
    c0f4:	00e50533          	add	a0,a0,a4
    c0f8:	00000593          	li	a1,0
    c0fc:	b98fc0ef          	jal	8494 <memset>
    c100:	01012703          	lw	a4,16(sp)
    c104:	009037b3          	snez	a5,s1
    c108:	00e7e7b3          	or	a5,a5,a4
    c10c:	01412683          	lw	a3,20(sp)
    c110:	00f12823          	sw	a5,16(sp)
    c114:	00f407b3          	add	a5,s0,a5
    c118:	01268933          	add	s2,a3,s2
    c11c:	02f12823          	sw	a5,48(sp)
    c120:	0087b7b3          	sltu	a5,a5,s0
    c124:	00f90733          	add	a4,s2,a5
    c128:	01812783          	lw	a5,24(sp)
    c12c:	02e12a23          	sw	a4,52(sp)
    c130:	00d936b3          	sltu	a3,s2,a3
    c134:	01273733          	sltu	a4,a4,s2
    c138:	013789b3          	add	s3,a5,s3
    c13c:	00e6e733          	or	a4,a3,a4
    c140:	00e98733          	add	a4,s3,a4
    c144:	02e12c23          	sw	a4,56(sp)
    c148:	00f9b7b3          	sltu	a5,s3,a5
    c14c:	01373733          	sltu	a4,a4,s3
    c150:	00e7e7b3          	or	a5,a5,a4
    c154:	01c12703          	lw	a4,28(sp)
    c158:	000b8493          	mv	s1,s7
    c15c:	00eb0733          	add	a4,s6,a4
    c160:	00e787b3          	add	a5,a5,a4
    c164:	d0dff06f          	j	be70 <__subtf3+0x4e0>
    c168:	0006a603          	lw	a2,0(a3)
    c16c:	0046ae03          	lw	t3,4(a3)
    c170:	01068eb3          	add	t4,a3,a6
    c174:	01165633          	srl	a2,a2,a7
    c178:	00be1e33          	sll	t3,t3,a1
    c17c:	01c66633          	or	a2,a2,t3
    c180:	00cea023          	sw	a2,0(t4)
    c184:	00130313          	addi	t1,t1,1
    c188:	00468693          	addi	a3,a3,4
    c18c:	f29ff06f          	j	c0b4 <__subtf3+0x724>
    c190:	00148813          	addi	a6,s1,1
    c194:	01181893          	slli	a7,a6,0x11
    c198:	0128d893          	srli	a7,a7,0x12
    c19c:	01412683          	lw	a3,20(sp)
    c1a0:	01812703          	lw	a4,24(sp)
    c1a4:	01c12603          	lw	a2,28(sp)
    c1a8:	03010593          	addi	a1,sp,48
    c1ac:	03c10513          	addi	a0,sp,60
    c1b0:	10089e63          	bnez	a7,c2cc <__subtf3+0x93c>
    c1b4:	00e6e833          	or	a6,a3,a4
    c1b8:	00c86833          	or	a6,a6,a2
    c1bc:	00f86833          	or	a6,a6,a5
    c1c0:	0a049863          	bnez	s1,c270 <__subtf3+0x8e0>
    c1c4:	00081e63          	bnez	a6,c1e0 <__subtf3+0x850>
    c1c8:	02812823          	sw	s0,48(sp)
    c1cc:	03212a23          	sw	s2,52(sp)
    c1d0:	03312c23          	sw	s3,56(sp)
    c1d4:	03612e23          	sw	s6,60(sp)
    c1d8:	00000493          	li	s1,0
    c1dc:	9d1ff06f          	j	bbac <__subtf3+0x21c>
    c1e0:	013965b3          	or	a1,s2,s3
    c1e4:	0165e5b3          	or	a1,a1,s6
    c1e8:	0085e5b3          	or	a1,a1,s0
    c1ec:	00059c63          	bnez	a1,c204 <__subtf3+0x874>
    c1f0:	02f12823          	sw	a5,48(sp)
    c1f4:	02d12a23          	sw	a3,52(sp)
    c1f8:	02e12c23          	sw	a4,56(sp)
    c1fc:	02c12e23          	sw	a2,60(sp)
    c200:	9adff06f          	j	bbac <__subtf3+0x21c>
    c204:	00878433          	add	s0,a5,s0
    c208:	01268933          	add	s2,a3,s2
    c20c:	02812823          	sw	s0,48(sp)
    c210:	00f43433          	sltu	s0,s0,a5
    c214:	00890433          	add	s0,s2,s0
    c218:	02812a23          	sw	s0,52(sp)
    c21c:	00d936b3          	sltu	a3,s2,a3
    c220:	01243433          	sltu	s0,s0,s2
    c224:	013709b3          	add	s3,a4,s3
    c228:	0086e6b3          	or	a3,a3,s0
    c22c:	00d986b3          	add	a3,s3,a3
    c230:	02d12c23          	sw	a3,56(sp)
    c234:	00e9b733          	sltu	a4,s3,a4
    c238:	0136b6b3          	sltu	a3,a3,s3
    c23c:	00d76733          	or	a4,a4,a3
    c240:	01660633          	add	a2,a2,s6
    c244:	00c70733          	add	a4,a4,a2
    c248:	00c71793          	slli	a5,a4,0xc
    c24c:	0007c663          	bltz	a5,c258 <__subtf3+0x8c8>
    c250:	02e12e23          	sw	a4,60(sp)
    c254:	959ff06f          	j	bbac <__subtf3+0x21c>
    c258:	fff807b7          	lui	a5,0xfff80
    c25c:	fff78793          	addi	a5,a5,-1 # fff7ffff <_end+0xfff62d9b>
    c260:	00f77733          	and	a4,a4,a5
    c264:	02e12e23          	sw	a4,60(sp)
    c268:	00100493          	li	s1,1
    c26c:	941ff06f          	j	bbac <__subtf3+0x21c>
    c270:	1a080463          	beqz	a6,c418 <__subtf3+0xa88>
    c274:	01396933          	or	s2,s2,s3
    c278:	01696933          	or	s2,s2,s6
    c27c:	00896933          	or	s2,s2,s0
    c280:	1a090063          	beqz	s2,c420 <__subtf3+0xa90>
    c284:	000087b7          	lui	a5,0x8
    c288:	02f12e23          	sw	a5,60(sp)
    c28c:	02012c23          	sw	zero,56(sp)
    c290:	02012a23          	sw	zero,52(sp)
    c294:	02012823          	sw	zero,48(sp)
    c298:	00050793          	mv	a5,a0
    c29c:	0007a703          	lw	a4,0(a5) # 8000 <_start>
    c2a0:	ffc7a683          	lw	a3,-4(a5)
    c2a4:	ffc78793          	addi	a5,a5,-4
    c2a8:	00371713          	slli	a4,a4,0x3
    c2ac:	01d6d693          	srli	a3,a3,0x1d
    c2b0:	00d76733          	or	a4,a4,a3
    c2b4:	00e7a223          	sw	a4,4(a5)
    c2b8:	fef592e3          	bne	a1,a5,c29c <__subtf3+0x90c>
    c2bc:	000084b7          	lui	s1,0x8
    c2c0:	fff48493          	addi	s1,s1,-1 # 7fff <_start-0x1>
    c2c4:	00000a93          	li	s5,0
    c2c8:	8e5ff06f          	j	bbac <__subtf3+0x21c>
    c2cc:	00878433          	add	s0,a5,s0
    c2d0:	01268933          	add	s2,a3,s2
    c2d4:	02812823          	sw	s0,48(sp)
    c2d8:	00f43433          	sltu	s0,s0,a5
    c2dc:	00890433          	add	s0,s2,s0
    c2e0:	02812a23          	sw	s0,52(sp)
    c2e4:	00d936b3          	sltu	a3,s2,a3
    c2e8:	01243433          	sltu	s0,s0,s2
    c2ec:	013709b3          	add	s3,a4,s3
    c2f0:	0086e6b3          	or	a3,a3,s0
    c2f4:	00d986b3          	add	a3,s3,a3
    c2f8:	02d12c23          	sw	a3,56(sp)
    c2fc:	00e9b733          	sltu	a4,s3,a4
    c300:	0136b6b3          	sltu	a3,a3,s3
    c304:	00d76733          	or	a4,a4,a3
    c308:	01660633          	add	a2,a2,s6
    c30c:	00c70733          	add	a4,a4,a2
    c310:	02e12e23          	sw	a4,60(sp)
    c314:	00058793          	mv	a5,a1
    c318:	0007a683          	lw	a3,0(a5)
    c31c:	0047a603          	lw	a2,4(a5)
    c320:	00478793          	addi	a5,a5,4
    c324:	0016d693          	srli	a3,a3,0x1
    c328:	01f61613          	slli	a2,a2,0x1f
    c32c:	00c6e6b3          	or	a3,a3,a2
    c330:	fed7ae23          	sw	a3,-4(a5)
    c334:	fef512e3          	bne	a0,a5,c318 <__subtf3+0x988>
    c338:	000087b7          	lui	a5,0x8
    c33c:	fff78793          	addi	a5,a5,-1 # 7fff <_start-0x1>
    c340:	00f80863          	beq	a6,a5,c350 <__subtf3+0x9c0>
    c344:	00175713          	srli	a4,a4,0x1
    c348:	02e12e23          	sw	a4,60(sp)
    c34c:	c19ff06f          	j	bf64 <__subtf3+0x5d4>
    c350:	02012e23          	sw	zero,60(sp)
    c354:	02012c23          	sw	zero,56(sp)
    c358:	02012a23          	sw	zero,52(sp)
    c35c:	02012823          	sw	zero,48(sp)
    c360:	c05ff06f          	j	bf64 <__subtf3+0x5d4>
    c364:	29105c63          	blez	a7,c5fc <__subtf3+0xc6c>
    c368:	01412903          	lw	s2,20(sp)
    c36c:	01812983          	lw	s3,24(sp)
    c370:	01c12b03          	lw	s6,28(sp)
    c374:	0a0b9e63          	bnez	s7,c430 <__subtf3+0xaa0>
    c378:	02412e03          	lw	t3,36(sp)
    c37c:	02812503          	lw	a0,40(sp)
    c380:	02c12683          	lw	a3,44(sp)
    c384:	00ae6733          	or	a4,t3,a0
    c388:	00d76733          	or	a4,a4,a3
    c38c:	00876733          	or	a4,a4,s0
    c390:	f6070e63          	beqz	a4,bb0c <__subtf3+0x17c>
    c394:	fff88e93          	addi	t4,a7,-1
    c398:	040e9c63          	bnez	t4,c3f0 <__subtf3+0xa60>
    c39c:	40878733          	sub	a4,a5,s0
    c3a0:	41c90633          	sub	a2,s2,t3
    c3a4:	00e7b5b3          	sltu	a1,a5,a4
    c3a8:	00c93833          	sltu	a6,s2,a2
    c3ac:	40b60633          	sub	a2,a2,a1
    c3b0:	00000593          	li	a1,0
    c3b4:	00e7f663          	bgeu	a5,a4,c3c0 <__subtf3+0xa30>
    c3b8:	412e0e33          	sub	t3,t3,s2
    c3bc:	001e3593          	seqz	a1,t3
    c3c0:	0105e7b3          	or	a5,a1,a6
    c3c4:	40a985b3          	sub	a1,s3,a0
    c3c8:	00b9b833          	sltu	a6,s3,a1
    c3cc:	40f585b3          	sub	a1,a1,a5
    c3d0:	00078663          	beqz	a5,c3dc <__subtf3+0xa4c>
    c3d4:	41350533          	sub	a0,a0,s3
    c3d8:	00153e93          	seqz	t4,a0
    c3dc:	40db07b3          	sub	a5,s6,a3
    c3e0:	010ee6b3          	or	a3,t4,a6
    c3e4:	40d787b3          	sub	a5,a5,a3
    c3e8:	00100493          	li	s1,1
    c3ec:	1bc0006f          	j	c5a8 <__subtf3+0xc18>
    c3f0:	00008737          	lui	a4,0x8
    c3f4:	fff70713          	addi	a4,a4,-1 # 7fff <_start-0x1>
    c3f8:	f8e88863          	beq	a7,a4,bb88 <__subtf3+0x1f8>
    c3fc:	07400713          	li	a4,116
    c400:	05d75c63          	bge	a4,t4,c458 <__subtf3+0xac8>
    c404:	02012623          	sw	zero,44(sp)
    c408:	02012423          	sw	zero,40(sp)
    c40c:	02012223          	sw	zero,36(sp)
    c410:	00100713          	li	a4,1
    c414:	1340006f          	j	c548 <__subtf3+0xbb8>
    c418:	00040793          	mv	a5,s0
    c41c:	f6cff06f          	j	bb88 <__subtf3+0x1f8>
    c420:	00068913          	mv	s2,a3
    c424:	00070993          	mv	s3,a4
    c428:	00060b13          	mv	s6,a2
    c42c:	f5cff06f          	j	bb88 <__subtf3+0x1f8>
    c430:	00008737          	lui	a4,0x8
    c434:	fff70713          	addi	a4,a4,-1 # 7fff <_start-0x1>
    c438:	bae486e3          	beq	s1,a4,bfe4 <__subtf3+0x654>
    c43c:	02c12703          	lw	a4,44(sp)
    c440:	000806b7          	lui	a3,0x80
    c444:	00d76733          	or	a4,a4,a3
    c448:	02e12623          	sw	a4,44(sp)
    c44c:	07400713          	li	a4,116
    c450:	fb174ae3          	blt	a4,a7,c404 <__subtf3+0xa74>
    c454:	00088e93          	mv	t4,a7
    c458:	405ed693          	srai	a3,t4,0x5
    c45c:	00030593          	mv	a1,t1
    c460:	01fefe93          	andi	t4,t4,31
    c464:	00000713          	li	a4,0
    c468:	00000613          	li	a2,0
    c46c:	02d61c63          	bne	a2,a3,c4a4 <__subtf3+0xb14>
    c470:	00300613          	li	a2,3
    c474:	40d60633          	sub	a2,a2,a3
    c478:	00269593          	slli	a1,a3,0x2
    c47c:	020e9e63          	bnez	t4,c4b8 <__subtf3+0xb28>
    c480:	00b30533          	add	a0,t1,a1
    c484:	00052503          	lw	a0,0(a0)
    c488:	001e8e93          	addi	t4,t4,1
    c48c:	00430313          	addi	t1,t1,4
    c490:	fea32e23          	sw	a0,-4(t1)
    c494:	ffd656e3          	bge	a2,t4,c480 <__subtf3+0xaf0>
    c498:	00400613          	li	a2,4
    c49c:	40d606b3          	sub	a3,a2,a3
    c4a0:	0640006f          	j	c504 <__subtf3+0xb74>
    c4a4:	0005a503          	lw	a0,0(a1)
    c4a8:	00160613          	addi	a2,a2,1
    c4ac:	00458593          	addi	a1,a1,4
    c4b0:	00a76733          	or	a4,a4,a0
    c4b4:	fb9ff06f          	j	c46c <__subtf3+0xadc>
    c4b8:	04058513          	addi	a0,a1,64
    c4bc:	00250533          	add	a0,a0,sp
    c4c0:	fe052503          	lw	a0,-32(a0)
    c4c4:	02000313          	li	t1,32
    c4c8:	41d30333          	sub	t1,t1,t4
    c4cc:	00651533          	sll	a0,a0,t1
    c4d0:	00a76733          	or	a4,a4,a0
    c4d4:	00000e13          	li	t3,0
    c4d8:	00b80533          	add	a0,a6,a1
    c4dc:	40b005b3          	neg	a1,a1
    c4e0:	0ece4a63          	blt	t3,a2,c5d4 <__subtf3+0xc44>
    c4e4:	00400593          	li	a1,4
    c4e8:	40d586b3          	sub	a3,a1,a3
    c4ec:	02c12583          	lw	a1,44(sp)
    c4f0:	00261613          	slli	a2,a2,0x2
    c4f4:	04060613          	addi	a2,a2,64
    c4f8:	00260633          	add	a2,a2,sp
    c4fc:	01d5d5b3          	srl	a1,a1,t4
    c500:	feb62023          	sw	a1,-32(a2)
    c504:	00400613          	li	a2,4
    c508:	40d60633          	sub	a2,a2,a3
    c50c:	00261613          	slli	a2,a2,0x2
    c510:	00269693          	slli	a3,a3,0x2
    c514:	00800593          	li	a1,8
    c518:	00d806b3          	add	a3,a6,a3
    c51c:	00b66a63          	bltu	a2,a1,c530 <__subtf3+0xba0>
    c520:	0006a023          	sw	zero,0(a3) # 80000 <_end+0x62d9c>
    c524:	0006a223          	sw	zero,4(a3)
    c528:	ff860613          	addi	a2,a2,-8
    c52c:	00868693          	addi	a3,a3,8
    c530:	00400593          	li	a1,4
    c534:	00b66463          	bltu	a2,a1,c53c <__subtf3+0xbac>
    c538:	0006a023          	sw	zero,0(a3)
    c53c:	02012683          	lw	a3,32(sp)
    c540:	00e03733          	snez	a4,a4
    c544:	00d76733          	or	a4,a4,a3
    c548:	02412583          	lw	a1,36(sp)
    c54c:	02e12023          	sw	a4,32(sp)
    c550:	40e78733          	sub	a4,a5,a4
    c554:	40b90633          	sub	a2,s2,a1
    c558:	00e7b6b3          	sltu	a3,a5,a4
    c55c:	00c93533          	sltu	a0,s2,a2
    c560:	40d60633          	sub	a2,a2,a3
    c564:	00000693          	li	a3,0
    c568:	00e7f663          	bgeu	a5,a4,c574 <__subtf3+0xbe4>
    c56c:	412585b3          	sub	a1,a1,s2
    c570:	0015b693          	seqz	a3,a1
    c574:	00a6e7b3          	or	a5,a3,a0
    c578:	02812503          	lw	a0,40(sp)
    c57c:	00000693          	li	a3,0
    c580:	40a985b3          	sub	a1,s3,a0
    c584:	00b9b833          	sltu	a6,s3,a1
    c588:	40f585b3          	sub	a1,a1,a5
    c58c:	00078663          	beqz	a5,c598 <__subtf3+0xc08>
    c590:	41350533          	sub	a0,a0,s3
    c594:	00153693          	seqz	a3,a0
    c598:	02c12783          	lw	a5,44(sp)
    c59c:	0106e6b3          	or	a3,a3,a6
    c5a0:	40fb07b3          	sub	a5,s6,a5
    c5a4:	40d787b3          	sub	a5,a5,a3
    c5a8:	02e12823          	sw	a4,48(sp)
    c5ac:	02f12e23          	sw	a5,60(sp)
    c5b0:	02b12c23          	sw	a1,56(sp)
    c5b4:	02c12a23          	sw	a2,52(sp)
    c5b8:	00c79713          	slli	a4,a5,0xc
    c5bc:	de075863          	bgez	a4,bbac <__subtf3+0x21c>
    c5c0:	00080737          	lui	a4,0x80
    c5c4:	fff70713          	addi	a4,a4,-1 # 7ffff <_end+0x62d9b>
    c5c8:	00e7f7b3          	and	a5,a5,a4
    c5cc:	02f12e23          	sw	a5,60(sp)
    c5d0:	5700006f          	j	cb40 <__subtf3+0x11b0>
    c5d4:	00052883          	lw	a7,0(a0)
    c5d8:	00452f03          	lw	t5,4(a0)
    c5dc:	00b50fb3          	add	t6,a0,a1
    c5e0:	01d8d8b3          	srl	a7,a7,t4
    c5e4:	006f1f33          	sll	t5,t5,t1
    c5e8:	01e8e8b3          	or	a7,a7,t5
    c5ec:	011fa023          	sw	a7,0(t6)
    c5f0:	001e0e13          	addi	t3,t3,1
    c5f4:	00450513          	addi	a0,a0,4
    c5f8:	ee9ff06f          	j	c4e0 <__subtf3+0xb50>
    c5fc:	02412c03          	lw	s8,36(sp)
    c600:	02812b03          	lw	s6,40(sp)
    c604:	02c12983          	lw	s3,44(sp)
    c608:	28088463          	beqz	a7,c890 <__subtf3+0xf00>
    c60c:	409b8333          	sub	t1,s7,s1
    c610:	0a049e63          	bnez	s1,c6cc <__subtf3+0xd3c>
    c614:	01412583          	lw	a1,20(sp)
    c618:	01812803          	lw	a6,24(sp)
    c61c:	01c12683          	lw	a3,28(sp)
    c620:	0105e8b3          	or	a7,a1,a6
    c624:	00d8e8b3          	or	a7,a7,a3
    c628:	00f8e8b3          	or	a7,a7,a5
    c62c:	02089063          	bnez	a7,c64c <__subtf3+0xcbc>
    c630:	02812823          	sw	s0,48(sp)
    c634:	03812a23          	sw	s8,52(sp)
    c638:	03612c23          	sw	s6,56(sp)
    c63c:	03312e23          	sw	s3,60(sp)
    c640:	00030493          	mv	s1,t1
    c644:	00090a93          	mv	s5,s2
    c648:	d64ff06f          	j	bbac <__subtf3+0x21c>
    c64c:	fff30893          	addi	a7,t1,-1
    c650:	04089c63          	bnez	a7,c6a8 <__subtf3+0xd18>
    c654:	40f40733          	sub	a4,s0,a5
    c658:	40bc0633          	sub	a2,s8,a1
    c65c:	00e437b3          	sltu	a5,s0,a4
    c660:	00cc3533          	sltu	a0,s8,a2
    c664:	40f60633          	sub	a2,a2,a5
    c668:	00000793          	li	a5,0
    c66c:	00e47663          	bgeu	s0,a4,c678 <__subtf3+0xce8>
    c670:	418585b3          	sub	a1,a1,s8
    c674:	0015b793          	seqz	a5,a1
    c678:	00a7e7b3          	or	a5,a5,a0
    c67c:	410b05b3          	sub	a1,s6,a6
    c680:	00bb3533          	sltu	a0,s6,a1
    c684:	40f585b3          	sub	a1,a1,a5
    c688:	00078663          	beqz	a5,c694 <__subtf3+0xd04>
    c68c:	41680833          	sub	a6,a6,s6
    c690:	00183893          	seqz	a7,a6
    c694:	40d987b3          	sub	a5,s3,a3
    c698:	00a8e6b3          	or	a3,a7,a0
    c69c:	40d787b3          	sub	a5,a5,a3
    c6a0:	00090a93          	mv	s5,s2
    c6a4:	d45ff06f          	j	c3e8 <__subtf3+0xa58>
    c6a8:	000087b7          	lui	a5,0x8
    c6ac:	fff78793          	addi	a5,a5,-1 # 7fff <_start-0x1>
    c6b0:	76f31063          	bne	t1,a5,ce10 <__subtf3+0x1480>
    c6b4:	02812823          	sw	s0,48(sp)
    c6b8:	03812a23          	sw	s8,52(sp)
    c6bc:	03612c23          	sw	s6,56(sp)
    c6c0:	03312e23          	sw	s3,60(sp)
    c6c4:	00090a93          	mv	s5,s2
    c6c8:	911ff06f          	j	bfd8 <__subtf3+0x648>
    c6cc:	000087b7          	lui	a5,0x8
    c6d0:	fff78793          	addi	a5,a5,-1 # 7fff <_start-0x1>
    c6d4:	fefb80e3          	beq	s7,a5,c6b4 <__subtf3+0xd24>
    c6d8:	01c12783          	lw	a5,28(sp)
    c6dc:	00080737          	lui	a4,0x80
    c6e0:	00e7e7b3          	or	a5,a5,a4
    c6e4:	00f12e23          	sw	a5,28(sp)
    c6e8:	07400793          	li	a5,116
    c6ec:	1867c863          	blt	a5,t1,c87c <__subtf3+0xeec>
    c6f0:	02000793          	li	a5,32
    c6f4:	02f347b3          	div	a5,t1,a5
    c6f8:	00060693          	mv	a3,a2
    c6fc:	00000493          	li	s1,0
    c700:	00000713          	li	a4,0
    c704:	02f74e63          	blt	a4,a5,c740 <__subtf3+0xdb0>
    c708:	00300713          	li	a4,3
    c70c:	01f37893          	andi	a7,t1,31
    c710:	40f70e33          	sub	t3,a4,a5
    c714:	00279593          	slli	a1,a5,0x2
    c718:	02089e63          	bnez	a7,c754 <__subtf3+0xdc4>
    c71c:	00b60733          	add	a4,a2,a1
    c720:	00072703          	lw	a4,0(a4) # 80000 <_end+0x62d9c>
    c724:	00188893          	addi	a7,a7,1
    c728:	00460613          	addi	a2,a2,4
    c72c:	fee62e23          	sw	a4,-4(a2)
    c730:	ff1e56e3          	bge	t3,a7,c71c <__subtf3+0xd8c>
    c734:	00400713          	li	a4,4
    c738:	40f707b3          	sub	a5,a4,a5
    c73c:	0780006f          	j	c7b4 <__subtf3+0xe24>
    c740:	0006a583          	lw	a1,0(a3)
    c744:	00170713          	addi	a4,a4,1
    c748:	00468693          	addi	a3,a3,4
    c74c:	00b4e4b3          	or	s1,s1,a1
    c750:	fb5ff06f          	j	c704 <__subtf3+0xd74>
    c754:	02000613          	li	a2,32
    c758:	02c36733          	rem	a4,t1,a2
    c75c:	00078693          	mv	a3,a5
    c760:	40e60633          	sub	a2,a2,a4
    c764:	0007d463          	bgez	a5,c76c <__subtf3+0xddc>
    c768:	00000693          	li	a3,0
    c76c:	00269693          	slli	a3,a3,0x2
    c770:	04068713          	addi	a4,a3,64
    c774:	002706b3          	add	a3,a4,sp
    c778:	fd06a703          	lw	a4,-48(a3)
    c77c:	00b506b3          	add	a3,a0,a1
    c780:	40b005b3          	neg	a1,a1
    c784:	00c71733          	sll	a4,a4,a2
    c788:	00e4e4b3          	or	s1,s1,a4
    c78c:	00000713          	li	a4,0
    c790:	0dc74263          	blt	a4,t3,c854 <__subtf3+0xec4>
    c794:	01c12683          	lw	a3,28(sp)
    c798:	00400713          	li	a4,4
    c79c:	40f707b3          	sub	a5,a4,a5
    c7a0:	002e1713          	slli	a4,t3,0x2
    c7a4:	04070713          	addi	a4,a4,64
    c7a8:	00270733          	add	a4,a4,sp
    c7ac:	0116d6b3          	srl	a3,a3,a7
    c7b0:	fcd72823          	sw	a3,-48(a4)
    c7b4:	0057a713          	slti	a4,a5,5
    c7b8:	00000613          	li	a2,0
    c7bc:	00070863          	beqz	a4,c7cc <__subtf3+0xe3c>
    c7c0:	00400613          	li	a2,4
    c7c4:	40f60633          	sub	a2,a2,a5
    c7c8:	00261613          	slli	a2,a2,0x2
    c7cc:	00279793          	slli	a5,a5,0x2
    c7d0:	00f50533          	add	a0,a0,a5
    c7d4:	00000593          	li	a1,0
    c7d8:	cbdfb0ef          	jal	8494 <memset>
    c7dc:	01012783          	lw	a5,16(sp)
    c7e0:	00903733          	snez	a4,s1
    c7e4:	00f76733          	or	a4,a4,a5
    c7e8:	01412683          	lw	a3,20(sp)
    c7ec:	00e12823          	sw	a4,16(sp)
    c7f0:	40e40733          	sub	a4,s0,a4
    c7f4:	40dc0633          	sub	a2,s8,a3
    c7f8:	00e437b3          	sltu	a5,s0,a4
    c7fc:	00cc35b3          	sltu	a1,s8,a2
    c800:	40f60633          	sub	a2,a2,a5
    c804:	00000793          	li	a5,0
    c808:	00e47663          	bgeu	s0,a4,c814 <__subtf3+0xe84>
    c80c:	418686b3          	sub	a3,a3,s8
    c810:	0016b793          	seqz	a5,a3
    c814:	01812503          	lw	a0,24(sp)
    c818:	00b7e7b3          	or	a5,a5,a1
    c81c:	00000693          	li	a3,0
    c820:	40ab05b3          	sub	a1,s6,a0
    c824:	00bb3833          	sltu	a6,s6,a1
    c828:	40f585b3          	sub	a1,a1,a5
    c82c:	00078663          	beqz	a5,c838 <__subtf3+0xea8>
    c830:	41650533          	sub	a0,a0,s6
    c834:	00153693          	seqz	a3,a0
    c838:	01c12783          	lw	a5,28(sp)
    c83c:	0106e6b3          	or	a3,a3,a6
    c840:	000b8493          	mv	s1,s7
    c844:	40f987b3          	sub	a5,s3,a5
    c848:	40d787b3          	sub	a5,a5,a3
    c84c:	00090a93          	mv	s5,s2
    c850:	d59ff06f          	j	c5a8 <__subtf3+0xc18>
    c854:	0006a803          	lw	a6,0(a3)
    c858:	0046a303          	lw	t1,4(a3)
    c85c:	00b68eb3          	add	t4,a3,a1
    c860:	01185833          	srl	a6,a6,a7
    c864:	00c31333          	sll	t1,t1,a2
    c868:	00686833          	or	a6,a6,t1
    c86c:	010ea023          	sw	a6,0(t4)
    c870:	00170713          	addi	a4,a4,1
    c874:	00468693          	addi	a3,a3,4
    c878:	f19ff06f          	j	c790 <__subtf3+0xe00>
    c87c:	00012e23          	sw	zero,28(sp)
    c880:	00012c23          	sw	zero,24(sp)
    c884:	00012a23          	sw	zero,20(sp)
    c888:	00100713          	li	a4,1
    c88c:	f5dff06f          	j	c7e8 <__subtf3+0xe58>
    c890:	00148593          	addi	a1,s1,1
    c894:	01159513          	slli	a0,a1,0x11
    c898:	01255513          	srli	a0,a0,0x12
    c89c:	01412683          	lw	a3,20(sp)
    c8a0:	01812603          	lw	a2,24(sp)
    c8a4:	01c12703          	lw	a4,28(sp)
    c8a8:	00008837          	lui	a6,0x8
    c8ac:	1c051e63          	bnez	a0,ca88 <__subtf3+0x10f8>
    c8b0:	016c6533          	or	a0,s8,s6
    c8b4:	00c6e5b3          	or	a1,a3,a2
    c8b8:	01356533          	or	a0,a0,s3
    c8bc:	00e5e5b3          	or	a1,a1,a4
    c8c0:	00856533          	or	a0,a0,s0
    c8c4:	00f5e5b3          	or	a1,a1,a5
    c8c8:	10049863          	bnez	s1,c9d8 <__subtf3+0x1048>
    c8cc:	02059263          	bnez	a1,c8f0 <__subtf3+0xf60>
    c8d0:	02812823          	sw	s0,48(sp)
    c8d4:	03812a23          	sw	s8,52(sp)
    c8d8:	03612c23          	sw	s6,56(sp)
    c8dc:	03312e23          	sw	s3,60(sp)
    c8e0:	00090a93          	mv	s5,s2
    c8e4:	ac051463          	bnez	a0,bbac <__subtf3+0x21c>
    c8e8:	00000493          	li	s1,0
    c8ec:	9d9ff06f          	j	c2c4 <__subtf3+0x934>
    c8f0:	00051c63          	bnez	a0,c908 <__subtf3+0xf78>
    c8f4:	02f12823          	sw	a5,48(sp)
    c8f8:	02d12a23          	sw	a3,52(sp)
    c8fc:	02c12c23          	sw	a2,56(sp)
    c900:	02e12e23          	sw	a4,60(sp)
    c904:	8d5ff06f          	j	c1d8 <__subtf3+0x848>
    c908:	40878533          	sub	a0,a5,s0
    c90c:	41868e33          	sub	t3,a3,s8
    c910:	00a7b833          	sltu	a6,a5,a0
    c914:	01c6b8b3          	sltu	a7,a3,t3
    c918:	410e0833          	sub	a6,t3,a6
    c91c:	00000593          	li	a1,0
    c920:	00a7f463          	bgeu	a5,a0,c928 <__subtf3+0xf98>
    c924:	001e3593          	seqz	a1,t3
    c928:	0115e5b3          	or	a1,a1,a7
    c92c:	416608b3          	sub	a7,a2,s6
    c930:	01163f33          	sltu	t5,a2,a7
    c934:	40b88eb3          	sub	t4,a7,a1
    c938:	00000313          	li	t1,0
    c93c:	00058463          	beqz	a1,c944 <__subtf3+0xfb4>
    c940:	0018b313          	seqz	t1,a7
    c944:	01e36333          	or	t1,t1,t5
    c948:	413705b3          	sub	a1,a4,s3
    c94c:	406585b3          	sub	a1,a1,t1
    c950:	02b12e23          	sw	a1,60(sp)
    c954:	03d12c23          	sw	t4,56(sp)
    c958:	03012a23          	sw	a6,52(sp)
    c95c:	02a12823          	sw	a0,48(sp)
    c960:	00c59313          	slli	t1,a1,0xc
    c964:	06035063          	bgez	t1,c9c4 <__subtf3+0x1034>
    c968:	40f407b3          	sub	a5,s0,a5
    c96c:	40dc06b3          	sub	a3,s8,a3
    c970:	00f435b3          	sltu	a1,s0,a5
    c974:	00dc3c33          	sltu	s8,s8,a3
    c978:	40b686b3          	sub	a3,a3,a1
    c97c:	00000593          	li	a1,0
    c980:	00f47463          	bgeu	s0,a5,c988 <__subtf3+0xff8>
    c984:	001e3593          	seqz	a1,t3
    c988:	40cb0633          	sub	a2,s6,a2
    c98c:	0185ec33          	or	s8,a1,s8
    c990:	00cb3b33          	sltu	s6,s6,a2
    c994:	00000513          	li	a0,0
    c998:	41860633          	sub	a2,a2,s8
    c99c:	000c0463          	beqz	s8,c9a4 <__subtf3+0x1014>
    c9a0:	0018b513          	seqz	a0,a7
    c9a4:	40e98733          	sub	a4,s3,a4
    c9a8:	01656533          	or	a0,a0,s6
    c9ac:	40a70733          	sub	a4,a4,a0
    c9b0:	02e12e23          	sw	a4,60(sp)
    c9b4:	02c12c23          	sw	a2,56(sp)
    c9b8:	02d12a23          	sw	a3,52(sp)
    c9bc:	02f12823          	sw	a5,48(sp)
    c9c0:	c85ff06f          	j	c644 <__subtf3+0xcb4>
    c9c4:	01056533          	or	a0,a0,a6
    c9c8:	01d56533          	or	a0,a0,t4
    c9cc:	00b56533          	or	a0,a0,a1
    c9d0:	f0050ce3          	beqz	a0,c8e8 <__subtf3+0xf58>
    c9d4:	805ff06f          	j	c1d8 <__subtf3+0x848>
    c9d8:	03010893          	addi	a7,sp,48
    c9dc:	04059e63          	bnez	a1,ca38 <__subtf3+0x10a8>
    c9e0:	02051e63          	bnez	a0,ca1c <__subtf3+0x108c>
    c9e4:	03012e23          	sw	a6,60(sp)
    c9e8:	02012c23          	sw	zero,56(sp)
    c9ec:	02012a23          	sw	zero,52(sp)
    c9f0:	02012823          	sw	zero,48(sp)
    c9f4:	03c10793          	addi	a5,sp,60
    c9f8:	0007a703          	lw	a4,0(a5)
    c9fc:	ffc7a683          	lw	a3,-4(a5)
    ca00:	ffc78793          	addi	a5,a5,-4
    ca04:	00371713          	slli	a4,a4,0x3
    ca08:	01d6d693          	srli	a3,a3,0x1d
    ca0c:	00d76733          	or	a4,a4,a3
    ca10:	00e7a223          	sw	a4,4(a5)
    ca14:	fef892e3          	bne	a7,a5,c9f8 <__subtf3+0x1068>
    ca18:	8a5ff06f          	j	c2bc <__subtf3+0x92c>
    ca1c:	02812823          	sw	s0,48(sp)
    ca20:	03812a23          	sw	s8,52(sp)
    ca24:	03612c23          	sw	s6,56(sp)
    ca28:	03312e23          	sw	s3,60(sp)
    ca2c:	00090a93          	mv	s5,s2
    ca30:	fff80493          	addi	s1,a6,-1 # 7fff <_start-0x1>
    ca34:	978ff06f          	j	bbac <__subtf3+0x21c>
    ca38:	00051c63          	bnez	a0,ca50 <__subtf3+0x10c0>
    ca3c:	02f12823          	sw	a5,48(sp)
    ca40:	02d12a23          	sw	a3,52(sp)
    ca44:	02c12c23          	sw	a2,56(sp)
    ca48:	02e12e23          	sw	a4,60(sp)
    ca4c:	fe5ff06f          	j	ca30 <__subtf3+0x10a0>
    ca50:	03012e23          	sw	a6,60(sp)
    ca54:	02012c23          	sw	zero,56(sp)
    ca58:	02012a23          	sw	zero,52(sp)
    ca5c:	02012823          	sw	zero,48(sp)
    ca60:	03c10793          	addi	a5,sp,60
    ca64:	0007a703          	lw	a4,0(a5)
    ca68:	ffc7a683          	lw	a3,-4(a5)
    ca6c:	ffc78793          	addi	a5,a5,-4
    ca70:	00371713          	slli	a4,a4,0x3
    ca74:	01d6d693          	srli	a3,a3,0x1d
    ca78:	00d76733          	or	a4,a4,a3
    ca7c:	00e7a223          	sw	a4,4(a5)
    ca80:	fef892e3          	bne	a7,a5,ca64 <__subtf3+0x10d4>
    ca84:	839ff06f          	j	c2bc <__subtf3+0x92c>
    ca88:	40878533          	sub	a0,a5,s0
    ca8c:	41868eb3          	sub	t4,a3,s8
    ca90:	00a7b833          	sltu	a6,a5,a0
    ca94:	01d6b333          	sltu	t1,a3,t4
    ca98:	410e8833          	sub	a6,t4,a6
    ca9c:	00000593          	li	a1,0
    caa0:	00a7f463          	bgeu	a5,a0,caa8 <__subtf3+0x1118>
    caa4:	001eb593          	seqz	a1,t4
    caa8:	0065e5b3          	or	a1,a1,t1
    caac:	41660333          	sub	t1,a2,s6
    cab0:	00663fb3          	sltu	t6,a2,t1
    cab4:	40b30f33          	sub	t5,t1,a1
    cab8:	00000e13          	li	t3,0
    cabc:	00058463          	beqz	a1,cac4 <__subtf3+0x1134>
    cac0:	00133e13          	seqz	t3,t1
    cac4:	01fe6e33          	or	t3,t3,t6
    cac8:	413705b3          	sub	a1,a4,s3
    cacc:	41c585b3          	sub	a1,a1,t3
    cad0:	02b12e23          	sw	a1,60(sp)
    cad4:	03e12c23          	sw	t5,56(sp)
    cad8:	03012a23          	sw	a6,52(sp)
    cadc:	02a12823          	sw	a0,48(sp)
    cae0:	00c59e13          	slli	t3,a1,0xc
    cae4:	140e5663          	bgez	t3,cc30 <__subtf3+0x12a0>
    cae8:	40f407b3          	sub	a5,s0,a5
    caec:	40dc06b3          	sub	a3,s8,a3
    caf0:	00f435b3          	sltu	a1,s0,a5
    caf4:	00dc3c33          	sltu	s8,s8,a3
    caf8:	40b686b3          	sub	a3,a3,a1
    cafc:	00000593          	li	a1,0
    cb00:	00f47463          	bgeu	s0,a5,cb08 <__subtf3+0x1178>
    cb04:	001eb593          	seqz	a1,t4
    cb08:	40cb0633          	sub	a2,s6,a2
    cb0c:	0185ec33          	or	s8,a1,s8
    cb10:	00cb3b33          	sltu	s6,s6,a2
    cb14:	41860633          	sub	a2,a2,s8
    cb18:	000c0463          	beqz	s8,cb20 <__subtf3+0x1190>
    cb1c:	00133893          	seqz	a7,t1
    cb20:	40e985b3          	sub	a1,s3,a4
    cb24:	0168e733          	or	a4,a7,s6
    cb28:	40e58733          	sub	a4,a1,a4
    cb2c:	02e12e23          	sw	a4,60(sp)
    cb30:	02c12c23          	sw	a2,56(sp)
    cb34:	02d12a23          	sw	a3,52(sp)
    cb38:	02f12823          	sw	a5,48(sp)
    cb3c:	00090a93          	mv	s5,s2
    cb40:	03c12503          	lw	a0,60(sp)
    cb44:	10050063          	beqz	a0,cc44 <__subtf3+0x12b4>
    cb48:	7bc000ef          	jal	d304 <__clzsi2>
    cb4c:	ff450513          	addi	a0,a0,-12
    cb50:	02000713          	li	a4,32
    cb54:	01f57813          	andi	a6,a0,31
    cb58:	02e547b3          	div	a5,a0,a4
    cb5c:	12080063          	beqz	a6,cc7c <__subtf3+0x12ec>
    cb60:	03010313          	addi	t1,sp,48
    cb64:	02e566b3          	rem	a3,a0,a4
    cb68:	40d70633          	sub	a2,a4,a3
    cb6c:	ffc00693          	li	a3,-4
    cb70:	02d786b3          	mul	a3,a5,a3
    cb74:	00c68713          	addi	a4,a3,12
    cb78:	00e30733          	add	a4,t1,a4
    cb7c:	40d006b3          	neg	a3,a3
    cb80:	12e31663          	bne	t1,a4,ccac <__subtf3+0x131c>
    cb84:	03012683          	lw	a3,48(sp)
    cb88:	fff78713          	addi	a4,a5,-1
    cb8c:	00279793          	slli	a5,a5,0x2
    cb90:	04078793          	addi	a5,a5,64
    cb94:	002787b3          	add	a5,a5,sp
    cb98:	010696b3          	sll	a3,a3,a6
    cb9c:	fed7a823          	sw	a3,-16(a5)
    cba0:	00170713          	addi	a4,a4,1
    cba4:	03010793          	addi	a5,sp,48
    cba8:	00271713          	slli	a4,a4,0x2
    cbac:	00800693          	li	a3,8
    cbb0:	00078893          	mv	a7,a5
    cbb4:	00d76a63          	bltu	a4,a3,cbc8 <__subtf3+0x1238>
    cbb8:	02012823          	sw	zero,48(sp)
    cbbc:	0007a223          	sw	zero,4(a5)
    cbc0:	ff870713          	addi	a4,a4,-8
    cbc4:	03810793          	addi	a5,sp,56
    cbc8:	00400693          	li	a3,4
    cbcc:	00d76463          	bltu	a4,a3,cbd4 <__subtf3+0x1244>
    cbd0:	0007a023          	sw	zero,0(a5)
    cbd4:	1c954863          	blt	a0,s1,cda4 <__subtf3+0x1414>
    cbd8:	40950533          	sub	a0,a0,s1
    cbdc:	00150513          	addi	a0,a0,1
    cbe0:	40555713          	srai	a4,a0,0x5
    cbe4:	01f57793          	andi	a5,a0,31
    cbe8:	00088593          	mv	a1,a7
    cbec:	00088613          	mv	a2,a7
    cbf0:	00000313          	li	t1,0
    cbf4:	00000693          	li	a3,0
    cbf8:	0ce69c63          	bne	a3,a4,ccd0 <__subtf3+0x1340>
    cbfc:	00300693          	li	a3,3
    cc00:	40e686b3          	sub	a3,a3,a4
    cc04:	00271613          	slli	a2,a4,0x2
    cc08:	0c079e63          	bnez	a5,cce4 <__subtf3+0x1354>
    cc0c:	00c58533          	add	a0,a1,a2
    cc10:	00052503          	lw	a0,0(a0)
    cc14:	00178793          	addi	a5,a5,1
    cc18:	00458593          	addi	a1,a1,4
    cc1c:	fea5ae23          	sw	a0,-4(a1)
    cc20:	fef6d6e3          	bge	a3,a5,cc0c <__subtf3+0x127c>
    cc24:	00400793          	li	a5,4
    cc28:	40e78733          	sub	a4,a5,a4
    cc2c:	1040006f          	j	cd30 <__subtf3+0x13a0>
    cc30:	01056533          	or	a0,a0,a6
    cc34:	01e56533          	or	a0,a0,t5
    cc38:	00b56533          	or	a0,a0,a1
    cc3c:	ca0506e3          	beqz	a0,c8e8 <__subtf3+0xf58>
    cc40:	f01ff06f          	j	cb40 <__subtf3+0x11b0>
    cc44:	03812503          	lw	a0,56(sp)
    cc48:	00050863          	beqz	a0,cc58 <__subtf3+0x12c8>
    cc4c:	6b8000ef          	jal	d304 <__clzsi2>
    cc50:	02050513          	addi	a0,a0,32
    cc54:	ef9ff06f          	j	cb4c <__subtf3+0x11bc>
    cc58:	03412503          	lw	a0,52(sp)
    cc5c:	00050863          	beqz	a0,cc6c <__subtf3+0x12dc>
    cc60:	6a4000ef          	jal	d304 <__clzsi2>
    cc64:	04050513          	addi	a0,a0,64
    cc68:	ee5ff06f          	j	cb4c <__subtf3+0x11bc>
    cc6c:	03012503          	lw	a0,48(sp)
    cc70:	694000ef          	jal	d304 <__clzsi2>
    cc74:	06050513          	addi	a0,a0,96
    cc78:	ed5ff06f          	j	cb4c <__subtf3+0x11bc>
    cc7c:	ffc00613          	li	a2,-4
    cc80:	02c78633          	mul	a2,a5,a2
    cc84:	03c10713          	addi	a4,sp,60
    cc88:	00300693          	li	a3,3
    cc8c:	00c705b3          	add	a1,a4,a2
    cc90:	0005a583          	lw	a1,0(a1)
    cc94:	fff68693          	addi	a3,a3,-1
    cc98:	ffc70713          	addi	a4,a4,-4
    cc9c:	00b72223          	sw	a1,4(a4)
    cca0:	fef6d6e3          	bge	a3,a5,cc8c <__subtf3+0x12fc>
    cca4:	fff78713          	addi	a4,a5,-1
    cca8:	ef9ff06f          	j	cba0 <__subtf3+0x1210>
    ccac:	00072583          	lw	a1,0(a4)
    ccb0:	ffc72883          	lw	a7,-4(a4)
    ccb4:	00d70e33          	add	t3,a4,a3
    ccb8:	010595b3          	sll	a1,a1,a6
    ccbc:	00c8d8b3          	srl	a7,a7,a2
    ccc0:	0115e5b3          	or	a1,a1,a7
    ccc4:	00be2023          	sw	a1,0(t3)
    ccc8:	ffc70713          	addi	a4,a4,-4
    cccc:	eb5ff06f          	j	cb80 <__subtf3+0x11f0>
    ccd0:	00062503          	lw	a0,0(a2)
    ccd4:	00168693          	addi	a3,a3,1
    ccd8:	00460613          	addi	a2,a2,4
    ccdc:	00a36333          	or	t1,t1,a0
    cce0:	f19ff06f          	j	cbf8 <__subtf3+0x1268>
    cce4:	04060593          	addi	a1,a2,64
    cce8:	002585b3          	add	a1,a1,sp
    ccec:	ff05a583          	lw	a1,-16(a1)
    ccf0:	02000813          	li	a6,32
    ccf4:	40f80833          	sub	a6,a6,a5
    ccf8:	010595b3          	sll	a1,a1,a6
    ccfc:	00b36333          	or	t1,t1,a1
    cd00:	00000e13          	li	t3,0
    cd04:	00c885b3          	add	a1,a7,a2
    cd08:	40c00633          	neg	a2,a2
    cd0c:	06de4863          	blt	t3,a3,cd7c <__subtf3+0x13ec>
    cd10:	00400613          	li	a2,4
    cd14:	40e60733          	sub	a4,a2,a4
    cd18:	03c12603          	lw	a2,60(sp)
    cd1c:	00269693          	slli	a3,a3,0x2
    cd20:	04068693          	addi	a3,a3,64
    cd24:	002686b3          	add	a3,a3,sp
    cd28:	00f657b3          	srl	a5,a2,a5
    cd2c:	fef6a823          	sw	a5,-16(a3)
    cd30:	00400693          	li	a3,4
    cd34:	40e686b3          	sub	a3,a3,a4
    cd38:	00271713          	slli	a4,a4,0x2
    cd3c:	00e887b3          	add	a5,a7,a4
    cd40:	00269713          	slli	a4,a3,0x2
    cd44:	00800693          	li	a3,8
    cd48:	00d76a63          	bltu	a4,a3,cd5c <__subtf3+0x13cc>
    cd4c:	0007a023          	sw	zero,0(a5)
    cd50:	0007a223          	sw	zero,4(a5)
    cd54:	ff870713          	addi	a4,a4,-8
    cd58:	00878793          	addi	a5,a5,8
    cd5c:	00400693          	li	a3,4
    cd60:	00d76463          	bltu	a4,a3,cd68 <__subtf3+0x13d8>
    cd64:	0007a023          	sw	zero,0(a5)
    cd68:	03012703          	lw	a4,48(sp)
    cd6c:	006037b3          	snez	a5,t1
    cd70:	00f767b3          	or	a5,a4,a5
    cd74:	02f12823          	sw	a5,48(sp)
    cd78:	c60ff06f          	j	c1d8 <__subtf3+0x848>
    cd7c:	0005a503          	lw	a0,0(a1)
    cd80:	0045ae83          	lw	t4,4(a1)
    cd84:	00c58f33          	add	t5,a1,a2
    cd88:	00f55533          	srl	a0,a0,a5
    cd8c:	010e9eb3          	sll	t4,t4,a6
    cd90:	01d56533          	or	a0,a0,t4
    cd94:	00af2023          	sw	a0,0(t5)
    cd98:	001e0e13          	addi	t3,t3,1
    cd9c:	00458593          	addi	a1,a1,4
    cda0:	f6dff06f          	j	cd0c <__subtf3+0x137c>
    cda4:	03c12783          	lw	a5,60(sp)
    cda8:	fff80737          	lui	a4,0xfff80
    cdac:	fff70713          	addi	a4,a4,-1 # fff7ffff <_end+0xfff62d9b>
    cdb0:	00e7f7b3          	and	a5,a5,a4
    cdb4:	40a484b3          	sub	s1,s1,a0
    cdb8:	02f12e23          	sw	a5,60(sp)
    cdbc:	df1fe06f          	j	bbac <__subtf3+0x21c>
    cdc0:	02012e23          	sw	zero,60(sp)
    cdc4:	02012c23          	sw	zero,56(sp)
    cdc8:	02012a23          	sw	zero,52(sp)
    cdcc:	02012823          	sw	zero,48(sp)
    cdd0:	e5dfe06f          	j	bc2c <__subtf3+0x29c>
    cdd4:	07400713          	li	a4,116
    cdd8:	00c74463          	blt	a4,a2,cde0 <__subtf3+0x1450>
    cddc:	f51fe06f          	j	bd2c <__subtf3+0x39c>
    cde0:	02012623          	sw	zero,44(sp)
    cde4:	02012423          	sw	zero,40(sp)
    cde8:	02012223          	sw	zero,36(sp)
    cdec:	00100713          	li	a4,1
    cdf0:	82cff06f          	j	be1c <__subtf3+0x48c>
    cdf4:	07400793          	li	a5,116
    cdf8:	a0b7de63          	bge	a5,a1,c014 <__subtf3+0x684>
    cdfc:	00012e23          	sw	zero,28(sp)
    ce00:	00012c23          	sw	zero,24(sp)
    ce04:	00012a23          	sw	zero,20(sp)
    ce08:	00100793          	li	a5,1
    ce0c:	b00ff06f          	j	c10c <__subtf3+0x77c>
    ce10:	07400793          	li	a5,116
    ce14:	a717c4e3          	blt	a5,a7,c87c <__subtf3+0xeec>
    ce18:	00088313          	mv	t1,a7
    ce1c:	8d5ff06f          	j	c6f0 <__subtf3+0xd60>

0000ce20 <__unordtf2>:
    ce20:	00052703          	lw	a4,0(a0)
    ce24:	00452e83          	lw	t4,4(a0)
    ce28:	00852e03          	lw	t3,8(a0)
    ce2c:	00c52503          	lw	a0,12(a0)
    ce30:	00c5a603          	lw	a2,12(a1)
    ce34:	000086b7          	lui	a3,0x8
    ce38:	fff68693          	addi	a3,a3,-1 # 7fff <_start-0x1>
    ce3c:	01055813          	srli	a6,a0,0x10
    ce40:	0005a783          	lw	a5,0(a1)
    ce44:	0045a303          	lw	t1,4(a1)
    ce48:	0085a883          	lw	a7,8(a1)
    ce4c:	00d87833          	and	a6,a6,a3
    ce50:	01065593          	srli	a1,a2,0x10
    ce54:	ff010113          	addi	sp,sp,-16
    ce58:	00d5f5b3          	and	a1,a1,a3
    ce5c:	02d81063          	bne	a6,a3,ce7c <__unordtf2+0x5c>
    ce60:	01d76733          	or	a4,a4,t4
    ce64:	01051513          	slli	a0,a0,0x10
    ce68:	01055513          	srli	a0,a0,0x10
    ce6c:	01c76733          	or	a4,a4,t3
    ce70:	00a76733          	or	a4,a4,a0
    ce74:	00100513          	li	a0,1
    ce78:	02071663          	bnez	a4,cea4 <__unordtf2+0x84>
    ce7c:	00008737          	lui	a4,0x8
    ce80:	fff70713          	addi	a4,a4,-1 # 7fff <_start-0x1>
    ce84:	00000513          	li	a0,0
    ce88:	00e59e63          	bne	a1,a4,cea4 <__unordtf2+0x84>
    ce8c:	0067e533          	or	a0,a5,t1
    ce90:	01061613          	slli	a2,a2,0x10
    ce94:	01156533          	or	a0,a0,a7
    ce98:	01065613          	srli	a2,a2,0x10
    ce9c:	00c56533          	or	a0,a0,a2
    cea0:	00a03533          	snez	a0,a0
    cea4:	01010113          	addi	sp,sp,16
    cea8:	00008067          	ret

0000ceac <__fixtfsi>:
    ceac:	00052703          	lw	a4,0(a0)
    ceb0:	00452683          	lw	a3,4(a0)
    ceb4:	00c52783          	lw	a5,12(a0)
    ceb8:	00852583          	lw	a1,8(a0)
    cebc:	fe010113          	addi	sp,sp,-32
    cec0:	00e12023          	sw	a4,0(sp)
    cec4:	00d12223          	sw	a3,4(sp)
    cec8:	00e12823          	sw	a4,16(sp)
    cecc:	00179693          	slli	a3,a5,0x1
    ced0:	00004737          	lui	a4,0x4
    ced4:	00b12423          	sw	a1,8(sp)
    ced8:	00f12623          	sw	a5,12(sp)
    cedc:	00b12c23          	sw	a1,24(sp)
    cee0:	0116d693          	srli	a3,a3,0x11
    cee4:	ffe70713          	addi	a4,a4,-2 # 3ffe <_start-0x4002>
    cee8:	00000513          	li	a0,0
    ceec:	02d75063          	bge	a4,a3,cf0c <__fixtfsi+0x60>
    cef0:	00004737          	lui	a4,0x4
    cef4:	01d70713          	addi	a4,a4,29 # 401d <_start-0x3fe3>
    cef8:	01f7d813          	srli	a6,a5,0x1f
    cefc:	00d75c63          	bge	a4,a3,cf14 <__fixtfsi+0x68>
    cf00:	80000537          	lui	a0,0x80000
    cf04:	fff50513          	addi	a0,a0,-1 # 7fffffff <_end+0x7ffe2d9b>
    cf08:	00a80533          	add	a0,a6,a0
    cf0c:	02010113          	addi	sp,sp,32
    cf10:	00008067          	ret
    cf14:	01079793          	slli	a5,a5,0x10
    cf18:	00010737          	lui	a4,0x10
    cf1c:	0107d793          	srli	a5,a5,0x10
    cf20:	00e7e7b3          	or	a5,a5,a4
    cf24:	00004737          	lui	a4,0x4
    cf28:	06f70713          	addi	a4,a4,111 # 406f <_start-0x3f91>
    cf2c:	40d70733          	sub	a4,a4,a3
    cf30:	40575613          	srai	a2,a4,0x5
    cf34:	00f12e23          	sw	a5,28(sp)
    cf38:	01f77713          	andi	a4,a4,31
    cf3c:	02071463          	bnez	a4,cf64 <__fixtfsi+0xb8>
    cf40:	00261613          	slli	a2,a2,0x2
    cf44:	02060793          	addi	a5,a2,32
    cf48:	00278633          	add	a2,a5,sp
    cf4c:	ff062783          	lw	a5,-16(a2)
    cf50:	00f12823          	sw	a5,16(sp)
    cf54:	01012503          	lw	a0,16(sp)
    cf58:	fa080ae3          	beqz	a6,cf0c <__fixtfsi+0x60>
    cf5c:	40a00533          	neg	a0,a0
    cf60:	fadff06f          	j	cf0c <__fixtfsi+0x60>
    cf64:	00200513          	li	a0,2
    cf68:	00000693          	li	a3,0
    cf6c:	02a61063          	bne	a2,a0,cf8c <__fixtfsi+0xe0>
    cf70:	02000693          	li	a3,32
    cf74:	40e686b3          	sub	a3,a3,a4
    cf78:	00d796b3          	sll	a3,a5,a3
    cf7c:	00e5d5b3          	srl	a1,a1,a4
    cf80:	00b6e6b3          	or	a3,a3,a1
    cf84:	00d12823          	sw	a3,16(sp)
    cf88:	00100693          	li	a3,1
    cf8c:	00269693          	slli	a3,a3,0x2
    cf90:	02068693          	addi	a3,a3,32
    cf94:	002686b3          	add	a3,a3,sp
    cf98:	00e7d7b3          	srl	a5,a5,a4
    cf9c:	fef6a823          	sw	a5,-16(a3)
    cfa0:	fb5ff06f          	j	cf54 <__fixtfsi+0xa8>

0000cfa4 <__floatsitf>:
    cfa4:	fd010113          	addi	sp,sp,-48
    cfa8:	02912223          	sw	s1,36(sp)
    cfac:	02112623          	sw	ra,44(sp)
    cfb0:	02812423          	sw	s0,40(sp)
    cfb4:	03212023          	sw	s2,32(sp)
    cfb8:	00050493          	mv	s1,a0
    cfbc:	12058263          	beqz	a1,d0e0 <__floatsitf+0x13c>
    cfc0:	41f5d793          	srai	a5,a1,0x1f
    cfc4:	00b7c433          	xor	s0,a5,a1
    cfc8:	40f40433          	sub	s0,s0,a5
    cfcc:	00040513          	mv	a0,s0
    cfd0:	01f5d913          	srli	s2,a1,0x1f
    cfd4:	330000ef          	jal	d304 <__clzsi2>
    cfd8:	00004737          	lui	a4,0x4
    cfdc:	01e70713          	addi	a4,a4,30 # 401e <_start-0x3fe2>
    cfe0:	05150793          	addi	a5,a0,81
    cfe4:	40a70633          	sub	a2,a4,a0
    cfe8:	00812823          	sw	s0,16(sp)
    cfec:	4057d713          	srai	a4,a5,0x5
    cff0:	00012a23          	sw	zero,20(sp)
    cff4:	00012c23          	sw	zero,24(sp)
    cff8:	00012e23          	sw	zero,28(sp)
    cffc:	01f7f793          	andi	a5,a5,31
    d000:	02078c63          	beqz	a5,d038 <__floatsitf+0x94>
    d004:	00200693          	li	a3,2
    d008:	0cd71863          	bne	a4,a3,d0d8 <__floatsitf+0x134>
    d00c:	02000693          	li	a3,32
    d010:	40f686b3          	sub	a3,a3,a5
    d014:	00d456b3          	srl	a3,s0,a3
    d018:	00d12e23          	sw	a3,28(sp)
    d01c:	fff70693          	addi	a3,a4,-1
    d020:	00271713          	slli	a4,a4,0x2
    d024:	02070713          	addi	a4,a4,32
    d028:	00270733          	add	a4,a4,sp
    d02c:	00f41433          	sll	s0,s0,a5
    d030:	fe872823          	sw	s0,-16(a4)
    d034:	0340006f          	j	d068 <__floatsitf+0xc4>
    d038:	00300793          	li	a5,3
    d03c:	40e787b3          	sub	a5,a5,a4
    d040:	00279793          	slli	a5,a5,0x2
    d044:	02078793          	addi	a5,a5,32
    d048:	002787b3          	add	a5,a5,sp
    d04c:	ff07a783          	lw	a5,-16(a5)
    d050:	00200693          	li	a3,2
    d054:	00f12e23          	sw	a5,28(sp)
    d058:	00200793          	li	a5,2
    d05c:	00f71663          	bne	a4,a5,d068 <__floatsitf+0xc4>
    d060:	00812c23          	sw	s0,24(sp)
    d064:	00100693          	li	a3,1
    d068:	00269693          	slli	a3,a3,0x2
    d06c:	00012823          	sw	zero,16(sp)
    d070:	00012a23          	sw	zero,20(sp)
    d074:	ffc68693          	addi	a3,a3,-4
    d078:	00400793          	li	a5,4
    d07c:	00f6e463          	bltu	a3,a5,d084 <__floatsitf+0xe0>
    d080:	00012c23          	sw	zero,24(sp)
    d084:	00090593          	mv	a1,s2
    d088:	01c12783          	lw	a5,28(sp)
    d08c:	00f59413          	slli	s0,a1,0xf
    d090:	00c46433          	or	s0,s0,a2
    d094:	00f11623          	sh	a5,12(sp)
    d098:	01012783          	lw	a5,16(sp)
    d09c:	00811723          	sh	s0,14(sp)
    d0a0:	02c12083          	lw	ra,44(sp)
    d0a4:	00f4a023          	sw	a5,0(s1)
    d0a8:	01412783          	lw	a5,20(sp)
    d0ac:	02812403          	lw	s0,40(sp)
    d0b0:	02012903          	lw	s2,32(sp)
    d0b4:	00f4a223          	sw	a5,4(s1)
    d0b8:	01812783          	lw	a5,24(sp)
    d0bc:	00048513          	mv	a0,s1
    d0c0:	00f4a423          	sw	a5,8(s1)
    d0c4:	00c12783          	lw	a5,12(sp)
    d0c8:	00f4a623          	sw	a5,12(s1)
    d0cc:	02412483          	lw	s1,36(sp)
    d0d0:	03010113          	addi	sp,sp,48
    d0d4:	00008067          	ret
    d0d8:	00300713          	li	a4,3
    d0dc:	f41ff06f          	j	d01c <__floatsitf+0x78>
    d0e0:	00012e23          	sw	zero,28(sp)
    d0e4:	00012c23          	sw	zero,24(sp)
    d0e8:	00012a23          	sw	zero,20(sp)
    d0ec:	00012823          	sw	zero,16(sp)
    d0f0:	00000613          	li	a2,0
    d0f4:	f95ff06f          	j	d088 <__floatsitf+0xe4>

0000d0f8 <__extenddftf2>:
    d0f8:	01465713          	srli	a4,a2,0x14
    d0fc:	00c61793          	slli	a5,a2,0xc
    d100:	7ff77713          	andi	a4,a4,2047
    d104:	fd010113          	addi	sp,sp,-48
    d108:	00c7d793          	srli	a5,a5,0xc
    d10c:	00170693          	addi	a3,a4,1
    d110:	02812423          	sw	s0,40(sp)
    d114:	02912223          	sw	s1,36(sp)
    d118:	03212023          	sw	s2,32(sp)
    d11c:	02112623          	sw	ra,44(sp)
    d120:	00b12823          	sw	a1,16(sp)
    d124:	00f12a23          	sw	a5,20(sp)
    d128:	00012e23          	sw	zero,28(sp)
    d12c:	00012c23          	sw	zero,24(sp)
    d130:	7fe6f693          	andi	a3,a3,2046
    d134:	00050913          	mv	s2,a0
    d138:	00058413          	mv	s0,a1
    d13c:	01f65493          	srli	s1,a2,0x1f
    d140:	08068263          	beqz	a3,d1c4 <__extenddftf2+0xcc>
    d144:	000046b7          	lui	a3,0x4
    d148:	c0068693          	addi	a3,a3,-1024 # 3c00 <_start-0x4400>
    d14c:	00d70733          	add	a4,a4,a3
    d150:	0047d693          	srli	a3,a5,0x4
    d154:	00d12e23          	sw	a3,28(sp)
    d158:	01c79793          	slli	a5,a5,0x1c
    d15c:	0045d693          	srli	a3,a1,0x4
    d160:	00d7e7b3          	or	a5,a5,a3
    d164:	01c59413          	slli	s0,a1,0x1c
    d168:	00f12c23          	sw	a5,24(sp)
    d16c:	00812a23          	sw	s0,20(sp)
    d170:	00012823          	sw	zero,16(sp)
    d174:	01c12783          	lw	a5,28(sp)
    d178:	00f49493          	slli	s1,s1,0xf
    d17c:	00e4e4b3          	or	s1,s1,a4
    d180:	00f11623          	sh	a5,12(sp)
    d184:	01012783          	lw	a5,16(sp)
    d188:	00911723          	sh	s1,14(sp)
    d18c:	02c12083          	lw	ra,44(sp)
    d190:	00f92023          	sw	a5,0(s2)
    d194:	01412783          	lw	a5,20(sp)
    d198:	02812403          	lw	s0,40(sp)
    d19c:	02412483          	lw	s1,36(sp)
    d1a0:	00f92223          	sw	a5,4(s2)
    d1a4:	01812783          	lw	a5,24(sp)
    d1a8:	00090513          	mv	a0,s2
    d1ac:	00f92423          	sw	a5,8(s2)
    d1b0:	00c12783          	lw	a5,12(sp)
    d1b4:	00f92623          	sw	a5,12(s2)
    d1b8:	02012903          	lw	s2,32(sp)
    d1bc:	03010113          	addi	sp,sp,48
    d1c0:	00008067          	ret
    d1c4:	00b7e533          	or	a0,a5,a1
    d1c8:	10071063          	bnez	a4,d2c8 <__extenddftf2+0x1d0>
    d1cc:	fa0504e3          	beqz	a0,d174 <__extenddftf2+0x7c>
    d1d0:	04078e63          	beqz	a5,d22c <__extenddftf2+0x134>
    d1d4:	00078513          	mv	a0,a5
    d1d8:	12c000ef          	jal	d304 <__clzsi2>
    d1dc:	03150693          	addi	a3,a0,49
    d1e0:	4056d793          	srai	a5,a3,0x5
    d1e4:	01f6f693          	andi	a3,a3,31
    d1e8:	04068863          	beqz	a3,d238 <__extenddftf2+0x140>
    d1ec:	ffc00613          	li	a2,-4
    d1f0:	02c78633          	mul	a2,a5,a2
    d1f4:	02000813          	li	a6,32
    d1f8:	01010313          	addi	t1,sp,16
    d1fc:	40d80833          	sub	a6,a6,a3
    d200:	00c60713          	addi	a4,a2,12
    d204:	00e30733          	add	a4,t1,a4
    d208:	40c00633          	neg	a2,a2
    d20c:	08e31c63          	bne	t1,a4,d2a4 <__extenddftf2+0x1ac>
    d210:	fff78713          	addi	a4,a5,-1
    d214:	00279793          	slli	a5,a5,0x2
    d218:	02078793          	addi	a5,a5,32
    d21c:	002787b3          	add	a5,a5,sp
    d220:	00d416b3          	sll	a3,s0,a3
    d224:	fed7a823          	sw	a3,-16(a5)
    d228:	03c0006f          	j	d264 <__extenddftf2+0x16c>
    d22c:	0d8000ef          	jal	d304 <__clzsi2>
    d230:	02050513          	addi	a0,a0,32
    d234:	fa9ff06f          	j	d1dc <__extenddftf2+0xe4>
    d238:	ffc00613          	li	a2,-4
    d23c:	02c78633          	mul	a2,a5,a2
    d240:	01c10713          	addi	a4,sp,28
    d244:	00300693          	li	a3,3
    d248:	00c705b3          	add	a1,a4,a2
    d24c:	0005a583          	lw	a1,0(a1)
    d250:	fff68693          	addi	a3,a3,-1
    d254:	ffc70713          	addi	a4,a4,-4
    d258:	00b72223          	sw	a1,4(a4)
    d25c:	fef6d6e3          	bge	a3,a5,d248 <__extenddftf2+0x150>
    d260:	fff78713          	addi	a4,a5,-1
    d264:	00170793          	addi	a5,a4,1
    d268:	00279793          	slli	a5,a5,0x2
    d26c:	00800693          	li	a3,8
    d270:	01010713          	addi	a4,sp,16
    d274:	00d7ea63          	bltu	a5,a3,d288 <__extenddftf2+0x190>
    d278:	00012823          	sw	zero,16(sp)
    d27c:	00072223          	sw	zero,4(a4)
    d280:	ff878793          	addi	a5,a5,-8
    d284:	01810713          	addi	a4,sp,24
    d288:	00400693          	li	a3,4
    d28c:	00d7e463          	bltu	a5,a3,d294 <__extenddftf2+0x19c>
    d290:	00072023          	sw	zero,0(a4)
    d294:	00004737          	lui	a4,0x4
    d298:	c0c70713          	addi	a4,a4,-1012 # 3c0c <_start-0x43f4>
    d29c:	40a70733          	sub	a4,a4,a0
    d2a0:	ed5ff06f          	j	d174 <__extenddftf2+0x7c>
    d2a4:	00072583          	lw	a1,0(a4)
    d2a8:	ffc72883          	lw	a7,-4(a4)
    d2ac:	00c70e33          	add	t3,a4,a2
    d2b0:	00d595b3          	sll	a1,a1,a3
    d2b4:	0108d8b3          	srl	a7,a7,a6
    d2b8:	0115e5b3          	or	a1,a1,a7
    d2bc:	00be2023          	sw	a1,0(t3)
    d2c0:	ffc70713          	addi	a4,a4,-4
    d2c4:	f49ff06f          	j	d20c <__extenddftf2+0x114>
    d2c8:	02050863          	beqz	a0,d2f8 <__extenddftf2+0x200>
    d2cc:	01c79713          	slli	a4,a5,0x1c
    d2d0:	0045d693          	srli	a3,a1,0x4
    d2d4:	00d76733          	or	a4,a4,a3
    d2d8:	00e12c23          	sw	a4,24(sp)
    d2dc:	0047d793          	srli	a5,a5,0x4
    d2e0:	00008737          	lui	a4,0x8
    d2e4:	01c59413          	slli	s0,a1,0x1c
    d2e8:	00e7e7b3          	or	a5,a5,a4
    d2ec:	00812a23          	sw	s0,20(sp)
    d2f0:	00012823          	sw	zero,16(sp)
    d2f4:	00f12e23          	sw	a5,28(sp)
    d2f8:	00008737          	lui	a4,0x8
    d2fc:	fff70713          	addi	a4,a4,-1 # 7fff <_start-0x1>
    d300:	e75ff06f          	j	d174 <__extenddftf2+0x7c>

0000d304 <__clzsi2>:
    d304:	000107b7          	lui	a5,0x10
    d308:	02f57a63          	bgeu	a0,a5,d33c <__clzsi2+0x38>
    d30c:	10053793          	sltiu	a5,a0,256
    d310:	0017b793          	seqz	a5,a5
    d314:	00379793          	slli	a5,a5,0x3
    d318:	0001a737          	lui	a4,0x1a
    d31c:	02000693          	li	a3,32
    d320:	40f686b3          	sub	a3,a3,a5
    d324:	00f55533          	srl	a0,a0,a5
    d328:	e3070793          	addi	a5,a4,-464 # 19e30 <__clz_tab>
    d32c:	00a787b3          	add	a5,a5,a0
    d330:	0007c503          	lbu	a0,0(a5) # 10000 <_vfprintf_r+0xc14>
    d334:	40a68533          	sub	a0,a3,a0
    d338:	00008067          	ret
    d33c:	01000737          	lui	a4,0x1000
    d340:	01800793          	li	a5,24
    d344:	fce57ae3          	bgeu	a0,a4,d318 <__clzsi2+0x14>
    d348:	01000793          	li	a5,16
    d34c:	fcdff06f          	j	d318 <__clzsi2+0x14>

0000d350 <exit>:
    d350:	ff010113          	addi	sp,sp,-16
    d354:	00000593          	li	a1,0
    d358:	00812423          	sw	s0,8(sp)
    d35c:	00112623          	sw	ra,12(sp)
    d360:	00050413          	mv	s0,a0
    d364:	2fd010ef          	jal	ee60 <__call_exitprocs>
    d368:	8b81a783          	lw	a5,-1864(gp) # 1a770 <__stdio_exit_handler>
    d36c:	00078463          	beqz	a5,d374 <exit+0x24>
    d370:	000780e7          	jalr	a5
    d374:	00040513          	mv	a0,s0
    d378:	918fb0ef          	jal	8490 <_exit>

0000d37c <main>:
    d37c:	f5010113          	addi	sp,sp,-176
    d380:	03000513          	li	a0,48
    d384:	0a112623          	sw	ra,172(sp)
    d388:	0a812423          	sw	s0,168(sp)
    d38c:	09612823          	sw	s6,144(sp)
    d390:	09812423          	sw	s8,136(sp)
    d394:	0a912223          	sw	s1,164(sp)
    d398:	0b212023          	sw	s2,160(sp)
    d39c:	09312e23          	sw	s3,156(sp)
    d3a0:	09412c23          	sw	s4,152(sp)
    d3a4:	09512a23          	sw	s5,148(sp)
    d3a8:	09712623          	sw	s7,140(sp)
    d3ac:	09912223          	sw	s9,132(sp)
    d3b0:	09a12023          	sw	s10,128(sp)
    d3b4:	07b12e23          	sw	s11,124(sp)
    d3b8:	7b0000ef          	jal	db68 <malloc>
    d3bc:	00050413          	mv	s0,a0
    d3c0:	03000513          	li	a0,48
    d3c4:	8a81a023          	sw	s0,-1888(gp) # 1a758 <Next_Ptr_Glob>
    d3c8:	7a0000ef          	jal	db68 <malloc>
    d3cc:	000197b7          	lui	a5,0x19
    d3d0:	00019737          	lui	a4,0x19
    d3d4:	12078793          	addi	a5,a5,288 # 19120 <_getpid_r+0x4>
    d3d8:	67c70713          	addi	a4,a4,1660 # 1967c <_getpid_r+0x560>
    d3dc:	0007a383          	lw	t2,0(a5)
    d3e0:	0047af03          	lw	t5,4(a5)
    d3e4:	0087ae83          	lw	t4,8(a5)
    d3e8:	00c7ae03          	lw	t3,12(a5)
    d3ec:	0107a303          	lw	t1,16(a5)
    d3f0:	00072283          	lw	t0,0(a4)
    d3f4:	00472f83          	lw	t6,4(a4)
    d3f8:	0147a883          	lw	a7,20(a5)
    d3fc:	0187a803          	lw	a6,24(a5)
    d400:	01c7d583          	lhu	a1,28(a5)
    d404:	01e7c603          	lbu	a2,30(a5)
    d408:	00852023          	sw	s0,0(a0)
    d40c:	00050793          	mv	a5,a0
    d410:	00052223          	sw	zero,4(a0)
    d414:	00872683          	lw	a3,8(a4)
    d418:	00200513          	li	a0,2
    d41c:	00a7a423          	sw	a0,8(a5)
    d420:	02800513          	li	a0,40
    d424:	0077a823          	sw	t2,16(a5)
    d428:	01e7aa23          	sw	t5,20(a5)
    d42c:	01d7ac23          	sw	t4,24(a5)
    d430:	01c7ae23          	sw	t3,28(a5)
    d434:	0267a023          	sw	t1,32(a5)
    d438:	02512823          	sw	t0,48(sp)
    d43c:	03f12a23          	sw	t6,52(sp)
    d440:	00a7a623          	sw	a0,12(a5)
    d444:	0317a223          	sw	a7,36(a5)
    d448:	0307a423          	sw	a6,40(a5)
    d44c:	02b79623          	sh	a1,44(a5)
    d450:	02c78723          	sb	a2,46(a5)
    d454:	8af1a223          	sw	a5,-1884(gp) # 1a75c <Ptr_Glob>
    d458:	00c72883          	lw	a7,12(a4)
    d45c:	01072803          	lw	a6,16(a4)
    d460:	01472583          	lw	a1,20(a4)
    d464:	01872603          	lw	a2,24(a4)
    d468:	02d12c23          	sw	a3,56(sp)
    d46c:	01e74783          	lbu	a5,30(a4)
    d470:	01c75683          	lhu	a3,28(a4)
    d474:	0001bc37          	lui	s8,0x1b
    d478:	864c0713          	addi	a4,s8,-1948 # 1a864 <Arr_2_Glob>
    d47c:	04f10723          	sb	a5,78(sp)
    d480:	00a00513          	li	a0,10
    d484:	00a00793          	li	a5,10
    d488:	64f72e23          	sw	a5,1628(a4)
    d48c:	03112e23          	sw	a7,60(sp)
    d490:	05012023          	sw	a6,64(sp)
    d494:	04b12223          	sw	a1,68(sp)
    d498:	04c12423          	sw	a2,72(sp)
    d49c:	04d11623          	sh	a3,76(sp)
    d4a0:	380010ef          	jal	e820 <putchar>
    d4a4:	00019537          	lui	a0,0x19
    d4a8:	14050513          	addi	a0,a0,320 # 19140 <_getpid_r+0x24>
    d4ac:	458010ef          	jal	e904 <puts>
    d4b0:	00a00513          	li	a0,10
    d4b4:	36c010ef          	jal	e820 <putchar>
    d4b8:	8901a783          	lw	a5,-1904(gp) # 1a748 <Reg>
    d4bc:	66078e63          	beqz	a5,db38 <main+0x7bc>
    d4c0:	00019537          	lui	a0,0x19
    d4c4:	17050513          	addi	a0,a0,368 # 19170 <_getpid_r+0x54>
    d4c8:	43c010ef          	jal	e904 <puts>
    d4cc:	00a00513          	li	a0,10
    d4d0:	350010ef          	jal	e820 <putchar>
    d4d4:	00019537          	lui	a0,0x19
    d4d8:	1cc50513          	addi	a0,a0,460 # 191cc <_getpid_r+0xb0>
    d4dc:	2f0010ef          	jal	e7cc <printf>
    d4e0:	00a00513          	li	a0,10
    d4e4:	33c010ef          	jal	e820 <putchar>
    d4e8:	00019537          	lui	a0,0x19
    d4ec:	06400593          	li	a1,100
    d4f0:	20450513          	addi	a0,a0,516 # 19204 <_getpid_r+0xe8>
    d4f4:	2d8010ef          	jal	e7cc <printf>
    d4f8:	00000513          	li	a0,0
    d4fc:	eddfa0ef          	jal	83d8 <time>
    d500:	00050793          	mv	a5,a0
    d504:	00000513          	li	a0,0
    d508:	88f1a623          	sw	a5,-1908(gp) # 1a744 <Begin_Time>
    d50c:	ed5fa0ef          	jal	83e0 <insn>
    d510:	000197b7          	lui	a5,0x19
    d514:	69c78793          	addi	a5,a5,1692 # 1969c <_getpid_r+0x580>
    d518:	0047a703          	lw	a4,4(a5)
    d51c:	0007ad83          	lw	s11,0(a5)
    d520:	00019837          	lui	a6,0x19
    d524:	00e12023          	sw	a4,0(sp)
    d528:	0087a703          	lw	a4,8(a5)
    d52c:	00100493          	li	s1,1
    d530:	00e12223          	sw	a4,4(sp)
    d534:	00c7a703          	lw	a4,12(a5)
    d538:	00e12423          	sw	a4,8(sp)
    d53c:	0107a703          	lw	a4,16(a5)
    d540:	00e12623          	sw	a4,12(sp)
    d544:	0147a703          	lw	a4,20(a5)
    d548:	6bc80c93          	addi	s9,a6,1724 # 196bc <_getpid_r+0x5a0>
    d54c:	00e12823          	sw	a4,16(sp)
    d550:	0187a703          	lw	a4,24(a5)
    d554:	00e12a23          	sw	a4,20(sp)
    d558:	01c7d703          	lhu	a4,28(a5)
    d55c:	01e7c783          	lbu	a5,30(a5)
    d560:	00e12c23          	sw	a4,24(sp)
    d564:	00f12e23          	sw	a5,28(sp)
    d568:	88a1a023          	sw	a0,-1920(gp) # 1a738 <Begin_Insn>
    d56c:	04100713          	li	a4,65
    d570:	88e18aa3          	sb	a4,-1899(gp) # 1a74d <Ch_1_Glob>
    d574:	04200713          	li	a4,66
    d578:	88e18a23          	sb	a4,-1900(gp) # 1a74c <Ch_2_Glob>
    d57c:	00012703          	lw	a4,0(sp)
    d580:	00100793          	li	a5,1
    d584:	05010593          	addi	a1,sp,80
    d588:	04e12a23          	sw	a4,84(sp)
    d58c:	00412703          	lw	a4,4(sp)
    d590:	03010513          	addi	a0,sp,48
    d594:	88f1ac23          	sw	a5,-1896(gp) # 1a750 <Bool_Glob>
    d598:	04e12c23          	sw	a4,88(sp)
    d59c:	00812703          	lw	a4,8(sp)
    d5a0:	02f12623          	sw	a5,44(sp)
    d5a4:	05b12823          	sw	s11,80(sp)
    d5a8:	04e12e23          	sw	a4,92(sp)
    d5ac:	00c12703          	lw	a4,12(sp)
    d5b0:	06e12023          	sw	a4,96(sp)
    d5b4:	01012703          	lw	a4,16(sp)
    d5b8:	06e12223          	sw	a4,100(sp)
    d5bc:	01412703          	lw	a4,20(sp)
    d5c0:	06e12423          	sw	a4,104(sp)
    d5c4:	01812703          	lw	a4,24(sp)
    d5c8:	06e11623          	sh	a4,108(sp)
    d5cc:	01c12703          	lw	a4,28(sp)
    d5d0:	06e10723          	sb	a4,110(sp)
    d5d4:	db5fa0ef          	jal	8388 <Func_2>
    d5d8:	00153793          	seqz	a5,a0
    d5dc:	02810613          	addi	a2,sp,40
    d5e0:	00300593          	li	a1,3
    d5e4:	88f1ac23          	sw	a5,-1896(gp) # 1a750 <Bool_Glob>
    d5e8:	00200513          	li	a0,2
    d5ec:	00700793          	li	a5,7
    d5f0:	02f12423          	sw	a5,40(sp)
    d5f4:	d01fa0ef          	jal	82f4 <Proc_7>
    d5f8:	02812683          	lw	a3,40(sp)
    d5fc:	00300613          	li	a2,3
    d600:	864c0593          	addi	a1,s8,-1948
    d604:	8e418513          	addi	a0,gp,-1820 # 1a79c <Arr_1_Glob>
    d608:	cfdfa0ef          	jal	8304 <Proc_8>
    d60c:	8a41a503          	lw	a0,-1884(gp) # 1a75c <Ptr_Glob>
    d610:	aa5fa0ef          	jal	80b4 <Proc_1>
    d614:	8941c703          	lbu	a4,-1900(gp) # 1a74c <Ch_2_Glob>
    d618:	04000793          	li	a5,64
    d61c:	50e7fa63          	bgeu	a5,a4,db30 <main+0x7b4>
    d620:	04100d13          	li	s10,65
    d624:	00300913          	li	s2,3
    d628:	04300593          	li	a1,67
    d62c:	000d0513          	mv	a0,s10
    d630:	d39fa0ef          	jal	8368 <Func_1>
    d634:	02c12783          	lw	a5,44(sp)
    d638:	001d0713          	addi	a4,s10,1
    d63c:	48f50263          	beq	a0,a5,dac0 <main+0x744>
    d640:	8941c783          	lbu	a5,-1900(gp) # 1a74c <Ch_2_Glob>
    d644:	0ff77d13          	zext.b	s10,a4
    d648:	ffa7f0e3          	bgeu	a5,s10,d628 <main+0x2ac>
    d64c:	00191793          	slli	a5,s2,0x1
    d650:	01278933          	add	s2,a5,s2
    d654:	02812883          	lw	a7,40(sp)
    d658:	8951c683          	lbu	a3,-1899(gp) # 1a74d <Ch_1_Glob>
    d65c:	04100713          	li	a4,65
    d660:	03194633          	div	a2,s2,a7
    d664:	00060793          	mv	a5,a2
    d668:	00e69863          	bne	a3,a4,d678 <main+0x2fc>
    d66c:	89c1a703          	lw	a4,-1892(gp) # 1a754 <Int_Glob>
    d670:	00960793          	addi	a5,a2,9
    d674:	40e787b3          	sub	a5,a5,a4
    d678:	00148493          	addi	s1,s1,1
    d67c:	06500713          	li	a4,101
    d680:	eee496e3          	bne	s1,a4,d56c <main+0x1f0>
    d684:	00000513          	li	a0,0
    d688:	01112423          	sw	a7,8(sp)
    d68c:	00c12223          	sw	a2,4(sp)
    d690:	00f12023          	sw	a5,0(sp)
    d694:	d45fa0ef          	jal	83d8 <time>
    d698:	00050713          	mv	a4,a0
    d69c:	00000513          	li	a0,0
    d6a0:	88e1a423          	sw	a4,-1912(gp) # 1a740 <End_Time>
    d6a4:	d3dfa0ef          	jal	83e0 <insn>
    d6a8:	00050713          	mv	a4,a0
    d6ac:	00019537          	lui	a0,0x19
    d6b0:	23450513          	addi	a0,a0,564 # 19234 <_getpid_r+0x118>
    d6b4:	86e1ae23          	sw	a4,-1924(gp) # 1a734 <End_Insn>
    d6b8:	24c010ef          	jal	e904 <puts>
    d6bc:	00a00513          	li	a0,10
    d6c0:	160010ef          	jal	e820 <putchar>
    d6c4:	00019537          	lui	a0,0x19
    d6c8:	24450513          	addi	a0,a0,580 # 19244 <_getpid_r+0x128>
    d6cc:	238010ef          	jal	e904 <puts>
    d6d0:	00a00513          	li	a0,10
    d6d4:	14c010ef          	jal	e820 <putchar>
    d6d8:	89c1a583          	lw	a1,-1892(gp) # 1a754 <Int_Glob>
    d6dc:	00019537          	lui	a0,0x19
    d6e0:	27c50513          	addi	a0,a0,636 # 1927c <_getpid_r+0x160>
    d6e4:	000194b7          	lui	s1,0x19
    d6e8:	0e4010ef          	jal	e7cc <printf>
    d6ec:	00500593          	li	a1,5
    d6f0:	29848513          	addi	a0,s1,664 # 19298 <_getpid_r+0x17c>
    d6f4:	0d8010ef          	jal	e7cc <printf>
    d6f8:	8981a583          	lw	a1,-1896(gp) # 1a750 <Bool_Glob>
    d6fc:	00019537          	lui	a0,0x19
    d700:	2b450513          	addi	a0,a0,692 # 192b4 <_getpid_r+0x198>
    d704:	0c8010ef          	jal	e7cc <printf>
    d708:	00100593          	li	a1,1
    d70c:	29848513          	addi	a0,s1,664
    d710:	0bc010ef          	jal	e7cc <printf>
    d714:	8951c583          	lbu	a1,-1899(gp) # 1a74d <Ch_1_Glob>
    d718:	00019537          	lui	a0,0x19
    d71c:	2d050513          	addi	a0,a0,720 # 192d0 <_getpid_r+0x1b4>
    d720:	0ac010ef          	jal	e7cc <printf>
    d724:	000199b7          	lui	s3,0x19
    d728:	04100593          	li	a1,65
    d72c:	2ec98513          	addi	a0,s3,748 # 192ec <_getpid_r+0x1d0>
    d730:	09c010ef          	jal	e7cc <printf>
    d734:	8941c583          	lbu	a1,-1900(gp) # 1a74c <Ch_2_Glob>
    d738:	00019537          	lui	a0,0x19
    d73c:	30850513          	addi	a0,a0,776 # 19308 <_getpid_r+0x1ec>
    d740:	08c010ef          	jal	e7cc <printf>
    d744:	04200593          	li	a1,66
    d748:	2ec98513          	addi	a0,s3,748
    d74c:	080010ef          	jal	e7cc <printf>
    d750:	8e418b93          	addi	s7,gp,-1820 # 1a79c <Arr_1_Glob>
    d754:	020ba583          	lw	a1,32(s7)
    d758:	00019537          	lui	a0,0x19
    d75c:	32450513          	addi	a0,a0,804 # 19324 <_getpid_r+0x208>
    d760:	06c010ef          	jal	e7cc <printf>
    d764:	00700593          	li	a1,7
    d768:	29848513          	addi	a0,s1,664
    d76c:	060010ef          	jal	e7cc <printf>
    d770:	0001b7b7          	lui	a5,0x1b
    d774:	86478793          	addi	a5,a5,-1948 # 1a864 <Arr_2_Glob>
    d778:	65c7a583          	lw	a1,1628(a5)
    d77c:	00019537          	lui	a0,0x19
    d780:	34050513          	addi	a0,a0,832 # 19340 <_getpid_r+0x224>
    d784:	048010ef          	jal	e7cc <printf>
    d788:	00019537          	lui	a0,0x19
    d78c:	35c50513          	addi	a0,a0,860 # 1935c <_getpid_r+0x240>
    d790:	174010ef          	jal	e904 <puts>
    d794:	00019537          	lui	a0,0x19
    d798:	38850513          	addi	a0,a0,904 # 19388 <_getpid_r+0x26c>
    d79c:	168010ef          	jal	e904 <puts>
    d7a0:	8a41a703          	lw	a4,-1884(gp) # 1a75c <Ptr_Glob>
    d7a4:	00019d37          	lui	s10,0x19
    d7a8:	394d0513          	addi	a0,s10,916 # 19394 <_getpid_r+0x278>
    d7ac:	00072583          	lw	a1,0(a4)
    d7b0:	00019bb7          	lui	s7,0x19
    d7b4:	00019ab7          	lui	s5,0x19
    d7b8:	014010ef          	jal	e7cc <printf>
    d7bc:	00019537          	lui	a0,0x19
    d7c0:	3b050513          	addi	a0,a0,944 # 193b0 <_getpid_r+0x294>
    d7c4:	140010ef          	jal	e904 <puts>
    d7c8:	8a41a703          	lw	a4,-1884(gp) # 1a75c <Ptr_Glob>
    d7cc:	3e0b8513          	addi	a0,s7,992 # 193e0 <_getpid_r+0x2c4>
    d7d0:	00019a37          	lui	s4,0x19
    d7d4:	00472583          	lw	a1,4(a4)
    d7d8:	000199b7          	lui	s3,0x19
    d7dc:	00019437          	lui	s0,0x19
    d7e0:	7ed000ef          	jal	e7cc <printf>
    d7e4:	00000593          	li	a1,0
    d7e8:	29848513          	addi	a0,s1,664
    d7ec:	7e1000ef          	jal	e7cc <printf>
    d7f0:	8a41a703          	lw	a4,-1884(gp) # 1a75c <Ptr_Glob>
    d7f4:	3fca8513          	addi	a0,s5,1020 # 193fc <_getpid_r+0x2e0>
    d7f8:	00872583          	lw	a1,8(a4)
    d7fc:	7d1000ef          	jal	e7cc <printf>
    d800:	00200593          	li	a1,2
    d804:	29848513          	addi	a0,s1,664
    d808:	7c5000ef          	jal	e7cc <printf>
    d80c:	8a41a703          	lw	a4,-1884(gp) # 1a75c <Ptr_Glob>
    d810:	418a0513          	addi	a0,s4,1048 # 19418 <_getpid_r+0x2fc>
    d814:	00c72583          	lw	a1,12(a4)
    d818:	7b5000ef          	jal	e7cc <printf>
    d81c:	01100593          	li	a1,17
    d820:	29848513          	addi	a0,s1,664
    d824:	7a9000ef          	jal	e7cc <printf>
    d828:	8a41a583          	lw	a1,-1884(gp) # 1a75c <Ptr_Glob>
    d82c:	43498513          	addi	a0,s3,1076 # 19434 <_getpid_r+0x318>
    d830:	01058593          	addi	a1,a1,16
    d834:	799000ef          	jal	e7cc <printf>
    d838:	45040513          	addi	a0,s0,1104 # 19450 <_getpid_r+0x334>
    d83c:	0c8010ef          	jal	e904 <puts>
    d840:	00019537          	lui	a0,0x19
    d844:	48450513          	addi	a0,a0,1156 # 19484 <_getpid_r+0x368>
    d848:	0bc010ef          	jal	e904 <puts>
    d84c:	8a01a703          	lw	a4,-1888(gp) # 1a758 <Next_Ptr_Glob>
    d850:	394d0513          	addi	a0,s10,916
    d854:	00072583          	lw	a1,0(a4)
    d858:	775000ef          	jal	e7cc <printf>
    d85c:	00019537          	lui	a0,0x19
    d860:	49450513          	addi	a0,a0,1172 # 19494 <_getpid_r+0x378>
    d864:	0a0010ef          	jal	e904 <puts>
    d868:	8a01a703          	lw	a4,-1888(gp) # 1a758 <Next_Ptr_Glob>
    d86c:	3e0b8513          	addi	a0,s7,992
    d870:	00472583          	lw	a1,4(a4)
    d874:	759000ef          	jal	e7cc <printf>
    d878:	00000593          	li	a1,0
    d87c:	29848513          	addi	a0,s1,664
    d880:	74d000ef          	jal	e7cc <printf>
    d884:	8a01a703          	lw	a4,-1888(gp) # 1a758 <Next_Ptr_Glob>
    d888:	3fca8513          	addi	a0,s5,1020
    d88c:	00872583          	lw	a1,8(a4)
    d890:	73d000ef          	jal	e7cc <printf>
    d894:	00100593          	li	a1,1
    d898:	29848513          	addi	a0,s1,664
    d89c:	731000ef          	jal	e7cc <printf>
    d8a0:	8a01a703          	lw	a4,-1888(gp) # 1a758 <Next_Ptr_Glob>
    d8a4:	418a0513          	addi	a0,s4,1048
    d8a8:	00c72583          	lw	a1,12(a4)
    d8ac:	721000ef          	jal	e7cc <printf>
    d8b0:	01200593          	li	a1,18
    d8b4:	29848513          	addi	a0,s1,664
    d8b8:	715000ef          	jal	e7cc <printf>
    d8bc:	8a01a583          	lw	a1,-1888(gp) # 1a758 <Next_Ptr_Glob>
    d8c0:	43498513          	addi	a0,s3,1076
    d8c4:	01058593          	addi	a1,a1,16
    d8c8:	705000ef          	jal	e7cc <printf>
    d8cc:	45040513          	addi	a0,s0,1104
    d8d0:	034010ef          	jal	e904 <puts>
    d8d4:	00012783          	lw	a5,0(sp)
    d8d8:	00019537          	lui	a0,0x19
    d8dc:	4d450513          	addi	a0,a0,1236 # 194d4 <_getpid_r+0x3b8>
    d8e0:	00078593          	mv	a1,a5
    d8e4:	6e9000ef          	jal	e7cc <printf>
    d8e8:	00500593          	li	a1,5
    d8ec:	29848513          	addi	a0,s1,664
    d8f0:	6dd000ef          	jal	e7cc <printf>
    d8f4:	00812883          	lw	a7,8(sp)
    d8f8:	00412603          	lw	a2,4(sp)
    d8fc:	00019537          	lui	a0,0x19
    d900:	41190933          	sub	s2,s2,a7
    d904:	00391593          	slli	a1,s2,0x3
    d908:	412585b3          	sub	a1,a1,s2
    d90c:	40c585b3          	sub	a1,a1,a2
    d910:	4f050513          	addi	a0,a0,1264 # 194f0 <_getpid_r+0x3d4>
    d914:	6b9000ef          	jal	e7cc <printf>
    d918:	00d00593          	li	a1,13
    d91c:	29848513          	addi	a0,s1,664
    d920:	6ad000ef          	jal	e7cc <printf>
    d924:	02812583          	lw	a1,40(sp)
    d928:	00019537          	lui	a0,0x19
    d92c:	50c50513          	addi	a0,a0,1292 # 1950c <_getpid_r+0x3f0>
    d930:	69d000ef          	jal	e7cc <printf>
    d934:	00700593          	li	a1,7
    d938:	29848513          	addi	a0,s1,664
    d93c:	691000ef          	jal	e7cc <printf>
    d940:	02c12583          	lw	a1,44(sp)
    d944:	00019537          	lui	a0,0x19
    d948:	52850513          	addi	a0,a0,1320 # 19528 <_getpid_r+0x40c>
    d94c:	681000ef          	jal	e7cc <printf>
    d950:	00100593          	li	a1,1
    d954:	29848513          	addi	a0,s1,664
    d958:	675000ef          	jal	e7cc <printf>
    d95c:	00019537          	lui	a0,0x19
    d960:	03010593          	addi	a1,sp,48
    d964:	54450513          	addi	a0,a0,1348 # 19544 <_getpid_r+0x428>
    d968:	665000ef          	jal	e7cc <printf>
    d96c:	00019537          	lui	a0,0x19
    d970:	56050513          	addi	a0,a0,1376 # 19560 <_getpid_r+0x444>
    d974:	791000ef          	jal	e904 <puts>
    d978:	00019537          	lui	a0,0x19
    d97c:	05010593          	addi	a1,sp,80
    d980:	59450513          	addi	a0,a0,1428 # 19594 <_getpid_r+0x478>
    d984:	649000ef          	jal	e7cc <printf>
    d988:	00019537          	lui	a0,0x19
    d98c:	5b050513          	addi	a0,a0,1456 # 195b0 <_getpid_r+0x494>
    d990:	775000ef          	jal	e904 <puts>
    d994:	00a00513          	li	a0,10
    d998:	689000ef          	jal	e820 <putchar>
    d99c:	88c1a603          	lw	a2,-1908(gp) # 1a744 <Begin_Time>
    d9a0:	8801a683          	lw	a3,-1920(gp) # 1a738 <Begin_Insn>
    d9a4:	8881a703          	lw	a4,-1912(gp) # 1a740 <End_Time>
    d9a8:	87c1a783          	lw	a5,-1924(gp) # 1a734 <End_Insn>
    d9ac:	00019537          	lui	a0,0x19
    d9b0:	40c70733          	sub	a4,a4,a2
    d9b4:	40d787b3          	sub	a5,a5,a3
    d9b8:	06400593          	li	a1,100
    d9bc:	5e450513          	addi	a0,a0,1508 # 195e4 <_getpid_r+0x4c8>
    d9c0:	88e1a223          	sw	a4,-1916(gp) # 1a73c <User_Time>
    d9c4:	86f1ac23          	sw	a5,-1928(gp) # 1a730 <User_Insn>
    d9c8:	605000ef          	jal	e7cc <printf>
    d9cc:	8781a603          	lw	a2,-1928(gp) # 1a730 <User_Insn>
    d9d0:	8841a583          	lw	a1,-1916(gp) # 1a73c <User_Time>
    d9d4:	00019537          	lui	a0,0x19
    d9d8:	5f850513          	addi	a0,a0,1528 # 195f8 <_getpid_r+0x4dc>
    d9dc:	5f1000ef          	jal	e7cc <printf>
    d9e0:	8841a583          	lw	a1,-1916(gp) # 1a73c <User_Time>
    d9e4:	3e800913          	li	s2,1000
    d9e8:	8781a783          	lw	a5,-1928(gp) # 1a730 <User_Insn>
    d9ec:	02b905b3          	mul	a1,s2,a1
    d9f0:	00a00493          	li	s1,10
    d9f4:	06400613          	li	a2,100
    d9f8:	00019537          	lui	a0,0x19
    d9fc:	61850513          	addi	a0,a0,1560 # 19618 <_getpid_r+0x4fc>
    da00:	02f5c5b3          	div	a1,a1,a5
    da04:	0295c6b3          	div	a3,a1,s1
    da08:	02c5c633          	div	a2,a1,a2
    da0c:	0295e733          	rem	a4,a1,s1
    da10:	0296e6b3          	rem	a3,a3,s1
    da14:	02966633          	rem	a2,a2,s1
    da18:	0325c5b3          	div	a1,a1,s2
    da1c:	5b1000ef          	jal	e7cc <printf>
    da20:	8841a703          	lw	a4,-1916(gp) # 1a73c <User_Time>
    da24:	05f5e7b7          	lui	a5,0x5f5e
    da28:	10078793          	addi	a5,a5,256 # 5f5e100 <_end+0x5f40e9c>
    da2c:	02e7c433          	div	s0,a5,a4
    da30:	00019537          	lui	a0,0x19
    da34:	63c50513          	addi	a0,a0,1596 # 1963c <_getpid_r+0x520>
    da38:	00040593          	mv	a1,s0
    da3c:	03240433          	mul	s0,s0,s2
    da40:	58d000ef          	jal	e7cc <printf>
    da44:	6dd00713          	li	a4,1757
    da48:	0002b6b7          	lui	a3,0x2b
    da4c:	e5468693          	addi	a3,a3,-428 # 2ae54 <_end+0xdbf0>
    da50:	001ad5b7          	lui	a1,0x1ad
    da54:	f4858593          	addi	a1,a1,-184 # 1acf48 <_end+0x18fce4>
    da58:	00019537          	lui	a0,0x19
    da5c:	66050513          	addi	a0,a0,1632 # 19660 <_getpid_r+0x544>
    da60:	02e44733          	div	a4,s0,a4
    da64:	02d44633          	div	a2,s0,a3
    da68:	029746b3          	div	a3,a4,s1
    da6c:	02966633          	rem	a2,a2,s1
    da70:	02976733          	rem	a4,a4,s1
    da74:	0296e6b3          	rem	a3,a3,s1
    da78:	02b445b3          	div	a1,s0,a1
    da7c:	551000ef          	jal	e7cc <printf>
    da80:	0ac12083          	lw	ra,172(sp)
    da84:	0a812403          	lw	s0,168(sp)
    da88:	0a412483          	lw	s1,164(sp)
    da8c:	0a012903          	lw	s2,160(sp)
    da90:	09c12983          	lw	s3,156(sp)
    da94:	09812a03          	lw	s4,152(sp)
    da98:	09412a83          	lw	s5,148(sp)
    da9c:	09012b03          	lw	s6,144(sp)
    daa0:	08c12b83          	lw	s7,140(sp)
    daa4:	08812c03          	lw	s8,136(sp)
    daa8:	08412c83          	lw	s9,132(sp)
    daac:	08012d03          	lw	s10,128(sp)
    dab0:	07c12d83          	lw	s11,124(sp)
    dab4:	00000513          	li	a0,0
    dab8:	0b010113          	addi	sp,sp,176
    dabc:	00008067          	ret
    dac0:	02c10593          	addi	a1,sp,44
    dac4:	00000513          	li	a0,0
    dac8:	fdcfa0ef          	jal	82a4 <Proc_6>
    dacc:	000cae03          	lw	t3,0(s9)
    dad0:	004ca303          	lw	t1,4(s9)
    dad4:	008ca883          	lw	a7,8(s9)
    dad8:	00cca803          	lw	a6,12(s9)
    dadc:	010ca503          	lw	a0,16(s9)
    dae0:	014ca583          	lw	a1,20(s9)
    dae4:	018ca603          	lw	a2,24(s9)
    dae8:	01ccd703          	lhu	a4,28(s9)
    daec:	01ecc783          	lbu	a5,30(s9)
    daf0:	8941c683          	lbu	a3,-1900(gp) # 1a74c <Ch_2_Glob>
    daf4:	001d0d13          	addi	s10,s10,1
    daf8:	05c12823          	sw	t3,80(sp)
    dafc:	04612a23          	sw	t1,84(sp)
    db00:	05112c23          	sw	a7,88(sp)
    db04:	05012e23          	sw	a6,92(sp)
    db08:	06a12023          	sw	a0,96(sp)
    db0c:	06b12223          	sw	a1,100(sp)
    db10:	06c12423          	sw	a2,104(sp)
    db14:	06e11623          	sh	a4,108(sp)
    db18:	06f10723          	sb	a5,110(sp)
    db1c:	8891ae23          	sw	s1,-1892(gp) # 1a754 <Int_Glob>
    db20:	0ffd7d13          	zext.b	s10,s10
    db24:	00048913          	mv	s2,s1
    db28:	b1a6f0e3          	bgeu	a3,s10,d628 <main+0x2ac>
    db2c:	b21ff06f          	j	d64c <main+0x2d0>
    db30:	00900913          	li	s2,9
    db34:	b21ff06f          	j	d654 <main+0x2d8>
    db38:	00019537          	lui	a0,0x19
    db3c:	19c50513          	addi	a0,a0,412 # 1919c <_getpid_r+0x80>
    db40:	5c5000ef          	jal	e904 <puts>
    db44:	00a00513          	li	a0,10
    db48:	4d9000ef          	jal	e820 <putchar>
    db4c:	989ff06f          	j	d4d4 <main+0x158>

0000db50 <register_fini>:
    db50:	00000793          	li	a5,0
    db54:	00078863          	beqz	a5,db64 <register_fini+0x14>
    db58:	00014537          	lui	a0,0x14
    db5c:	45050513          	addi	a0,a0,1104 # 14450 <__libc_fini_array>
    db60:	4340106f          	j	ef94 <atexit>
    db64:	00008067          	ret

0000db68 <malloc>:
    db68:	00050593          	mv	a1,a0
    db6c:	86c1a503          	lw	a0,-1940(gp) # 1a724 <_impure_ptr>
    db70:	0100006f          	j	db80 <_malloc_r>

0000db74 <free>:
    db74:	00050593          	mv	a1,a0
    db78:	86c1a503          	lw	a0,-1940(gp) # 1a724 <_impure_ptr>
    db7c:	56c0106f          	j	f0e8 <_free_r>

0000db80 <_malloc_r>:
    db80:	fd010113          	addi	sp,sp,-48
    db84:	01312e23          	sw	s3,28(sp)
    db88:	02112623          	sw	ra,44(sp)
    db8c:	02812423          	sw	s0,40(sp)
    db90:	02912223          	sw	s1,36(sp)
    db94:	03212023          	sw	s2,32(sp)
    db98:	00b58793          	addi	a5,a1,11
    db9c:	01600713          	li	a4,22
    dba0:	00050993          	mv	s3,a0
    dba4:	08f76263          	bltu	a4,a5,dc28 <_malloc_r+0xa8>
    dba8:	01000793          	li	a5,16
    dbac:	20b7e663          	bltu	a5,a1,ddb8 <_malloc_r+0x238>
    dbb0:	794000ef          	jal	e344 <__malloc_lock>
    dbb4:	01800793          	li	a5,24
    dbb8:	00200593          	li	a1,2
    dbbc:	01000493          	li	s1,16
    dbc0:	0001a937          	lui	s2,0x1a
    dbc4:	01090913          	addi	s2,s2,16 # 1a010 <__malloc_av_>
    dbc8:	00f907b3          	add	a5,s2,a5
    dbcc:	0047a403          	lw	s0,4(a5)
    dbd0:	ff878713          	addi	a4,a5,-8
    dbd4:	34e40663          	beq	s0,a4,df20 <_malloc_r+0x3a0>
    dbd8:	00442783          	lw	a5,4(s0)
    dbdc:	00c42683          	lw	a3,12(s0)
    dbe0:	00842603          	lw	a2,8(s0)
    dbe4:	ffc7f793          	andi	a5,a5,-4
    dbe8:	00f407b3          	add	a5,s0,a5
    dbec:	0047a703          	lw	a4,4(a5)
    dbf0:	00d62623          	sw	a3,12(a2)
    dbf4:	00c6a423          	sw	a2,8(a3)
    dbf8:	00176713          	ori	a4,a4,1
    dbfc:	00098513          	mv	a0,s3
    dc00:	00e7a223          	sw	a4,4(a5)
    dc04:	744000ef          	jal	e348 <__malloc_unlock>
    dc08:	00840513          	addi	a0,s0,8
    dc0c:	02c12083          	lw	ra,44(sp)
    dc10:	02812403          	lw	s0,40(sp)
    dc14:	02412483          	lw	s1,36(sp)
    dc18:	02012903          	lw	s2,32(sp)
    dc1c:	01c12983          	lw	s3,28(sp)
    dc20:	03010113          	addi	sp,sp,48
    dc24:	00008067          	ret
    dc28:	ff87f493          	andi	s1,a5,-8
    dc2c:	1807c663          	bltz	a5,ddb8 <_malloc_r+0x238>
    dc30:	18b4e463          	bltu	s1,a1,ddb8 <_malloc_r+0x238>
    dc34:	710000ef          	jal	e344 <__malloc_lock>
    dc38:	1f700793          	li	a5,503
    dc3c:	3e97fc63          	bgeu	a5,s1,e034 <_malloc_r+0x4b4>
    dc40:	0094d793          	srli	a5,s1,0x9
    dc44:	18078263          	beqz	a5,ddc8 <_malloc_r+0x248>
    dc48:	00400713          	li	a4,4
    dc4c:	34f76263          	bltu	a4,a5,df90 <_malloc_r+0x410>
    dc50:	0064d793          	srli	a5,s1,0x6
    dc54:	03978593          	addi	a1,a5,57
    dc58:	03878813          	addi	a6,a5,56
    dc5c:	00359613          	slli	a2,a1,0x3
    dc60:	0001a937          	lui	s2,0x1a
    dc64:	01090913          	addi	s2,s2,16 # 1a010 <__malloc_av_>
    dc68:	00c90633          	add	a2,s2,a2
    dc6c:	00462403          	lw	s0,4(a2)
    dc70:	ff860613          	addi	a2,a2,-8
    dc74:	02860863          	beq	a2,s0,dca4 <_malloc_r+0x124>
    dc78:	00f00513          	li	a0,15
    dc7c:	0140006f          	j	dc90 <_malloc_r+0x110>
    dc80:	00c42683          	lw	a3,12(s0)
    dc84:	28075a63          	bgez	a4,df18 <_malloc_r+0x398>
    dc88:	00d60e63          	beq	a2,a3,dca4 <_malloc_r+0x124>
    dc8c:	00068413          	mv	s0,a3
    dc90:	00442783          	lw	a5,4(s0)
    dc94:	ffc7f793          	andi	a5,a5,-4
    dc98:	40978733          	sub	a4,a5,s1
    dc9c:	fee552e3          	bge	a0,a4,dc80 <_malloc_r+0x100>
    dca0:	00080593          	mv	a1,a6
    dca4:	01092403          	lw	s0,16(s2)
    dca8:	0001a837          	lui	a6,0x1a
    dcac:	01880813          	addi	a6,a6,24 # 1a018 <__malloc_av_+0x8>
    dcb0:	27040063          	beq	s0,a6,df10 <_malloc_r+0x390>
    dcb4:	00442783          	lw	a5,4(s0)
    dcb8:	00f00693          	li	a3,15
    dcbc:	ffc7f793          	andi	a5,a5,-4
    dcc0:	40978733          	sub	a4,a5,s1
    dcc4:	36e6ce63          	blt	a3,a4,e040 <_malloc_r+0x4c0>
    dcc8:	01092a23          	sw	a6,20(s2)
    dccc:	01092823          	sw	a6,16(s2)
    dcd0:	34075263          	bgez	a4,e014 <_malloc_r+0x494>
    dcd4:	1ff00713          	li	a4,511
    dcd8:	00492503          	lw	a0,4(s2)
    dcdc:	24f76a63          	bltu	a4,a5,df30 <_malloc_r+0x3b0>
    dce0:	ff87f713          	andi	a4,a5,-8
    dce4:	00870713          	addi	a4,a4,8
    dce8:	00e90733          	add	a4,s2,a4
    dcec:	00072683          	lw	a3,0(a4)
    dcf0:	0057d613          	srli	a2,a5,0x5
    dcf4:	00100793          	li	a5,1
    dcf8:	00c797b3          	sll	a5,a5,a2
    dcfc:	00f56533          	or	a0,a0,a5
    dd00:	ff870793          	addi	a5,a4,-8
    dd04:	00f42623          	sw	a5,12(s0)
    dd08:	00d42423          	sw	a3,8(s0)
    dd0c:	00a92223          	sw	a0,4(s2)
    dd10:	00872023          	sw	s0,0(a4)
    dd14:	0086a623          	sw	s0,12(a3)
    dd18:	4025d793          	srai	a5,a1,0x2
    dd1c:	00100613          	li	a2,1
    dd20:	00f61633          	sll	a2,a2,a5
    dd24:	0ac56a63          	bltu	a0,a2,ddd8 <_malloc_r+0x258>
    dd28:	00a677b3          	and	a5,a2,a0
    dd2c:	02079463          	bnez	a5,dd54 <_malloc_r+0x1d4>
    dd30:	00161613          	slli	a2,a2,0x1
    dd34:	ffc5f593          	andi	a1,a1,-4
    dd38:	00a677b3          	and	a5,a2,a0
    dd3c:	00458593          	addi	a1,a1,4
    dd40:	00079a63          	bnez	a5,dd54 <_malloc_r+0x1d4>
    dd44:	00161613          	slli	a2,a2,0x1
    dd48:	00a677b3          	and	a5,a2,a0
    dd4c:	00458593          	addi	a1,a1,4
    dd50:	fe078ae3          	beqz	a5,dd44 <_malloc_r+0x1c4>
    dd54:	00f00893          	li	a7,15
    dd58:	00359313          	slli	t1,a1,0x3
    dd5c:	00690333          	add	t1,s2,t1
    dd60:	00030513          	mv	a0,t1
    dd64:	00c52783          	lw	a5,12(a0)
    dd68:	00058e13          	mv	t3,a1
    dd6c:	24f50463          	beq	a0,a5,dfb4 <_malloc_r+0x434>
    dd70:	0047a703          	lw	a4,4(a5)
    dd74:	00078413          	mv	s0,a5
    dd78:	00c7a783          	lw	a5,12(a5)
    dd7c:	ffc77713          	andi	a4,a4,-4
    dd80:	409706b3          	sub	a3,a4,s1
    dd84:	24d8c463          	blt	a7,a3,dfcc <_malloc_r+0x44c>
    dd88:	fe06c2e3          	bltz	a3,dd6c <_malloc_r+0x1ec>
    dd8c:	00e40733          	add	a4,s0,a4
    dd90:	00472683          	lw	a3,4(a4)
    dd94:	00842603          	lw	a2,8(s0)
    dd98:	00098513          	mv	a0,s3
    dd9c:	0016e693          	ori	a3,a3,1
    dda0:	00d72223          	sw	a3,4(a4)
    dda4:	00f62623          	sw	a5,12(a2)
    dda8:	00c7a423          	sw	a2,8(a5)
    ddac:	59c000ef          	jal	e348 <__malloc_unlock>
    ddb0:	00840513          	addi	a0,s0,8
    ddb4:	e59ff06f          	j	dc0c <_malloc_r+0x8c>
    ddb8:	00c00793          	li	a5,12
    ddbc:	00f9a023          	sw	a5,0(s3)
    ddc0:	00000513          	li	a0,0
    ddc4:	e49ff06f          	j	dc0c <_malloc_r+0x8c>
    ddc8:	20000613          	li	a2,512
    ddcc:	04000593          	li	a1,64
    ddd0:	03f00813          	li	a6,63
    ddd4:	e8dff06f          	j	dc60 <_malloc_r+0xe0>
    ddd8:	00892403          	lw	s0,8(s2)
    dddc:	01612823          	sw	s6,16(sp)
    dde0:	00442783          	lw	a5,4(s0)
    dde4:	ffc7fb13          	andi	s6,a5,-4
    dde8:	009b6863          	bltu	s6,s1,ddf8 <_malloc_r+0x278>
    ddec:	409b0733          	sub	a4,s6,s1
    ddf0:	00f00793          	li	a5,15
    ddf4:	0ce7cc63          	blt	a5,a4,decc <_malloc_r+0x34c>
    ddf8:	01912223          	sw	s9,4(sp)
    ddfc:	01512a23          	sw	s5,20(sp)
    de00:	8641a703          	lw	a4,-1948(gp) # 1a71c <__malloc_sbrk_base>
    de04:	8b41aa83          	lw	s5,-1868(gp) # 1a76c <__malloc_top_pad>
    de08:	01412c23          	sw	s4,24(sp)
    de0c:	01712623          	sw	s7,12(sp)
    de10:	fff00793          	li	a5,-1
    de14:	01640a33          	add	s4,s0,s6
    de18:	01548ab3          	add	s5,s1,s5
    de1c:	3cf70a63          	beq	a4,a5,e1f0 <_malloc_r+0x670>
    de20:	000017b7          	lui	a5,0x1
    de24:	00f78793          	addi	a5,a5,15 # 100f <_start-0x6ff1>
    de28:	00fa8ab3          	add	s5,s5,a5
    de2c:	fffff7b7          	lui	a5,0xfffff
    de30:	00fafab3          	and	s5,s5,a5
    de34:	000a8593          	mv	a1,s5
    de38:	00098513          	mv	a0,s3
    de3c:	631000ef          	jal	ec6c <_sbrk_r>
    de40:	fff00793          	li	a5,-1
    de44:	00050b93          	mv	s7,a0
    de48:	44f50e63          	beq	a0,a5,e2a4 <_malloc_r+0x724>
    de4c:	01812423          	sw	s8,8(sp)
    de50:	25456063          	bltu	a0,s4,e090 <_malloc_r+0x510>
    de54:	0001dc37          	lui	s8,0x1d
    de58:	f74c0c13          	addi	s8,s8,-140 # 1cf74 <__malloc_current_mallinfo>
    de5c:	000c2583          	lw	a1,0(s8)
    de60:	00ba85b3          	add	a1,s5,a1
    de64:	00bc2023          	sw	a1,0(s8)
    de68:	00058713          	mv	a4,a1
    de6c:	2aaa1863          	bne	s4,a0,e11c <_malloc_r+0x59c>
    de70:	01451793          	slli	a5,a0,0x14
    de74:	2a079463          	bnez	a5,e11c <_malloc_r+0x59c>
    de78:	00892b83          	lw	s7,8(s2)
    de7c:	015b07b3          	add	a5,s6,s5
    de80:	0017e793          	ori	a5,a5,1
    de84:	00fba223          	sw	a5,4(s7)
    de88:	8b01a683          	lw	a3,-1872(gp) # 1a768 <__malloc_max_sbrked_mem>
    de8c:	00b6f463          	bgeu	a3,a1,de94 <_malloc_r+0x314>
    de90:	8ab1a823          	sw	a1,-1872(gp) # 1a768 <__malloc_max_sbrked_mem>
    de94:	8ac1a683          	lw	a3,-1876(gp) # 1a764 <__malloc_max_total_mem>
    de98:	00b6f463          	bgeu	a3,a1,dea0 <_malloc_r+0x320>
    de9c:	8ab1a623          	sw	a1,-1876(gp) # 1a764 <__malloc_max_total_mem>
    dea0:	00812c03          	lw	s8,8(sp)
    dea4:	000b8413          	mv	s0,s7
    dea8:	ffc7f793          	andi	a5,a5,-4
    deac:	40978733          	sub	a4,a5,s1
    deb0:	3897ec63          	bltu	a5,s1,e248 <_malloc_r+0x6c8>
    deb4:	00f00793          	li	a5,15
    deb8:	38e7d863          	bge	a5,a4,e248 <_malloc_r+0x6c8>
    debc:	01812a03          	lw	s4,24(sp)
    dec0:	01412a83          	lw	s5,20(sp)
    dec4:	00c12b83          	lw	s7,12(sp)
    dec8:	00412c83          	lw	s9,4(sp)
    decc:	0014e793          	ori	a5,s1,1
    ded0:	00f42223          	sw	a5,4(s0)
    ded4:	009404b3          	add	s1,s0,s1
    ded8:	00992423          	sw	s1,8(s2)
    dedc:	00176713          	ori	a4,a4,1
    dee0:	00098513          	mv	a0,s3
    dee4:	00e4a223          	sw	a4,4(s1)
    dee8:	460000ef          	jal	e348 <__malloc_unlock>
    deec:	02c12083          	lw	ra,44(sp)
    def0:	00840513          	addi	a0,s0,8
    def4:	02812403          	lw	s0,40(sp)
    def8:	01012b03          	lw	s6,16(sp)
    defc:	02412483          	lw	s1,36(sp)
    df00:	02012903          	lw	s2,32(sp)
    df04:	01c12983          	lw	s3,28(sp)
    df08:	03010113          	addi	sp,sp,48
    df0c:	00008067          	ret
    df10:	00492503          	lw	a0,4(s2)
    df14:	e05ff06f          	j	dd18 <_malloc_r+0x198>
    df18:	00842603          	lw	a2,8(s0)
    df1c:	ccdff06f          	j	dbe8 <_malloc_r+0x68>
    df20:	00c7a403          	lw	s0,12(a5) # fffff00c <_end+0xfffe1da8>
    df24:	00258593          	addi	a1,a1,2
    df28:	d6878ee3          	beq	a5,s0,dca4 <_malloc_r+0x124>
    df2c:	cadff06f          	j	dbd8 <_malloc_r+0x58>
    df30:	0097d713          	srli	a4,a5,0x9
    df34:	00400693          	li	a3,4
    df38:	14e6f263          	bgeu	a3,a4,e07c <_malloc_r+0x4fc>
    df3c:	01400693          	li	a3,20
    df40:	32e6e663          	bltu	a3,a4,e26c <_malloc_r+0x6ec>
    df44:	05c70613          	addi	a2,a4,92
    df48:	05b70693          	addi	a3,a4,91
    df4c:	00361613          	slli	a2,a2,0x3
    df50:	00c90633          	add	a2,s2,a2
    df54:	00062703          	lw	a4,0(a2)
    df58:	ff860613          	addi	a2,a2,-8
    df5c:	00e61863          	bne	a2,a4,df6c <_malloc_r+0x3ec>
    df60:	2980006f          	j	e1f8 <_malloc_r+0x678>
    df64:	00872703          	lw	a4,8(a4)
    df68:	00e60863          	beq	a2,a4,df78 <_malloc_r+0x3f8>
    df6c:	00472683          	lw	a3,4(a4)
    df70:	ffc6f693          	andi	a3,a3,-4
    df74:	fed7e8e3          	bltu	a5,a3,df64 <_malloc_r+0x3e4>
    df78:	00c72603          	lw	a2,12(a4)
    df7c:	00c42623          	sw	a2,12(s0)
    df80:	00e42423          	sw	a4,8(s0)
    df84:	00862423          	sw	s0,8(a2)
    df88:	00872623          	sw	s0,12(a4)
    df8c:	d8dff06f          	j	dd18 <_malloc_r+0x198>
    df90:	01400713          	li	a4,20
    df94:	10f77863          	bgeu	a4,a5,e0a4 <_malloc_r+0x524>
    df98:	05400713          	li	a4,84
    df9c:	2ef76663          	bltu	a4,a5,e288 <_malloc_r+0x708>
    dfa0:	00c4d793          	srli	a5,s1,0xc
    dfa4:	06f78593          	addi	a1,a5,111
    dfa8:	06e78813          	addi	a6,a5,110
    dfac:	00359613          	slli	a2,a1,0x3
    dfb0:	cb1ff06f          	j	dc60 <_malloc_r+0xe0>
    dfb4:	001e0e13          	addi	t3,t3,1
    dfb8:	003e7793          	andi	a5,t3,3
    dfbc:	00850513          	addi	a0,a0,8
    dfc0:	10078063          	beqz	a5,e0c0 <_malloc_r+0x540>
    dfc4:	00c52783          	lw	a5,12(a0)
    dfc8:	da5ff06f          	j	dd6c <_malloc_r+0x1ec>
    dfcc:	00842603          	lw	a2,8(s0)
    dfd0:	0014e593          	ori	a1,s1,1
    dfd4:	00b42223          	sw	a1,4(s0)
    dfd8:	00f62623          	sw	a5,12(a2)
    dfdc:	00c7a423          	sw	a2,8(a5)
    dfe0:	009404b3          	add	s1,s0,s1
    dfe4:	00992a23          	sw	s1,20(s2)
    dfe8:	00992823          	sw	s1,16(s2)
    dfec:	0016e793          	ori	a5,a3,1
    dff0:	0104a623          	sw	a6,12(s1)
    dff4:	0104a423          	sw	a6,8(s1)
    dff8:	00f4a223          	sw	a5,4(s1)
    dffc:	00e40733          	add	a4,s0,a4
    e000:	00098513          	mv	a0,s3
    e004:	00d72023          	sw	a3,0(a4)
    e008:	340000ef          	jal	e348 <__malloc_unlock>
    e00c:	00840513          	addi	a0,s0,8
    e010:	bfdff06f          	j	dc0c <_malloc_r+0x8c>
    e014:	00f407b3          	add	a5,s0,a5
    e018:	0047a703          	lw	a4,4(a5)
    e01c:	00098513          	mv	a0,s3
    e020:	00176713          	ori	a4,a4,1
    e024:	00e7a223          	sw	a4,4(a5)
    e028:	320000ef          	jal	e348 <__malloc_unlock>
    e02c:	00840513          	addi	a0,s0,8
    e030:	bddff06f          	j	dc0c <_malloc_r+0x8c>
    e034:	0034d593          	srli	a1,s1,0x3
    e038:	00848793          	addi	a5,s1,8
    e03c:	b85ff06f          	j	dbc0 <_malloc_r+0x40>
    e040:	0014e693          	ori	a3,s1,1
    e044:	00d42223          	sw	a3,4(s0)
    e048:	009404b3          	add	s1,s0,s1
    e04c:	00992a23          	sw	s1,20(s2)
    e050:	00992823          	sw	s1,16(s2)
    e054:	00176693          	ori	a3,a4,1
    e058:	0104a623          	sw	a6,12(s1)
    e05c:	0104a423          	sw	a6,8(s1)
    e060:	00d4a223          	sw	a3,4(s1)
    e064:	00f407b3          	add	a5,s0,a5
    e068:	00098513          	mv	a0,s3
    e06c:	00e7a023          	sw	a4,0(a5)
    e070:	2d8000ef          	jal	e348 <__malloc_unlock>
    e074:	00840513          	addi	a0,s0,8
    e078:	b95ff06f          	j	dc0c <_malloc_r+0x8c>
    e07c:	0067d713          	srli	a4,a5,0x6
    e080:	03970613          	addi	a2,a4,57
    e084:	03870693          	addi	a3,a4,56
    e088:	00361613          	slli	a2,a2,0x3
    e08c:	ec5ff06f          	j	df50 <_malloc_r+0x3d0>
    e090:	07240c63          	beq	s0,s2,e108 <_malloc_r+0x588>
    e094:	00892403          	lw	s0,8(s2)
    e098:	00812c03          	lw	s8,8(sp)
    e09c:	00442783          	lw	a5,4(s0)
    e0a0:	e09ff06f          	j	dea8 <_malloc_r+0x328>
    e0a4:	05c78593          	addi	a1,a5,92
    e0a8:	05b78813          	addi	a6,a5,91
    e0ac:	00359613          	slli	a2,a1,0x3
    e0b0:	bb1ff06f          	j	dc60 <_malloc_r+0xe0>
    e0b4:	00832783          	lw	a5,8(t1)
    e0b8:	fff58593          	addi	a1,a1,-1
    e0bc:	28679063          	bne	a5,t1,e33c <_malloc_r+0x7bc>
    e0c0:	0035f793          	andi	a5,a1,3
    e0c4:	ff830313          	addi	t1,t1,-8
    e0c8:	fe0796e3          	bnez	a5,e0b4 <_malloc_r+0x534>
    e0cc:	00492703          	lw	a4,4(s2)
    e0d0:	fff64793          	not	a5,a2
    e0d4:	00e7f7b3          	and	a5,a5,a4
    e0d8:	00f92223          	sw	a5,4(s2)
    e0dc:	00161613          	slli	a2,a2,0x1
    e0e0:	cec7ece3          	bltu	a5,a2,ddd8 <_malloc_r+0x258>
    e0e4:	ce060ae3          	beqz	a2,ddd8 <_malloc_r+0x258>
    e0e8:	00f67733          	and	a4,a2,a5
    e0ec:	00071a63          	bnez	a4,e100 <_malloc_r+0x580>
    e0f0:	00161613          	slli	a2,a2,0x1
    e0f4:	00f67733          	and	a4,a2,a5
    e0f8:	004e0e13          	addi	t3,t3,4
    e0fc:	fe070ae3          	beqz	a4,e0f0 <_malloc_r+0x570>
    e100:	000e0593          	mv	a1,t3
    e104:	c55ff06f          	j	dd58 <_malloc_r+0x1d8>
    e108:	0001dc37          	lui	s8,0x1d
    e10c:	f74c0c13          	addi	s8,s8,-140 # 1cf74 <__malloc_current_mallinfo>
    e110:	000c2703          	lw	a4,0(s8)
    e114:	00ea8733          	add	a4,s5,a4
    e118:	00ec2023          	sw	a4,0(s8)
    e11c:	8641a683          	lw	a3,-1948(gp) # 1a71c <__malloc_sbrk_base>
    e120:	fff00793          	li	a5,-1
    e124:	18f68663          	beq	a3,a5,e2b0 <_malloc_r+0x730>
    e128:	414b87b3          	sub	a5,s7,s4
    e12c:	00e787b3          	add	a5,a5,a4
    e130:	00fc2023          	sw	a5,0(s8)
    e134:	007bfc93          	andi	s9,s7,7
    e138:	0c0c8c63          	beqz	s9,e210 <_malloc_r+0x690>
    e13c:	419b8bb3          	sub	s7,s7,s9
    e140:	000017b7          	lui	a5,0x1
    e144:	00878793          	addi	a5,a5,8 # 1008 <_start-0x6ff8>
    e148:	008b8b93          	addi	s7,s7,8
    e14c:	419785b3          	sub	a1,a5,s9
    e150:	015b8ab3          	add	s5,s7,s5
    e154:	415585b3          	sub	a1,a1,s5
    e158:	01459593          	slli	a1,a1,0x14
    e15c:	0145da13          	srli	s4,a1,0x14
    e160:	000a0593          	mv	a1,s4
    e164:	00098513          	mv	a0,s3
    e168:	305000ef          	jal	ec6c <_sbrk_r>
    e16c:	fff00793          	li	a5,-1
    e170:	18f50063          	beq	a0,a5,e2f0 <_malloc_r+0x770>
    e174:	41750533          	sub	a0,a0,s7
    e178:	01450ab3          	add	s5,a0,s4
    e17c:	000c2703          	lw	a4,0(s8)
    e180:	01792423          	sw	s7,8(s2)
    e184:	001ae793          	ori	a5,s5,1
    e188:	00ea05b3          	add	a1,s4,a4
    e18c:	00bc2023          	sw	a1,0(s8)
    e190:	00fba223          	sw	a5,4(s7)
    e194:	cf240ae3          	beq	s0,s2,de88 <_malloc_r+0x308>
    e198:	00f00693          	li	a3,15
    e19c:	0b66f063          	bgeu	a3,s6,e23c <_malloc_r+0x6bc>
    e1a0:	00442703          	lw	a4,4(s0)
    e1a4:	ff4b0793          	addi	a5,s6,-12
    e1a8:	ff87f793          	andi	a5,a5,-8
    e1ac:	00177713          	andi	a4,a4,1
    e1b0:	00f76733          	or	a4,a4,a5
    e1b4:	00e42223          	sw	a4,4(s0)
    e1b8:	00500613          	li	a2,5
    e1bc:	00f40733          	add	a4,s0,a5
    e1c0:	00c72223          	sw	a2,4(a4)
    e1c4:	00c72423          	sw	a2,8(a4)
    e1c8:	00f6e663          	bltu	a3,a5,e1d4 <_malloc_r+0x654>
    e1cc:	004ba783          	lw	a5,4(s7)
    e1d0:	cb9ff06f          	j	de88 <_malloc_r+0x308>
    e1d4:	00840593          	addi	a1,s0,8
    e1d8:	00098513          	mv	a0,s3
    e1dc:	70d000ef          	jal	f0e8 <_free_r>
    e1e0:	00892b83          	lw	s7,8(s2)
    e1e4:	000c2583          	lw	a1,0(s8)
    e1e8:	004ba783          	lw	a5,4(s7)
    e1ec:	c9dff06f          	j	de88 <_malloc_r+0x308>
    e1f0:	010a8a93          	addi	s5,s5,16
    e1f4:	c41ff06f          	j	de34 <_malloc_r+0x2b4>
    e1f8:	4026d693          	srai	a3,a3,0x2
    e1fc:	00100793          	li	a5,1
    e200:	00d797b3          	sll	a5,a5,a3
    e204:	00f56533          	or	a0,a0,a5
    e208:	00a92223          	sw	a0,4(s2)
    e20c:	d71ff06f          	j	df7c <_malloc_r+0x3fc>
    e210:	015b85b3          	add	a1,s7,s5
    e214:	40b005b3          	neg	a1,a1
    e218:	01459593          	slli	a1,a1,0x14
    e21c:	0145da13          	srli	s4,a1,0x14
    e220:	000a0593          	mv	a1,s4
    e224:	00098513          	mv	a0,s3
    e228:	245000ef          	jal	ec6c <_sbrk_r>
    e22c:	fff00793          	li	a5,-1
    e230:	f4f512e3          	bne	a0,a5,e174 <_malloc_r+0x5f4>
    e234:	00000a13          	li	s4,0
    e238:	f45ff06f          	j	e17c <_malloc_r+0x5fc>
    e23c:	00812c03          	lw	s8,8(sp)
    e240:	00100793          	li	a5,1
    e244:	00fba223          	sw	a5,4(s7)
    e248:	00098513          	mv	a0,s3
    e24c:	0fc000ef          	jal	e348 <__malloc_unlock>
    e250:	00000513          	li	a0,0
    e254:	01812a03          	lw	s4,24(sp)
    e258:	01412a83          	lw	s5,20(sp)
    e25c:	01012b03          	lw	s6,16(sp)
    e260:	00c12b83          	lw	s7,12(sp)
    e264:	00412c83          	lw	s9,4(sp)
    e268:	9a5ff06f          	j	dc0c <_malloc_r+0x8c>
    e26c:	05400693          	li	a3,84
    e270:	04e6e463          	bltu	a3,a4,e2b8 <_malloc_r+0x738>
    e274:	00c7d713          	srli	a4,a5,0xc
    e278:	06f70613          	addi	a2,a4,111
    e27c:	06e70693          	addi	a3,a4,110
    e280:	00361613          	slli	a2,a2,0x3
    e284:	ccdff06f          	j	df50 <_malloc_r+0x3d0>
    e288:	15400713          	li	a4,340
    e28c:	04f76463          	bltu	a4,a5,e2d4 <_malloc_r+0x754>
    e290:	00f4d793          	srli	a5,s1,0xf
    e294:	07878593          	addi	a1,a5,120
    e298:	07778813          	addi	a6,a5,119
    e29c:	00359613          	slli	a2,a1,0x3
    e2a0:	9c1ff06f          	j	dc60 <_malloc_r+0xe0>
    e2a4:	00892403          	lw	s0,8(s2)
    e2a8:	00442783          	lw	a5,4(s0)
    e2ac:	bfdff06f          	j	dea8 <_malloc_r+0x328>
    e2b0:	8771a223          	sw	s7,-1948(gp) # 1a71c <__malloc_sbrk_base>
    e2b4:	e81ff06f          	j	e134 <_malloc_r+0x5b4>
    e2b8:	15400693          	li	a3,340
    e2bc:	04e6e463          	bltu	a3,a4,e304 <_malloc_r+0x784>
    e2c0:	00f7d713          	srli	a4,a5,0xf
    e2c4:	07870613          	addi	a2,a4,120
    e2c8:	07770693          	addi	a3,a4,119
    e2cc:	00361613          	slli	a2,a2,0x3
    e2d0:	c81ff06f          	j	df50 <_malloc_r+0x3d0>
    e2d4:	55400713          	li	a4,1364
    e2d8:	04f76463          	bltu	a4,a5,e320 <_malloc_r+0x7a0>
    e2dc:	0124d793          	srli	a5,s1,0x12
    e2e0:	07d78593          	addi	a1,a5,125
    e2e4:	07c78813          	addi	a6,a5,124
    e2e8:	00359613          	slli	a2,a1,0x3
    e2ec:	975ff06f          	j	dc60 <_malloc_r+0xe0>
    e2f0:	ff8c8c93          	addi	s9,s9,-8
    e2f4:	019a8ab3          	add	s5,s5,s9
    e2f8:	417a8ab3          	sub	s5,s5,s7
    e2fc:	00000a13          	li	s4,0
    e300:	e7dff06f          	j	e17c <_malloc_r+0x5fc>
    e304:	55400693          	li	a3,1364
    e308:	02e6e463          	bltu	a3,a4,e330 <_malloc_r+0x7b0>
    e30c:	0127d713          	srli	a4,a5,0x12
    e310:	07d70613          	addi	a2,a4,125
    e314:	07c70693          	addi	a3,a4,124
    e318:	00361613          	slli	a2,a2,0x3
    e31c:	c35ff06f          	j	df50 <_malloc_r+0x3d0>
    e320:	3f800613          	li	a2,1016
    e324:	07f00593          	li	a1,127
    e328:	07e00813          	li	a6,126
    e32c:	935ff06f          	j	dc60 <_malloc_r+0xe0>
    e330:	3f800613          	li	a2,1016
    e334:	07e00693          	li	a3,126
    e338:	c19ff06f          	j	df50 <_malloc_r+0x3d0>
    e33c:	00492783          	lw	a5,4(s2)
    e340:	d9dff06f          	j	e0dc <_malloc_r+0x55c>

0000e344 <__malloc_lock>:
    e344:	00008067          	ret

0000e348 <__malloc_unlock>:
    e348:	00008067          	ret

0000e34c <__fp_lock>:
    e34c:	00000513          	li	a0,0
    e350:	00008067          	ret

0000e354 <stdio_exit_handler>:
    e354:	0001a637          	lui	a2,0x1a
    e358:	000135b7          	lui	a1,0x13
    e35c:	0001a537          	lui	a0,0x1a
    e360:	41860613          	addi	a2,a2,1048 # 1a418 <__sglue>
    e364:	2ac58593          	addi	a1,a1,684 # 132ac <_fclose_r>
    e368:	42850513          	addi	a0,a0,1064 # 1a428 <_impure_data>
    e36c:	36c0006f          	j	e6d8 <_fwalk_sglue>

0000e370 <cleanup_stdio>:
    e370:	00452583          	lw	a1,4(a0)
    e374:	ff010113          	addi	sp,sp,-16
    e378:	0001d7b7          	lui	a5,0x1d
    e37c:	00812423          	sw	s0,8(sp)
    e380:	00112623          	sw	ra,12(sp)
    e384:	f9c78793          	addi	a5,a5,-100 # 1cf9c <__sf>
    e388:	00050413          	mv	s0,a0
    e38c:	00f58463          	beq	a1,a5,e394 <cleanup_stdio+0x24>
    e390:	71d040ef          	jal	132ac <_fclose_r>
    e394:	00842583          	lw	a1,8(s0)
    e398:	0001d7b7          	lui	a5,0x1d
    e39c:	00478793          	addi	a5,a5,4 # 1d004 <__sf+0x68>
    e3a0:	00f58663          	beq	a1,a5,e3ac <cleanup_stdio+0x3c>
    e3a4:	00040513          	mv	a0,s0
    e3a8:	705040ef          	jal	132ac <_fclose_r>
    e3ac:	00c42583          	lw	a1,12(s0)
    e3b0:	0001d7b7          	lui	a5,0x1d
    e3b4:	06c78793          	addi	a5,a5,108 # 1d06c <__sf+0xd0>
    e3b8:	00f58c63          	beq	a1,a5,e3d0 <cleanup_stdio+0x60>
    e3bc:	00040513          	mv	a0,s0
    e3c0:	00812403          	lw	s0,8(sp)
    e3c4:	00c12083          	lw	ra,12(sp)
    e3c8:	01010113          	addi	sp,sp,16
    e3cc:	6e10406f          	j	132ac <_fclose_r>
    e3d0:	00c12083          	lw	ra,12(sp)
    e3d4:	00812403          	lw	s0,8(sp)
    e3d8:	01010113          	addi	sp,sp,16
    e3dc:	00008067          	ret

0000e3e0 <__fp_unlock>:
    e3e0:	00000513          	li	a0,0
    e3e4:	00008067          	ret

0000e3e8 <global_stdio_init.part.0>:
    e3e8:	fe010113          	addi	sp,sp,-32
    e3ec:	0000e7b7          	lui	a5,0xe
    e3f0:	00812c23          	sw	s0,24(sp)
    e3f4:	35478793          	addi	a5,a5,852 # e354 <stdio_exit_handler>
    e3f8:	0001d437          	lui	s0,0x1d
    e3fc:	0001d537          	lui	a0,0x1d
    e400:	f9c40413          	addi	s0,s0,-100 # 1cf9c <__sf>
    e404:	00112e23          	sw	ra,28(sp)
    e408:	00912a23          	sw	s1,20(sp)
    e40c:	01212823          	sw	s2,16(sp)
    e410:	01312623          	sw	s3,12(sp)
    e414:	01412423          	sw	s4,8(sp)
    e418:	8af1ac23          	sw	a5,-1864(gp) # 1a770 <__stdio_exit_handler>
    e41c:	00800613          	li	a2,8
    e420:	00400793          	li	a5,4
    e424:	00000593          	li	a1,0
    e428:	ff850513          	addi	a0,a0,-8 # 1cff8 <__sf+0x5c>
    e42c:	00f42623          	sw	a5,12(s0)
    e430:	00042023          	sw	zero,0(s0)
    e434:	00042223          	sw	zero,4(s0)
    e438:	00042423          	sw	zero,8(s0)
    e43c:	06042223          	sw	zero,100(s0)
    e440:	00042823          	sw	zero,16(s0)
    e444:	00042a23          	sw	zero,20(s0)
    e448:	00042c23          	sw	zero,24(s0)
    e44c:	848fa0ef          	jal	8494 <memset>
    e450:	000107b7          	lui	a5,0x10
    e454:	0000fa37          	lui	s4,0xf
    e458:	0000f9b7          	lui	s3,0xf
    e45c:	0000f937          	lui	s2,0xf
    e460:	0000f4b7          	lui	s1,0xf
    e464:	0001d537          	lui	a0,0x1d
    e468:	910a0a13          	addi	s4,s4,-1776 # e910 <__sread>
    e46c:	97498993          	addi	s3,s3,-1676 # e974 <__swrite>
    e470:	9fc90913          	addi	s2,s2,-1540 # e9fc <__sseek>
    e474:	a7448493          	addi	s1,s1,-1420 # ea74 <__sclose>
    e478:	00978793          	addi	a5,a5,9 # 10009 <_vfprintf_r+0xc1d>
    e47c:	00800613          	li	a2,8
    e480:	00000593          	li	a1,0
    e484:	06050513          	addi	a0,a0,96 # 1d060 <__sf+0xc4>
    e488:	03442023          	sw	s4,32(s0)
    e48c:	03342223          	sw	s3,36(s0)
    e490:	03242423          	sw	s2,40(s0)
    e494:	02942623          	sw	s1,44(s0)
    e498:	06f42a23          	sw	a5,116(s0)
    e49c:	00842e23          	sw	s0,28(s0)
    e4a0:	06042423          	sw	zero,104(s0)
    e4a4:	06042623          	sw	zero,108(s0)
    e4a8:	06042823          	sw	zero,112(s0)
    e4ac:	0c042623          	sw	zero,204(s0)
    e4b0:	06042c23          	sw	zero,120(s0)
    e4b4:	06042e23          	sw	zero,124(s0)
    e4b8:	08042023          	sw	zero,128(s0)
    e4bc:	fd9f90ef          	jal	8494 <memset>
    e4c0:	000207b7          	lui	a5,0x20
    e4c4:	0001d537          	lui	a0,0x1d
    e4c8:	0001d737          	lui	a4,0x1d
    e4cc:	01278793          	addi	a5,a5,18 # 20012 <_end+0x2dae>
    e4d0:	00470713          	addi	a4,a4,4 # 1d004 <__sf+0x68>
    e4d4:	00800613          	li	a2,8
    e4d8:	00000593          	li	a1,0
    e4dc:	0c850513          	addi	a0,a0,200 # 1d0c8 <__sf+0x12c>
    e4e0:	09442423          	sw	s4,136(s0)
    e4e4:	09342623          	sw	s3,140(s0)
    e4e8:	09242823          	sw	s2,144(s0)
    e4ec:	08942a23          	sw	s1,148(s0)
    e4f0:	0cf42e23          	sw	a5,220(s0)
    e4f4:	08e42223          	sw	a4,132(s0)
    e4f8:	0c042823          	sw	zero,208(s0)
    e4fc:	0c042a23          	sw	zero,212(s0)
    e500:	0c042c23          	sw	zero,216(s0)
    e504:	12042a23          	sw	zero,308(s0)
    e508:	0e042023          	sw	zero,224(s0)
    e50c:	0e042223          	sw	zero,228(s0)
    e510:	0e042423          	sw	zero,232(s0)
    e514:	f81f90ef          	jal	8494 <memset>
    e518:	0001d7b7          	lui	a5,0x1d
    e51c:	06c78793          	addi	a5,a5,108 # 1d06c <__sf+0xd0>
    e520:	0f442823          	sw	s4,240(s0)
    e524:	0f342a23          	sw	s3,244(s0)
    e528:	0f242c23          	sw	s2,248(s0)
    e52c:	0e942e23          	sw	s1,252(s0)
    e530:	01c12083          	lw	ra,28(sp)
    e534:	0ef42623          	sw	a5,236(s0)
    e538:	01812403          	lw	s0,24(sp)
    e53c:	01412483          	lw	s1,20(sp)
    e540:	01012903          	lw	s2,16(sp)
    e544:	00c12983          	lw	s3,12(sp)
    e548:	00812a03          	lw	s4,8(sp)
    e54c:	02010113          	addi	sp,sp,32
    e550:	00008067          	ret

0000e554 <__sfp>:
    e554:	8b81a783          	lw	a5,-1864(gp) # 1a770 <__stdio_exit_handler>
    e558:	fe010113          	addi	sp,sp,-32
    e55c:	01312623          	sw	s3,12(sp)
    e560:	00112e23          	sw	ra,28(sp)
    e564:	00812c23          	sw	s0,24(sp)
    e568:	00912a23          	sw	s1,20(sp)
    e56c:	01212823          	sw	s2,16(sp)
    e570:	00050993          	mv	s3,a0
    e574:	0e078863          	beqz	a5,e664 <__sfp+0x110>
    e578:	0001a937          	lui	s2,0x1a
    e57c:	41890913          	addi	s2,s2,1048 # 1a418 <__sglue>
    e580:	fff00493          	li	s1,-1
    e584:	00492783          	lw	a5,4(s2)
    e588:	00892403          	lw	s0,8(s2)
    e58c:	fff78793          	addi	a5,a5,-1
    e590:	0007d863          	bgez	a5,e5a0 <__sfp+0x4c>
    e594:	0800006f          	j	e614 <__sfp+0xc0>
    e598:	06840413          	addi	s0,s0,104
    e59c:	06978c63          	beq	a5,s1,e614 <__sfp+0xc0>
    e5a0:	00c41703          	lh	a4,12(s0)
    e5a4:	fff78793          	addi	a5,a5,-1
    e5a8:	fe0718e3          	bnez	a4,e598 <__sfp+0x44>
    e5ac:	ffff07b7          	lui	a5,0xffff0
    e5b0:	00178793          	addi	a5,a5,1 # ffff0001 <_end+0xfffd2d9d>
    e5b4:	00f42623          	sw	a5,12(s0)
    e5b8:	06042223          	sw	zero,100(s0)
    e5bc:	00042023          	sw	zero,0(s0)
    e5c0:	00042423          	sw	zero,8(s0)
    e5c4:	00042223          	sw	zero,4(s0)
    e5c8:	00042823          	sw	zero,16(s0)
    e5cc:	00042a23          	sw	zero,20(s0)
    e5d0:	00042c23          	sw	zero,24(s0)
    e5d4:	00800613          	li	a2,8
    e5d8:	00000593          	li	a1,0
    e5dc:	05c40513          	addi	a0,s0,92
    e5e0:	eb5f90ef          	jal	8494 <memset>
    e5e4:	02042823          	sw	zero,48(s0)
    e5e8:	02042a23          	sw	zero,52(s0)
    e5ec:	04042223          	sw	zero,68(s0)
    e5f0:	04042423          	sw	zero,72(s0)
    e5f4:	01c12083          	lw	ra,28(sp)
    e5f8:	00040513          	mv	a0,s0
    e5fc:	01812403          	lw	s0,24(sp)
    e600:	01412483          	lw	s1,20(sp)
    e604:	01012903          	lw	s2,16(sp)
    e608:	00c12983          	lw	s3,12(sp)
    e60c:	02010113          	addi	sp,sp,32
    e610:	00008067          	ret
    e614:	00092403          	lw	s0,0(s2)
    e618:	00040663          	beqz	s0,e624 <__sfp+0xd0>
    e61c:	00040913          	mv	s2,s0
    e620:	f65ff06f          	j	e584 <__sfp+0x30>
    e624:	1ac00593          	li	a1,428
    e628:	00098513          	mv	a0,s3
    e62c:	d54ff0ef          	jal	db80 <_malloc_r>
    e630:	00050413          	mv	s0,a0
    e634:	02050c63          	beqz	a0,e66c <__sfp+0x118>
    e638:	00c50513          	addi	a0,a0,12
    e63c:	00400793          	li	a5,4
    e640:	00042023          	sw	zero,0(s0)
    e644:	00f42223          	sw	a5,4(s0)
    e648:	00a42423          	sw	a0,8(s0)
    e64c:	1a000613          	li	a2,416
    e650:	00000593          	li	a1,0
    e654:	e41f90ef          	jal	8494 <memset>
    e658:	00892023          	sw	s0,0(s2)
    e65c:	00040913          	mv	s2,s0
    e660:	f25ff06f          	j	e584 <__sfp+0x30>
    e664:	d85ff0ef          	jal	e3e8 <global_stdio_init.part.0>
    e668:	f11ff06f          	j	e578 <__sfp+0x24>
    e66c:	00092023          	sw	zero,0(s2)
    e670:	00c00793          	li	a5,12
    e674:	00f9a023          	sw	a5,0(s3)
    e678:	f7dff06f          	j	e5f4 <__sfp+0xa0>

0000e67c <__sinit>:
    e67c:	03452783          	lw	a5,52(a0)
    e680:	00078463          	beqz	a5,e688 <__sinit+0xc>
    e684:	00008067          	ret
    e688:	8b81a703          	lw	a4,-1864(gp) # 1a770 <__stdio_exit_handler>
    e68c:	0000e7b7          	lui	a5,0xe
    e690:	37078793          	addi	a5,a5,880 # e370 <cleanup_stdio>
    e694:	02f52a23          	sw	a5,52(a0)
    e698:	fe0716e3          	bnez	a4,e684 <__sinit+0x8>
    e69c:	d4dff06f          	j	e3e8 <global_stdio_init.part.0>

0000e6a0 <__sfp_lock_acquire>:
    e6a0:	00008067          	ret

0000e6a4 <__sfp_lock_release>:
    e6a4:	00008067          	ret

0000e6a8 <__fp_lock_all>:
    e6a8:	0001a637          	lui	a2,0x1a
    e6ac:	0000e5b7          	lui	a1,0xe
    e6b0:	41860613          	addi	a2,a2,1048 # 1a418 <__sglue>
    e6b4:	34c58593          	addi	a1,a1,844 # e34c <__fp_lock>
    e6b8:	00000513          	li	a0,0
    e6bc:	01c0006f          	j	e6d8 <_fwalk_sglue>

0000e6c0 <__fp_unlock_all>:
    e6c0:	0001a637          	lui	a2,0x1a
    e6c4:	0000e5b7          	lui	a1,0xe
    e6c8:	41860613          	addi	a2,a2,1048 # 1a418 <__sglue>
    e6cc:	3e058593          	addi	a1,a1,992 # e3e0 <__fp_unlock>
    e6d0:	00000513          	li	a0,0
    e6d4:	0040006f          	j	e6d8 <_fwalk_sglue>

0000e6d8 <_fwalk_sglue>:
    e6d8:	fd010113          	addi	sp,sp,-48
    e6dc:	03212023          	sw	s2,32(sp)
    e6e0:	01312e23          	sw	s3,28(sp)
    e6e4:	01412c23          	sw	s4,24(sp)
    e6e8:	01512a23          	sw	s5,20(sp)
    e6ec:	01612823          	sw	s6,16(sp)
    e6f0:	01712623          	sw	s7,12(sp)
    e6f4:	02112623          	sw	ra,44(sp)
    e6f8:	02812423          	sw	s0,40(sp)
    e6fc:	02912223          	sw	s1,36(sp)
    e700:	00050b13          	mv	s6,a0
    e704:	00058b93          	mv	s7,a1
    e708:	00060a93          	mv	s5,a2
    e70c:	00000a13          	li	s4,0
    e710:	00100993          	li	s3,1
    e714:	fff00913          	li	s2,-1
    e718:	004aa483          	lw	s1,4(s5)
    e71c:	008aa403          	lw	s0,8(s5)
    e720:	fff48493          	addi	s1,s1,-1
    e724:	0204c863          	bltz	s1,e754 <_fwalk_sglue+0x7c>
    e728:	00c45783          	lhu	a5,12(s0)
    e72c:	00f9fe63          	bgeu	s3,a5,e748 <_fwalk_sglue+0x70>
    e730:	00e41783          	lh	a5,14(s0)
    e734:	00040593          	mv	a1,s0
    e738:	000b0513          	mv	a0,s6
    e73c:	01278663          	beq	a5,s2,e748 <_fwalk_sglue+0x70>
    e740:	000b80e7          	jalr	s7
    e744:	00aa6a33          	or	s4,s4,a0
    e748:	fff48493          	addi	s1,s1,-1
    e74c:	06840413          	addi	s0,s0,104
    e750:	fd249ce3          	bne	s1,s2,e728 <_fwalk_sglue+0x50>
    e754:	000aaa83          	lw	s5,0(s5)
    e758:	fc0a90e3          	bnez	s5,e718 <_fwalk_sglue+0x40>
    e75c:	02c12083          	lw	ra,44(sp)
    e760:	02812403          	lw	s0,40(sp)
    e764:	02412483          	lw	s1,36(sp)
    e768:	02012903          	lw	s2,32(sp)
    e76c:	01c12983          	lw	s3,28(sp)
    e770:	01412a83          	lw	s5,20(sp)
    e774:	01012b03          	lw	s6,16(sp)
    e778:	00c12b83          	lw	s7,12(sp)
    e77c:	000a0513          	mv	a0,s4
    e780:	01812a03          	lw	s4,24(sp)
    e784:	03010113          	addi	sp,sp,48
    e788:	00008067          	ret

0000e78c <_printf_r>:
    e78c:	fc010113          	addi	sp,sp,-64
    e790:	02c12423          	sw	a2,40(sp)
    e794:	02d12623          	sw	a3,44(sp)
    e798:	02e12823          	sw	a4,48(sp)
    e79c:	02f12a23          	sw	a5,52(sp)
    e7a0:	03012c23          	sw	a6,56(sp)
    e7a4:	03112e23          	sw	a7,60(sp)
    e7a8:	00058613          	mv	a2,a1
    e7ac:	00852583          	lw	a1,8(a0)
    e7b0:	02810693          	addi	a3,sp,40
    e7b4:	00112e23          	sw	ra,28(sp)
    e7b8:	00d12623          	sw	a3,12(sp)
    e7bc:	431000ef          	jal	f3ec <_vfprintf_r>
    e7c0:	01c12083          	lw	ra,28(sp)
    e7c4:	04010113          	addi	sp,sp,64
    e7c8:	00008067          	ret

0000e7cc <printf>:
    e7cc:	86c1a303          	lw	t1,-1940(gp) # 1a724 <_impure_ptr>
    e7d0:	fc010113          	addi	sp,sp,-64
    e7d4:	02c12423          	sw	a2,40(sp)
    e7d8:	02d12623          	sw	a3,44(sp)
    e7dc:	02b12223          	sw	a1,36(sp)
    e7e0:	02e12823          	sw	a4,48(sp)
    e7e4:	02f12a23          	sw	a5,52(sp)
    e7e8:	03012c23          	sw	a6,56(sp)
    e7ec:	03112e23          	sw	a7,60(sp)
    e7f0:	00832583          	lw	a1,8(t1)
    e7f4:	02410693          	addi	a3,sp,36
    e7f8:	00050613          	mv	a2,a0
    e7fc:	00030513          	mv	a0,t1
    e800:	00112e23          	sw	ra,28(sp)
    e804:	00d12623          	sw	a3,12(sp)
    e808:	3e5000ef          	jal	f3ec <_vfprintf_r>
    e80c:	01c12083          	lw	ra,28(sp)
    e810:	04010113          	addi	sp,sp,64
    e814:	00008067          	ret

0000e818 <_putchar_r>:
    e818:	00852603          	lw	a2,8(a0)
    e81c:	3e40506f          	j	13c00 <_putc_r>

0000e820 <putchar>:
    e820:	86c1a783          	lw	a5,-1940(gp) # 1a724 <_impure_ptr>
    e824:	00050593          	mv	a1,a0
    e828:	0087a603          	lw	a2,8(a5)
    e82c:	00078513          	mv	a0,a5
    e830:	3d00506f          	j	13c00 <_putc_r>

0000e834 <_puts_r>:
    e834:	fc010113          	addi	sp,sp,-64
    e838:	02812c23          	sw	s0,56(sp)
    e83c:	00050413          	mv	s0,a0
    e840:	00058513          	mv	a0,a1
    e844:	02912a23          	sw	s1,52(sp)
    e848:	02112e23          	sw	ra,60(sp)
    e84c:	00058493          	mv	s1,a1
    e850:	584000ef          	jal	edd4 <strlen>
    e854:	000197b7          	lui	a5,0x19
    e858:	67878793          	addi	a5,a5,1656 # 19678 <_getpid_r+0x55c>
    e85c:	02f12423          	sw	a5,40(sp)
    e860:	00100793          	li	a5,1
    e864:	02f12623          	sw	a5,44(sp)
    e868:	03442703          	lw	a4,52(s0)
    e86c:	02010793          	addi	a5,sp,32
    e870:	00150693          	addi	a3,a0,1
    e874:	00f12a23          	sw	a5,20(sp)
    e878:	00200793          	li	a5,2
    e87c:	02912023          	sw	s1,32(sp)
    e880:	02a12223          	sw	a0,36(sp)
    e884:	00d12e23          	sw	a3,28(sp)
    e888:	00f12c23          	sw	a5,24(sp)
    e88c:	00842583          	lw	a1,8(s0)
    e890:	06070063          	beqz	a4,e8f0 <_puts_r+0xbc>
    e894:	00c59783          	lh	a5,12(a1)
    e898:	01279713          	slli	a4,a5,0x12
    e89c:	02074263          	bltz	a4,e8c0 <_puts_r+0x8c>
    e8a0:	0645a703          	lw	a4,100(a1)
    e8a4:	ffffe6b7          	lui	a3,0xffffe
    e8a8:	fff68693          	addi	a3,a3,-1 # ffffdfff <_end+0xfffe0d9b>
    e8ac:	00002637          	lui	a2,0x2
    e8b0:	00c7e7b3          	or	a5,a5,a2
    e8b4:	00d77733          	and	a4,a4,a3
    e8b8:	00f59623          	sh	a5,12(a1)
    e8bc:	06e5a223          	sw	a4,100(a1)
    e8c0:	01410613          	addi	a2,sp,20
    e8c4:	00040513          	mv	a0,s0
    e8c8:	629040ef          	jal	136f0 <__sfvwrite_r>
    e8cc:	03c12083          	lw	ra,60(sp)
    e8d0:	03812403          	lw	s0,56(sp)
    e8d4:	00153513          	seqz	a0,a0
    e8d8:	40a00533          	neg	a0,a0
    e8dc:	00b57513          	andi	a0,a0,11
    e8e0:	03412483          	lw	s1,52(sp)
    e8e4:	fff50513          	addi	a0,a0,-1
    e8e8:	04010113          	addi	sp,sp,64
    e8ec:	00008067          	ret
    e8f0:	00040513          	mv	a0,s0
    e8f4:	00b12623          	sw	a1,12(sp)
    e8f8:	d85ff0ef          	jal	e67c <__sinit>
    e8fc:	00c12583          	lw	a1,12(sp)
    e900:	f95ff06f          	j	e894 <_puts_r+0x60>

0000e904 <puts>:
    e904:	00050593          	mv	a1,a0
    e908:	86c1a503          	lw	a0,-1940(gp) # 1a724 <_impure_ptr>
    e90c:	f29ff06f          	j	e834 <_puts_r>

0000e910 <__sread>:
    e910:	ff010113          	addi	sp,sp,-16
    e914:	00812423          	sw	s0,8(sp)
    e918:	00058413          	mv	s0,a1
    e91c:	00e59583          	lh	a1,14(a1)
    e920:	00112623          	sw	ra,12(sp)
    e924:	2e0000ef          	jal	ec04 <_read_r>
    e928:	02054063          	bltz	a0,e948 <__sread+0x38>
    e92c:	05042783          	lw	a5,80(s0)
    e930:	00c12083          	lw	ra,12(sp)
    e934:	00a787b3          	add	a5,a5,a0
    e938:	04f42823          	sw	a5,80(s0)
    e93c:	00812403          	lw	s0,8(sp)
    e940:	01010113          	addi	sp,sp,16
    e944:	00008067          	ret
    e948:	00c45783          	lhu	a5,12(s0)
    e94c:	fffff737          	lui	a4,0xfffff
    e950:	fff70713          	addi	a4,a4,-1 # ffffefff <_end+0xfffe1d9b>
    e954:	00e7f7b3          	and	a5,a5,a4
    e958:	00c12083          	lw	ra,12(sp)
    e95c:	00f41623          	sh	a5,12(s0)
    e960:	00812403          	lw	s0,8(sp)
    e964:	01010113          	addi	sp,sp,16
    e968:	00008067          	ret

0000e96c <__seofread>:
    e96c:	00000513          	li	a0,0
    e970:	00008067          	ret

0000e974 <__swrite>:
    e974:	00c59783          	lh	a5,12(a1)
    e978:	fe010113          	addi	sp,sp,-32
    e97c:	00812c23          	sw	s0,24(sp)
    e980:	00912a23          	sw	s1,20(sp)
    e984:	01212823          	sw	s2,16(sp)
    e988:	01312623          	sw	s3,12(sp)
    e98c:	00112e23          	sw	ra,28(sp)
    e990:	1007f713          	andi	a4,a5,256
    e994:	00058413          	mv	s0,a1
    e998:	00050493          	mv	s1,a0
    e99c:	00060913          	mv	s2,a2
    e9a0:	00068993          	mv	s3,a3
    e9a4:	04071063          	bnez	a4,e9e4 <__swrite+0x70>
    e9a8:	fffff737          	lui	a4,0xfffff
    e9ac:	fff70713          	addi	a4,a4,-1 # ffffefff <_end+0xfffe1d9b>
    e9b0:	00e7f7b3          	and	a5,a5,a4
    e9b4:	00e41583          	lh	a1,14(s0)
    e9b8:	00f41623          	sh	a5,12(s0)
    e9bc:	01812403          	lw	s0,24(sp)
    e9c0:	01c12083          	lw	ra,28(sp)
    e9c4:	00098693          	mv	a3,s3
    e9c8:	00090613          	mv	a2,s2
    e9cc:	00c12983          	lw	s3,12(sp)
    e9d0:	01012903          	lw	s2,16(sp)
    e9d4:	00048513          	mv	a0,s1
    e9d8:	01412483          	lw	s1,20(sp)
    e9dc:	02010113          	addi	sp,sp,32
    e9e0:	2e80006f          	j	ecc8 <_write_r>
    e9e4:	00e59583          	lh	a1,14(a1)
    e9e8:	00200693          	li	a3,2
    e9ec:	00000613          	li	a2,0
    e9f0:	1ac000ef          	jal	eb9c <_lseek_r>
    e9f4:	00c41783          	lh	a5,12(s0)
    e9f8:	fb1ff06f          	j	e9a8 <__swrite+0x34>

0000e9fc <__sseek>:
    e9fc:	ff010113          	addi	sp,sp,-16
    ea00:	00812423          	sw	s0,8(sp)
    ea04:	00058413          	mv	s0,a1
    ea08:	00e59583          	lh	a1,14(a1)
    ea0c:	00112623          	sw	ra,12(sp)
    ea10:	18c000ef          	jal	eb9c <_lseek_r>
    ea14:	fff00793          	li	a5,-1
    ea18:	02f50863          	beq	a0,a5,ea48 <__sseek+0x4c>
    ea1c:	00c45783          	lhu	a5,12(s0)
    ea20:	00001737          	lui	a4,0x1
    ea24:	00c12083          	lw	ra,12(sp)
    ea28:	00e7e7b3          	or	a5,a5,a4
    ea2c:	01079793          	slli	a5,a5,0x10
    ea30:	4107d793          	srai	a5,a5,0x10
    ea34:	04a42823          	sw	a0,80(s0)
    ea38:	00f41623          	sh	a5,12(s0)
    ea3c:	00812403          	lw	s0,8(sp)
    ea40:	01010113          	addi	sp,sp,16
    ea44:	00008067          	ret
    ea48:	00c45783          	lhu	a5,12(s0)
    ea4c:	fffff737          	lui	a4,0xfffff
    ea50:	fff70713          	addi	a4,a4,-1 # ffffefff <_end+0xfffe1d9b>
    ea54:	00e7f7b3          	and	a5,a5,a4
    ea58:	01079793          	slli	a5,a5,0x10
    ea5c:	4107d793          	srai	a5,a5,0x10
    ea60:	00c12083          	lw	ra,12(sp)
    ea64:	00f41623          	sh	a5,12(s0)
    ea68:	00812403          	lw	s0,8(sp)
    ea6c:	01010113          	addi	sp,sp,16
    ea70:	00008067          	ret

0000ea74 <__sclose>:
    ea74:	00e59583          	lh	a1,14(a1)
    ea78:	0040006f          	j	ea7c <_close_r>

0000ea7c <_close_r>:
    ea7c:	ff010113          	addi	sp,sp,-16
    ea80:	00812423          	sw	s0,8(sp)
    ea84:	00912223          	sw	s1,4(sp)
    ea88:	00050413          	mv	s0,a0
    ea8c:	00058513          	mv	a0,a1
    ea90:	00112623          	sw	ra,12(sp)
    ea94:	8a01ae23          	sw	zero,-1860(gp) # 1a774 <errno>
    ea98:	9a5f90ef          	jal	843c <_close>
    ea9c:	fff00793          	li	a5,-1
    eaa0:	00f50c63          	beq	a0,a5,eab8 <_close_r+0x3c>
    eaa4:	00c12083          	lw	ra,12(sp)
    eaa8:	00812403          	lw	s0,8(sp)
    eaac:	00412483          	lw	s1,4(sp)
    eab0:	01010113          	addi	sp,sp,16
    eab4:	00008067          	ret
    eab8:	8bc1a783          	lw	a5,-1860(gp) # 1a774 <errno>
    eabc:	fe0784e3          	beqz	a5,eaa4 <_close_r+0x28>
    eac0:	00c12083          	lw	ra,12(sp)
    eac4:	00f42023          	sw	a5,0(s0)
    eac8:	00812403          	lw	s0,8(sp)
    eacc:	00412483          	lw	s1,4(sp)
    ead0:	01010113          	addi	sp,sp,16
    ead4:	00008067          	ret

0000ead8 <_reclaim_reent>:
    ead8:	86c1a783          	lw	a5,-1940(gp) # 1a724 <_impure_ptr>
    eadc:	0aa78e63          	beq	a5,a0,eb98 <_reclaim_reent+0xc0>
    eae0:	04452583          	lw	a1,68(a0)
    eae4:	fe010113          	addi	sp,sp,-32
    eae8:	00912a23          	sw	s1,20(sp)
    eaec:	00112e23          	sw	ra,28(sp)
    eaf0:	00050493          	mv	s1,a0
    eaf4:	04058c63          	beqz	a1,eb4c <_reclaim_reent+0x74>
    eaf8:	01212823          	sw	s2,16(sp)
    eafc:	01312623          	sw	s3,12(sp)
    eb00:	00812c23          	sw	s0,24(sp)
    eb04:	00000913          	li	s2,0
    eb08:	08000993          	li	s3,128
    eb0c:	012587b3          	add	a5,a1,s2
    eb10:	0007a403          	lw	s0,0(a5)
    eb14:	00040e63          	beqz	s0,eb30 <_reclaim_reent+0x58>
    eb18:	00040593          	mv	a1,s0
    eb1c:	00042403          	lw	s0,0(s0)
    eb20:	00048513          	mv	a0,s1
    eb24:	5c4000ef          	jal	f0e8 <_free_r>
    eb28:	fe0418e3          	bnez	s0,eb18 <_reclaim_reent+0x40>
    eb2c:	0444a583          	lw	a1,68(s1)
    eb30:	00490913          	addi	s2,s2,4
    eb34:	fd391ce3          	bne	s2,s3,eb0c <_reclaim_reent+0x34>
    eb38:	00048513          	mv	a0,s1
    eb3c:	5ac000ef          	jal	f0e8 <_free_r>
    eb40:	01812403          	lw	s0,24(sp)
    eb44:	01012903          	lw	s2,16(sp)
    eb48:	00c12983          	lw	s3,12(sp)
    eb4c:	0384a583          	lw	a1,56(s1)
    eb50:	00058663          	beqz	a1,eb5c <_reclaim_reent+0x84>
    eb54:	00048513          	mv	a0,s1
    eb58:	590000ef          	jal	f0e8 <_free_r>
    eb5c:	04c4a583          	lw	a1,76(s1)
    eb60:	00058663          	beqz	a1,eb6c <_reclaim_reent+0x94>
    eb64:	00048513          	mv	a0,s1
    eb68:	580000ef          	jal	f0e8 <_free_r>
    eb6c:	0344a783          	lw	a5,52(s1)
    eb70:	00078c63          	beqz	a5,eb88 <_reclaim_reent+0xb0>
    eb74:	01c12083          	lw	ra,28(sp)
    eb78:	00048513          	mv	a0,s1
    eb7c:	01412483          	lw	s1,20(sp)
    eb80:	02010113          	addi	sp,sp,32
    eb84:	00078067          	jr	a5
    eb88:	01c12083          	lw	ra,28(sp)
    eb8c:	01412483          	lw	s1,20(sp)
    eb90:	02010113          	addi	sp,sp,32
    eb94:	00008067          	ret
    eb98:	00008067          	ret

0000eb9c <_lseek_r>:
    eb9c:	ff010113          	addi	sp,sp,-16
    eba0:	00058713          	mv	a4,a1
    eba4:	00812423          	sw	s0,8(sp)
    eba8:	00912223          	sw	s1,4(sp)
    ebac:	00060593          	mv	a1,a2
    ebb0:	00050413          	mv	s0,a0
    ebb4:	00068613          	mv	a2,a3
    ebb8:	00070513          	mv	a0,a4
    ebbc:	00112623          	sw	ra,12(sp)
    ebc0:	8a01ae23          	sw	zero,-1860(gp) # 1a774 <errno>
    ebc4:	825f90ef          	jal	83e8 <_access>
    ebc8:	fff00793          	li	a5,-1
    ebcc:	00f50c63          	beq	a0,a5,ebe4 <_lseek_r+0x48>
    ebd0:	00c12083          	lw	ra,12(sp)
    ebd4:	00812403          	lw	s0,8(sp)
    ebd8:	00412483          	lw	s1,4(sp)
    ebdc:	01010113          	addi	sp,sp,16
    ebe0:	00008067          	ret
    ebe4:	8bc1a783          	lw	a5,-1860(gp) # 1a774 <errno>
    ebe8:	fe0784e3          	beqz	a5,ebd0 <_lseek_r+0x34>
    ebec:	00c12083          	lw	ra,12(sp)
    ebf0:	00f42023          	sw	a5,0(s0)
    ebf4:	00812403          	lw	s0,8(sp)
    ebf8:	00412483          	lw	s1,4(sp)
    ebfc:	01010113          	addi	sp,sp,16
    ec00:	00008067          	ret

0000ec04 <_read_r>:
    ec04:	ff010113          	addi	sp,sp,-16
    ec08:	00058713          	mv	a4,a1
    ec0c:	00812423          	sw	s0,8(sp)
    ec10:	00912223          	sw	s1,4(sp)
    ec14:	00060593          	mv	a1,a2
    ec18:	00050413          	mv	s0,a0
    ec1c:	00068613          	mv	a2,a3
    ec20:	00070513          	mv	a0,a4
    ec24:	00112623          	sw	ra,12(sp)
    ec28:	8a01ae23          	sw	zero,-1860(gp) # 1a774 <errno>
    ec2c:	fe4f90ef          	jal	8410 <_read>
    ec30:	fff00793          	li	a5,-1
    ec34:	00f50c63          	beq	a0,a5,ec4c <_read_r+0x48>
    ec38:	00c12083          	lw	ra,12(sp)
    ec3c:	00812403          	lw	s0,8(sp)
    ec40:	00412483          	lw	s1,4(sp)
    ec44:	01010113          	addi	sp,sp,16
    ec48:	00008067          	ret
    ec4c:	8bc1a783          	lw	a5,-1860(gp) # 1a774 <errno>
    ec50:	fe0784e3          	beqz	a5,ec38 <_read_r+0x34>
    ec54:	00c12083          	lw	ra,12(sp)
    ec58:	00f42023          	sw	a5,0(s0)
    ec5c:	00812403          	lw	s0,8(sp)
    ec60:	00412483          	lw	s1,4(sp)
    ec64:	01010113          	addi	sp,sp,16
    ec68:	00008067          	ret

0000ec6c <_sbrk_r>:
    ec6c:	ff010113          	addi	sp,sp,-16
    ec70:	00812423          	sw	s0,8(sp)
    ec74:	00912223          	sw	s1,4(sp)
    ec78:	00050413          	mv	s0,a0
    ec7c:	00058513          	mv	a0,a1
    ec80:	00112623          	sw	ra,12(sp)
    ec84:	8a01ae23          	sw	zero,-1860(gp) # 1a774 <errno>
    ec88:	fe0f90ef          	jal	8468 <_sbrk>
    ec8c:	fff00793          	li	a5,-1
    ec90:	00f50c63          	beq	a0,a5,eca8 <_sbrk_r+0x3c>
    ec94:	00c12083          	lw	ra,12(sp)
    ec98:	00812403          	lw	s0,8(sp)
    ec9c:	00412483          	lw	s1,4(sp)
    eca0:	01010113          	addi	sp,sp,16
    eca4:	00008067          	ret
    eca8:	8bc1a783          	lw	a5,-1860(gp) # 1a774 <errno>
    ecac:	fe0784e3          	beqz	a5,ec94 <_sbrk_r+0x28>
    ecb0:	00c12083          	lw	ra,12(sp)
    ecb4:	00f42023          	sw	a5,0(s0)
    ecb8:	00812403          	lw	s0,8(sp)
    ecbc:	00412483          	lw	s1,4(sp)
    ecc0:	01010113          	addi	sp,sp,16
    ecc4:	00008067          	ret

0000ecc8 <_write_r>:
    ecc8:	ff010113          	addi	sp,sp,-16
    eccc:	00058713          	mv	a4,a1
    ecd0:	00812423          	sw	s0,8(sp)
    ecd4:	00912223          	sw	s1,4(sp)
    ecd8:	00060593          	mv	a1,a2
    ecdc:	00050413          	mv	s0,a0
    ece0:	00068613          	mv	a2,a3
    ece4:	00070513          	mv	a0,a4
    ece8:	00112623          	sw	ra,12(sp)
    ecec:	8a01ae23          	sw	zero,-1860(gp) # 1a774 <errno>
    ecf0:	f28f90ef          	jal	8418 <_write>
    ecf4:	fff00793          	li	a5,-1
    ecf8:	00f50c63          	beq	a0,a5,ed10 <_write_r+0x48>
    ecfc:	00c12083          	lw	ra,12(sp)
    ed00:	00812403          	lw	s0,8(sp)
    ed04:	00412483          	lw	s1,4(sp)
    ed08:	01010113          	addi	sp,sp,16
    ed0c:	00008067          	ret
    ed10:	8bc1a783          	lw	a5,-1860(gp) # 1a774 <errno>
    ed14:	fe0784e3          	beqz	a5,ecfc <_write_r+0x34>
    ed18:	00c12083          	lw	ra,12(sp)
    ed1c:	00f42023          	sw	a5,0(s0)
    ed20:	00812403          	lw	s0,8(sp)
    ed24:	00412483          	lw	s1,4(sp)
    ed28:	01010113          	addi	sp,sp,16
    ed2c:	00008067          	ret

0000ed30 <__errno>:
    ed30:	86c1a503          	lw	a0,-1940(gp) # 1a724 <_impure_ptr>
    ed34:	00008067          	ret

0000ed38 <__libc_init_array>:
    ed38:	ff010113          	addi	sp,sp,-16
    ed3c:	00812423          	sw	s0,8(sp)
    ed40:	0001a7b7          	lui	a5,0x1a
    ed44:	0001a437          	lui	s0,0x1a
    ed48:	01212023          	sw	s2,0(sp)
    ed4c:	00478793          	addi	a5,a5,4 # 1a004 <__init_array_start>
    ed50:	00440713          	addi	a4,s0,4 # 1a004 <__init_array_start>
    ed54:	00112623          	sw	ra,12(sp)
    ed58:	00912223          	sw	s1,4(sp)
    ed5c:	40e78933          	sub	s2,a5,a4
    ed60:	02e78263          	beq	a5,a4,ed84 <__libc_init_array+0x4c>
    ed64:	40295913          	srai	s2,s2,0x2
    ed68:	00440413          	addi	s0,s0,4
    ed6c:	00000493          	li	s1,0
    ed70:	00042783          	lw	a5,0(s0)
    ed74:	00148493          	addi	s1,s1,1
    ed78:	00440413          	addi	s0,s0,4
    ed7c:	000780e7          	jalr	a5
    ed80:	ff24e8e3          	bltu	s1,s2,ed70 <__libc_init_array+0x38>
    ed84:	0001a437          	lui	s0,0x1a
    ed88:	0001a7b7          	lui	a5,0x1a
    ed8c:	00c78793          	addi	a5,a5,12 # 1a00c <__do_global_dtors_aux_fini_array_entry>
    ed90:	00440713          	addi	a4,s0,4 # 1a004 <__init_array_start>
    ed94:	40e78933          	sub	s2,a5,a4
    ed98:	40295913          	srai	s2,s2,0x2
    ed9c:	02e78063          	beq	a5,a4,edbc <__libc_init_array+0x84>
    eda0:	00440413          	addi	s0,s0,4
    eda4:	00000493          	li	s1,0
    eda8:	00042783          	lw	a5,0(s0)
    edac:	00148493          	addi	s1,s1,1
    edb0:	00440413          	addi	s0,s0,4
    edb4:	000780e7          	jalr	a5
    edb8:	ff24e8e3          	bltu	s1,s2,eda8 <__libc_init_array+0x70>
    edbc:	00c12083          	lw	ra,12(sp)
    edc0:	00812403          	lw	s0,8(sp)
    edc4:	00412483          	lw	s1,4(sp)
    edc8:	00012903          	lw	s2,0(sp)
    edcc:	01010113          	addi	sp,sp,16
    edd0:	00008067          	ret

0000edd4 <strlen>:
    edd4:	00357793          	andi	a5,a0,3
    edd8:	00050713          	mv	a4,a0
    eddc:	04079c63          	bnez	a5,ee34 <strlen+0x60>
    ede0:	7f7f86b7          	lui	a3,0x7f7f8
    ede4:	f7f68693          	addi	a3,a3,-129 # 7f7f7f7f <_end+0x7f7dad1b>
    ede8:	fff00593          	li	a1,-1
    edec:	00072603          	lw	a2,0(a4)
    edf0:	00470713          	addi	a4,a4,4
    edf4:	00d677b3          	and	a5,a2,a3
    edf8:	00d787b3          	add	a5,a5,a3
    edfc:	00c7e7b3          	or	a5,a5,a2
    ee00:	00d7e7b3          	or	a5,a5,a3
    ee04:	feb784e3          	beq	a5,a1,edec <strlen+0x18>
    ee08:	ffc74683          	lbu	a3,-4(a4)
    ee0c:	40a707b3          	sub	a5,a4,a0
    ee10:	04068463          	beqz	a3,ee58 <strlen+0x84>
    ee14:	ffd74683          	lbu	a3,-3(a4)
    ee18:	02068c63          	beqz	a3,ee50 <strlen+0x7c>
    ee1c:	ffe74503          	lbu	a0,-2(a4)
    ee20:	00a03533          	snez	a0,a0
    ee24:	00f50533          	add	a0,a0,a5
    ee28:	ffe50513          	addi	a0,a0,-2
    ee2c:	00008067          	ret
    ee30:	fa0688e3          	beqz	a3,ede0 <strlen+0xc>
    ee34:	00074783          	lbu	a5,0(a4)
    ee38:	00170713          	addi	a4,a4,1
    ee3c:	00377693          	andi	a3,a4,3
    ee40:	fe0798e3          	bnez	a5,ee30 <strlen+0x5c>
    ee44:	40a70733          	sub	a4,a4,a0
    ee48:	fff70513          	addi	a0,a4,-1
    ee4c:	00008067          	ret
    ee50:	ffd78513          	addi	a0,a5,-3
    ee54:	00008067          	ret
    ee58:	ffc78513          	addi	a0,a5,-4
    ee5c:	00008067          	ret

0000ee60 <__call_exitprocs>:
    ee60:	fd010113          	addi	sp,sp,-48
    ee64:	01412c23          	sw	s4,24(sp)
    ee68:	03212023          	sw	s2,32(sp)
    ee6c:	8c01a903          	lw	s2,-1856(gp) # 1a778 <__atexit>
    ee70:	02112623          	sw	ra,44(sp)
    ee74:	0a090863          	beqz	s2,ef24 <__call_exitprocs+0xc4>
    ee78:	01312e23          	sw	s3,28(sp)
    ee7c:	01512a23          	sw	s5,20(sp)
    ee80:	01612823          	sw	s6,16(sp)
    ee84:	01712623          	sw	s7,12(sp)
    ee88:	02812423          	sw	s0,40(sp)
    ee8c:	02912223          	sw	s1,36(sp)
    ee90:	01812423          	sw	s8,8(sp)
    ee94:	00050b13          	mv	s6,a0
    ee98:	00058b93          	mv	s7,a1
    ee9c:	fff00993          	li	s3,-1
    eea0:	00100a93          	li	s5,1
    eea4:	00492483          	lw	s1,4(s2)
    eea8:	fff48413          	addi	s0,s1,-1
    eeac:	04044e63          	bltz	s0,ef08 <__call_exitprocs+0xa8>
    eeb0:	00249493          	slli	s1,s1,0x2
    eeb4:	009904b3          	add	s1,s2,s1
    eeb8:	080b9063          	bnez	s7,ef38 <__call_exitprocs+0xd8>
    eebc:	00492783          	lw	a5,4(s2)
    eec0:	0044a683          	lw	a3,4(s1)
    eec4:	fff78793          	addi	a5,a5,-1
    eec8:	0a878c63          	beq	a5,s0,ef80 <__call_exitprocs+0x120>
    eecc:	0004a223          	sw	zero,4(s1)
    eed0:	02068663          	beqz	a3,eefc <__call_exitprocs+0x9c>
    eed4:	18892783          	lw	a5,392(s2)
    eed8:	008a9733          	sll	a4,s5,s0
    eedc:	00492c03          	lw	s8,4(s2)
    eee0:	00f777b3          	and	a5,a4,a5
    eee4:	06079663          	bnez	a5,ef50 <__call_exitprocs+0xf0>
    eee8:	000680e7          	jalr	a3
    eeec:	00492703          	lw	a4,4(s2)
    eef0:	8c01a783          	lw	a5,-1856(gp) # 1a778 <__atexit>
    eef4:	09871063          	bne	a4,s8,ef74 <__call_exitprocs+0x114>
    eef8:	07279e63          	bne	a5,s2,ef74 <__call_exitprocs+0x114>
    eefc:	fff40413          	addi	s0,s0,-1
    ef00:	ffc48493          	addi	s1,s1,-4
    ef04:	fb341ae3          	bne	s0,s3,eeb8 <__call_exitprocs+0x58>
    ef08:	02812403          	lw	s0,40(sp)
    ef0c:	02412483          	lw	s1,36(sp)
    ef10:	01c12983          	lw	s3,28(sp)
    ef14:	01412a83          	lw	s5,20(sp)
    ef18:	01012b03          	lw	s6,16(sp)
    ef1c:	00c12b83          	lw	s7,12(sp)
    ef20:	00812c03          	lw	s8,8(sp)
    ef24:	02c12083          	lw	ra,44(sp)
    ef28:	02012903          	lw	s2,32(sp)
    ef2c:	01812a03          	lw	s4,24(sp)
    ef30:	03010113          	addi	sp,sp,48
    ef34:	00008067          	ret
    ef38:	1044a783          	lw	a5,260(s1)
    ef3c:	f97780e3          	beq	a5,s7,eebc <__call_exitprocs+0x5c>
    ef40:	fff40413          	addi	s0,s0,-1
    ef44:	ffc48493          	addi	s1,s1,-4
    ef48:	ff3418e3          	bne	s0,s3,ef38 <__call_exitprocs+0xd8>
    ef4c:	fbdff06f          	j	ef08 <__call_exitprocs+0xa8>
    ef50:	18c92783          	lw	a5,396(s2)
    ef54:	0844a583          	lw	a1,132(s1)
    ef58:	00f77733          	and	a4,a4,a5
    ef5c:	02071663          	bnez	a4,ef88 <__call_exitprocs+0x128>
    ef60:	000b0513          	mv	a0,s6
    ef64:	000680e7          	jalr	a3
    ef68:	00492703          	lw	a4,4(s2)
    ef6c:	8c01a783          	lw	a5,-1856(gp) # 1a778 <__atexit>
    ef70:	f98704e3          	beq	a4,s8,eef8 <__call_exitprocs+0x98>
    ef74:	f8078ae3          	beqz	a5,ef08 <__call_exitprocs+0xa8>
    ef78:	00078913          	mv	s2,a5
    ef7c:	f29ff06f          	j	eea4 <__call_exitprocs+0x44>
    ef80:	00892223          	sw	s0,4(s2)
    ef84:	f4dff06f          	j	eed0 <__call_exitprocs+0x70>
    ef88:	00058513          	mv	a0,a1
    ef8c:	000680e7          	jalr	a3
    ef90:	f5dff06f          	j	eeec <__call_exitprocs+0x8c>

0000ef94 <atexit>:
    ef94:	00050593          	mv	a1,a0
    ef98:	00000693          	li	a3,0
    ef9c:	00000613          	li	a2,0
    efa0:	00000513          	li	a0,0
    efa4:	13d0506f          	j	148e0 <__register_exitproc>

0000efa8 <_malloc_trim_r>:
    efa8:	fe010113          	addi	sp,sp,-32
    efac:	01312623          	sw	s3,12(sp)
    efb0:	0001a9b7          	lui	s3,0x1a
    efb4:	00812c23          	sw	s0,24(sp)
    efb8:	00912a23          	sw	s1,20(sp)
    efbc:	01212823          	sw	s2,16(sp)
    efc0:	01412423          	sw	s4,8(sp)
    efc4:	00112e23          	sw	ra,28(sp)
    efc8:	00058a13          	mv	s4,a1
    efcc:	00050913          	mv	s2,a0
    efd0:	01098993          	addi	s3,s3,16 # 1a010 <__malloc_av_>
    efd4:	b70ff0ef          	jal	e344 <__malloc_lock>
    efd8:	0089a703          	lw	a4,8(s3)
    efdc:	000017b7          	lui	a5,0x1
    efe0:	fef78793          	addi	a5,a5,-17 # fef <_start-0x7011>
    efe4:	00472483          	lw	s1,4(a4)
    efe8:	00001737          	lui	a4,0x1
    efec:	ffc4f493          	andi	s1,s1,-4
    eff0:	00f48433          	add	s0,s1,a5
    eff4:	41440433          	sub	s0,s0,s4
    eff8:	00c45413          	srli	s0,s0,0xc
    effc:	fff40413          	addi	s0,s0,-1
    f000:	00c41413          	slli	s0,s0,0xc
    f004:	00e44e63          	blt	s0,a4,f020 <_malloc_trim_r+0x78>
    f008:	00000593          	li	a1,0
    f00c:	00090513          	mv	a0,s2
    f010:	c5dff0ef          	jal	ec6c <_sbrk_r>
    f014:	0089a783          	lw	a5,8(s3)
    f018:	009787b3          	add	a5,a5,s1
    f01c:	02f50863          	beq	a0,a5,f04c <_malloc_trim_r+0xa4>
    f020:	00090513          	mv	a0,s2
    f024:	b24ff0ef          	jal	e348 <__malloc_unlock>
    f028:	01c12083          	lw	ra,28(sp)
    f02c:	01812403          	lw	s0,24(sp)
    f030:	01412483          	lw	s1,20(sp)
    f034:	01012903          	lw	s2,16(sp)
    f038:	00c12983          	lw	s3,12(sp)
    f03c:	00812a03          	lw	s4,8(sp)
    f040:	00000513          	li	a0,0
    f044:	02010113          	addi	sp,sp,32
    f048:	00008067          	ret
    f04c:	408005b3          	neg	a1,s0
    f050:	00090513          	mv	a0,s2
    f054:	c19ff0ef          	jal	ec6c <_sbrk_r>
    f058:	fff00793          	li	a5,-1
    f05c:	04f50a63          	beq	a0,a5,f0b0 <_malloc_trim_r+0x108>
    f060:	0001d7b7          	lui	a5,0x1d
    f064:	f7478793          	addi	a5,a5,-140 # 1cf74 <__malloc_current_mallinfo>
    f068:	0007a703          	lw	a4,0(a5)
    f06c:	0089a683          	lw	a3,8(s3)
    f070:	408484b3          	sub	s1,s1,s0
    f074:	0014e493          	ori	s1,s1,1
    f078:	40870733          	sub	a4,a4,s0
    f07c:	00090513          	mv	a0,s2
    f080:	0096a223          	sw	s1,4(a3)
    f084:	00e7a023          	sw	a4,0(a5)
    f088:	ac0ff0ef          	jal	e348 <__malloc_unlock>
    f08c:	01c12083          	lw	ra,28(sp)
    f090:	01812403          	lw	s0,24(sp)
    f094:	01412483          	lw	s1,20(sp)
    f098:	01012903          	lw	s2,16(sp)
    f09c:	00c12983          	lw	s3,12(sp)
    f0a0:	00812a03          	lw	s4,8(sp)
    f0a4:	00100513          	li	a0,1
    f0a8:	02010113          	addi	sp,sp,32
    f0ac:	00008067          	ret
    f0b0:	00000593          	li	a1,0
    f0b4:	00090513          	mv	a0,s2
    f0b8:	bb5ff0ef          	jal	ec6c <_sbrk_r>
    f0bc:	0089a703          	lw	a4,8(s3)
    f0c0:	00f00693          	li	a3,15
    f0c4:	40e507b3          	sub	a5,a0,a4
    f0c8:	f4f6dce3          	bge	a3,a5,f020 <_malloc_trim_r+0x78>
    f0cc:	8641a683          	lw	a3,-1948(gp) # 1a71c <__malloc_sbrk_base>
    f0d0:	0017e793          	ori	a5,a5,1
    f0d4:	00f72223          	sw	a5,4(a4) # 1004 <_start-0x6ffc>
    f0d8:	40d50533          	sub	a0,a0,a3
    f0dc:	0001d6b7          	lui	a3,0x1d
    f0e0:	f6a6aa23          	sw	a0,-140(a3) # 1cf74 <__malloc_current_mallinfo>
    f0e4:	f3dff06f          	j	f020 <_malloc_trim_r+0x78>

0000f0e8 <_free_r>:
    f0e8:	18058263          	beqz	a1,f26c <_free_r+0x184>
    f0ec:	ff010113          	addi	sp,sp,-16
    f0f0:	00812423          	sw	s0,8(sp)
    f0f4:	00912223          	sw	s1,4(sp)
    f0f8:	00058413          	mv	s0,a1
    f0fc:	00050493          	mv	s1,a0
    f100:	00112623          	sw	ra,12(sp)
    f104:	a40ff0ef          	jal	e344 <__malloc_lock>
    f108:	ffc42503          	lw	a0,-4(s0)
    f10c:	ff840713          	addi	a4,s0,-8
    f110:	0001a5b7          	lui	a1,0x1a
    f114:	ffe57793          	andi	a5,a0,-2
    f118:	00f70633          	add	a2,a4,a5
    f11c:	01058593          	addi	a1,a1,16 # 1a010 <__malloc_av_>
    f120:	00462683          	lw	a3,4(a2) # 2004 <_start-0x5ffc>
    f124:	0085a803          	lw	a6,8(a1)
    f128:	ffc6f693          	andi	a3,a3,-4
    f12c:	1ac80263          	beq	a6,a2,f2d0 <_free_r+0x1e8>
    f130:	00d62223          	sw	a3,4(a2)
    f134:	00157513          	andi	a0,a0,1
    f138:	00d60833          	add	a6,a2,a3
    f13c:	0a051063          	bnez	a0,f1dc <_free_r+0xf4>
    f140:	ff842303          	lw	t1,-8(s0)
    f144:	00482803          	lw	a6,4(a6)
    f148:	0001a537          	lui	a0,0x1a
    f14c:	40670733          	sub	a4,a4,t1
    f150:	00872883          	lw	a7,8(a4)
    f154:	01850513          	addi	a0,a0,24 # 1a018 <__malloc_av_+0x8>
    f158:	006787b3          	add	a5,a5,t1
    f15c:	00187813          	andi	a6,a6,1
    f160:	14a88263          	beq	a7,a0,f2a4 <_free_r+0x1bc>
    f164:	00c72303          	lw	t1,12(a4)
    f168:	0068a623          	sw	t1,12(a7)
    f16c:	01132423          	sw	a7,8(t1)
    f170:	1a080663          	beqz	a6,f31c <_free_r+0x234>
    f174:	0017e693          	ori	a3,a5,1
    f178:	00d72223          	sw	a3,4(a4)
    f17c:	00f62023          	sw	a5,0(a2)
    f180:	1ff00693          	li	a3,511
    f184:	06f6ec63          	bltu	a3,a5,f1fc <_free_r+0x114>
    f188:	ff87f693          	andi	a3,a5,-8
    f18c:	00868693          	addi	a3,a3,8
    f190:	0045a503          	lw	a0,4(a1)
    f194:	00d586b3          	add	a3,a1,a3
    f198:	0006a603          	lw	a2,0(a3)
    f19c:	0057d813          	srli	a6,a5,0x5
    f1a0:	00100793          	li	a5,1
    f1a4:	010797b3          	sll	a5,a5,a6
    f1a8:	00a7e7b3          	or	a5,a5,a0
    f1ac:	ff868513          	addi	a0,a3,-8
    f1b0:	00a72623          	sw	a0,12(a4)
    f1b4:	00c72423          	sw	a2,8(a4)
    f1b8:	00f5a223          	sw	a5,4(a1)
    f1bc:	00e6a023          	sw	a4,0(a3)
    f1c0:	00e62623          	sw	a4,12(a2)
    f1c4:	00812403          	lw	s0,8(sp)
    f1c8:	00c12083          	lw	ra,12(sp)
    f1cc:	00048513          	mv	a0,s1
    f1d0:	00412483          	lw	s1,4(sp)
    f1d4:	01010113          	addi	sp,sp,16
    f1d8:	970ff06f          	j	e348 <__malloc_unlock>
    f1dc:	00482503          	lw	a0,4(a6)
    f1e0:	00157513          	andi	a0,a0,1
    f1e4:	08050663          	beqz	a0,f270 <_free_r+0x188>
    f1e8:	0017e693          	ori	a3,a5,1
    f1ec:	fed42e23          	sw	a3,-4(s0)
    f1f0:	00f62023          	sw	a5,0(a2)
    f1f4:	1ff00693          	li	a3,511
    f1f8:	f8f6f8e3          	bgeu	a3,a5,f188 <_free_r+0xa0>
    f1fc:	0097d693          	srli	a3,a5,0x9
    f200:	00400613          	li	a2,4
    f204:	12d66063          	bltu	a2,a3,f324 <_free_r+0x23c>
    f208:	0067d693          	srli	a3,a5,0x6
    f20c:	03968513          	addi	a0,a3,57
    f210:	03868613          	addi	a2,a3,56
    f214:	00351513          	slli	a0,a0,0x3
    f218:	00a58533          	add	a0,a1,a0
    f21c:	00052683          	lw	a3,0(a0)
    f220:	ff850513          	addi	a0,a0,-8
    f224:	00d51863          	bne	a0,a3,f234 <_free_r+0x14c>
    f228:	1540006f          	j	f37c <_free_r+0x294>
    f22c:	0086a683          	lw	a3,8(a3)
    f230:	00d50863          	beq	a0,a3,f240 <_free_r+0x158>
    f234:	0046a603          	lw	a2,4(a3)
    f238:	ffc67613          	andi	a2,a2,-4
    f23c:	fec7e8e3          	bltu	a5,a2,f22c <_free_r+0x144>
    f240:	00c6a503          	lw	a0,12(a3)
    f244:	00a72623          	sw	a0,12(a4)
    f248:	00d72423          	sw	a3,8(a4)
    f24c:	00812403          	lw	s0,8(sp)
    f250:	00e52423          	sw	a4,8(a0)
    f254:	00c12083          	lw	ra,12(sp)
    f258:	00048513          	mv	a0,s1
    f25c:	00412483          	lw	s1,4(sp)
    f260:	00e6a623          	sw	a4,12(a3)
    f264:	01010113          	addi	sp,sp,16
    f268:	8e0ff06f          	j	e348 <__malloc_unlock>
    f26c:	00008067          	ret
    f270:	0001a537          	lui	a0,0x1a
    f274:	00d787b3          	add	a5,a5,a3
    f278:	01850513          	addi	a0,a0,24 # 1a018 <__malloc_av_+0x8>
    f27c:	00862683          	lw	a3,8(a2)
    f280:	0ca68c63          	beq	a3,a0,f358 <_free_r+0x270>
    f284:	00c62803          	lw	a6,12(a2)
    f288:	0017e513          	ori	a0,a5,1
    f28c:	00f70633          	add	a2,a4,a5
    f290:	0106a623          	sw	a6,12(a3)
    f294:	00d82423          	sw	a3,8(a6)
    f298:	00a72223          	sw	a0,4(a4)
    f29c:	00f62023          	sw	a5,0(a2)
    f2a0:	ee1ff06f          	j	f180 <_free_r+0x98>
    f2a4:	12081c63          	bnez	a6,f3dc <_free_r+0x2f4>
    f2a8:	00862583          	lw	a1,8(a2)
    f2ac:	00c62603          	lw	a2,12(a2)
    f2b0:	00f686b3          	add	a3,a3,a5
    f2b4:	0016e793          	ori	a5,a3,1
    f2b8:	00c5a623          	sw	a2,12(a1)
    f2bc:	00b62423          	sw	a1,8(a2)
    f2c0:	00f72223          	sw	a5,4(a4)
    f2c4:	00d70733          	add	a4,a4,a3
    f2c8:	00d72023          	sw	a3,0(a4)
    f2cc:	ef9ff06f          	j	f1c4 <_free_r+0xdc>
    f2d0:	00157513          	andi	a0,a0,1
    f2d4:	00d786b3          	add	a3,a5,a3
    f2d8:	02051063          	bnez	a0,f2f8 <_free_r+0x210>
    f2dc:	ff842503          	lw	a0,-8(s0)
    f2e0:	40a70733          	sub	a4,a4,a0
    f2e4:	00c72783          	lw	a5,12(a4)
    f2e8:	00872603          	lw	a2,8(a4)
    f2ec:	00a686b3          	add	a3,a3,a0
    f2f0:	00f62623          	sw	a5,12(a2)
    f2f4:	00c7a423          	sw	a2,8(a5)
    f2f8:	0016e613          	ori	a2,a3,1
    f2fc:	8681a783          	lw	a5,-1944(gp) # 1a720 <__malloc_trim_threshold>
    f300:	00c72223          	sw	a2,4(a4)
    f304:	00e5a423          	sw	a4,8(a1)
    f308:	eaf6eee3          	bltu	a3,a5,f1c4 <_free_r+0xdc>
    f30c:	8b41a583          	lw	a1,-1868(gp) # 1a76c <__malloc_top_pad>
    f310:	00048513          	mv	a0,s1
    f314:	c95ff0ef          	jal	efa8 <_malloc_trim_r>
    f318:	eadff06f          	j	f1c4 <_free_r+0xdc>
    f31c:	00d787b3          	add	a5,a5,a3
    f320:	f5dff06f          	j	f27c <_free_r+0x194>
    f324:	01400613          	li	a2,20
    f328:	02d67063          	bgeu	a2,a3,f348 <_free_r+0x260>
    f32c:	05400613          	li	a2,84
    f330:	06d66463          	bltu	a2,a3,f398 <_free_r+0x2b0>
    f334:	00c7d693          	srli	a3,a5,0xc
    f338:	06f68513          	addi	a0,a3,111
    f33c:	06e68613          	addi	a2,a3,110
    f340:	00351513          	slli	a0,a0,0x3
    f344:	ed5ff06f          	j	f218 <_free_r+0x130>
    f348:	05c68513          	addi	a0,a3,92
    f34c:	05b68613          	addi	a2,a3,91
    f350:	00351513          	slli	a0,a0,0x3
    f354:	ec5ff06f          	j	f218 <_free_r+0x130>
    f358:	00e5aa23          	sw	a4,20(a1)
    f35c:	00e5a823          	sw	a4,16(a1)
    f360:	0017e693          	ori	a3,a5,1
    f364:	00a72623          	sw	a0,12(a4)
    f368:	00a72423          	sw	a0,8(a4)
    f36c:	00d72223          	sw	a3,4(a4)
    f370:	00f70733          	add	a4,a4,a5
    f374:	00f72023          	sw	a5,0(a4)
    f378:	e4dff06f          	j	f1c4 <_free_r+0xdc>
    f37c:	0045a803          	lw	a6,4(a1)
    f380:	40265613          	srai	a2,a2,0x2
    f384:	00100793          	li	a5,1
    f388:	00c797b3          	sll	a5,a5,a2
    f38c:	0107e7b3          	or	a5,a5,a6
    f390:	00f5a223          	sw	a5,4(a1)
    f394:	eb1ff06f          	j	f244 <_free_r+0x15c>
    f398:	15400613          	li	a2,340
    f39c:	00d66c63          	bltu	a2,a3,f3b4 <_free_r+0x2cc>
    f3a0:	00f7d693          	srli	a3,a5,0xf
    f3a4:	07868513          	addi	a0,a3,120
    f3a8:	07768613          	addi	a2,a3,119
    f3ac:	00351513          	slli	a0,a0,0x3
    f3b0:	e69ff06f          	j	f218 <_free_r+0x130>
    f3b4:	55400613          	li	a2,1364
    f3b8:	00d66c63          	bltu	a2,a3,f3d0 <_free_r+0x2e8>
    f3bc:	0127d693          	srli	a3,a5,0x12
    f3c0:	07d68513          	addi	a0,a3,125
    f3c4:	07c68613          	addi	a2,a3,124
    f3c8:	00351513          	slli	a0,a0,0x3
    f3cc:	e4dff06f          	j	f218 <_free_r+0x130>
    f3d0:	3f800513          	li	a0,1016
    f3d4:	07e00613          	li	a2,126
    f3d8:	e41ff06f          	j	f218 <_free_r+0x130>
    f3dc:	0017e693          	ori	a3,a5,1
    f3e0:	00d72223          	sw	a3,4(a4)
    f3e4:	00f62023          	sw	a5,0(a2)
    f3e8:	dddff06f          	j	f1c4 <_free_r+0xdc>

0000f3ec <_vfprintf_r>:
    f3ec:	e3010113          	addi	sp,sp,-464
    f3f0:	1c112623          	sw	ra,460(sp)
    f3f4:	1c812423          	sw	s0,456(sp)
    f3f8:	1c912223          	sw	s1,452(sp)
    f3fc:	1b612823          	sw	s6,432(sp)
    f400:	00058493          	mv	s1,a1
    f404:	00060b13          	mv	s6,a2
    f408:	00d12a23          	sw	a3,20(sp)
    f40c:	00050413          	mv	s0,a0
    f410:	00a12423          	sw	a0,8(sp)
    f414:	024050ef          	jal	14438 <_localeconv_r>
    f418:	00052703          	lw	a4,0(a0)
    f41c:	00070513          	mv	a0,a4
    f420:	02e12823          	sw	a4,48(sp)
    f424:	9b1ff0ef          	jal	edd4 <strlen>
    f428:	02a12623          	sw	a0,44(sp)
    f42c:	0c012823          	sw	zero,208(sp)
    f430:	0c012a23          	sw	zero,212(sp)
    f434:	0c012c23          	sw	zero,216(sp)
    f438:	0c012e23          	sw	zero,220(sp)
    f43c:	00040863          	beqz	s0,f44c <_vfprintf_r+0x60>
    f440:	03442703          	lw	a4,52(s0)
    f444:	00071463          	bnez	a4,f44c <_vfprintf_r+0x60>
    f448:	1110106f          	j	10d58 <_vfprintf_r+0x196c>
    f44c:	00c49703          	lh	a4,12(s1)
    f450:	01271693          	slli	a3,a4,0x12
    f454:	0206c663          	bltz	a3,f480 <_vfprintf_r+0x94>
    f458:	0644a683          	lw	a3,100(s1)
    f45c:	000025b7          	lui	a1,0x2
    f460:	ffffe637          	lui	a2,0xffffe
    f464:	00b76733          	or	a4,a4,a1
    f468:	fff60613          	addi	a2,a2,-1 # ffffdfff <_end+0xfffe0d9b>
    f46c:	01071713          	slli	a4,a4,0x10
    f470:	41075713          	srai	a4,a4,0x10
    f474:	00c6f6b3          	and	a3,a3,a2
    f478:	00e49623          	sh	a4,12(s1)
    f47c:	06d4a223          	sw	a3,100(s1)
    f480:	00877693          	andi	a3,a4,8
    f484:	30068263          	beqz	a3,f788 <_vfprintf_r+0x39c>
    f488:	0104a683          	lw	a3,16(s1)
    f48c:	2e068e63          	beqz	a3,f788 <_vfprintf_r+0x39c>
    f490:	01a77713          	andi	a4,a4,26
    f494:	00a00693          	li	a3,10
    f498:	30d70a63          	beq	a4,a3,f7ac <_vfprintf_r+0x3c0>
    f49c:	1b312e23          	sw	s3,444(sp)
    f4a0:	1b412c23          	sw	s4,440(sp)
    f4a4:	1ba12023          	sw	s10,416(sp)
    f4a8:	0001a737          	lui	a4,0x1a
    f4ac:	1d212023          	sw	s2,448(sp)
    f4b0:	1b512a23          	sw	s5,436(sp)
    f4b4:	1b712623          	sw	s7,428(sp)
    f4b8:	1b812423          	sw	s8,424(sp)
    f4bc:	1b912223          	sw	s9,420(sp)
    f4c0:	19b12e23          	sw	s11,412(sp)
    f4c4:	000b0d13          	mv	s10,s6
    f4c8:	80870793          	addi	a5,a4,-2040 # 19808 <_getpid_r+0x6ec>
    f4cc:	000d4703          	lbu	a4,0(s10)
    f4d0:	0ec10993          	addi	s3,sp,236
    f4d4:	0001aa37          	lui	s4,0x1a
    f4d8:	0d312223          	sw	s3,196(sp)
    f4dc:	0c012623          	sw	zero,204(sp)
    f4e0:	0c012423          	sw	zero,200(sp)
    f4e4:	02012023          	sw	zero,32(sp)
    f4e8:	02012a23          	sw	zero,52(sp)
    f4ec:	04012023          	sw	zero,64(sp)
    f4f0:	02012e23          	sw	zero,60(sp)
    f4f4:	04012423          	sw	zero,72(sp)
    f4f8:	04012223          	sw	zero,68(sp)
    f4fc:	00012623          	sw	zero,12(sp)
    f500:	00f12c23          	sw	a5,24(sp)
    f504:	00098413          	mv	s0,s3
    f508:	a0ca0a13          	addi	s4,s4,-1524 # 19a0c <zeroes.0>
    f50c:	22070063          	beqz	a4,f72c <_vfprintf_r+0x340>
    f510:	000d0913          	mv	s2,s10
    f514:	02500693          	li	a3,37
    f518:	3ed70a63          	beq	a4,a3,f90c <_vfprintf_r+0x520>
    f51c:	00194703          	lbu	a4,1(s2)
    f520:	00190913          	addi	s2,s2,1
    f524:	fe071ae3          	bnez	a4,f518 <_vfprintf_r+0x12c>
    f528:	41a90ab3          	sub	s5,s2,s10
    f52c:	21a90063          	beq	s2,s10,f72c <_vfprintf_r+0x340>
    f530:	0cc12683          	lw	a3,204(sp)
    f534:	0c812703          	lw	a4,200(sp)
    f538:	01a42023          	sw	s10,0(s0)
    f53c:	015686b3          	add	a3,a3,s5
    f540:	00170713          	addi	a4,a4,1
    f544:	01542223          	sw	s5,4(s0)
    f548:	0cd12623          	sw	a3,204(sp)
    f54c:	0ce12423          	sw	a4,200(sp)
    f550:	00700693          	li	a3,7
    f554:	00840413          	addi	s0,s0,8
    f558:	3ce6c263          	blt	a3,a4,f91c <_vfprintf_r+0x530>
    f55c:	00c12783          	lw	a5,12(sp)
    f560:	00094703          	lbu	a4,0(s2)
    f564:	015787b3          	add	a5,a5,s5
    f568:	00f12623          	sw	a5,12(sp)
    f56c:	1c070063          	beqz	a4,f72c <_vfprintf_r+0x340>
    f570:	00194883          	lbu	a7,1(s2)
    f574:	0a0103a3          	sb	zero,167(sp)
    f578:	00190913          	addi	s2,s2,1
    f57c:	fff00a93          	li	s5,-1
    f580:	00000b93          	li	s7,0
    f584:	00000c93          	li	s9,0
    f588:	05a00b13          	li	s6,90
    f58c:	00190913          	addi	s2,s2,1
    f590:	fe088793          	addi	a5,a7,-32
    f594:	04fb6663          	bltu	s6,a5,f5e0 <_vfprintf_r+0x1f4>
    f598:	01812703          	lw	a4,24(sp)
    f59c:	00279793          	slli	a5,a5,0x2
    f5a0:	00e787b3          	add	a5,a5,a4
    f5a4:	0007a783          	lw	a5,0(a5)
    f5a8:	00078067          	jr	a5
    f5ac:	00000b93          	li	s7,0
    f5b0:	fd088793          	addi	a5,a7,-48
    f5b4:	00900693          	li	a3,9
    f5b8:	00094883          	lbu	a7,0(s2)
    f5bc:	002b9713          	slli	a4,s7,0x2
    f5c0:	01770bb3          	add	s7,a4,s7
    f5c4:	001b9b93          	slli	s7,s7,0x1
    f5c8:	01778bb3          	add	s7,a5,s7
    f5cc:	fd088793          	addi	a5,a7,-48
    f5d0:	00190913          	addi	s2,s2,1
    f5d4:	fef6f2e3          	bgeu	a3,a5,f5b8 <_vfprintf_r+0x1cc>
    f5d8:	fe088793          	addi	a5,a7,-32
    f5dc:	fafb7ee3          	bgeu	s6,a5,f598 <_vfprintf_r+0x1ac>
    f5e0:	14088663          	beqz	a7,f72c <_vfprintf_r+0x340>
    f5e4:	13110623          	sb	a7,300(sp)
    f5e8:	0a0103a3          	sb	zero,167(sp)
    f5ec:	00100d93          	li	s11,1
    f5f0:	00100b13          	li	s6,1
    f5f4:	12c10d13          	addi	s10,sp,300
    f5f8:	00012823          	sw	zero,16(sp)
    f5fc:	00000a93          	li	s5,0
    f600:	02012423          	sw	zero,40(sp)
    f604:	02012223          	sw	zero,36(sp)
    f608:	00012e23          	sw	zero,28(sp)
    f60c:	002cf293          	andi	t0,s9,2
    f610:	00028463          	beqz	t0,f618 <_vfprintf_r+0x22c>
    f614:	002d8d93          	addi	s11,s11,2
    f618:	084cff93          	andi	t6,s9,132
    f61c:	0cc12603          	lw	a2,204(sp)
    f620:	000f9663          	bnez	t6,f62c <_vfprintf_r+0x240>
    f624:	41bb8733          	sub	a4,s7,s11
    f628:	46e048e3          	bgtz	a4,10298 <_vfprintf_r+0xeac>
    f62c:	0a714703          	lbu	a4,167(sp)
    f630:	02070a63          	beqz	a4,f664 <_vfprintf_r+0x278>
    f634:	0c812703          	lw	a4,200(sp)
    f638:	0a710593          	addi	a1,sp,167
    f63c:	00b42023          	sw	a1,0(s0)
    f640:	00160613          	addi	a2,a2,1
    f644:	00100593          	li	a1,1
    f648:	00170713          	addi	a4,a4,1
    f64c:	00b42223          	sw	a1,4(s0)
    f650:	0cc12623          	sw	a2,204(sp)
    f654:	0ce12423          	sw	a4,200(sp)
    f658:	00700593          	li	a1,7
    f65c:	00840413          	addi	s0,s0,8
    f660:	3ee5c463          	blt	a1,a4,fa48 <_vfprintf_r+0x65c>
    f664:	02028a63          	beqz	t0,f698 <_vfprintf_r+0x2ac>
    f668:	0c812703          	lw	a4,200(sp)
    f66c:	00200593          	li	a1,2
    f670:	00260613          	addi	a2,a2,2
    f674:	00170713          	addi	a4,a4,1
    f678:	0a810793          	addi	a5,sp,168
    f67c:	00b42223          	sw	a1,4(s0)
    f680:	00f42023          	sw	a5,0(s0)
    f684:	0cc12623          	sw	a2,204(sp)
    f688:	0ce12423          	sw	a4,200(sp)
    f68c:	00700593          	li	a1,7
    f690:	00840413          	addi	s0,s0,8
    f694:	52e5c0e3          	blt	a1,a4,103b4 <_vfprintf_r+0xfc8>
    f698:	08000713          	li	a4,128
    f69c:	1eef84e3          	beq	t6,a4,10084 <_vfprintf_r+0xc98>
    f6a0:	416a8ab3          	sub	s5,s5,s6
    f6a4:	2f5042e3          	bgtz	s5,10188 <_vfprintf_r+0xd9c>
    f6a8:	100cf713          	andi	a4,s9,256
    f6ac:	040710e3          	bnez	a4,feec <_vfprintf_r+0xb00>
    f6b0:	0c812783          	lw	a5,200(sp)
    f6b4:	01660633          	add	a2,a2,s6
    f6b8:	01a42023          	sw	s10,0(s0)
    f6bc:	00178793          	addi	a5,a5,1
    f6c0:	01642223          	sw	s6,4(s0)
    f6c4:	0cc12623          	sw	a2,204(sp)
    f6c8:	0cf12423          	sw	a5,200(sp)
    f6cc:	00700713          	li	a4,7
    f6d0:	4af74c63          	blt	a4,a5,fb88 <_vfprintf_r+0x79c>
    f6d4:	00840413          	addi	s0,s0,8
    f6d8:	004cfe13          	andi	t3,s9,4
    f6dc:	000e0663          	beqz	t3,f6e8 <_vfprintf_r+0x2fc>
    f6e0:	41bb8ab3          	sub	s5,s7,s11
    f6e4:	515040e3          	bgtz	s5,103e4 <_vfprintf_r+0xff8>
    f6e8:	000b8313          	mv	t1,s7
    f6ec:	01bbd463          	bge	s7,s11,f6f4 <_vfprintf_r+0x308>
    f6f0:	000d8313          	mv	t1,s11
    f6f4:	00c12783          	lw	a5,12(sp)
    f6f8:	006787b3          	add	a5,a5,t1
    f6fc:	00f12623          	sw	a5,12(sp)
    f700:	360614e3          	bnez	a2,10268 <_vfprintf_r+0xe7c>
    f704:	01012783          	lw	a5,16(sp)
    f708:	0c012423          	sw	zero,200(sp)
    f70c:	00078863          	beqz	a5,f71c <_vfprintf_r+0x330>
    f710:	01012583          	lw	a1,16(sp)
    f714:	00812503          	lw	a0,8(sp)
    f718:	9d1ff0ef          	jal	f0e8 <_free_r>
    f71c:	00098413          	mv	s0,s3
    f720:	00090d13          	mv	s10,s2
    f724:	000d4703          	lbu	a4,0(s10)
    f728:	de0714e3          	bnez	a4,f510 <_vfprintf_r+0x124>
    f72c:	0cc12783          	lw	a5,204(sp)
    f730:	00078463          	beqz	a5,f738 <_vfprintf_r+0x34c>
    f734:	3b50106f          	j	112e8 <_vfprintf_r+0x1efc>
    f738:	00c4d783          	lhu	a5,12(s1)
    f73c:	1c012903          	lw	s2,448(sp)
    f740:	1bc12983          	lw	s3,444(sp)
    f744:	0407f793          	andi	a5,a5,64
    f748:	1b812a03          	lw	s4,440(sp)
    f74c:	1b412a83          	lw	s5,436(sp)
    f750:	1ac12b83          	lw	s7,428(sp)
    f754:	1a812c03          	lw	s8,424(sp)
    f758:	1a412c83          	lw	s9,420(sp)
    f75c:	1a012d03          	lw	s10,416(sp)
    f760:	19c12d83          	lw	s11,412(sp)
    f764:	00078463          	beqz	a5,f76c <_vfprintf_r+0x380>
    f768:	1740206f          	j	118dc <_vfprintf_r+0x24f0>
    f76c:	1cc12083          	lw	ra,460(sp)
    f770:	1c812403          	lw	s0,456(sp)
    f774:	00c12503          	lw	a0,12(sp)
    f778:	1c412483          	lw	s1,452(sp)
    f77c:	1b012b03          	lw	s6,432(sp)
    f780:	1d010113          	addi	sp,sp,464
    f784:	00008067          	ret
    f788:	00812503          	lw	a0,8(sp)
    f78c:	00048593          	mv	a1,s1
    f790:	748040ef          	jal	13ed8 <__swsetup_r>
    f794:	00050463          	beqz	a0,f79c <_vfprintf_r+0x3b0>
    f798:	1440206f          	j	118dc <_vfprintf_r+0x24f0>
    f79c:	00c49703          	lh	a4,12(s1)
    f7a0:	00a00693          	li	a3,10
    f7a4:	01a77713          	andi	a4,a4,26
    f7a8:	ced71ae3          	bne	a4,a3,f49c <_vfprintf_r+0xb0>
    f7ac:	00e49703          	lh	a4,14(s1)
    f7b0:	ce0746e3          	bltz	a4,f49c <_vfprintf_r+0xb0>
    f7b4:	01412683          	lw	a3,20(sp)
    f7b8:	00812503          	lw	a0,8(sp)
    f7bc:	000b0613          	mv	a2,s6
    f7c0:	00048593          	mv	a1,s1
    f7c4:	4c4020ef          	jal	11c88 <__sbprintf>
    f7c8:	00a12623          	sw	a0,12(sp)
    f7cc:	fa1ff06f          	j	f76c <_vfprintf_r+0x380>
    f7d0:	00812c03          	lw	s8,8(sp)
    f7d4:	000c0513          	mv	a0,s8
    f7d8:	461040ef          	jal	14438 <_localeconv_r>
    f7dc:	00452783          	lw	a5,4(a0)
    f7e0:	00078513          	mv	a0,a5
    f7e4:	04f12223          	sw	a5,68(sp)
    f7e8:	decff0ef          	jal	edd4 <strlen>
    f7ec:	00050793          	mv	a5,a0
    f7f0:	000c0513          	mv	a0,s8
    f7f4:	04f12423          	sw	a5,72(sp)
    f7f8:	00078c13          	mv	s8,a5
    f7fc:	43d040ef          	jal	14438 <_localeconv_r>
    f800:	00852703          	lw	a4,8(a0)
    f804:	02e12e23          	sw	a4,60(sp)
    f808:	740c1ae3          	bnez	s8,1075c <_vfprintf_r+0x1370>
    f80c:	00094883          	lbu	a7,0(s2)
    f810:	d7dff06f          	j	f58c <_vfprintf_r+0x1a0>
    f814:	00094883          	lbu	a7,0(s2)
    f818:	020cec93          	ori	s9,s9,32
    f81c:	d71ff06f          	j	f58c <_vfprintf_r+0x1a0>
    f820:	010cec93          	ori	s9,s9,16
    f824:	020cf793          	andi	a5,s9,32
    f828:	3a078863          	beqz	a5,fbd8 <_vfprintf_r+0x7ec>
    f82c:	01412783          	lw	a5,20(sp)
    f830:	00778c13          	addi	s8,a5,7
    f834:	ff8c7c13          	andi	s8,s8,-8
    f838:	004c2783          	lw	a5,4(s8)
    f83c:	000c2b03          	lw	s6,0(s8)
    f840:	008c0713          	addi	a4,s8,8
    f844:	00e12a23          	sw	a4,20(sp)
    f848:	00078d93          	mv	s11,a5
    f84c:	3c07c063          	bltz	a5,fc0c <_vfprintf_r+0x820>
    f850:	000c8e93          	mv	t4,s9
    f854:	4e0ac463          	bltz	s5,fd3c <_vfprintf_r+0x950>
    f858:	01bb67b3          	or	a5,s6,s11
    f85c:	f7fcfe93          	andi	t4,s9,-129
    f860:	4c079e63          	bnez	a5,fd3c <_vfprintf_r+0x950>
    f864:	4e0a9263          	bnez	s5,fd48 <_vfprintf_r+0x95c>
    f868:	00000b13          	li	s6,0
    f86c:	000e8c93          	mv	s9,t4
    f870:	19010d13          	addi	s10,sp,400
    f874:	0a714703          	lbu	a4,167(sp)
    f878:	000a8d93          	mv	s11,s5
    f87c:	016ad463          	bge	s5,s6,f884 <_vfprintf_r+0x498>
    f880:	000b0d93          	mv	s11,s6
    f884:	00012823          	sw	zero,16(sp)
    f888:	02012423          	sw	zero,40(sp)
    f88c:	02012223          	sw	zero,36(sp)
    f890:	00012e23          	sw	zero,28(sp)
    f894:	d6070ce3          	beqz	a4,f60c <_vfprintf_r+0x220>
    f898:	001d8d93          	addi	s11,s11,1
    f89c:	d71ff06f          	j	f60c <_vfprintf_r+0x220>
    f8a0:	010cec93          	ori	s9,s9,16
    f8a4:	020cf793          	andi	a5,s9,32
    f8a8:	30078063          	beqz	a5,fba8 <_vfprintf_r+0x7bc>
    f8ac:	01412783          	lw	a5,20(sp)
    f8b0:	00778c13          	addi	s8,a5,7
    f8b4:	ff8c7c13          	andi	s8,s8,-8
    f8b8:	000c2b03          	lw	s6,0(s8)
    f8bc:	004c2d83          	lw	s11,4(s8)
    f8c0:	008c0793          	addi	a5,s8,8
    f8c4:	00f12a23          	sw	a5,20(sp)
    f8c8:	bffcfe93          	andi	t4,s9,-1025
    f8cc:	00000793          	li	a5,0
    f8d0:	00000713          	li	a4,0
    f8d4:	0ae103a3          	sb	a4,167(sp)
    f8d8:	340acc63          	bltz	s5,fc30 <_vfprintf_r+0x844>
    f8dc:	01bb6733          	or	a4,s6,s11
    f8e0:	f7fefc93          	andi	s9,t4,-129
    f8e4:	1a0716e3          	bnez	a4,10290 <_vfprintf_r+0xea4>
    f8e8:	740a9063          	bnez	s5,10028 <_vfprintf_r+0xc3c>
    f8ec:	5e0794e3          	bnez	a5,106d4 <_vfprintf_r+0x12e8>
    f8f0:	001efb13          	andi	s6,t4,1
    f8f4:	19010d13          	addi	s10,sp,400
    f8f8:	f60b0ee3          	beqz	s6,f874 <_vfprintf_r+0x488>
    f8fc:	03000793          	li	a5,48
    f900:	18f107a3          	sb	a5,399(sp)
    f904:	18f10d13          	addi	s10,sp,399
    f908:	f6dff06f          	j	f874 <_vfprintf_r+0x488>
    f90c:	41a90ab3          	sub	s5,s2,s10
    f910:	c3a910e3          	bne	s2,s10,f530 <_vfprintf_r+0x144>
    f914:	00094703          	lbu	a4,0(s2)
    f918:	c55ff06f          	j	f56c <_vfprintf_r+0x180>
    f91c:	00812503          	lw	a0,8(sp)
    f920:	0c410613          	addi	a2,sp,196
    f924:	00048593          	mv	a1,s1
    f928:	550020ef          	jal	11e78 <__sprint_r>
    f92c:	e00516e3          	bnez	a0,f738 <_vfprintf_r+0x34c>
    f930:	00098413          	mv	s0,s3
    f934:	c29ff06f          	j	f55c <_vfprintf_r+0x170>
    f938:	008cf713          	andi	a4,s9,8
    f93c:	5e071ee3          	bnez	a4,10738 <_vfprintf_r+0x134c>
    f940:	01412783          	lw	a5,20(sp)
    f944:	09010513          	addi	a0,sp,144
    f948:	01112823          	sw	a7,16(sp)
    f94c:	00778c13          	addi	s8,a5,7
    f950:	ff8c7c13          	andi	s8,s8,-8
    f954:	000c2583          	lw	a1,0(s8)
    f958:	004c2603          	lw	a2,4(s8)
    f95c:	008c0793          	addi	a5,s8,8
    f960:	00f12a23          	sw	a5,20(sp)
    f964:	f94fd0ef          	jal	d0f8 <__extenddftf2>
    f968:	09012583          	lw	a1,144(sp)
    f96c:	09412603          	lw	a2,148(sp)
    f970:	09812683          	lw	a3,152(sp)
    f974:	09c12703          	lw	a4,156(sp)
    f978:	01012883          	lw	a7,16(sp)
    f97c:	0d010513          	addi	a0,sp,208
    f980:	01112823          	sw	a7,16(sp)
    f984:	0ce12e23          	sw	a4,220(sp)
    f988:	0cb12823          	sw	a1,208(sp)
    f98c:	0cc12a23          	sw	a2,212(sp)
    f990:	0cd12c23          	sw	a3,216(sp)
    f994:	2a0050ef          	jal	14c34 <_ldcheck>
    f998:	0aa12623          	sw	a0,172(sp)
    f99c:	00200713          	li	a4,2
    f9a0:	01012883          	lw	a7,16(sp)
    f9a4:	00e51463          	bne	a0,a4,f9ac <_vfprintf_r+0x5c0>
    f9a8:	4080106f          	j	10db0 <_vfprintf_r+0x19c4>
    f9ac:	00100713          	li	a4,1
    f9b0:	00e51463          	bne	a0,a4,f9b8 <_vfprintf_r+0x5cc>
    f9b4:	5540106f          	j	10f08 <_vfprintf_r+0x1b1c>
    f9b8:	06100713          	li	a4,97
    f9bc:	00e89463          	bne	a7,a4,f9c4 <_vfprintf_r+0x5d8>
    f9c0:	7a10006f          	j	10960 <_vfprintf_r+0x1574>
    f9c4:	04100713          	li	a4,65
    f9c8:	05800793          	li	a5,88
    f9cc:	78e88ce3          	beq	a7,a4,10964 <_vfprintf_r+0x1578>
    f9d0:	fff00713          	li	a4,-1
    f9d4:	00ea9463          	bne	s5,a4,f9dc <_vfprintf_r+0x5f0>
    f9d8:	0f80206f          	j	11ad0 <_vfprintf_r+0x26e4>
    f9dc:	fdf8f713          	andi	a4,a7,-33
    f9e0:	04700693          	li	a3,71
    f9e4:	00012823          	sw	zero,16(sp)
    f9e8:	00d71663          	bne	a4,a3,f9f4 <_vfprintf_r+0x608>
    f9ec:	000a9463          	bnez	s5,f9f4 <_vfprintf_r+0x608>
    f9f0:	00100a93          	li	s5,1
    f9f4:	0dc12c03          	lw	s8,220(sp)
    f9f8:	100ce793          	ori	a5,s9,256
    f9fc:	04f12623          	sw	a5,76(sp)
    fa00:	02012c23          	sw	zero,56(sp)
    fa04:	0d012f83          	lw	t6,208(sp)
    fa08:	0d412f03          	lw	t5,212(sp)
    fa0c:	0d812e83          	lw	t4,216(sp)
    fa10:	000c5a63          	bgez	s8,fa24 <_vfprintf_r+0x638>
    fa14:	80000737          	lui	a4,0x80000
    fa18:	02d00793          	li	a5,45
    fa1c:	01874c33          	xor	s8,a4,s8
    fa20:	02f12c23          	sw	a5,56(sp)
    fa24:	fbf88713          	addi	a4,a7,-65
    fa28:	02500693          	li	a3,37
    fa2c:	78e6e0e3          	bltu	a3,a4,109ac <_vfprintf_r+0x15c0>
    fa30:	0001a6b7          	lui	a3,0x1a
    fa34:	00271713          	slli	a4,a4,0x2
    fa38:	97468693          	addi	a3,a3,-1676 # 19974 <_getpid_r+0x858>
    fa3c:	00d70733          	add	a4,a4,a3
    fa40:	00072703          	lw	a4,0(a4) # 80000000 <_end+0x7ffe2d9c>
    fa44:	00070067          	jr	a4
    fa48:	00812503          	lw	a0,8(sp)
    fa4c:	0c410613          	addi	a2,sp,196
    fa50:	00048593          	mv	a1,s1
    fa54:	05112823          	sw	a7,80(sp)
    fa58:	05f12623          	sw	t6,76(sp)
    fa5c:	02512c23          	sw	t0,56(sp)
    fa60:	418020ef          	jal	11e78 <__sprint_r>
    fa64:	00051ce3          	bnez	a0,1027c <_vfprintf_r+0xe90>
    fa68:	0cc12603          	lw	a2,204(sp)
    fa6c:	05012883          	lw	a7,80(sp)
    fa70:	04c12f83          	lw	t6,76(sp)
    fa74:	03812283          	lw	t0,56(sp)
    fa78:	00098413          	mv	s0,s3
    fa7c:	be9ff06f          	j	f664 <_vfprintf_r+0x278>
    fa80:	0c812a83          	lw	s5,200(sp)
    fa84:	02012783          	lw	a5,32(sp)
    fa88:	00100713          	li	a4,1
    fa8c:	01a42023          	sw	s10,0(s0)
    fa90:	00160c13          	addi	s8,a2,1
    fa94:	001a8a93          	addi	s5,s5,1
    fa98:	00840b13          	addi	s6,s0,8
    fa9c:	34f752e3          	bge	a4,a5,105e0 <_vfprintf_r+0x11f4>
    faa0:	00100713          	li	a4,1
    faa4:	00e42223          	sw	a4,4(s0)
    faa8:	0d812623          	sw	s8,204(sp)
    faac:	0d512423          	sw	s5,200(sp)
    fab0:	00700713          	li	a4,7
    fab4:	01575463          	bge	a4,s5,fabc <_vfprintf_r+0x6d0>
    fab8:	0bc0106f          	j	10b74 <_vfprintf_r+0x1788>
    fabc:	02c12783          	lw	a5,44(sp)
    fac0:	03012703          	lw	a4,48(sp)
    fac4:	001a8a93          	addi	s5,s5,1
    fac8:	00fc0c33          	add	s8,s8,a5
    facc:	00eb2023          	sw	a4,0(s6)
    fad0:	00fb2223          	sw	a5,4(s6)
    fad4:	0d812623          	sw	s8,204(sp)
    fad8:	0d512423          	sw	s5,200(sp)
    fadc:	00700713          	li	a4,7
    fae0:	008b0b13          	addi	s6,s6,8
    fae4:	01575463          	bge	a4,s5,faec <_vfprintf_r+0x700>
    fae8:	0b00106f          	j	10b98 <_vfprintf_r+0x17ac>
    faec:	0d012703          	lw	a4,208(sp)
    faf0:	02012783          	lw	a5,32(sp)
    faf4:	08010593          	addi	a1,sp,128
    faf8:	08e12823          	sw	a4,144(sp)
    fafc:	0d412703          	lw	a4,212(sp)
    fb00:	09010513          	addi	a0,sp,144
    fb04:	08012023          	sw	zero,128(sp)
    fb08:	08e12a23          	sw	a4,148(sp)
    fb0c:	0d812703          	lw	a4,216(sp)
    fb10:	08012223          	sw	zero,132(sp)
    fb14:	08012423          	sw	zero,136(sp)
    fb18:	08e12c23          	sw	a4,152(sp)
    fb1c:	0dc12703          	lw	a4,220(sp)
    fb20:	08012623          	sw	zero,140(sp)
    fb24:	fff78413          	addi	s0,a5,-1
    fb28:	08e12e23          	sw	a4,156(sp)
    fb2c:	b35fa0ef          	jal	a660 <__eqtf2>
    fb30:	2e0508e3          	beqz	a0,10620 <_vfprintf_r+0x1234>
    fb34:	001d0793          	addi	a5,s10,1
    fb38:	001a8a93          	addi	s5,s5,1
    fb3c:	008c0c33          	add	s8,s8,s0
    fb40:	00fb2023          	sw	a5,0(s6)
    fb44:	008b2223          	sw	s0,4(s6)
    fb48:	0d812623          	sw	s8,204(sp)
    fb4c:	0d512423          	sw	s5,200(sp)
    fb50:	00700793          	li	a5,7
    fb54:	008b0b13          	addi	s6,s6,8
    fb58:	2b57c2e3          	blt	a5,s5,105fc <_vfprintf_r+0x1210>
    fb5c:	04012683          	lw	a3,64(sp)
    fb60:	0b410713          	addi	a4,sp,180
    fb64:	001a8793          	addi	a5,s5,1
    fb68:	01868633          	add	a2,a3,s8
    fb6c:	00eb2023          	sw	a4,0(s6)
    fb70:	00db2223          	sw	a3,4(s6)
    fb74:	0cc12623          	sw	a2,204(sp)
    fb78:	0cf12423          	sw	a5,200(sp)
    fb7c:	00700713          	li	a4,7
    fb80:	008b0413          	addi	s0,s6,8
    fb84:	b4f75ae3          	bge	a4,a5,f6d8 <_vfprintf_r+0x2ec>
    fb88:	00812503          	lw	a0,8(sp)
    fb8c:	0c410613          	addi	a2,sp,196
    fb90:	00048593          	mv	a1,s1
    fb94:	2e4020ef          	jal	11e78 <__sprint_r>
    fb98:	6e051263          	bnez	a0,1027c <_vfprintf_r+0xe90>
    fb9c:	0cc12603          	lw	a2,204(sp)
    fba0:	00098413          	mv	s0,s3
    fba4:	b35ff06f          	j	f6d8 <_vfprintf_r+0x2ec>
    fba8:	01412703          	lw	a4,20(sp)
    fbac:	010cf793          	andi	a5,s9,16
    fbb0:	00072b03          	lw	s6,0(a4)
    fbb4:	00470713          	addi	a4,a4,4
    fbb8:	00e12a23          	sw	a4,20(sp)
    fbbc:	36079ae3          	bnez	a5,10730 <_vfprintf_r+0x1344>
    fbc0:	040cf793          	andi	a5,s9,64
    fbc4:	360782e3          	beqz	a5,10728 <_vfprintf_r+0x133c>
    fbc8:	010b1b13          	slli	s6,s6,0x10
    fbcc:	010b5b13          	srli	s6,s6,0x10
    fbd0:	00000d93          	li	s11,0
    fbd4:	cf5ff06f          	j	f8c8 <_vfprintf_r+0x4dc>
    fbd8:	01412703          	lw	a4,20(sp)
    fbdc:	010cf793          	andi	a5,s9,16
    fbe0:	00072b03          	lw	s6,0(a4)
    fbe4:	00470713          	addi	a4,a4,4
    fbe8:	00e12a23          	sw	a4,20(sp)
    fbec:	320798e3          	bnez	a5,1071c <_vfprintf_r+0x1330>
    fbf0:	040cf793          	andi	a5,s9,64
    fbf4:	320780e3          	beqz	a5,10714 <_vfprintf_r+0x1328>
    fbf8:	010b1b13          	slli	s6,s6,0x10
    fbfc:	410b5b13          	srai	s6,s6,0x10
    fc00:	41fb5d93          	srai	s11,s6,0x1f
    fc04:	000d8793          	mv	a5,s11
    fc08:	c407d4e3          	bgez	a5,f850 <_vfprintf_r+0x464>
    fc0c:	02d00713          	li	a4,45
    fc10:	016037b3          	snez	a5,s6
    fc14:	41b00db3          	neg	s11,s11
    fc18:	0ae103a3          	sb	a4,167(sp)
    fc1c:	40fd8db3          	sub	s11,s11,a5
    fc20:	41600b33          	neg	s6,s6
    fc24:	000c8e93          	mv	t4,s9
    fc28:	00100793          	li	a5,1
    fc2c:	ca0ad8e3          	bgez	s5,f8dc <_vfprintf_r+0x4f0>
    fc30:	00100713          	li	a4,1
    fc34:	10e78463          	beq	a5,a4,fd3c <_vfprintf_r+0x950>
    fc38:	00200713          	li	a4,2
    fc3c:	40e78263          	beq	a5,a4,10040 <_vfprintf_r+0xc54>
    fc40:	19010d13          	addi	s10,sp,400
    fc44:	01dd9793          	slli	a5,s11,0x1d
    fc48:	007b7713          	andi	a4,s6,7
    fc4c:	003b5b13          	srli	s6,s6,0x3
    fc50:	03070713          	addi	a4,a4,48
    fc54:	0167eb33          	or	s6,a5,s6
    fc58:	003ddd93          	srli	s11,s11,0x3
    fc5c:	feed0fa3          	sb	a4,-1(s10)
    fc60:	01bb67b3          	or	a5,s6,s11
    fc64:	000d0613          	mv	a2,s10
    fc68:	fffd0d13          	addi	s10,s10,-1
    fc6c:	fc079ce3          	bnez	a5,fc44 <_vfprintf_r+0x858>
    fc70:	001ef693          	andi	a3,t4,1
    fc74:	40068063          	beqz	a3,10074 <_vfprintf_r+0xc88>
    fc78:	03000693          	li	a3,48
    fc7c:	3ed70c63          	beq	a4,a3,10074 <_vfprintf_r+0xc88>
    fc80:	ffe60613          	addi	a2,a2,-2
    fc84:	19010793          	addi	a5,sp,400
    fc88:	fedd0fa3          	sb	a3,-1(s10)
    fc8c:	40c78b33          	sub	s6,a5,a2
    fc90:	000e8c93          	mv	s9,t4
    fc94:	00060d13          	mv	s10,a2
    fc98:	bddff06f          	j	f874 <_vfprintf_r+0x488>
    fc9c:	01412703          	lw	a4,20(sp)
    fca0:	0a0103a3          	sb	zero,167(sp)
    fca4:	00100d93          	li	s11,1
    fca8:	00072783          	lw	a5,0(a4)
    fcac:	00470713          	addi	a4,a4,4
    fcb0:	00e12a23          	sw	a4,20(sp)
    fcb4:	12f10623          	sb	a5,300(sp)
    fcb8:	00100b13          	li	s6,1
    fcbc:	12c10d13          	addi	s10,sp,300
    fcc0:	939ff06f          	j	f5f8 <_vfprintf_r+0x20c>
    fcc4:	01412783          	lw	a5,20(sp)
    fcc8:	0a0103a3          	sb	zero,167(sp)
    fccc:	0007ad03          	lw	s10,0(a5)
    fcd0:	00478c13          	addi	s8,a5,4
    fcd4:	3a0d02e3          	beqz	s10,10878 <_vfprintf_r+0x148c>
    fcd8:	000ad463          	bgez	s5,fce0 <_vfprintf_r+0x8f4>
    fcdc:	1cc0106f          	j	10ea8 <_vfprintf_r+0x1abc>
    fce0:	000a8613          	mv	a2,s5
    fce4:	00000593          	li	a1,0
    fce8:	000d0513          	mv	a0,s10
    fcec:	01112a23          	sw	a7,20(sp)
    fcf0:	4c4040ef          	jal	141b4 <memchr>
    fcf4:	00a12823          	sw	a0,16(sp)
    fcf8:	01412883          	lw	a7,20(sp)
    fcfc:	00051463          	bnez	a0,fd04 <_vfprintf_r+0x918>
    fd00:	3650106f          	j	11864 <_vfprintf_r+0x2478>
    fd04:	01012783          	lw	a5,16(sp)
    fd08:	0a714703          	lbu	a4,167(sp)
    fd0c:	01812a23          	sw	s8,20(sp)
    fd10:	41a78b33          	sub	s6,a5,s10
    fd14:	fffb4693          	not	a3,s6
    fd18:	41f6d693          	srai	a3,a3,0x1f
    fd1c:	00012823          	sw	zero,16(sp)
    fd20:	02012423          	sw	zero,40(sp)
    fd24:	02012223          	sw	zero,36(sp)
    fd28:	00012e23          	sw	zero,28(sp)
    fd2c:	00db7db3          	and	s11,s6,a3
    fd30:	00000a93          	li	s5,0
    fd34:	b60712e3          	bnez	a4,f898 <_vfprintf_r+0x4ac>
    fd38:	8d5ff06f          	j	f60c <_vfprintf_r+0x220>
    fd3c:	680d98e3          	bnez	s11,10bcc <_vfprintf_r+0x17e0>
    fd40:	00900793          	li	a5,9
    fd44:	6967e4e3          	bltu	a5,s6,10bcc <_vfprintf_r+0x17e0>
    fd48:	030b0b13          	addi	s6,s6,48
    fd4c:	196107a3          	sb	s6,399(sp)
    fd50:	000e8c93          	mv	s9,t4
    fd54:	00100b13          	li	s6,1
    fd58:	18f10d13          	addi	s10,sp,399
    fd5c:	b19ff06f          	j	f874 <_vfprintf_r+0x488>
    fd60:	01412783          	lw	a5,20(sp)
    fd64:	0007ab83          	lw	s7,0(a5)
    fd68:	00478793          	addi	a5,a5,4
    fd6c:	180bd2e3          	bgez	s7,106f0 <_vfprintf_r+0x1304>
    fd70:	41700bb3          	neg	s7,s7
    fd74:	00f12a23          	sw	a5,20(sp)
    fd78:	00094883          	lbu	a7,0(s2)
    fd7c:	004cec93          	ori	s9,s9,4
    fd80:	80dff06f          	j	f58c <_vfprintf_r+0x1a0>
    fd84:	010cee93          	ori	t4,s9,16
    fd88:	020ef793          	andi	a5,t4,32
    fd8c:	10078ae3          	beqz	a5,106a0 <_vfprintf_r+0x12b4>
    fd90:	01412783          	lw	a5,20(sp)
    fd94:	00778c13          	addi	s8,a5,7
    fd98:	ff8c7c13          	andi	s8,s8,-8
    fd9c:	008c0793          	addi	a5,s8,8
    fda0:	00f12a23          	sw	a5,20(sp)
    fda4:	000c2b03          	lw	s6,0(s8)
    fda8:	004c2d83          	lw	s11,4(s8)
    fdac:	00100793          	li	a5,1
    fdb0:	b21ff06f          	j	f8d0 <_vfprintf_r+0x4e4>
    fdb4:	02b00793          	li	a5,43
    fdb8:	00094883          	lbu	a7,0(s2)
    fdbc:	0af103a3          	sb	a5,167(sp)
    fdc0:	fccff06f          	j	f58c <_vfprintf_r+0x1a0>
    fdc4:	01412703          	lw	a4,20(sp)
    fdc8:	000087b7          	lui	a5,0x8
    fdcc:	83078793          	addi	a5,a5,-2000 # 7830 <_start-0x7d0>
    fdd0:	0af11423          	sh	a5,168(sp)
    fdd4:	00470793          	addi	a5,a4,4
    fdd8:	00f12a23          	sw	a5,20(sp)
    fddc:	000197b7          	lui	a5,0x19
    fde0:	71078793          	addi	a5,a5,1808 # 19710 <_getpid_r+0x5f4>
    fde4:	02f12a23          	sw	a5,52(sp)
    fde8:	00072b03          	lw	s6,0(a4)
    fdec:	00000d93          	li	s11,0
    fdf0:	002cee93          	ori	t4,s9,2
    fdf4:	00200793          	li	a5,2
    fdf8:	07800893          	li	a7,120
    fdfc:	ad5ff06f          	j	f8d0 <_vfprintf_r+0x4e4>
    fe00:	020cf793          	andi	a5,s9,32
    fe04:	16078ee3          	beqz	a5,10780 <_vfprintf_r+0x1394>
    fe08:	01412783          	lw	a5,20(sp)
    fe0c:	00c12683          	lw	a3,12(sp)
    fe10:	0007a783          	lw	a5,0(a5)
    fe14:	41f6d713          	srai	a4,a3,0x1f
    fe18:	00d7a023          	sw	a3,0(a5)
    fe1c:	00e7a223          	sw	a4,4(a5)
    fe20:	01412783          	lw	a5,20(sp)
    fe24:	00090d13          	mv	s10,s2
    fe28:	00478793          	addi	a5,a5,4
    fe2c:	00f12a23          	sw	a5,20(sp)
    fe30:	8f5ff06f          	j	f724 <_vfprintf_r+0x338>
    fe34:	00094883          	lbu	a7,0(s2)
    fe38:	06c00793          	li	a5,108
    fe3c:	22f886e3          	beq	a7,a5,10868 <_vfprintf_r+0x147c>
    fe40:	010cec93          	ori	s9,s9,16
    fe44:	f48ff06f          	j	f58c <_vfprintf_r+0x1a0>
    fe48:	00094883          	lbu	a7,0(s2)
    fe4c:	06800793          	li	a5,104
    fe50:	20f884e3          	beq	a7,a5,10858 <_vfprintf_r+0x146c>
    fe54:	040cec93          	ori	s9,s9,64
    fe58:	f34ff06f          	j	f58c <_vfprintf_r+0x1a0>
    fe5c:	00094883          	lbu	a7,0(s2)
    fe60:	008cec93          	ori	s9,s9,8
    fe64:	f28ff06f          	j	f58c <_vfprintf_r+0x1a0>
    fe68:	00094883          	lbu	a7,0(s2)
    fe6c:	001cec93          	ori	s9,s9,1
    fe70:	f1cff06f          	j	f58c <_vfprintf_r+0x1a0>
    fe74:	0a714783          	lbu	a5,167(sp)
    fe78:	00094883          	lbu	a7,0(s2)
    fe7c:	f0079863          	bnez	a5,f58c <_vfprintf_r+0x1a0>
    fe80:	02000793          	li	a5,32
    fe84:	0af103a3          	sb	a5,167(sp)
    fe88:	f04ff06f          	j	f58c <_vfprintf_r+0x1a0>
    fe8c:	00094883          	lbu	a7,0(s2)
    fe90:	080cec93          	ori	s9,s9,128
    fe94:	ef8ff06f          	j	f58c <_vfprintf_r+0x1a0>
    fe98:	00094883          	lbu	a7,0(s2)
    fe9c:	02a00793          	li	a5,42
    fea0:	00190693          	addi	a3,s2,1
    fea4:	00f89463          	bne	a7,a5,feac <_vfprintf_r+0xac0>
    fea8:	57d0106f          	j	11c24 <_vfprintf_r+0x2838>
    feac:	fd088793          	addi	a5,a7,-48
    feb0:	00900713          	li	a4,9
    feb4:	00000a93          	li	s5,0
    feb8:	00900613          	li	a2,9
    febc:	02f76463          	bltu	a4,a5,fee4 <_vfprintf_r+0xaf8>
    fec0:	0006c883          	lbu	a7,0(a3)
    fec4:	002a9713          	slli	a4,s5,0x2
    fec8:	01570ab3          	add	s5,a4,s5
    fecc:	001a9a93          	slli	s5,s5,0x1
    fed0:	00fa8ab3          	add	s5,s5,a5
    fed4:	fd088793          	addi	a5,a7,-48
    fed8:	00168693          	addi	a3,a3,1
    fedc:	fef672e3          	bgeu	a2,a5,fec0 <_vfprintf_r+0xad4>
    fee0:	0c0acce3          	bltz	s5,107b8 <_vfprintf_r+0x13cc>
    fee4:	00068913          	mv	s2,a3
    fee8:	ea8ff06f          	j	f590 <_vfprintf_r+0x1a4>
    feec:	06500713          	li	a4,101
    fef0:	b91758e3          	bge	a4,a7,fa80 <_vfprintf_r+0x694>
    fef4:	0d012703          	lw	a4,208(sp)
    fef8:	08010593          	addi	a1,sp,128
    fefc:	09010513          	addi	a0,sp,144
    ff00:	08e12823          	sw	a4,144(sp)
    ff04:	0d412703          	lw	a4,212(sp)
    ff08:	02c12c23          	sw	a2,56(sp)
    ff0c:	08012023          	sw	zero,128(sp)
    ff10:	08e12a23          	sw	a4,148(sp)
    ff14:	0d812703          	lw	a4,216(sp)
    ff18:	08012223          	sw	zero,132(sp)
    ff1c:	08012423          	sw	zero,136(sp)
    ff20:	08e12c23          	sw	a4,152(sp)
    ff24:	0dc12703          	lw	a4,220(sp)
    ff28:	08012623          	sw	zero,140(sp)
    ff2c:	08e12e23          	sw	a4,156(sp)
    ff30:	f30fa0ef          	jal	a660 <__eqtf2>
    ff34:	03812603          	lw	a2,56(sp)
    ff38:	54051e63          	bnez	a0,10494 <_vfprintf_r+0x10a8>
    ff3c:	0c812783          	lw	a5,200(sp)
    ff40:	00019737          	lui	a4,0x19
    ff44:	74070713          	addi	a4,a4,1856 # 19740 <_getpid_r+0x624>
    ff48:	00e42023          	sw	a4,0(s0)
    ff4c:	00160613          	addi	a2,a2,1
    ff50:	00100713          	li	a4,1
    ff54:	00178793          	addi	a5,a5,1
    ff58:	00e42223          	sw	a4,4(s0)
    ff5c:	0cc12623          	sw	a2,204(sp)
    ff60:	0cf12423          	sw	a5,200(sp)
    ff64:	00700713          	li	a4,7
    ff68:	00840413          	addi	s0,s0,8
    ff6c:	5ef74ce3          	blt	a4,a5,10d64 <_vfprintf_r+0x1978>
    ff70:	0ac12783          	lw	a5,172(sp)
    ff74:	02012703          	lw	a4,32(sp)
    ff78:	76e7d463          	bge	a5,a4,106e0 <_vfprintf_r+0x12f4>
    ff7c:	03012783          	lw	a5,48(sp)
    ff80:	02c12703          	lw	a4,44(sp)
    ff84:	00840413          	addi	s0,s0,8
    ff88:	fef42c23          	sw	a5,-8(s0)
    ff8c:	0c812783          	lw	a5,200(sp)
    ff90:	00e60633          	add	a2,a2,a4
    ff94:	fee42e23          	sw	a4,-4(s0)
    ff98:	00178793          	addi	a5,a5,1
    ff9c:	0cc12623          	sw	a2,204(sp)
    ffa0:	0cf12423          	sw	a5,200(sp)
    ffa4:	00700713          	li	a4,7
    ffa8:	08f748e3          	blt	a4,a5,10838 <_vfprintf_r+0x144c>
    ffac:	02012783          	lw	a5,32(sp)
    ffb0:	fff78a93          	addi	s5,a5,-1
    ffb4:	f3505263          	blez	s5,f6d8 <_vfprintf_r+0x2ec>
    ffb8:	0001a837          	lui	a6,0x1a
    ffbc:	a0c80813          	addi	a6,a6,-1524 # 19a0c <zeroes.0>
    ffc0:	01000713          	li	a4,16
    ffc4:	0c812783          	lw	a5,200(sp)
    ffc8:	01000b13          	li	s6,16
    ffcc:	00700c13          	li	s8,7
    ffd0:	00080d13          	mv	s10,a6
    ffd4:	01574863          	blt	a4,s5,ffe4 <_vfprintf_r+0xbf8>
    ffd8:	5b10006f          	j	10d88 <_vfprintf_r+0x199c>
    ffdc:	ff0a8a93          	addi	s5,s5,-16
    ffe0:	5b5b52e3          	bge	s6,s5,10d84 <_vfprintf_r+0x1998>
    ffe4:	01060613          	addi	a2,a2,16
    ffe8:	00178793          	addi	a5,a5,1
    ffec:	01a42023          	sw	s10,0(s0)
    fff0:	01642223          	sw	s6,4(s0)
    fff4:	0cc12623          	sw	a2,204(sp)
    fff8:	0cf12423          	sw	a5,200(sp)
    fffc:	00840413          	addi	s0,s0,8
   10000:	fcfc5ee3          	bge	s8,a5,ffdc <_vfprintf_r+0xbf0>
   10004:	00812503          	lw	a0,8(sp)
   10008:	0c410613          	addi	a2,sp,196
   1000c:	00048593          	mv	a1,s1
   10010:	669010ef          	jal	11e78 <__sprint_r>
   10014:	26051463          	bnez	a0,1027c <_vfprintf_r+0xe90>
   10018:	0cc12603          	lw	a2,204(sp)
   1001c:	0c812783          	lw	a5,200(sp)
   10020:	00098413          	mv	s0,s3
   10024:	fb9ff06f          	j	ffdc <_vfprintf_r+0xbf0>
   10028:	00100713          	li	a4,1
   1002c:	00e79463          	bne	a5,a4,10034 <_vfprintf_r+0xc48>
   10030:	2190106f          	j	11a48 <_vfprintf_r+0x265c>
   10034:	00200713          	li	a4,2
   10038:	000c8e93          	mv	t4,s9
   1003c:	c0e792e3          	bne	a5,a4,fc40 <_vfprintf_r+0x854>
   10040:	03412683          	lw	a3,52(sp)
   10044:	19010d13          	addi	s10,sp,400
   10048:	00fb7793          	andi	a5,s6,15
   1004c:	00f687b3          	add	a5,a3,a5
   10050:	0007c703          	lbu	a4,0(a5)
   10054:	004b5b13          	srli	s6,s6,0x4
   10058:	01cd9793          	slli	a5,s11,0x1c
   1005c:	0167eb33          	or	s6,a5,s6
   10060:	004ddd93          	srli	s11,s11,0x4
   10064:	feed0fa3          	sb	a4,-1(s10)
   10068:	01bb67b3          	or	a5,s6,s11
   1006c:	fffd0d13          	addi	s10,s10,-1
   10070:	fc079ce3          	bnez	a5,10048 <_vfprintf_r+0xc5c>
   10074:	19010793          	addi	a5,sp,400
   10078:	41a78b33          	sub	s6,a5,s10
   1007c:	000e8c93          	mv	s9,t4
   10080:	ff4ff06f          	j	f874 <_vfprintf_r+0x488>
   10084:	41bb8c33          	sub	s8,s7,s11
   10088:	e1805c63          	blez	s8,f6a0 <_vfprintf_r+0x2b4>
   1008c:	0001a837          	lui	a6,0x1a
   10090:	01000513          	li	a0,16
   10094:	0c812583          	lw	a1,200(sp)
   10098:	a0c80813          	addi	a6,a6,-1524 # 19a0c <zeroes.0>
   1009c:	0b855063          	bge	a0,s8,1013c <_vfprintf_r+0xd50>
   100a0:	03212c23          	sw	s2,56(sp)
   100a4:	00040793          	mv	a5,s0
   100a8:	01000e93          	li	t4,16
   100ac:	000c0413          	mv	s0,s8
   100b0:	00700f93          	li	t6,7
   100b4:	000b0c13          	mv	s8,s6
   100b8:	00080913          	mv	s2,a6
   100bc:	000a8b13          	mv	s6,s5
   100c0:	00088a93          	mv	s5,a7
   100c4:	00c0006f          	j	100d0 <_vfprintf_r+0xce4>
   100c8:	ff040413          	addi	s0,s0,-16
   100cc:	048eda63          	bge	t4,s0,10120 <_vfprintf_r+0xd34>
   100d0:	01060613          	addi	a2,a2,16
   100d4:	00158593          	addi	a1,a1,1 # 2001 <_start-0x5fff>
   100d8:	0127a023          	sw	s2,0(a5)
   100dc:	01d7a223          	sw	t4,4(a5)
   100e0:	0cc12623          	sw	a2,204(sp)
   100e4:	0cb12423          	sw	a1,200(sp)
   100e8:	00878793          	addi	a5,a5,8
   100ec:	fcbfdee3          	bge	t6,a1,100c8 <_vfprintf_r+0xcdc>
   100f0:	00812503          	lw	a0,8(sp)
   100f4:	0c410613          	addi	a2,sp,196
   100f8:	00048593          	mv	a1,s1
   100fc:	57d010ef          	jal	11e78 <__sprint_r>
   10100:	16051e63          	bnez	a0,1027c <_vfprintf_r+0xe90>
   10104:	01000e93          	li	t4,16
   10108:	ff040413          	addi	s0,s0,-16
   1010c:	0cc12603          	lw	a2,204(sp)
   10110:	0c812583          	lw	a1,200(sp)
   10114:	00098793          	mv	a5,s3
   10118:	00700f93          	li	t6,7
   1011c:	fa8ecae3          	blt	t4,s0,100d0 <_vfprintf_r+0xce4>
   10120:	00090813          	mv	a6,s2
   10124:	03812903          	lw	s2,56(sp)
   10128:	000a8893          	mv	a7,s5
   1012c:	000b0a93          	mv	s5,s6
   10130:	000c0b13          	mv	s6,s8
   10134:	00040c13          	mv	s8,s0
   10138:	00078413          	mv	s0,a5
   1013c:	01860633          	add	a2,a2,s8
   10140:	00158593          	addi	a1,a1,1
   10144:	01042023          	sw	a6,0(s0)
   10148:	01842223          	sw	s8,4(s0)
   1014c:	0cc12623          	sw	a2,204(sp)
   10150:	0cb12423          	sw	a1,200(sp)
   10154:	00700713          	li	a4,7
   10158:	00840413          	addi	s0,s0,8
   1015c:	d4b75263          	bge	a4,a1,f6a0 <_vfprintf_r+0x2b4>
   10160:	00812503          	lw	a0,8(sp)
   10164:	0c410613          	addi	a2,sp,196
   10168:	00048593          	mv	a1,s1
   1016c:	03112c23          	sw	a7,56(sp)
   10170:	509010ef          	jal	11e78 <__sprint_r>
   10174:	10051463          	bnez	a0,1027c <_vfprintf_r+0xe90>
   10178:	0cc12603          	lw	a2,204(sp)
   1017c:	03812883          	lw	a7,56(sp)
   10180:	00098413          	mv	s0,s3
   10184:	d1cff06f          	j	f6a0 <_vfprintf_r+0x2b4>
   10188:	0001a837          	lui	a6,0x1a
   1018c:	01000713          	li	a4,16
   10190:	0c812583          	lw	a1,200(sp)
   10194:	a0c80813          	addi	a6,a6,-1524 # 19a0c <zeroes.0>
   10198:	09575263          	bge	a4,s5,1021c <_vfprintf_r+0xe30>
   1019c:	00040793          	mv	a5,s0
   101a0:	01000713          	li	a4,16
   101a4:	000a8413          	mv	s0,s5
   101a8:	00700c13          	li	s8,7
   101ac:	03112c23          	sw	a7,56(sp)
   101b0:	000a0a93          	mv	s5,s4
   101b4:	00c0006f          	j	101c0 <_vfprintf_r+0xdd4>
   101b8:	ff040413          	addi	s0,s0,-16
   101bc:	04875863          	bge	a4,s0,1020c <_vfprintf_r+0xe20>
   101c0:	01060613          	addi	a2,a2,16
   101c4:	00158593          	addi	a1,a1,1
   101c8:	0147a023          	sw	s4,0(a5)
   101cc:	00e7a223          	sw	a4,4(a5)
   101d0:	0cc12623          	sw	a2,204(sp)
   101d4:	0cb12423          	sw	a1,200(sp)
   101d8:	00878793          	addi	a5,a5,8
   101dc:	fcbc5ee3          	bge	s8,a1,101b8 <_vfprintf_r+0xdcc>
   101e0:	00812503          	lw	a0,8(sp)
   101e4:	0c410613          	addi	a2,sp,196
   101e8:	00048593          	mv	a1,s1
   101ec:	48d010ef          	jal	11e78 <__sprint_r>
   101f0:	08051663          	bnez	a0,1027c <_vfprintf_r+0xe90>
   101f4:	01000713          	li	a4,16
   101f8:	ff040413          	addi	s0,s0,-16
   101fc:	0cc12603          	lw	a2,204(sp)
   10200:	0c812583          	lw	a1,200(sp)
   10204:	00098793          	mv	a5,s3
   10208:	fa874ce3          	blt	a4,s0,101c0 <_vfprintf_r+0xdd4>
   1020c:	03812883          	lw	a7,56(sp)
   10210:	000a8813          	mv	a6,s5
   10214:	00040a93          	mv	s5,s0
   10218:	00078413          	mv	s0,a5
   1021c:	01560633          	add	a2,a2,s5
   10220:	00158593          	addi	a1,a1,1
   10224:	01042023          	sw	a6,0(s0)
   10228:	01542223          	sw	s5,4(s0)
   1022c:	0cc12623          	sw	a2,204(sp)
   10230:	0cb12423          	sw	a1,200(sp)
   10234:	00700713          	li	a4,7
   10238:	00840413          	addi	s0,s0,8
   1023c:	c6b75663          	bge	a4,a1,f6a8 <_vfprintf_r+0x2bc>
   10240:	00812503          	lw	a0,8(sp)
   10244:	0c410613          	addi	a2,sp,196
   10248:	00048593          	mv	a1,s1
   1024c:	03112c23          	sw	a7,56(sp)
   10250:	429010ef          	jal	11e78 <__sprint_r>
   10254:	02051463          	bnez	a0,1027c <_vfprintf_r+0xe90>
   10258:	0cc12603          	lw	a2,204(sp)
   1025c:	03812883          	lw	a7,56(sp)
   10260:	00098413          	mv	s0,s3
   10264:	c44ff06f          	j	f6a8 <_vfprintf_r+0x2bc>
   10268:	00812503          	lw	a0,8(sp)
   1026c:	0c410613          	addi	a2,sp,196
   10270:	00048593          	mv	a1,s1
   10274:	405010ef          	jal	11e78 <__sprint_r>
   10278:	c8050663          	beqz	a0,f704 <_vfprintf_r+0x318>
   1027c:	01012583          	lw	a1,16(sp)
   10280:	ca058c63          	beqz	a1,f738 <_vfprintf_r+0x34c>
   10284:	00812503          	lw	a0,8(sp)
   10288:	e61fe0ef          	jal	f0e8 <_free_r>
   1028c:	cacff06f          	j	f738 <_vfprintf_r+0x34c>
   10290:	000c8e93          	mv	t4,s9
   10294:	99dff06f          	j	fc30 <_vfprintf_r+0x844>
   10298:	0001a837          	lui	a6,0x1a
   1029c:	01000513          	li	a0,16
   102a0:	0c812583          	lw	a1,200(sp)
   102a4:	a1c80c13          	addi	s8,a6,-1508 # 19a1c <blanks.1>
   102a8:	0ae55863          	bge	a0,a4,10358 <_vfprintf_r+0xf6c>
   102ac:	05212823          	sw	s2,80(sp)
   102b0:	00040793          	mv	a5,s0
   102b4:	000c0913          	mv	s2,s8
   102b8:	01000e93          	li	t4,16
   102bc:	000b0c13          	mv	s8,s6
   102c0:	00700393          	li	t2,7
   102c4:	000a8b13          	mv	s6,s5
   102c8:	02512c23          	sw	t0,56(sp)
   102cc:	05f12623          	sw	t6,76(sp)
   102d0:	00070413          	mv	s0,a4
   102d4:	00088a93          	mv	s5,a7
   102d8:	00c0006f          	j	102e4 <_vfprintf_r+0xef8>
   102dc:	ff040413          	addi	s0,s0,-16
   102e0:	048eda63          	bge	t4,s0,10334 <_vfprintf_r+0xf48>
   102e4:	01060613          	addi	a2,a2,16
   102e8:	00158593          	addi	a1,a1,1
   102ec:	0127a023          	sw	s2,0(a5)
   102f0:	01d7a223          	sw	t4,4(a5)
   102f4:	0cc12623          	sw	a2,204(sp)
   102f8:	0cb12423          	sw	a1,200(sp)
   102fc:	00878793          	addi	a5,a5,8
   10300:	fcb3dee3          	bge	t2,a1,102dc <_vfprintf_r+0xef0>
   10304:	00812503          	lw	a0,8(sp)
   10308:	0c410613          	addi	a2,sp,196
   1030c:	00048593          	mv	a1,s1
   10310:	369010ef          	jal	11e78 <__sprint_r>
   10314:	f60514e3          	bnez	a0,1027c <_vfprintf_r+0xe90>
   10318:	01000e93          	li	t4,16
   1031c:	ff040413          	addi	s0,s0,-16
   10320:	0cc12603          	lw	a2,204(sp)
   10324:	0c812583          	lw	a1,200(sp)
   10328:	00098793          	mv	a5,s3
   1032c:	00700393          	li	t2,7
   10330:	fa8ecae3          	blt	t4,s0,102e4 <_vfprintf_r+0xef8>
   10334:	000a8893          	mv	a7,s5
   10338:	03812283          	lw	t0,56(sp)
   1033c:	000b0a93          	mv	s5,s6
   10340:	04c12f83          	lw	t6,76(sp)
   10344:	000c0b13          	mv	s6,s8
   10348:	00090c13          	mv	s8,s2
   1034c:	05012903          	lw	s2,80(sp)
   10350:	00040713          	mv	a4,s0
   10354:	00078413          	mv	s0,a5
   10358:	00e60633          	add	a2,a2,a4
   1035c:	00158593          	addi	a1,a1,1
   10360:	00e42223          	sw	a4,4(s0)
   10364:	01842023          	sw	s8,0(s0)
   10368:	0cc12623          	sw	a2,204(sp)
   1036c:	0cb12423          	sw	a1,200(sp)
   10370:	00700713          	li	a4,7
   10374:	00840413          	addi	s0,s0,8
   10378:	aab75a63          	bge	a4,a1,f62c <_vfprintf_r+0x240>
   1037c:	00812503          	lw	a0,8(sp)
   10380:	0c410613          	addi	a2,sp,196
   10384:	00048593          	mv	a1,s1
   10388:	05112823          	sw	a7,80(sp)
   1038c:	05f12623          	sw	t6,76(sp)
   10390:	02512c23          	sw	t0,56(sp)
   10394:	2e5010ef          	jal	11e78 <__sprint_r>
   10398:	ee0512e3          	bnez	a0,1027c <_vfprintf_r+0xe90>
   1039c:	0cc12603          	lw	a2,204(sp)
   103a0:	05012883          	lw	a7,80(sp)
   103a4:	04c12f83          	lw	t6,76(sp)
   103a8:	03812283          	lw	t0,56(sp)
   103ac:	00098413          	mv	s0,s3
   103b0:	a7cff06f          	j	f62c <_vfprintf_r+0x240>
   103b4:	00812503          	lw	a0,8(sp)
   103b8:	0c410613          	addi	a2,sp,196
   103bc:	00048593          	mv	a1,s1
   103c0:	05112623          	sw	a7,76(sp)
   103c4:	03f12c23          	sw	t6,56(sp)
   103c8:	2b1010ef          	jal	11e78 <__sprint_r>
   103cc:	ea0518e3          	bnez	a0,1027c <_vfprintf_r+0xe90>
   103d0:	0cc12603          	lw	a2,204(sp)
   103d4:	04c12883          	lw	a7,76(sp)
   103d8:	03812f83          	lw	t6,56(sp)
   103dc:	00098413          	mv	s0,s3
   103e0:	ab8ff06f          	j	f698 <_vfprintf_r+0x2ac>
   103e4:	0001a837          	lui	a6,0x1a
   103e8:	01000713          	li	a4,16
   103ec:	0c812783          	lw	a5,200(sp)
   103f0:	a1c80c13          	addi	s8,a6,-1508 # 19a1c <blanks.1>
   103f4:	07575263          	bge	a4,s5,10458 <_vfprintf_r+0x106c>
   103f8:	00812d03          	lw	s10,8(sp)
   103fc:	01000b13          	li	s6,16
   10400:	00700c93          	li	s9,7
   10404:	00c0006f          	j	10410 <_vfprintf_r+0x1024>
   10408:	ff0a8a93          	addi	s5,s5,-16
   1040c:	055b5663          	bge	s6,s5,10458 <_vfprintf_r+0x106c>
   10410:	01060613          	addi	a2,a2,16
   10414:	00178793          	addi	a5,a5,1
   10418:	01842023          	sw	s8,0(s0)
   1041c:	01642223          	sw	s6,4(s0)
   10420:	0cc12623          	sw	a2,204(sp)
   10424:	0cf12423          	sw	a5,200(sp)
   10428:	00840413          	addi	s0,s0,8
   1042c:	fcfcdee3          	bge	s9,a5,10408 <_vfprintf_r+0x101c>
   10430:	0c410613          	addi	a2,sp,196
   10434:	00048593          	mv	a1,s1
   10438:	000d0513          	mv	a0,s10
   1043c:	23d010ef          	jal	11e78 <__sprint_r>
   10440:	e2051ee3          	bnez	a0,1027c <_vfprintf_r+0xe90>
   10444:	ff0a8a93          	addi	s5,s5,-16
   10448:	0cc12603          	lw	a2,204(sp)
   1044c:	0c812783          	lw	a5,200(sp)
   10450:	00098413          	mv	s0,s3
   10454:	fb5b4ee3          	blt	s6,s5,10410 <_vfprintf_r+0x1024>
   10458:	01560633          	add	a2,a2,s5
   1045c:	00178793          	addi	a5,a5,1
   10460:	01842023          	sw	s8,0(s0)
   10464:	01542223          	sw	s5,4(s0)
   10468:	0cc12623          	sw	a2,204(sp)
   1046c:	0cf12423          	sw	a5,200(sp)
   10470:	00700713          	li	a4,7
   10474:	a6f75a63          	bge	a4,a5,f6e8 <_vfprintf_r+0x2fc>
   10478:	00812503          	lw	a0,8(sp)
   1047c:	0c410613          	addi	a2,sp,196
   10480:	00048593          	mv	a1,s1
   10484:	1f5010ef          	jal	11e78 <__sprint_r>
   10488:	de051ae3          	bnez	a0,1027c <_vfprintf_r+0xe90>
   1048c:	0cc12603          	lw	a2,204(sp)
   10490:	a58ff06f          	j	f6e8 <_vfprintf_r+0x2fc>
   10494:	0ac12503          	lw	a0,172(sp)
   10498:	04a050e3          	blez	a0,10cd8 <_vfprintf_r+0x18ec>
   1049c:	01c12783          	lw	a5,28(sp)
   104a0:	02012703          	lw	a4,32(sp)
   104a4:	00078a93          	mv	s5,a5
   104a8:	30f74263          	blt	a4,a5,107ac <_vfprintf_r+0x13c0>
   104ac:	03505663          	blez	s5,104d8 <_vfprintf_r+0x10ec>
   104b0:	0c812703          	lw	a4,200(sp)
   104b4:	01560633          	add	a2,a2,s5
   104b8:	01a42023          	sw	s10,0(s0)
   104bc:	00170713          	addi	a4,a4,1
   104c0:	01542223          	sw	s5,4(s0)
   104c4:	0cc12623          	sw	a2,204(sp)
   104c8:	0ce12423          	sw	a4,200(sp)
   104cc:	00700593          	li	a1,7
   104d0:	00840413          	addi	s0,s0,8
   104d4:	58e5cce3          	blt	a1,a4,1126c <_vfprintf_r+0x1e80>
   104d8:	fffac713          	not	a4,s5
   104dc:	01c12783          	lw	a5,28(sp)
   104e0:	41f75713          	srai	a4,a4,0x1f
   104e4:	00eafab3          	and	s5,s5,a4
   104e8:	41578ab3          	sub	s5,a5,s5
   104ec:	3b504663          	bgtz	s5,10898 <_vfprintf_r+0x14ac>
   104f0:	01c12783          	lw	a5,28(sp)
   104f4:	400cf713          	andi	a4,s9,1024
   104f8:	00fd0c33          	add	s8,s10,a5
   104fc:	26071ce3          	bnez	a4,10f74 <_vfprintf_r+0x1b88>
   10500:	0ac12a83          	lw	s5,172(sp)
   10504:	02012783          	lw	a5,32(sp)
   10508:	40fac263          	blt	s5,a5,1090c <_vfprintf_r+0x1520>
   1050c:	001cf713          	andi	a4,s9,1
   10510:	3e071e63          	bnez	a4,1090c <_vfprintf_r+0x1520>
   10514:	02012703          	lw	a4,32(sp)
   10518:	00ed07b3          	add	a5,s10,a4
   1051c:	41570ab3          	sub	s5,a4,s5
   10520:	41878b33          	sub	s6,a5,s8
   10524:	016ad463          	bge	s5,s6,1052c <_vfprintf_r+0x1140>
   10528:	000a8b13          	mv	s6,s5
   1052c:	03605863          	blez	s6,1055c <_vfprintf_r+0x1170>
   10530:	0c812783          	lw	a5,200(sp)
   10534:	01660633          	add	a2,a2,s6
   10538:	01842023          	sw	s8,0(s0)
   1053c:	00178793          	addi	a5,a5,1
   10540:	01642223          	sw	s6,4(s0)
   10544:	0cc12623          	sw	a2,204(sp)
   10548:	0cf12423          	sw	a5,200(sp)
   1054c:	00700713          	li	a4,7
   10550:	00840413          	addi	s0,s0,8
   10554:	00f75463          	bge	a4,a5,1055c <_vfprintf_r+0x1170>
   10558:	3440106f          	j	1189c <_vfprintf_r+0x24b0>
   1055c:	fffb4793          	not	a5,s6
   10560:	41f7d793          	srai	a5,a5,0x1f
   10564:	00fb7b33          	and	s6,s6,a5
   10568:	416a8ab3          	sub	s5,s5,s6
   1056c:	97505663          	blez	s5,f6d8 <_vfprintf_r+0x2ec>
   10570:	0001a837          	lui	a6,0x1a
   10574:	a0c80813          	addi	a6,a6,-1524 # 19a0c <zeroes.0>
   10578:	01000713          	li	a4,16
   1057c:	0c812783          	lw	a5,200(sp)
   10580:	01000b13          	li	s6,16
   10584:	00700c13          	li	s8,7
   10588:	00080d13          	mv	s10,a6
   1058c:	01574863          	blt	a4,s5,1059c <_vfprintf_r+0x11b0>
   10590:	7f80006f          	j	10d88 <_vfprintf_r+0x199c>
   10594:	ff0a8a93          	addi	s5,s5,-16
   10598:	7f5b5663          	bge	s6,s5,10d84 <_vfprintf_r+0x1998>
   1059c:	01060613          	addi	a2,a2,16
   105a0:	00178793          	addi	a5,a5,1
   105a4:	01a42023          	sw	s10,0(s0)
   105a8:	01642223          	sw	s6,4(s0)
   105ac:	0cc12623          	sw	a2,204(sp)
   105b0:	0cf12423          	sw	a5,200(sp)
   105b4:	00840413          	addi	s0,s0,8
   105b8:	fcfc5ee3          	bge	s8,a5,10594 <_vfprintf_r+0x11a8>
   105bc:	00812503          	lw	a0,8(sp)
   105c0:	0c410613          	addi	a2,sp,196
   105c4:	00048593          	mv	a1,s1
   105c8:	0b1010ef          	jal	11e78 <__sprint_r>
   105cc:	ca0518e3          	bnez	a0,1027c <_vfprintf_r+0xe90>
   105d0:	0cc12603          	lw	a2,204(sp)
   105d4:	0c812783          	lw	a5,200(sp)
   105d8:	00098413          	mv	s0,s3
   105dc:	fb9ff06f          	j	10594 <_vfprintf_r+0x11a8>
   105e0:	001cf593          	andi	a1,s9,1
   105e4:	ca059e63          	bnez	a1,faa0 <_vfprintf_r+0x6b4>
   105e8:	00e42223          	sw	a4,4(s0)
   105ec:	0d812623          	sw	s8,204(sp)
   105f0:	0d512423          	sw	s5,200(sp)
   105f4:	00700793          	li	a5,7
   105f8:	d757d263          	bge	a5,s5,fb5c <_vfprintf_r+0x770>
   105fc:	00812503          	lw	a0,8(sp)
   10600:	0c410613          	addi	a2,sp,196
   10604:	00048593          	mv	a1,s1
   10608:	071010ef          	jal	11e78 <__sprint_r>
   1060c:	c60518e3          	bnez	a0,1027c <_vfprintf_r+0xe90>
   10610:	0cc12c03          	lw	s8,204(sp)
   10614:	0c812a83          	lw	s5,200(sp)
   10618:	00098b13          	mv	s6,s3
   1061c:	d40ff06f          	j	fb5c <_vfprintf_r+0x770>
   10620:	02012703          	lw	a4,32(sp)
   10624:	00100793          	li	a5,1
   10628:	d2e7da63          	bge	a5,a4,fb5c <_vfprintf_r+0x770>
   1062c:	0001a837          	lui	a6,0x1a
   10630:	01100793          	li	a5,17
   10634:	a0c80813          	addi	a6,a6,-1524 # 19a0c <zeroes.0>
   10638:	0ce7d0e3          	bge	a5,a4,10ef8 <_vfprintf_r+0x1b0c>
   1063c:	01212e23          	sw	s2,28(sp)
   10640:	01000793          	li	a5,16
   10644:	00700d13          	li	s10,7
   10648:	00080913          	mv	s2,a6
   1064c:	00c0006f          	j	10658 <_vfprintf_r+0x126c>
   10650:	ff040413          	addi	s0,s0,-16
   10654:	0887dee3          	bge	a5,s0,10ef0 <_vfprintf_r+0x1b04>
   10658:	010c0c13          	addi	s8,s8,16
   1065c:	001a8a93          	addi	s5,s5,1
   10660:	012b2023          	sw	s2,0(s6)
   10664:	00fb2223          	sw	a5,4(s6)
   10668:	0d812623          	sw	s8,204(sp)
   1066c:	0d512423          	sw	s5,200(sp)
   10670:	008b0b13          	addi	s6,s6,8
   10674:	fd5d5ee3          	bge	s10,s5,10650 <_vfprintf_r+0x1264>
   10678:	00812503          	lw	a0,8(sp)
   1067c:	0c410613          	addi	a2,sp,196
   10680:	00048593          	mv	a1,s1
   10684:	7f4010ef          	jal	11e78 <__sprint_r>
   10688:	be051ae3          	bnez	a0,1027c <_vfprintf_r+0xe90>
   1068c:	0cc12c03          	lw	s8,204(sp)
   10690:	0c812a83          	lw	s5,200(sp)
   10694:	00098b13          	mv	s6,s3
   10698:	01000793          	li	a5,16
   1069c:	fb5ff06f          	j	10650 <_vfprintf_r+0x1264>
   106a0:	01412703          	lw	a4,20(sp)
   106a4:	010ef793          	andi	a5,t4,16
   106a8:	00072b03          	lw	s6,0(a4)
   106ac:	00470713          	addi	a4,a4,4
   106b0:	00e12a23          	sw	a4,20(sp)
   106b4:	04079a63          	bnez	a5,10708 <_vfprintf_r+0x131c>
   106b8:	040ef793          	andi	a5,t4,64
   106bc:	04078063          	beqz	a5,106fc <_vfprintf_r+0x1310>
   106c0:	010b1b13          	slli	s6,s6,0x10
   106c4:	010b5b13          	srli	s6,s6,0x10
   106c8:	00000d93          	li	s11,0
   106cc:	00100793          	li	a5,1
   106d0:	a00ff06f          	j	f8d0 <_vfprintf_r+0x4e4>
   106d4:	00000b13          	li	s6,0
   106d8:	19010d13          	addi	s10,sp,400
   106dc:	998ff06f          	j	f874 <_vfprintf_r+0x488>
   106e0:	001cf793          	andi	a5,s9,1
   106e4:	00079463          	bnez	a5,106ec <_vfprintf_r+0x1300>
   106e8:	ff1fe06f          	j	f6d8 <_vfprintf_r+0x2ec>
   106ec:	891ff06f          	j	ff7c <_vfprintf_r+0xb90>
   106f0:	00094883          	lbu	a7,0(s2)
   106f4:	00f12a23          	sw	a5,20(sp)
   106f8:	e95fe06f          	j	f58c <_vfprintf_r+0x1a0>
   106fc:	200ef793          	andi	a5,t4,512
   10700:	00078463          	beqz	a5,10708 <_vfprintf_r+0x131c>
   10704:	0ffb7b13          	zext.b	s6,s6
   10708:	00000d93          	li	s11,0
   1070c:	00100793          	li	a5,1
   10710:	9c0ff06f          	j	f8d0 <_vfprintf_r+0x4e4>
   10714:	200cf793          	andi	a5,s9,512
   10718:	38079ae3          	bnez	a5,112ac <_vfprintf_r+0x1ec0>
   1071c:	41fb5d93          	srai	s11,s6,0x1f
   10720:	000d8793          	mv	a5,s11
   10724:	928ff06f          	j	f84c <_vfprintf_r+0x460>
   10728:	200cf793          	andi	a5,s9,512
   1072c:	3a0790e3          	bnez	a5,112cc <_vfprintf_r+0x1ee0>
   10730:	00000d93          	li	s11,0
   10734:	994ff06f          	j	f8c8 <_vfprintf_r+0x4dc>
   10738:	01412783          	lw	a5,20(sp)
   1073c:	0007a703          	lw	a4,0(a5)
   10740:	00478793          	addi	a5,a5,4
   10744:	00f12a23          	sw	a5,20(sp)
   10748:	00072583          	lw	a1,0(a4)
   1074c:	00472603          	lw	a2,4(a4)
   10750:	00872683          	lw	a3,8(a4)
   10754:	00c72703          	lw	a4,12(a4)
   10758:	a24ff06f          	j	f97c <_vfprintf_r+0x590>
   1075c:	03c12783          	lw	a5,60(sp)
   10760:	00094883          	lbu	a7,0(s2)
   10764:	00079463          	bnez	a5,1076c <_vfprintf_r+0x1380>
   10768:	e25fe06f          	j	f58c <_vfprintf_r+0x1a0>
   1076c:	0007c783          	lbu	a5,0(a5)
   10770:	00079463          	bnez	a5,10778 <_vfprintf_r+0x138c>
   10774:	e19fe06f          	j	f58c <_vfprintf_r+0x1a0>
   10778:	400cec93          	ori	s9,s9,1024
   1077c:	e11fe06f          	j	f58c <_vfprintf_r+0x1a0>
   10780:	010cf793          	andi	a5,s9,16
   10784:	6a079863          	bnez	a5,10e34 <_vfprintf_r+0x1a48>
   10788:	040cf793          	andi	a5,s9,64
   1078c:	300796e3          	bnez	a5,11298 <_vfprintf_r+0x1eac>
   10790:	200cfe13          	andi	t3,s9,512
   10794:	6a0e0063          	beqz	t3,10e34 <_vfprintf_r+0x1a48>
   10798:	01412783          	lw	a5,20(sp)
   1079c:	00c12703          	lw	a4,12(sp)
   107a0:	0007a783          	lw	a5,0(a5)
   107a4:	00e78023          	sb	a4,0(a5)
   107a8:	e78ff06f          	j	fe20 <_vfprintf_r+0xa34>
   107ac:	00070a93          	mv	s5,a4
   107b0:	d15040e3          	bgtz	s5,104b0 <_vfprintf_r+0x10c4>
   107b4:	d25ff06f          	j	104d8 <_vfprintf_r+0x10ec>
   107b8:	fff00a93          	li	s5,-1
   107bc:	00068913          	mv	s2,a3
   107c0:	dd1fe06f          	j	f590 <_vfprintf_r+0x1a4>
   107c4:	000197b7          	lui	a5,0x19
   107c8:	72478793          	addi	a5,a5,1828 # 19724 <_getpid_r+0x608>
   107cc:	02f12a23          	sw	a5,52(sp)
   107d0:	020cf793          	andi	a5,s9,32
   107d4:	36078863          	beqz	a5,10b44 <_vfprintf_r+0x1758>
   107d8:	01412783          	lw	a5,20(sp)
   107dc:	00778c13          	addi	s8,a5,7
   107e0:	ff8c7c13          	andi	s8,s8,-8
   107e4:	000c2b03          	lw	s6,0(s8)
   107e8:	004c2d83          	lw	s11,4(s8)
   107ec:	008c0793          	addi	a5,s8,8
   107f0:	00f12a23          	sw	a5,20(sp)
   107f4:	001cf793          	andi	a5,s9,1
   107f8:	00078e63          	beqz	a5,10814 <_vfprintf_r+0x1428>
   107fc:	01bb67b3          	or	a5,s6,s11
   10800:	00078a63          	beqz	a5,10814 <_vfprintf_r+0x1428>
   10804:	03000793          	li	a5,48
   10808:	0af10423          	sb	a5,168(sp)
   1080c:	0b1104a3          	sb	a7,169(sp)
   10810:	002cec93          	ori	s9,s9,2
   10814:	bffcfe93          	andi	t4,s9,-1025
   10818:	00200793          	li	a5,2
   1081c:	8b4ff06f          	j	f8d0 <_vfprintf_r+0x4e4>
   10820:	000c8e93          	mv	t4,s9
   10824:	d64ff06f          	j	fd88 <_vfprintf_r+0x99c>
   10828:	000197b7          	lui	a5,0x19
   1082c:	71078793          	addi	a5,a5,1808 # 19710 <_getpid_r+0x5f4>
   10830:	02f12a23          	sw	a5,52(sp)
   10834:	f9dff06f          	j	107d0 <_vfprintf_r+0x13e4>
   10838:	00812503          	lw	a0,8(sp)
   1083c:	0c410613          	addi	a2,sp,196
   10840:	00048593          	mv	a1,s1
   10844:	634010ef          	jal	11e78 <__sprint_r>
   10848:	a2051ae3          	bnez	a0,1027c <_vfprintf_r+0xe90>
   1084c:	0cc12603          	lw	a2,204(sp)
   10850:	00098413          	mv	s0,s3
   10854:	f58ff06f          	j	ffac <_vfprintf_r+0xbc0>
   10858:	00194883          	lbu	a7,1(s2)
   1085c:	200cec93          	ori	s9,s9,512
   10860:	00190913          	addi	s2,s2,1
   10864:	d29fe06f          	j	f58c <_vfprintf_r+0x1a0>
   10868:	00194883          	lbu	a7,1(s2)
   1086c:	020cec93          	ori	s9,s9,32
   10870:	00190913          	addi	s2,s2,1
   10874:	d19fe06f          	j	f58c <_vfprintf_r+0x1a0>
   10878:	00600793          	li	a5,6
   1087c:	000a8b13          	mv	s6,s5
   10880:	2157e8e3          	bltu	a5,s5,11290 <_vfprintf_r+0x1ea4>
   10884:	000197b7          	lui	a5,0x19
   10888:	000b0d93          	mv	s11,s6
   1088c:	01812a23          	sw	s8,20(sp)
   10890:	73878d13          	addi	s10,a5,1848 # 19738 <_getpid_r+0x61c>
   10894:	d65fe06f          	j	f5f8 <_vfprintf_r+0x20c>
   10898:	0001a837          	lui	a6,0x1a
   1089c:	01000593          	li	a1,16
   108a0:	0c812703          	lw	a4,200(sp)
   108a4:	a0c80813          	addi	a6,a6,-1524 # 19a0c <zeroes.0>
   108a8:	6955d463          	bge	a1,s5,10f30 <_vfprintf_r+0x1b44>
   108ac:	00040793          	mv	a5,s0
   108b0:	01000c13          	li	s8,16
   108b4:	00700b13          	li	s6,7
   108b8:	00080413          	mv	s0,a6
   108bc:	00c0006f          	j	108c8 <_vfprintf_r+0x14dc>
   108c0:	ff0a8a93          	addi	s5,s5,-16
   108c4:	675c5263          	bge	s8,s5,10f28 <_vfprintf_r+0x1b3c>
   108c8:	01060613          	addi	a2,a2,16
   108cc:	00170713          	addi	a4,a4,1
   108d0:	0087a023          	sw	s0,0(a5)
   108d4:	0187a223          	sw	s8,4(a5)
   108d8:	0cc12623          	sw	a2,204(sp)
   108dc:	0ce12423          	sw	a4,200(sp)
   108e0:	00878793          	addi	a5,a5,8
   108e4:	fceb5ee3          	bge	s6,a4,108c0 <_vfprintf_r+0x14d4>
   108e8:	00812503          	lw	a0,8(sp)
   108ec:	0c410613          	addi	a2,sp,196
   108f0:	00048593          	mv	a1,s1
   108f4:	584010ef          	jal	11e78 <__sprint_r>
   108f8:	980512e3          	bnez	a0,1027c <_vfprintf_r+0xe90>
   108fc:	0cc12603          	lw	a2,204(sp)
   10900:	0c812703          	lw	a4,200(sp)
   10904:	00098793          	mv	a5,s3
   10908:	fb9ff06f          	j	108c0 <_vfprintf_r+0x14d4>
   1090c:	03012703          	lw	a4,48(sp)
   10910:	02c12783          	lw	a5,44(sp)
   10914:	00700593          	li	a1,7
   10918:	00e42023          	sw	a4,0(s0)
   1091c:	0c812703          	lw	a4,200(sp)
   10920:	00f60633          	add	a2,a2,a5
   10924:	00f42223          	sw	a5,4(s0)
   10928:	00170713          	addi	a4,a4,1
   1092c:	0cc12623          	sw	a2,204(sp)
   10930:	0ce12423          	sw	a4,200(sp)
   10934:	00840413          	addi	s0,s0,8
   10938:	bce5dee3          	bge	a1,a4,10514 <_vfprintf_r+0x1128>
   1093c:	00812503          	lw	a0,8(sp)
   10940:	0c410613          	addi	a2,sp,196
   10944:	00048593          	mv	a1,s1
   10948:	530010ef          	jal	11e78 <__sprint_r>
   1094c:	920518e3          	bnez	a0,1027c <_vfprintf_r+0xe90>
   10950:	0ac12a83          	lw	s5,172(sp)
   10954:	0cc12603          	lw	a2,204(sp)
   10958:	00098413          	mv	s0,s3
   1095c:	bb9ff06f          	j	10514 <_vfprintf_r+0x1128>
   10960:	07800793          	li	a5,120
   10964:	03000713          	li	a4,48
   10968:	0ae10423          	sb	a4,168(sp)
   1096c:	0af104a3          	sb	a5,169(sp)
   10970:	06300713          	li	a4,99
   10974:	00012823          	sw	zero,16(sp)
   10978:	002cec93          	ori	s9,s9,2
   1097c:	12c10d13          	addi	s10,sp,300
   10980:	87575a63          	bge	a4,s5,f9f4 <_vfprintf_r+0x608>
   10984:	00812503          	lw	a0,8(sp)
   10988:	001a8593          	addi	a1,s5,1
   1098c:	01112823          	sw	a7,16(sp)
   10990:	9f0fd0ef          	jal	db80 <_malloc_r>
   10994:	01012883          	lw	a7,16(sp)
   10998:	00050d13          	mv	s10,a0
   1099c:	00051463          	bnez	a0,109a4 <_vfprintf_r+0x15b8>
   109a0:	2c00106f          	j	11c60 <_vfprintf_r+0x2874>
   109a4:	00a12823          	sw	a0,16(sp)
   109a8:	84cff06f          	j	f9f4 <_vfprintf_r+0x608>
   109ac:	00812503          	lw	a0,8(sp)
   109b0:	09010b13          	addi	s6,sp,144
   109b4:	0ac10713          	addi	a4,sp,172
   109b8:	0bc10813          	addi	a6,sp,188
   109bc:	0b010793          	addi	a5,sp,176
   109c0:	000a8693          	mv	a3,s5
   109c4:	00200613          	li	a2,2
   109c8:	000b0593          	mv	a1,s6
   109cc:	03112423          	sw	a7,40(sp)
   109d0:	09f12823          	sw	t6,144(sp)
   109d4:	03f12223          	sw	t6,36(sp)
   109d8:	09e12a23          	sw	t5,148(sp)
   109dc:	03e12023          	sw	t5,32(sp)
   109e0:	09d12c23          	sw	t4,152(sp)
   109e4:	01d12e23          	sw	t4,28(sp)
   109e8:	09812e23          	sw	s8,156(sp)
   109ec:	791030ef          	jal	1497c <_ldtoa_r>
   109f0:	001cf713          	andi	a4,s9,1
   109f4:	01c12e83          	lw	t4,28(sp)
   109f8:	02012f03          	lw	t5,32(sp)
   109fc:	02412f83          	lw	t6,36(sp)
   10a00:	02812883          	lw	a7,40(sp)
   10a04:	00050d13          	mv	s10,a0
   10a08:	120710e3          	bnez	a4,11328 <_vfprintf_r+0x1f3c>
   10a0c:	0ac12783          	lw	a5,172(sp)
   10a10:	00f12e23          	sw	a5,28(sp)
   10a14:	0bc12783          	lw	a5,188(sp)
   10a18:	40a787b3          	sub	a5,a5,a0
   10a1c:	02f12023          	sw	a5,32(sp)
   10a20:	01c12783          	lw	a5,28(sp)
   10a24:	ffd00713          	li	a4,-3
   10a28:	00e7c463          	blt	a5,a4,10a30 <_vfprintf_r+0x1644>
   10a2c:	58fadce3          	bge	s5,a5,117c4 <_vfprintf_r+0x23d8>
   10a30:	01c12783          	lw	a5,28(sp)
   10a34:	ffe88893          	addi	a7,a7,-2
   10a38:	fff78713          	addi	a4,a5,-1
   10a3c:	0ae12623          	sw	a4,172(sp)
   10a40:	0ff8f693          	zext.b	a3,a7
   10a44:	00000613          	li	a2,0
   10a48:	0ad10a23          	sb	a3,180(sp)
   10a4c:	02b00693          	li	a3,43
   10a50:	00075a63          	bgez	a4,10a64 <_vfprintf_r+0x1678>
   10a54:	01c12783          	lw	a5,28(sp)
   10a58:	00100713          	li	a4,1
   10a5c:	02d00693          	li	a3,45
   10a60:	40f70733          	sub	a4,a4,a5
   10a64:	0ad10aa3          	sb	a3,181(sp)
   10a68:	00900693          	li	a3,9
   10a6c:	00e6c463          	blt	a3,a4,10a74 <_vfprintf_r+0x1688>
   10a70:	0300106f          	j	11aa0 <_vfprintf_r+0x26b4>
   10a74:	0c310813          	addi	a6,sp,195
   10a78:	00080593          	mv	a1,a6
   10a7c:	00a00513          	li	a0,10
   10a80:	06300f13          	li	t5,99
   10a84:	02a767b3          	rem	a5,a4,a0
   10a88:	00058613          	mv	a2,a1
   10a8c:	00070693          	mv	a3,a4
   10a90:	fff58593          	addi	a1,a1,-1
   10a94:	03078793          	addi	a5,a5,48
   10a98:	fef60fa3          	sb	a5,-1(a2)
   10a9c:	02a74733          	div	a4,a4,a0
   10aa0:	fedf42e3          	blt	t5,a3,10a84 <_vfprintf_r+0x1698>
   10aa4:	03070713          	addi	a4,a4,48
   10aa8:	ffe60693          	addi	a3,a2,-2
   10aac:	fee58fa3          	sb	a4,-1(a1)
   10ab0:	0106e463          	bltu	a3,a6,10ab8 <_vfprintf_r+0x16cc>
   10ab4:	1640106f          	j	11c18 <_vfprintf_r+0x282c>
   10ab8:	0b610713          	addi	a4,sp,182
   10abc:	0006c783          	lbu	a5,0(a3)
   10ac0:	00168693          	addi	a3,a3,1
   10ac4:	00170713          	addi	a4,a4,1
   10ac8:	fef70fa3          	sb	a5,-1(a4)
   10acc:	ff0698e3          	bne	a3,a6,10abc <_vfprintf_r+0x16d0>
   10ad0:	19010793          	addi	a5,sp,400
   10ad4:	40c78733          	sub	a4,a5,a2
   10ad8:	f3770793          	addi	a5,a4,-201
   10adc:	04f12023          	sw	a5,64(sp)
   10ae0:	02012783          	lw	a5,32(sp)
   10ae4:	04012683          	lw	a3,64(sp)
   10ae8:	00100713          	li	a4,1
   10aec:	00d78b33          	add	s6,a5,a3
   10af0:	00f74463          	blt	a4,a5,10af8 <_vfprintf_r+0x170c>
   10af4:	7e90006f          	j	11adc <_vfprintf_r+0x26f0>
   10af8:	02c12783          	lw	a5,44(sp)
   10afc:	00fb0b33          	add	s6,s6,a5
   10b00:	fffb4693          	not	a3,s6
   10b04:	bffcfe13          	andi	t3,s9,-1025
   10b08:	41f6d693          	srai	a3,a3,0x1f
   10b0c:	100e6793          	ori	a5,t3,256
   10b10:	04f12623          	sw	a5,76(sp)
   10b14:	00db7db3          	and	s11,s6,a3
   10b18:	02012423          	sw	zero,40(sp)
   10b1c:	02012223          	sw	zero,36(sp)
   10b20:	00012e23          	sw	zero,28(sp)
   10b24:	03812783          	lw	a5,56(sp)
   10b28:	480782e3          	beqz	a5,117ac <_vfprintf_r+0x23c0>
   10b2c:	02d00713          	li	a4,45
   10b30:	04c12c83          	lw	s9,76(sp)
   10b34:	0ae103a3          	sb	a4,167(sp)
   10b38:	00000a93          	li	s5,0
   10b3c:	001d8d93          	addi	s11,s11,1
   10b40:	acdfe06f          	j	f60c <_vfprintf_r+0x220>
   10b44:	01412703          	lw	a4,20(sp)
   10b48:	010cf793          	andi	a5,s9,16
   10b4c:	00072b03          	lw	s6,0(a4)
   10b50:	00470713          	addi	a4,a4,4
   10b54:	00e12a23          	sw	a4,20(sp)
   10b58:	06079663          	bnez	a5,10bc4 <_vfprintf_r+0x17d8>
   10b5c:	040cf793          	andi	a5,s9,64
   10b60:	04078e63          	beqz	a5,10bbc <_vfprintf_r+0x17d0>
   10b64:	010b1b13          	slli	s6,s6,0x10
   10b68:	010b5b13          	srli	s6,s6,0x10
   10b6c:	00000d93          	li	s11,0
   10b70:	c85ff06f          	j	107f4 <_vfprintf_r+0x1408>
   10b74:	00812503          	lw	a0,8(sp)
   10b78:	0c410613          	addi	a2,sp,196
   10b7c:	00048593          	mv	a1,s1
   10b80:	2f8010ef          	jal	11e78 <__sprint_r>
   10b84:	ee051c63          	bnez	a0,1027c <_vfprintf_r+0xe90>
   10b88:	0cc12c03          	lw	s8,204(sp)
   10b8c:	0c812a83          	lw	s5,200(sp)
   10b90:	00098b13          	mv	s6,s3
   10b94:	f29fe06f          	j	fabc <_vfprintf_r+0x6d0>
   10b98:	00812503          	lw	a0,8(sp)
   10b9c:	0c410613          	addi	a2,sp,196
   10ba0:	00048593          	mv	a1,s1
   10ba4:	2d4010ef          	jal	11e78 <__sprint_r>
   10ba8:	ec051a63          	bnez	a0,1027c <_vfprintf_r+0xe90>
   10bac:	0cc12c03          	lw	s8,204(sp)
   10bb0:	0c812a83          	lw	s5,200(sp)
   10bb4:	00098b13          	mv	s6,s3
   10bb8:	f35fe06f          	j	faec <_vfprintf_r+0x700>
   10bbc:	200cf793          	andi	a5,s9,512
   10bc0:	70079063          	bnez	a5,112c0 <_vfprintf_r+0x1ed4>
   10bc4:	00000d93          	li	s11,0
   10bc8:	c2dff06f          	j	107f4 <_vfprintf_r+0x1408>
   10bcc:	ccccd837          	lui	a6,0xccccd
   10bd0:	ccccdcb7          	lui	s9,0xccccd
   10bd4:	03c12703          	lw	a4,60(sp)
   10bd8:	400eff13          	andi	t5,t4,1024
   10bdc:	00000613          	li	a2,0
   10be0:	19010593          	addi	a1,sp,400
   10be4:	00500e13          	li	t3,5
   10be8:	ccd80813          	addi	a6,a6,-819 # cccccccd <_end+0xcccafa69>
   10bec:	cccc8c93          	addi	s9,s9,-820 # cccccccc <_end+0xcccafa68>
   10bf0:	0ff00c13          	li	s8,255
   10bf4:	0540006f          	j	10c48 <_vfprintf_r+0x185c>
   10bf8:	016d37b3          	sltu	a5,s10,s6
   10bfc:	00fd07b3          	add	a5,s10,a5
   10c00:	03c7f7b3          	remu	a5,a5,t3
   10c04:	40fb07b3          	sub	a5,s6,a5
   10c08:	00fb35b3          	sltu	a1,s6,a5
   10c0c:	40bd85b3          	sub	a1,s11,a1
   10c10:	03978333          	mul	t1,a5,s9
   10c14:	030585b3          	mul	a1,a1,a6
   10c18:	0307b533          	mulhu	a0,a5,a6
   10c1c:	006585b3          	add	a1,a1,t1
   10c20:	030787b3          	mul	a5,a5,a6
   10c24:	00a585b3          	add	a1,a1,a0
   10c28:	01f59513          	slli	a0,a1,0x1f
   10c2c:	0015d593          	srli	a1,a1,0x1
   10c30:	0017d793          	srli	a5,a5,0x1
   10c34:	00f567b3          	or	a5,a0,a5
   10c38:	400d88e3          	beqz	s11,11848 <_vfprintf_r+0x245c>
   10c3c:	00058d93          	mv	s11,a1
   10c40:	00078b13          	mv	s6,a5
   10c44:	00068593          	mv	a1,a3
   10c48:	01bb0d33          	add	s10,s6,s11
   10c4c:	016d37b3          	sltu	a5,s10,s6
   10c50:	00fd07b3          	add	a5,s10,a5
   10c54:	03c7f7b3          	remu	a5,a5,t3
   10c58:	fff58693          	addi	a3,a1,-1
   10c5c:	00160613          	addi	a2,a2,1
   10c60:	40fb07b3          	sub	a5,s6,a5
   10c64:	00fb3533          	sltu	a0,s6,a5
   10c68:	40ad8533          	sub	a0,s11,a0
   10c6c:	0307b333          	mulhu	t1,a5,a6
   10c70:	03050533          	mul	a0,a0,a6
   10c74:	030787b3          	mul	a5,a5,a6
   10c78:	00650533          	add	a0,a0,t1
   10c7c:	01f51513          	slli	a0,a0,0x1f
   10c80:	0017d793          	srli	a5,a5,0x1
   10c84:	00f567b3          	or	a5,a0,a5
   10c88:	00279513          	slli	a0,a5,0x2
   10c8c:	00f507b3          	add	a5,a0,a5
   10c90:	00179793          	slli	a5,a5,0x1
   10c94:	40fb07b3          	sub	a5,s6,a5
   10c98:	03078793          	addi	a5,a5,48
   10c9c:	fef58fa3          	sb	a5,-1(a1)
   10ca0:	f40f0ce3          	beqz	t5,10bf8 <_vfprintf_r+0x180c>
   10ca4:	00074783          	lbu	a5,0(a4)
   10ca8:	f4f618e3          	bne	a2,a5,10bf8 <_vfprintf_r+0x180c>
   10cac:	f58606e3          	beq	a2,s8,10bf8 <_vfprintf_r+0x180c>
   10cb0:	4c0d9a63          	bnez	s11,11184 <_vfprintf_r+0x1d98>
   10cb4:	00900793          	li	a5,9
   10cb8:	4d67e663          	bltu	a5,s6,11184 <_vfprintf_r+0x1d98>
   10cbc:	00068d13          	mv	s10,a3
   10cc0:	19010793          	addi	a5,sp,400
   10cc4:	02c12023          	sw	a2,32(sp)
   10cc8:	02e12e23          	sw	a4,60(sp)
   10ccc:	41a78b33          	sub	s6,a5,s10
   10cd0:	000e8c93          	mv	s9,t4
   10cd4:	ba1fe06f          	j	f874 <_vfprintf_r+0x488>
   10cd8:	0c812703          	lw	a4,200(sp)
   10cdc:	000195b7          	lui	a1,0x19
   10ce0:	74058593          	addi	a1,a1,1856 # 19740 <_getpid_r+0x624>
   10ce4:	00b42023          	sw	a1,0(s0)
   10ce8:	00160613          	addi	a2,a2,1
   10cec:	00100593          	li	a1,1
   10cf0:	00170713          	addi	a4,a4,1
   10cf4:	00b42223          	sw	a1,4(s0)
   10cf8:	0cc12623          	sw	a2,204(sp)
   10cfc:	0ce12423          	sw	a4,200(sp)
   10d00:	00700593          	li	a1,7
   10d04:	00840413          	addi	s0,s0,8
   10d08:	52e5c863          	blt	a1,a4,11238 <_vfprintf_r+0x1e4c>
   10d0c:	12051e63          	bnez	a0,10e48 <_vfprintf_r+0x1a5c>
   10d10:	02012783          	lw	a5,32(sp)
   10d14:	001cf713          	andi	a4,s9,1
   10d18:	00f76733          	or	a4,a4,a5
   10d1c:	00071463          	bnez	a4,10d24 <_vfprintf_r+0x1938>
   10d20:	9b9fe06f          	j	f6d8 <_vfprintf_r+0x2ec>
   10d24:	03012703          	lw	a4,48(sp)
   10d28:	02c12783          	lw	a5,44(sp)
   10d2c:	00700593          	li	a1,7
   10d30:	00e42023          	sw	a4,0(s0)
   10d34:	0c812703          	lw	a4,200(sp)
   10d38:	00c78633          	add	a2,a5,a2
   10d3c:	00f42223          	sw	a5,4(s0)
   10d40:	00170713          	addi	a4,a4,1
   10d44:	0cc12623          	sw	a2,204(sp)
   10d48:	0ce12423          	sw	a4,200(sp)
   10d4c:	5ae5c863          	blt	a1,a4,112fc <_vfprintf_r+0x1f10>
   10d50:	00840413          	addi	s0,s0,8
   10d54:	1280006f          	j	10e7c <_vfprintf_r+0x1a90>
   10d58:	00812503          	lw	a0,8(sp)
   10d5c:	921fd0ef          	jal	e67c <__sinit>
   10d60:	eecfe06f          	j	f44c <_vfprintf_r+0x60>
   10d64:	00812503          	lw	a0,8(sp)
   10d68:	0c410613          	addi	a2,sp,196
   10d6c:	00048593          	mv	a1,s1
   10d70:	108010ef          	jal	11e78 <__sprint_r>
   10d74:	d0051463          	bnez	a0,1027c <_vfprintf_r+0xe90>
   10d78:	0cc12603          	lw	a2,204(sp)
   10d7c:	00098413          	mv	s0,s3
   10d80:	9f0ff06f          	j	ff70 <_vfprintf_r+0xb84>
   10d84:	000d0813          	mv	a6,s10
   10d88:	01042023          	sw	a6,0(s0)
   10d8c:	01542223          	sw	s5,4(s0)
   10d90:	01560633          	add	a2,a2,s5
   10d94:	00178793          	addi	a5,a5,1
   10d98:	0cc12623          	sw	a2,204(sp)
   10d9c:	0cf12423          	sw	a5,200(sp)
   10da0:	00700713          	li	a4,7
   10da4:	00f74463          	blt	a4,a5,10dac <_vfprintf_r+0x19c0>
   10da8:	92dfe06f          	j	f6d4 <_vfprintf_r+0x2e8>
   10dac:	dddfe06f          	j	fb88 <_vfprintf_r+0x79c>
   10db0:	0d012783          	lw	a5,208(sp)
   10db4:	08010593          	addi	a1,sp,128
   10db8:	09010513          	addi	a0,sp,144
   10dbc:	08f12823          	sw	a5,144(sp)
   10dc0:	0d412783          	lw	a5,212(sp)
   10dc4:	08012023          	sw	zero,128(sp)
   10dc8:	08012223          	sw	zero,132(sp)
   10dcc:	08f12a23          	sw	a5,148(sp)
   10dd0:	0d812783          	lw	a5,216(sp)
   10dd4:	08012423          	sw	zero,136(sp)
   10dd8:	08012623          	sw	zero,140(sp)
   10ddc:	08f12c23          	sw	a5,152(sp)
   10de0:	0dc12783          	lw	a5,220(sp)
   10de4:	08f12e23          	sw	a5,156(sp)
   10de8:	a75f90ef          	jal	a85c <__letf2>
   10dec:	01012883          	lw	a7,16(sp)
   10df0:	260542e3          	bltz	a0,11854 <_vfprintf_r+0x2468>
   10df4:	0a714703          	lbu	a4,167(sp)
   10df8:	04700793          	li	a5,71
   10dfc:	4717d263          	bge	a5,a7,11260 <_vfprintf_r+0x1e74>
   10e00:	000197b7          	lui	a5,0x19
   10e04:	70478d13          	addi	s10,a5,1796 # 19704 <_getpid_r+0x5e8>
   10e08:	00012823          	sw	zero,16(sp)
   10e0c:	02012423          	sw	zero,40(sp)
   10e10:	02012223          	sw	zero,36(sp)
   10e14:	00012e23          	sw	zero,28(sp)
   10e18:	f7fcfc93          	andi	s9,s9,-129
   10e1c:	00300d93          	li	s11,3
   10e20:	00300b13          	li	s6,3
   10e24:	00000a93          	li	s5,0
   10e28:	00070463          	beqz	a4,10e30 <_vfprintf_r+0x1a44>
   10e2c:	a6dfe06f          	j	f898 <_vfprintf_r+0x4ac>
   10e30:	fdcfe06f          	j	f60c <_vfprintf_r+0x220>
   10e34:	01412783          	lw	a5,20(sp)
   10e38:	00c12703          	lw	a4,12(sp)
   10e3c:	0007a783          	lw	a5,0(a5)
   10e40:	00e7a023          	sw	a4,0(a5)
   10e44:	fddfe06f          	j	fe20 <_vfprintf_r+0xa34>
   10e48:	03012703          	lw	a4,48(sp)
   10e4c:	02c12783          	lw	a5,44(sp)
   10e50:	00700593          	li	a1,7
   10e54:	00e42023          	sw	a4,0(s0)
   10e58:	0c812703          	lw	a4,200(sp)
   10e5c:	00c78633          	add	a2,a5,a2
   10e60:	00f42223          	sw	a5,4(s0)
   10e64:	00170713          	addi	a4,a4,1
   10e68:	0cc12623          	sw	a2,204(sp)
   10e6c:	0ce12423          	sw	a4,200(sp)
   10e70:	00840413          	addi	s0,s0,8
   10e74:	48e5c463          	blt	a1,a4,112fc <_vfprintf_r+0x1f10>
   10e78:	34054ce3          	bltz	a0,119d0 <_vfprintf_r+0x25e4>
   10e7c:	02012783          	lw	a5,32(sp)
   10e80:	00170713          	addi	a4,a4,1
   10e84:	01a42023          	sw	s10,0(s0)
   10e88:	00c78633          	add	a2,a5,a2
   10e8c:	00f42223          	sw	a5,4(s0)
   10e90:	0cc12623          	sw	a2,204(sp)
   10e94:	0ce12423          	sw	a4,200(sp)
   10e98:	00700793          	li	a5,7
   10e9c:	00e7c463          	blt	a5,a4,10ea4 <_vfprintf_r+0x1ab8>
   10ea0:	835fe06f          	j	f6d4 <_vfprintf_r+0x2e8>
   10ea4:	ce5fe06f          	j	fb88 <_vfprintf_r+0x79c>
   10ea8:	000d0513          	mv	a0,s10
   10eac:	03112c23          	sw	a7,56(sp)
   10eb0:	f25fd0ef          	jal	edd4 <strlen>
   10eb4:	0a714703          	lbu	a4,167(sp)
   10eb8:	fff54693          	not	a3,a0
   10ebc:	41f6d693          	srai	a3,a3,0x1f
   10ec0:	01812a23          	sw	s8,20(sp)
   10ec4:	00012823          	sw	zero,16(sp)
   10ec8:	02012423          	sw	zero,40(sp)
   10ecc:	02012223          	sw	zero,36(sp)
   10ed0:	00012e23          	sw	zero,28(sp)
   10ed4:	03812883          	lw	a7,56(sp)
   10ed8:	00050b13          	mv	s6,a0
   10edc:	00d57db3          	and	s11,a0,a3
   10ee0:	00000a93          	li	s5,0
   10ee4:	00070463          	beqz	a4,10eec <_vfprintf_r+0x1b00>
   10ee8:	9b1fe06f          	j	f898 <_vfprintf_r+0x4ac>
   10eec:	f20fe06f          	j	f60c <_vfprintf_r+0x220>
   10ef0:	00090813          	mv	a6,s2
   10ef4:	01c12903          	lw	s2,28(sp)
   10ef8:	008c0c33          	add	s8,s8,s0
   10efc:	001a8a93          	addi	s5,s5,1
   10f00:	010b2023          	sw	a6,0(s6)
   10f04:	c41fe06f          	j	fb44 <_vfprintf_r+0x758>
   10f08:	0dc12783          	lw	a5,220(sp)
   10f0c:	3c07c663          	bltz	a5,112d8 <_vfprintf_r+0x1eec>
   10f10:	0a714703          	lbu	a4,167(sp)
   10f14:	04700793          	li	a5,71
   10f18:	1717cce3          	blt	a5,a7,11890 <_vfprintf_r+0x24a4>
   10f1c:	000197b7          	lui	a5,0x19
   10f20:	70878d13          	addi	s10,a5,1800 # 19708 <_getpid_r+0x5ec>
   10f24:	ee5ff06f          	j	10e08 <_vfprintf_r+0x1a1c>
   10f28:	00040813          	mv	a6,s0
   10f2c:	00078413          	mv	s0,a5
   10f30:	01560633          	add	a2,a2,s5
   10f34:	00170713          	addi	a4,a4,1
   10f38:	01042023          	sw	a6,0(s0)
   10f3c:	01542223          	sw	s5,4(s0)
   10f40:	0cc12623          	sw	a2,204(sp)
   10f44:	0ce12423          	sw	a4,200(sp)
   10f48:	00700593          	li	a1,7
   10f4c:	00840413          	addi	s0,s0,8
   10f50:	dae5d063          	bge	a1,a4,104f0 <_vfprintf_r+0x1104>
   10f54:	00812503          	lw	a0,8(sp)
   10f58:	0c410613          	addi	a2,sp,196
   10f5c:	00048593          	mv	a1,s1
   10f60:	719000ef          	jal	11e78 <__sprint_r>
   10f64:	b0051c63          	bnez	a0,1027c <_vfprintf_r+0xe90>
   10f68:	0cc12603          	lw	a2,204(sp)
   10f6c:	00098413          	mv	s0,s3
   10f70:	d80ff06f          	j	104f0 <_vfprintf_r+0x1104>
   10f74:	02012783          	lw	a5,32(sp)
   10f78:	02412b03          	lw	s6,36(sp)
   10f7c:	0001a8b7          	lui	a7,0x1a
   10f80:	00fd07b3          	add	a5,s10,a5
   10f84:	03212c23          	sw	s2,56(sp)
   10f88:	05912623          	sw	s9,76(sp)
   10f8c:	05712823          	sw	s7,80(sp)
   10f90:	03b12223          	sw	s11,36(sp)
   10f94:	02812d83          	lw	s11,40(sp)
   10f98:	03a12423          	sw	s10,40(sp)
   10f9c:	03c12c83          	lw	s9,60(sp)
   10fa0:	000c0d13          	mv	s10,s8
   10fa4:	00812903          	lw	s2,8(sp)
   10fa8:	04812c03          	lw	s8,72(sp)
   10fac:	00700813          	li	a6,7
   10fb0:	01000713          	li	a4,16
   10fb4:	a0c88a93          	addi	s5,a7,-1524 # 19a0c <zeroes.0>
   10fb8:	00040593          	mv	a1,s0
   10fbc:	00078b93          	mv	s7,a5
   10fc0:	09605663          	blez	s6,1104c <_vfprintf_r+0x1c60>
   10fc4:	17b05063          	blez	s11,11124 <_vfprintf_r+0x1d38>
   10fc8:	fffd8d93          	addi	s11,s11,-1
   10fcc:	04412783          	lw	a5,68(sp)
   10fd0:	01860633          	add	a2,a2,s8
   10fd4:	0185a223          	sw	s8,4(a1)
   10fd8:	00f5a023          	sw	a5,0(a1)
   10fdc:	0c812783          	lw	a5,200(sp)
   10fe0:	0cc12623          	sw	a2,204(sp)
   10fe4:	00858593          	addi	a1,a1,8
   10fe8:	00178793          	addi	a5,a5,1
   10fec:	0cf12423          	sw	a5,200(sp)
   10ff0:	14f84063          	blt	a6,a5,11130 <_vfprintf_r+0x1d44>
   10ff4:	000cc683          	lbu	a3,0(s9)
   10ff8:	41ab8433          	sub	s0,s7,s10
   10ffc:	0086d463          	bge	a3,s0,11004 <_vfprintf_r+0x1c18>
   11000:	00068413          	mv	s0,a3
   11004:	02805663          	blez	s0,11030 <_vfprintf_r+0x1c44>
   11008:	0c812683          	lw	a3,200(sp)
   1100c:	00860633          	add	a2,a2,s0
   11010:	01a5a023          	sw	s10,0(a1)
   11014:	00168693          	addi	a3,a3,1
   11018:	0085a223          	sw	s0,4(a1)
   1101c:	0cc12623          	sw	a2,204(sp)
   11020:	0cd12423          	sw	a3,200(sp)
   11024:	12d84a63          	blt	a6,a3,11158 <_vfprintf_r+0x1d6c>
   11028:	000cc683          	lbu	a3,0(s9)
   1102c:	00858593          	addi	a1,a1,8
   11030:	fff44513          	not	a0,s0
   11034:	41f55513          	srai	a0,a0,0x1f
   11038:	00a477b3          	and	a5,s0,a0
   1103c:	40f68433          	sub	s0,a3,a5
   11040:	04804263          	bgtz	s0,11084 <_vfprintf_r+0x1c98>
   11044:	00dd0d33          	add	s10,s10,a3
   11048:	f7604ee3          	bgtz	s6,10fc4 <_vfprintf_r+0x1bd8>
   1104c:	f7b04ee3          	bgtz	s11,10fc8 <_vfprintf_r+0x1bdc>
   11050:	02012783          	lw	a5,32(sp)
   11054:	000d0c13          	mv	s8,s10
   11058:	02812d03          	lw	s10,40(sp)
   1105c:	03912e23          	sw	s9,60(sp)
   11060:	03812903          	lw	s2,56(sp)
   11064:	00fd0733          	add	a4,s10,a5
   11068:	04c12c83          	lw	s9,76(sp)
   1106c:	05012b83          	lw	s7,80(sp)
   11070:	02412d83          	lw	s11,36(sp)
   11074:	00058413          	mv	s0,a1
   11078:	c9877463          	bgeu	a4,s8,10500 <_vfprintf_r+0x1114>
   1107c:	00070c13          	mv	s8,a4
   11080:	c80ff06f          	j	10500 <_vfprintf_r+0x1114>
   11084:	0001af37          	lui	t5,0x1a
   11088:	0c812683          	lw	a3,200(sp)
   1108c:	a0cf0f13          	addi	t5,t5,-1524 # 19a0c <zeroes.0>
   11090:	06875463          	bge	a4,s0,110f8 <_vfprintf_r+0x1d0c>
   11094:	01512e23          	sw	s5,28(sp)
   11098:	00c0006f          	j	110a4 <_vfprintf_r+0x1cb8>
   1109c:	ff040413          	addi	s0,s0,-16
   110a0:	04875a63          	bge	a4,s0,110f4 <_vfprintf_r+0x1d08>
   110a4:	01060613          	addi	a2,a2,16
   110a8:	00168693          	addi	a3,a3,1
   110ac:	0155a023          	sw	s5,0(a1)
   110b0:	00e5a223          	sw	a4,4(a1)
   110b4:	0cc12623          	sw	a2,204(sp)
   110b8:	0cd12423          	sw	a3,200(sp)
   110bc:	00858593          	addi	a1,a1,8
   110c0:	fcd85ee3          	bge	a6,a3,1109c <_vfprintf_r+0x1cb0>
   110c4:	0c410613          	addi	a2,sp,196
   110c8:	00048593          	mv	a1,s1
   110cc:	00090513          	mv	a0,s2
   110d0:	5a9000ef          	jal	11e78 <__sprint_r>
   110d4:	9a051463          	bnez	a0,1027c <_vfprintf_r+0xe90>
   110d8:	01000713          	li	a4,16
   110dc:	ff040413          	addi	s0,s0,-16
   110e0:	0cc12603          	lw	a2,204(sp)
   110e4:	0c812683          	lw	a3,200(sp)
   110e8:	00098593          	mv	a1,s3
   110ec:	00700813          	li	a6,7
   110f0:	fa874ae3          	blt	a4,s0,110a4 <_vfprintf_r+0x1cb8>
   110f4:	01c12f03          	lw	t5,28(sp)
   110f8:	00860633          	add	a2,a2,s0
   110fc:	00168693          	addi	a3,a3,1
   11100:	01e5a023          	sw	t5,0(a1)
   11104:	0085a223          	sw	s0,4(a1)
   11108:	0cc12623          	sw	a2,204(sp)
   1110c:	0cd12423          	sw	a3,200(sp)
   11110:	70d84263          	blt	a6,a3,11814 <_vfprintf_r+0x2428>
   11114:	000cc683          	lbu	a3,0(s9)
   11118:	00858593          	addi	a1,a1,8
   1111c:	00dd0d33          	add	s10,s10,a3
   11120:	f29ff06f          	j	11048 <_vfprintf_r+0x1c5c>
   11124:	fffc8c93          	addi	s9,s9,-1
   11128:	fffb0b13          	addi	s6,s6,-1
   1112c:	ea1ff06f          	j	10fcc <_vfprintf_r+0x1be0>
   11130:	0c410613          	addi	a2,sp,196
   11134:	00048593          	mv	a1,s1
   11138:	00090513          	mv	a0,s2
   1113c:	53d000ef          	jal	11e78 <__sprint_r>
   11140:	92051e63          	bnez	a0,1027c <_vfprintf_r+0xe90>
   11144:	0cc12603          	lw	a2,204(sp)
   11148:	00098593          	mv	a1,s3
   1114c:	01000713          	li	a4,16
   11150:	00700813          	li	a6,7
   11154:	ea1ff06f          	j	10ff4 <_vfprintf_r+0x1c08>
   11158:	0c410613          	addi	a2,sp,196
   1115c:	00048593          	mv	a1,s1
   11160:	00090513          	mv	a0,s2
   11164:	515000ef          	jal	11e78 <__sprint_r>
   11168:	90051a63          	bnez	a0,1027c <_vfprintf_r+0xe90>
   1116c:	000cc683          	lbu	a3,0(s9)
   11170:	0cc12603          	lw	a2,204(sp)
   11174:	00098593          	mv	a1,s3
   11178:	01000713          	li	a4,16
   1117c:	00700813          	li	a6,7
   11180:	eb1ff06f          	j	11030 <_vfprintf_r+0x1c44>
   11184:	04812783          	lw	a5,72(sp)
   11188:	04412583          	lw	a1,68(sp)
   1118c:	03012c23          	sw	a6,56(sp)
   11190:	40f686b3          	sub	a3,a3,a5
   11194:	00078613          	mv	a2,a5
   11198:	00068513          	mv	a0,a3
   1119c:	03e12423          	sw	t5,40(sp)
   111a0:	03d12223          	sw	t4,36(sp)
   111a4:	03112023          	sw	a7,32(sp)
   111a8:	00e12e23          	sw	a4,28(sp)
   111ac:	00d12823          	sw	a3,16(sp)
   111b0:	0c8030ef          	jal	14278 <strncpy>
   111b4:	016d37b3          	sltu	a5,s10,s6
   111b8:	00500613          	li	a2,5
   111bc:	00fd07b3          	add	a5,s10,a5
   111c0:	02c7f7b3          	remu	a5,a5,a2
   111c4:	01c12703          	lw	a4,28(sp)
   111c8:	ccccd337          	lui	t1,0xccccd
   111cc:	ccccd537          	lui	a0,0xccccd
   111d0:	00174583          	lbu	a1,1(a4)
   111d4:	ccd30313          	addi	t1,t1,-819 # cccccccd <_end+0xcccafa69>
   111d8:	ccc50513          	addi	a0,a0,-820 # cccccccc <_end+0xcccafa68>
   111dc:	00b035b3          	snez	a1,a1
   111e0:	00b70733          	add	a4,a4,a1
   111e4:	01012683          	lw	a3,16(sp)
   111e8:	02012883          	lw	a7,32(sp)
   111ec:	02412e83          	lw	t4,36(sp)
   111f0:	02812f03          	lw	t5,40(sp)
   111f4:	03812803          	lw	a6,56(sp)
   111f8:	00000613          	li	a2,0
   111fc:	00500e13          	li	t3,5
   11200:	40fb07b3          	sub	a5,s6,a5
   11204:	00fb35b3          	sltu	a1,s6,a5
   11208:	40bd85b3          	sub	a1,s11,a1
   1120c:	02a78533          	mul	a0,a5,a0
   11210:	026585b3          	mul	a1,a1,t1
   11214:	0267bfb3          	mulhu	t6,a5,t1
   11218:	00a585b3          	add	a1,a1,a0
   1121c:	02678533          	mul	a0,a5,t1
   11220:	01f585b3          	add	a1,a1,t6
   11224:	01f59793          	slli	a5,a1,0x1f
   11228:	0015d593          	srli	a1,a1,0x1
   1122c:	00155513          	srli	a0,a0,0x1
   11230:	00a7e7b3          	or	a5,a5,a0
   11234:	a09ff06f          	j	10c3c <_vfprintf_r+0x1850>
   11238:	00812503          	lw	a0,8(sp)
   1123c:	0c410613          	addi	a2,sp,196
   11240:	00048593          	mv	a1,s1
   11244:	435000ef          	jal	11e78 <__sprint_r>
   11248:	00050463          	beqz	a0,11250 <_vfprintf_r+0x1e64>
   1124c:	830ff06f          	j	1027c <_vfprintf_r+0xe90>
   11250:	0ac12503          	lw	a0,172(sp)
   11254:	0cc12603          	lw	a2,204(sp)
   11258:	00098413          	mv	s0,s3
   1125c:	ab1ff06f          	j	10d0c <_vfprintf_r+0x1920>
   11260:	000197b7          	lui	a5,0x19
   11264:	70078d13          	addi	s10,a5,1792 # 19700 <_getpid_r+0x5e4>
   11268:	ba1ff06f          	j	10e08 <_vfprintf_r+0x1a1c>
   1126c:	00812503          	lw	a0,8(sp)
   11270:	0c410613          	addi	a2,sp,196
   11274:	00048593          	mv	a1,s1
   11278:	401000ef          	jal	11e78 <__sprint_r>
   1127c:	00050463          	beqz	a0,11284 <_vfprintf_r+0x1e98>
   11280:	ffdfe06f          	j	1027c <_vfprintf_r+0xe90>
   11284:	0cc12603          	lw	a2,204(sp)
   11288:	00098413          	mv	s0,s3
   1128c:	a4cff06f          	j	104d8 <_vfprintf_r+0x10ec>
   11290:	00600b13          	li	s6,6
   11294:	df0ff06f          	j	10884 <_vfprintf_r+0x1498>
   11298:	01412783          	lw	a5,20(sp)
   1129c:	00c12703          	lw	a4,12(sp)
   112a0:	0007a783          	lw	a5,0(a5)
   112a4:	00e79023          	sh	a4,0(a5)
   112a8:	b79fe06f          	j	fe20 <_vfprintf_r+0xa34>
   112ac:	018b1b13          	slli	s6,s6,0x18
   112b0:	418b5b13          	srai	s6,s6,0x18
   112b4:	41fb5d93          	srai	s11,s6,0x1f
   112b8:	000d8793          	mv	a5,s11
   112bc:	d90fe06f          	j	f84c <_vfprintf_r+0x460>
   112c0:	0ffb7b13          	zext.b	s6,s6
   112c4:	00000d93          	li	s11,0
   112c8:	d2cff06f          	j	107f4 <_vfprintf_r+0x1408>
   112cc:	0ffb7b13          	zext.b	s6,s6
   112d0:	00000d93          	li	s11,0
   112d4:	df4fe06f          	j	f8c8 <_vfprintf_r+0x4dc>
   112d8:	02d00793          	li	a5,45
   112dc:	0af103a3          	sb	a5,167(sp)
   112e0:	02d00713          	li	a4,45
   112e4:	c31ff06f          	j	10f14 <_vfprintf_r+0x1b28>
   112e8:	00812503          	lw	a0,8(sp)
   112ec:	0c410613          	addi	a2,sp,196
   112f0:	00048593          	mv	a1,s1
   112f4:	385000ef          	jal	11e78 <__sprint_r>
   112f8:	c40fe06f          	j	f738 <_vfprintf_r+0x34c>
   112fc:	00812503          	lw	a0,8(sp)
   11300:	0c410613          	addi	a2,sp,196
   11304:	00048593          	mv	a1,s1
   11308:	371000ef          	jal	11e78 <__sprint_r>
   1130c:	00050463          	beqz	a0,11314 <_vfprintf_r+0x1f28>
   11310:	f6dfe06f          	j	1027c <_vfprintf_r+0xe90>
   11314:	0ac12503          	lw	a0,172(sp)
   11318:	0cc12603          	lw	a2,204(sp)
   1131c:	0c812703          	lw	a4,200(sp)
   11320:	00098413          	mv	s0,s3
   11324:	b55ff06f          	j	10e78 <_vfprintf_r+0x1a8c>
   11328:	01550733          	add	a4,a0,s5
   1132c:	04700613          	li	a2,71
   11330:	08010593          	addi	a1,sp,128
   11334:	000b0513          	mv	a0,s6
   11338:	02e12223          	sw	a4,36(sp)
   1133c:	02c12023          	sw	a2,32(sp)
   11340:	01112e23          	sw	a7,28(sp)
   11344:	09f12823          	sw	t6,144(sp)
   11348:	09e12a23          	sw	t5,148(sp)
   1134c:	09d12c23          	sw	t4,152(sp)
   11350:	09812e23          	sw	s8,156(sp)
   11354:	08012023          	sw	zero,128(sp)
   11358:	08012223          	sw	zero,132(sp)
   1135c:	08012423          	sw	zero,136(sp)
   11360:	08012623          	sw	zero,140(sp)
   11364:	afcf90ef          	jal	a660 <__eqtf2>
   11368:	01c12883          	lw	a7,28(sp)
   1136c:	02012603          	lw	a2,32(sp)
   11370:	02412703          	lw	a4,36(sp)
   11374:	54050c63          	beqz	a0,118cc <_vfprintf_r+0x24e0>
   11378:	0bc12783          	lw	a5,188(sp)
   1137c:	00e7fe63          	bgeu	a5,a4,11398 <_vfprintf_r+0x1fac>
   11380:	03000593          	li	a1,48
   11384:	00178693          	addi	a3,a5,1
   11388:	0ad12e23          	sw	a3,188(sp)
   1138c:	00b78023          	sb	a1,0(a5)
   11390:	0bc12783          	lw	a5,188(sp)
   11394:	fee7e8e3          	bltu	a5,a4,11384 <_vfprintf_r+0x1f98>
   11398:	0ac12703          	lw	a4,172(sp)
   1139c:	00e12e23          	sw	a4,28(sp)
   113a0:	41a787b3          	sub	a5,a5,s10
   113a4:	04700713          	li	a4,71
   113a8:	02f12023          	sw	a5,32(sp)
   113ac:	e6e60a63          	beq	a2,a4,10a20 <_vfprintf_r+0x1634>
   113b0:	04600713          	li	a4,70
   113b4:	5ae60c63          	beq	a2,a4,1196c <_vfprintf_r+0x2580>
   113b8:	01c12783          	lw	a5,28(sp)
   113bc:	fff78713          	addi	a4,a5,-1
   113c0:	e7cff06f          	j	10a3c <_vfprintf_r+0x1650>
   113c4:	001a8693          	addi	a3,s5,1
   113c8:	00200613          	li	a2,2
   113cc:	00812503          	lw	a0,8(sp)
   113d0:	09010b13          	addi	s6,sp,144
   113d4:	0ac10713          	addi	a4,sp,172
   113d8:	000b0593          	mv	a1,s6
   113dc:	0bc10813          	addi	a6,sp,188
   113e0:	0b010793          	addi	a5,sp,176
   113e4:	05112823          	sw	a7,80(sp)
   113e8:	02d12423          	sw	a3,40(sp)
   113ec:	09f12823          	sw	t6,144(sp)
   113f0:	03f12223          	sw	t6,36(sp)
   113f4:	09e12a23          	sw	t5,148(sp)
   113f8:	03e12023          	sw	t5,32(sp)
   113fc:	09d12c23          	sw	t4,152(sp)
   11400:	01d12e23          	sw	t4,28(sp)
   11404:	09812e23          	sw	s8,156(sp)
   11408:	574030ef          	jal	1497c <_ldtoa_r>
   1140c:	05012883          	lw	a7,80(sp)
   11410:	02812683          	lw	a3,40(sp)
   11414:	04600593          	li	a1,70
   11418:	fdf8f613          	andi	a2,a7,-33
   1141c:	01c12e83          	lw	t4,28(sp)
   11420:	02012f03          	lw	t5,32(sp)
   11424:	02412f83          	lw	t6,36(sp)
   11428:	00050d13          	mv	s10,a0
   1142c:	00d50733          	add	a4,a0,a3
   11430:	02b612e3          	bne	a2,a1,11c54 <_vfprintf_r+0x2868>
   11434:	000d4503          	lbu	a0,0(s10)
   11438:	03000593          	li	a1,48
   1143c:	4ab50663          	beq	a0,a1,118e8 <_vfprintf_r+0x24fc>
   11440:	0ac12683          	lw	a3,172(sp)
   11444:	08010593          	addi	a1,sp,128
   11448:	00d70733          	add	a4,a4,a3
   1144c:	ee9ff06f          	j	11334 <_vfprintf_r+0x1f48>
   11450:	09010b13          	addi	s6,sp,144
   11454:	08010593          	addi	a1,sp,128
   11458:	0ac10613          	addi	a2,sp,172
   1145c:	000b0513          	mv	a0,s6
   11460:	05112023          	sw	a7,64(sp)
   11464:	09f12023          	sw	t6,128(sp)
   11468:	09e12223          	sw	t5,132(sp)
   1146c:	09d12423          	sw	t4,136(sp)
   11470:	00b12e23          	sw	a1,28(sp)
   11474:	09812623          	sw	s8,140(sp)
   11478:	2e4030ef          	jal	1475c <frexpl>
   1147c:	09012703          	lw	a4,144(sp)
   11480:	01c12583          	lw	a1,28(sp)
   11484:	07010613          	addi	a2,sp,112
   11488:	08e12023          	sw	a4,128(sp)
   1148c:	09412703          	lw	a4,148(sp)
   11490:	000b0513          	mv	a0,s6
   11494:	06012823          	sw	zero,112(sp)
   11498:	08e12223          	sw	a4,132(sp)
   1149c:	09812703          	lw	a4,152(sp)
   114a0:	06012a23          	sw	zero,116(sp)
   114a4:	06012c23          	sw	zero,120(sp)
   114a8:	08e12423          	sw	a4,136(sp)
   114ac:	09c12703          	lw	a4,156(sp)
   114b0:	08e12623          	sw	a4,140(sp)
   114b4:	3ffc0737          	lui	a4,0x3ffc0
   114b8:	06e12e23          	sw	a4,124(sp)
   114bc:	cd0f90ef          	jal	a98c <__multf3>
   114c0:	01c12583          	lw	a1,28(sp)
   114c4:	09012f03          	lw	t5,144(sp)
   114c8:	09412e83          	lw	t4,148(sp)
   114cc:	09812803          	lw	a6,152(sp)
   114d0:	000b0513          	mv	a0,s6
   114d4:	02b12423          	sw	a1,40(sp)
   114d8:	03e12223          	sw	t5,36(sp)
   114dc:	03d12023          	sw	t4,32(sp)
   114e0:	01012e23          	sw	a6,28(sp)
   114e4:	08012023          	sw	zero,128(sp)
   114e8:	08012223          	sw	zero,132(sp)
   114ec:	08012423          	sw	zero,136(sp)
   114f0:	08012623          	sw	zero,140(sp)
   114f4:	96cf90ef          	jal	a660 <__eqtf2>
   114f8:	09c12d83          	lw	s11,156(sp)
   114fc:	01c12803          	lw	a6,28(sp)
   11500:	02012e83          	lw	t4,32(sp)
   11504:	02412f03          	lw	t5,36(sp)
   11508:	02812583          	lw	a1,40(sp)
   1150c:	04012883          	lw	a7,64(sp)
   11510:	00051663          	bnez	a0,1151c <_vfprintf_r+0x2130>
   11514:	00100713          	li	a4,1
   11518:	0ae12623          	sw	a4,172(sp)
   1151c:	06100713          	li	a4,97
   11520:	6ae88063          	beq	a7,a4,11bc0 <_vfprintf_r+0x27d4>
   11524:	00019737          	lui	a4,0x19
   11528:	72470793          	addi	a5,a4,1828 # 19724 <_getpid_r+0x608>
   1152c:	00f12e23          	sw	a5,28(sp)
   11530:	03212023          	sw	s2,32(sp)
   11534:	03912423          	sw	s9,40(sp)
   11538:	05712023          	sw	s7,64(sp)
   1153c:	04812623          	sw	s0,76(sp)
   11540:	000d0913          	mv	s2,s10
   11544:	04912823          	sw	s1,80(sp)
   11548:	05a12a23          	sw	s10,84(sp)
   1154c:	01c12483          	lw	s1,28(sp)
   11550:	fffa8a93          	addi	s5,s5,-1
   11554:	03112223          	sw	a7,36(sp)
   11558:	000f0b93          	mv	s7,t5
   1155c:	000e8c13          	mv	s8,t4
   11560:	00080c93          	mv	s9,a6
   11564:	000d8d13          	mv	s10,s11
   11568:	00058413          	mv	s0,a1
   1156c:	03c0006f          	j	115a8 <_vfprintf_r+0x21bc>
   11570:	00040593          	mv	a1,s0
   11574:	000b0513          	mv	a0,s6
   11578:	09712823          	sw	s7,144(sp)
   1157c:	09812a23          	sw	s8,148(sp)
   11580:	09912c23          	sw	s9,152(sp)
   11584:	09a12e23          	sw	s10,156(sp)
   11588:	08012023          	sw	zero,128(sp)
   1158c:	08012223          	sw	zero,132(sp)
   11590:	08012423          	sw	zero,136(sp)
   11594:	08012623          	sw	zero,140(sp)
   11598:	fffa8d93          	addi	s11,s5,-1
   1159c:	8c4f90ef          	jal	a660 <__eqtf2>
   115a0:	5c050663          	beqz	a0,11b6c <_vfprintf_r+0x2780>
   115a4:	000d8a93          	mv	s5,s11
   115a8:	400307b7          	lui	a5,0x40030
   115ac:	07010613          	addi	a2,sp,112
   115b0:	00040593          	mv	a1,s0
   115b4:	000b0513          	mv	a0,s6
   115b8:	06f12e23          	sw	a5,124(sp)
   115bc:	09712023          	sw	s7,128(sp)
   115c0:	09812223          	sw	s8,132(sp)
   115c4:	09912423          	sw	s9,136(sp)
   115c8:	09a12623          	sw	s10,140(sp)
   115cc:	06012823          	sw	zero,112(sp)
   115d0:	06012a23          	sw	zero,116(sp)
   115d4:	06012c23          	sw	zero,120(sp)
   115d8:	bb4f90ef          	jal	a98c <__multf3>
   115dc:	000b0513          	mv	a0,s6
   115e0:	8cdfb0ef          	jal	ceac <__fixtfsi>
   115e4:	00050593          	mv	a1,a0
   115e8:	00050d93          	mv	s11,a0
   115ec:	000b0513          	mv	a0,s6
   115f0:	09012d03          	lw	s10,144(sp)
   115f4:	09412c83          	lw	s9,148(sp)
   115f8:	09812c03          	lw	s8,152(sp)
   115fc:	09c12b83          	lw	s7,156(sp)
   11600:	9a5fb0ef          	jal	cfa4 <__floatsitf>
   11604:	09012683          	lw	a3,144(sp)
   11608:	06010613          	addi	a2,sp,96
   1160c:	07010593          	addi	a1,sp,112
   11610:	06d12023          	sw	a3,96(sp)
   11614:	09412683          	lw	a3,148(sp)
   11618:	00040513          	mv	a0,s0
   1161c:	07a12823          	sw	s10,112(sp)
   11620:	06d12223          	sw	a3,100(sp)
   11624:	09812683          	lw	a3,152(sp)
   11628:	07912a23          	sw	s9,116(sp)
   1162c:	07812c23          	sw	s8,120(sp)
   11630:	06d12423          	sw	a3,104(sp)
   11634:	09c12683          	lw	a3,156(sp)
   11638:	07712e23          	sw	s7,124(sp)
   1163c:	06d12623          	sw	a3,108(sp)
   11640:	b50fa0ef          	jal	b990 <__subtf3>
   11644:	01b486b3          	add	a3,s1,s11
   11648:	0006c603          	lbu	a2,0(a3)
   1164c:	00090f93          	mv	t6,s2
   11650:	00190913          	addi	s2,s2,1
   11654:	08012b83          	lw	s7,128(sp)
   11658:	08412c03          	lw	s8,132(sp)
   1165c:	08812c83          	lw	s9,136(sp)
   11660:	08c12d03          	lw	s10,140(sp)
   11664:	fff00793          	li	a5,-1
   11668:	fec90fa3          	sb	a2,-1(s2)
   1166c:	f0fa92e3          	bne	s5,a5,11570 <_vfprintf_r+0x2184>
   11670:	000b8f13          	mv	t5,s7
   11674:	000c0e93          	mv	t4,s8
   11678:	000c8813          	mv	a6,s9
   1167c:	00040593          	mv	a1,s0
   11680:	05b12c23          	sw	s11,88(sp)
   11684:	3ffe0ab7          	lui	s5,0x3ffe0
   11688:	000d0d93          	mv	s11,s10
   1168c:	000b0513          	mv	a0,s6
   11690:	05f12e23          	sw	t6,92(sp)
   11694:	05012483          	lw	s1,80(sp)
   11698:	04012b83          	lw	s7,64(sp)
   1169c:	02812c83          	lw	s9,40(sp)
   116a0:	04c12403          	lw	s0,76(sp)
   116a4:	09e12823          	sw	t5,144(sp)
   116a8:	05e12823          	sw	t5,80(sp)
   116ac:	09d12a23          	sw	t4,148(sp)
   116b0:	05d12623          	sw	t4,76(sp)
   116b4:	09012c23          	sw	a6,152(sp)
   116b8:	05012023          	sw	a6,64(sp)
   116bc:	09b12e23          	sw	s11,156(sp)
   116c0:	08012023          	sw	zero,128(sp)
   116c4:	08012223          	sw	zero,132(sp)
   116c8:	08012423          	sw	zero,136(sp)
   116cc:	09512623          	sw	s5,140(sp)
   116d0:	02b12423          	sw	a1,40(sp)
   116d4:	858f90ef          	jal	a72c <__getf2>
   116d8:	00090c13          	mv	s8,s2
   116dc:	05412d03          	lw	s10,84(sp)
   116e0:	02012903          	lw	s2,32(sp)
   116e4:	02412883          	lw	a7,36(sp)
   116e8:	05c12f83          	lw	t6,92(sp)
   116ec:	02a04663          	bgtz	a0,11718 <_vfprintf_r+0x232c>
   116f0:	02812583          	lw	a1,40(sp)
   116f4:	000b0513          	mv	a0,s6
   116f8:	03f12023          	sw	t6,32(sp)
   116fc:	f65f80ef          	jal	a660 <__eqtf2>
   11700:	02412883          	lw	a7,36(sp)
   11704:	04051e63          	bnez	a0,11760 <_vfprintf_r+0x2374>
   11708:	05812783          	lw	a5,88(sp)
   1170c:	02012f83          	lw	t6,32(sp)
   11710:	0017f693          	andi	a3,a5,1
   11714:	04068663          	beqz	a3,11760 <_vfprintf_r+0x2374>
   11718:	01c12783          	lw	a5,28(sp)
   1171c:	0bf12e23          	sw	t6,188(sp)
   11720:	fffc4603          	lbu	a2,-1(s8)
   11724:	00f7c583          	lbu	a1,15(a5) # 4003000f <_end+0x40012dab>
   11728:	000c0693          	mv	a3,s8
   1172c:	02b61063          	bne	a2,a1,1174c <_vfprintf_r+0x2360>
   11730:	03000513          	li	a0,48
   11734:	fea68fa3          	sb	a0,-1(a3)
   11738:	0bc12683          	lw	a3,188(sp)
   1173c:	fff68793          	addi	a5,a3,-1
   11740:	0af12e23          	sw	a5,188(sp)
   11744:	fff6c603          	lbu	a2,-1(a3)
   11748:	fec586e3          	beq	a1,a2,11734 <_vfprintf_r+0x2348>
   1174c:	00160593          	addi	a1,a2,1
   11750:	03900513          	li	a0,57
   11754:	0ff5f593          	zext.b	a1,a1
   11758:	04a60463          	beq	a2,a0,117a0 <_vfprintf_r+0x23b4>
   1175c:	feb68fa3          	sb	a1,-1(a3)
   11760:	0ac12783          	lw	a5,172(sp)
   11764:	41ac0733          	sub	a4,s8,s10
   11768:	02e12023          	sw	a4,32(sp)
   1176c:	fff78713          	addi	a4,a5,-1
   11770:	00f12e23          	sw	a5,28(sp)
   11774:	06100613          	li	a2,97
   11778:	0ae12623          	sw	a4,172(sp)
   1177c:	07000693          	li	a3,112
   11780:	00c88663          	beq	a7,a2,1178c <_vfprintf_r+0x23a0>
   11784:	05000693          	li	a3,80
   11788:	04100893          	li	a7,65
   1178c:	00100613          	li	a2,1
   11790:	ab8ff06f          	j	10a48 <_vfprintf_r+0x165c>
   11794:	000a8693          	mv	a3,s5
   11798:	00300613          	li	a2,3
   1179c:	c31ff06f          	j	113cc <_vfprintf_r+0x1fe0>
   117a0:	01c12783          	lw	a5,28(sp)
   117a4:	00a7c583          	lbu	a1,10(a5)
   117a8:	fb5ff06f          	j	1175c <_vfprintf_r+0x2370>
   117ac:	0a714703          	lbu	a4,167(sp)
   117b0:	04c12c83          	lw	s9,76(sp)
   117b4:	00000a93          	li	s5,0
   117b8:	00070463          	beqz	a4,117c0 <_vfprintf_r+0x23d4>
   117bc:	8dcfe06f          	j	f898 <_vfprintf_r+0x4ac>
   117c0:	e4dfd06f          	j	f60c <_vfprintf_r+0x220>
   117c4:	02012783          	lw	a5,32(sp)
   117c8:	01c12703          	lw	a4,28(sp)
   117cc:	1cf74a63          	blt	a4,a5,119a0 <_vfprintf_r+0x25b4>
   117d0:	01c12783          	lw	a5,28(sp)
   117d4:	001cf713          	andi	a4,s9,1
   117d8:	00078b13          	mv	s6,a5
   117dc:	00070663          	beqz	a4,117e8 <_vfprintf_r+0x23fc>
   117e0:	02c12703          	lw	a4,44(sp)
   117e4:	00e78b33          	add	s6,a5,a4
   117e8:	400cfe13          	andi	t3,s9,1024
   117ec:	000e0663          	beqz	t3,117f8 <_vfprintf_r+0x240c>
   117f0:	01c12783          	lw	a5,28(sp)
   117f4:	2ef04c63          	bgtz	a5,11aec <_vfprintf_r+0x2700>
   117f8:	fffb4693          	not	a3,s6
   117fc:	41f6d693          	srai	a3,a3,0x1f
   11800:	00db7db3          	and	s11,s6,a3
   11804:	06700893          	li	a7,103
   11808:	02012423          	sw	zero,40(sp)
   1180c:	02012223          	sw	zero,36(sp)
   11810:	b14ff06f          	j	10b24 <_vfprintf_r+0x1738>
   11814:	0c410613          	addi	a2,sp,196
   11818:	00048593          	mv	a1,s1
   1181c:	00090513          	mv	a0,s2
   11820:	658000ef          	jal	11e78 <__sprint_r>
   11824:	00050463          	beqz	a0,1182c <_vfprintf_r+0x2440>
   11828:	a55fe06f          	j	1027c <_vfprintf_r+0xe90>
   1182c:	000cc683          	lbu	a3,0(s9)
   11830:	0cc12603          	lw	a2,204(sp)
   11834:	00098593          	mv	a1,s3
   11838:	01000713          	li	a4,16
   1183c:	00700813          	li	a6,7
   11840:	00dd0d33          	add	s10,s10,a3
   11844:	805ff06f          	j	11048 <_vfprintf_r+0x1c5c>
   11848:	00900513          	li	a0,9
   1184c:	bf656863          	bltu	a0,s6,10c3c <_vfprintf_r+0x1850>
   11850:	c6cff06f          	j	10cbc <_vfprintf_r+0x18d0>
   11854:	02d00793          	li	a5,45
   11858:	0af103a3          	sb	a5,167(sp)
   1185c:	02d00713          	li	a4,45
   11860:	d98ff06f          	j	10df8 <_vfprintf_r+0x1a0c>
   11864:	0a714703          	lbu	a4,167(sp)
   11868:	01812a23          	sw	s8,20(sp)
   1186c:	02012423          	sw	zero,40(sp)
   11870:	02012223          	sw	zero,36(sp)
   11874:	00012e23          	sw	zero,28(sp)
   11878:	000a8d93          	mv	s11,s5
   1187c:	000a8b13          	mv	s6,s5
   11880:	00000a93          	li	s5,0
   11884:	00070463          	beqz	a4,1188c <_vfprintf_r+0x24a0>
   11888:	810fe06f          	j	f898 <_vfprintf_r+0x4ac>
   1188c:	d81fd06f          	j	f60c <_vfprintf_r+0x220>
   11890:	000197b7          	lui	a5,0x19
   11894:	70c78d13          	addi	s10,a5,1804 # 1970c <_getpid_r+0x5f0>
   11898:	d70ff06f          	j	10e08 <_vfprintf_r+0x1a1c>
   1189c:	00812503          	lw	a0,8(sp)
   118a0:	0c410613          	addi	a2,sp,196
   118a4:	00048593          	mv	a1,s1
   118a8:	5d0000ef          	jal	11e78 <__sprint_r>
   118ac:	00050463          	beqz	a0,118b4 <_vfprintf_r+0x24c8>
   118b0:	9cdfe06f          	j	1027c <_vfprintf_r+0xe90>
   118b4:	0ac12a83          	lw	s5,172(sp)
   118b8:	02012783          	lw	a5,32(sp)
   118bc:	0cc12603          	lw	a2,204(sp)
   118c0:	00098413          	mv	s0,s3
   118c4:	41578ab3          	sub	s5,a5,s5
   118c8:	c95fe06f          	j	1055c <_vfprintf_r+0x1170>
   118cc:	0ac12783          	lw	a5,172(sp)
   118d0:	00f12e23          	sw	a5,28(sp)
   118d4:	00070793          	mv	a5,a4
   118d8:	ac9ff06f          	j	113a0 <_vfprintf_r+0x1fb4>
   118dc:	fff00793          	li	a5,-1
   118e0:	00f12623          	sw	a5,12(sp)
   118e4:	e89fd06f          	j	f76c <_vfprintf_r+0x380>
   118e8:	08010593          	addi	a1,sp,128
   118ec:	000b0513          	mv	a0,s6
   118f0:	04e12e23          	sw	a4,92(sp)
   118f4:	04c12c23          	sw	a2,88(sp)
   118f8:	05112a23          	sw	a7,84(sp)
   118fc:	04d12823          	sw	a3,80(sp)
   11900:	09f12823          	sw	t6,144(sp)
   11904:	03f12423          	sw	t6,40(sp)
   11908:	09e12a23          	sw	t5,148(sp)
   1190c:	03e12223          	sw	t5,36(sp)
   11910:	09d12c23          	sw	t4,152(sp)
   11914:	03d12023          	sw	t4,32(sp)
   11918:	00b12e23          	sw	a1,28(sp)
   1191c:	09812e23          	sw	s8,156(sp)
   11920:	08012023          	sw	zero,128(sp)
   11924:	08012223          	sw	zero,132(sp)
   11928:	08012423          	sw	zero,136(sp)
   1192c:	08012623          	sw	zero,140(sp)
   11930:	d31f80ef          	jal	a660 <__eqtf2>
   11934:	01c12583          	lw	a1,28(sp)
   11938:	02012e83          	lw	t4,32(sp)
   1193c:	02412f03          	lw	t5,36(sp)
   11940:	02812f83          	lw	t6,40(sp)
   11944:	05012683          	lw	a3,80(sp)
   11948:	05412883          	lw	a7,84(sp)
   1194c:	05812603          	lw	a2,88(sp)
   11950:	05c12703          	lw	a4,92(sp)
   11954:	26051e63          	bnez	a0,11bd0 <_vfprintf_r+0x27e4>
   11958:	0ac12783          	lw	a5,172(sp)
   1195c:	00f70733          	add	a4,a4,a5
   11960:	00f12e23          	sw	a5,28(sp)
   11964:	41a707b3          	sub	a5,a4,s10
   11968:	02f12023          	sw	a5,32(sp)
   1196c:	01c12783          	lw	a5,28(sp)
   11970:	001cf713          	andi	a4,s9,1
   11974:	01576733          	or	a4,a4,s5
   11978:	26f05663          	blez	a5,11be4 <_vfprintf_r+0x27f8>
   1197c:	22071863          	bnez	a4,11bac <_vfprintf_r+0x27c0>
   11980:	01c12b03          	lw	s6,28(sp)
   11984:	06600893          	li	a7,102
   11988:	400cfe13          	andi	t3,s9,1024
   1198c:	160e1263          	bnez	t3,11af0 <_vfprintf_r+0x2704>
   11990:	fffb4693          	not	a3,s6
   11994:	41f6d693          	srai	a3,a3,0x1f
   11998:	00db7db3          	and	s11,s6,a3
   1199c:	e6dff06f          	j	11808 <_vfprintf_r+0x241c>
   119a0:	02012783          	lw	a5,32(sp)
   119a4:	02c12703          	lw	a4,44(sp)
   119a8:	06700893          	li	a7,103
   119ac:	00e78b33          	add	s6,a5,a4
   119b0:	01c12783          	lw	a5,28(sp)
   119b4:	fcf04ae3          	bgtz	a5,11988 <_vfprintf_r+0x259c>
   119b8:	40fb0f33          	sub	t5,s6,a5
   119bc:	001f0b13          	addi	s6,t5,1
   119c0:	fffb4693          	not	a3,s6
   119c4:	41f6d693          	srai	a3,a3,0x1f
   119c8:	00db7db3          	and	s11,s6,a3
   119cc:	e3dff06f          	j	11808 <_vfprintf_r+0x241c>
   119d0:	0001a837          	lui	a6,0x1a
   119d4:	ff000593          	li	a1,-16
   119d8:	40a00ab3          	neg	s5,a0
   119dc:	a0c80813          	addi	a6,a6,-1524 # 19a0c <zeroes.0>
   119e0:	06b55c63          	bge	a0,a1,11a58 <_vfprintf_r+0x266c>
   119e4:	01212e23          	sw	s2,28(sp)
   119e8:	01000b13          	li	s6,16
   119ec:	00700c13          	li	s8,7
   119f0:	00080913          	mv	s2,a6
   119f4:	00c0006f          	j	11a00 <_vfprintf_r+0x2614>
   119f8:	ff0a8a93          	addi	s5,s5,-16 # 3ffdfff0 <_end+0x3ffc2d8c>
   119fc:	055b5a63          	bge	s6,s5,11a50 <_vfprintf_r+0x2664>
   11a00:	01060613          	addi	a2,a2,16
   11a04:	00170713          	addi	a4,a4,1
   11a08:	01242023          	sw	s2,0(s0)
   11a0c:	01642223          	sw	s6,4(s0)
   11a10:	0cc12623          	sw	a2,204(sp)
   11a14:	0ce12423          	sw	a4,200(sp)
   11a18:	00840413          	addi	s0,s0,8
   11a1c:	fcec5ee3          	bge	s8,a4,119f8 <_vfprintf_r+0x260c>
   11a20:	00812503          	lw	a0,8(sp)
   11a24:	0c410613          	addi	a2,sp,196
   11a28:	00048593          	mv	a1,s1
   11a2c:	44c000ef          	jal	11e78 <__sprint_r>
   11a30:	00050463          	beqz	a0,11a38 <_vfprintf_r+0x264c>
   11a34:	849fe06f          	j	1027c <_vfprintf_r+0xe90>
   11a38:	0cc12603          	lw	a2,204(sp)
   11a3c:	0c812703          	lw	a4,200(sp)
   11a40:	00098413          	mv	s0,s3
   11a44:	fb5ff06f          	j	119f8 <_vfprintf_r+0x260c>
   11a48:	000c8e93          	mv	t4,s9
   11a4c:	afcfe06f          	j	fd48 <_vfprintf_r+0x95c>
   11a50:	00090813          	mv	a6,s2
   11a54:	01c12903          	lw	s2,28(sp)
   11a58:	01560633          	add	a2,a2,s5
   11a5c:	00170713          	addi	a4,a4,1
   11a60:	01042023          	sw	a6,0(s0)
   11a64:	01542223          	sw	s5,4(s0)
   11a68:	0cc12623          	sw	a2,204(sp)
   11a6c:	0ce12423          	sw	a4,200(sp)
   11a70:	00700593          	li	a1,7
   11a74:	ace5de63          	bge	a1,a4,10d50 <_vfprintf_r+0x1964>
   11a78:	00812503          	lw	a0,8(sp)
   11a7c:	0c410613          	addi	a2,sp,196
   11a80:	00048593          	mv	a1,s1
   11a84:	3f4000ef          	jal	11e78 <__sprint_r>
   11a88:	00050463          	beqz	a0,11a90 <_vfprintf_r+0x26a4>
   11a8c:	ff0fe06f          	j	1027c <_vfprintf_r+0xe90>
   11a90:	0cc12603          	lw	a2,204(sp)
   11a94:	0c812703          	lw	a4,200(sp)
   11a98:	00098413          	mv	s0,s3
   11a9c:	be0ff06f          	j	10e7c <_vfprintf_r+0x1a90>
   11aa0:	0b610693          	addi	a3,sp,182
   11aa4:	00061863          	bnez	a2,11ab4 <_vfprintf_r+0x26c8>
   11aa8:	03000693          	li	a3,48
   11aac:	0ad10b23          	sb	a3,182(sp)
   11ab0:	0b710693          	addi	a3,sp,183
   11ab4:	19010793          	addi	a5,sp,400
   11ab8:	40f68633          	sub	a2,a3,a5
   11abc:	03070713          	addi	a4,a4,48
   11ac0:	0dd60793          	addi	a5,a2,221
   11ac4:	00e68023          	sb	a4,0(a3)
   11ac8:	04f12023          	sw	a5,64(sp)
   11acc:	814ff06f          	j	10ae0 <_vfprintf_r+0x16f4>
   11ad0:	00012823          	sw	zero,16(sp)
   11ad4:	00600a93          	li	s5,6
   11ad8:	f1dfd06f          	j	f9f4 <_vfprintf_r+0x608>
   11adc:	001cf713          	andi	a4,s9,1
   11ae0:	00071463          	bnez	a4,11ae8 <_vfprintf_r+0x26fc>
   11ae4:	81cff06f          	j	10b00 <_vfprintf_r+0x1714>
   11ae8:	810ff06f          	j	10af8 <_vfprintf_r+0x170c>
   11aec:	06700893          	li	a7,103
   11af0:	03c12603          	lw	a2,60(sp)
   11af4:	0ff00693          	li	a3,255
   11af8:	00064703          	lbu	a4,0(a2)
   11afc:	14d70663          	beq	a4,a3,11c48 <_vfprintf_r+0x285c>
   11b00:	01c12783          	lw	a5,28(sp)
   11b04:	00000513          	li	a0,0
   11b08:	00000593          	li	a1,0
   11b0c:	00f75e63          	bge	a4,a5,11b28 <_vfprintf_r+0x273c>
   11b10:	40e787b3          	sub	a5,a5,a4
   11b14:	00164703          	lbu	a4,1(a2)
   11b18:	04070463          	beqz	a4,11b60 <_vfprintf_r+0x2774>
   11b1c:	00158593          	addi	a1,a1,1
   11b20:	00160613          	addi	a2,a2,1
   11b24:	fed714e3          	bne	a4,a3,11b0c <_vfprintf_r+0x2720>
   11b28:	02c12e23          	sw	a2,60(sp)
   11b2c:	02b12223          	sw	a1,36(sp)
   11b30:	02a12423          	sw	a0,40(sp)
   11b34:	00f12e23          	sw	a5,28(sp)
   11b38:	02812783          	lw	a5,40(sp)
   11b3c:	02412703          	lw	a4,36(sp)
   11b40:	00e78733          	add	a4,a5,a4
   11b44:	04812783          	lw	a5,72(sp)
   11b48:	02f70733          	mul	a4,a4,a5
   11b4c:	01670b33          	add	s6,a4,s6
   11b50:	fffb4693          	not	a3,s6
   11b54:	41f6d693          	srai	a3,a3,0x1f
   11b58:	00db7db3          	and	s11,s6,a3
   11b5c:	fc9fe06f          	j	10b24 <_vfprintf_r+0x1738>
   11b60:	00064703          	lbu	a4,0(a2)
   11b64:	00150513          	addi	a0,a0,1
   11b68:	fbdff06f          	j	11b24 <_vfprintf_r+0x2738>
   11b6c:	00090c13          	mv	s8,s2
   11b70:	001a8693          	addi	a3,s5,1
   11b74:	02412883          	lw	a7,36(sp)
   11b78:	02812c83          	lw	s9,40(sp)
   11b7c:	04012b83          	lw	s7,64(sp)
   11b80:	04c12403          	lw	s0,76(sp)
   11b84:	02012903          	lw	s2,32(sp)
   11b88:	05012483          	lw	s1,80(sp)
   11b8c:	05412d03          	lw	s10,84(sp)
   11b90:	00dc06b3          	add	a3,s8,a3
   11b94:	03000613          	li	a2,48
   11b98:	bc0ac4e3          	bltz	s5,11760 <_vfprintf_r+0x2374>
   11b9c:	001c0c13          	addi	s8,s8,1
   11ba0:	fecc0fa3          	sb	a2,-1(s8)
   11ba4:	ff869ce3          	bne	a3,s8,11b9c <_vfprintf_r+0x27b0>
   11ba8:	bb9ff06f          	j	11760 <_vfprintf_r+0x2374>
   11bac:	02c12703          	lw	a4,44(sp)
   11bb0:	06600893          	li	a7,102
   11bb4:	00ea8f33          	add	t5,s5,a4
   11bb8:	00ff0b33          	add	s6,t5,a5
   11bbc:	dcdff06f          	j	11988 <_vfprintf_r+0x259c>
   11bc0:	00019737          	lui	a4,0x19
   11bc4:	71070793          	addi	a5,a4,1808 # 19710 <_getpid_r+0x5f4>
   11bc8:	00f12e23          	sw	a5,28(sp)
   11bcc:	965ff06f          	j	11530 <_vfprintf_r+0x2144>
   11bd0:	00100513          	li	a0,1
   11bd4:	40d506b3          	sub	a3,a0,a3
   11bd8:	0ad12623          	sw	a3,172(sp)
   11bdc:	00d70733          	add	a4,a4,a3
   11be0:	f54ff06f          	j	11334 <_vfprintf_r+0x1f48>
   11be4:	00071a63          	bnez	a4,11bf8 <_vfprintf_r+0x280c>
   11be8:	00100d93          	li	s11,1
   11bec:	06600893          	li	a7,102
   11bf0:	00100b13          	li	s6,1
   11bf4:	c15ff06f          	j	11808 <_vfprintf_r+0x241c>
   11bf8:	02c12783          	lw	a5,44(sp)
   11bfc:	06600893          	li	a7,102
   11c00:	00178f13          	addi	t5,a5,1
   11c04:	015f0b33          	add	s6,t5,s5
   11c08:	fffb4693          	not	a3,s6
   11c0c:	41f6d693          	srai	a3,a3,0x1f
   11c10:	00db7db3          	and	s11,s6,a3
   11c14:	bf5ff06f          	j	11808 <_vfprintf_r+0x241c>
   11c18:	00200793          	li	a5,2
   11c1c:	04f12023          	sw	a5,64(sp)
   11c20:	ec1fe06f          	j	10ae0 <_vfprintf_r+0x16f4>
   11c24:	01412783          	lw	a5,20(sp)
   11c28:	0007aa83          	lw	s5,0(a5)
   11c2c:	00478793          	addi	a5,a5,4
   11c30:	000ad463          	bgez	s5,11c38 <_vfprintf_r+0x284c>
   11c34:	fff00a93          	li	s5,-1
   11c38:	00194883          	lbu	a7,1(s2)
   11c3c:	00f12a23          	sw	a5,20(sp)
   11c40:	00068913          	mv	s2,a3
   11c44:	949fd06f          	j	f58c <_vfprintf_r+0x1a0>
   11c48:	02012423          	sw	zero,40(sp)
   11c4c:	02012223          	sw	zero,36(sp)
   11c50:	ee9ff06f          	j	11b38 <_vfprintf_r+0x274c>
   11c54:	04500613          	li	a2,69
   11c58:	08010593          	addi	a1,sp,128
   11c5c:	ed8ff06f          	j	11334 <_vfprintf_r+0x1f48>
   11c60:	00c4d783          	lhu	a5,12(s1)
   11c64:	0407e793          	ori	a5,a5,64
   11c68:	00f49623          	sh	a5,12(s1)
   11c6c:	acdfd06f          	j	f738 <_vfprintf_r+0x34c>

00011c70 <vfprintf>:
   11c70:	00050793          	mv	a5,a0
   11c74:	86c1a503          	lw	a0,-1940(gp) # 1a724 <_impure_ptr>
   11c78:	00060693          	mv	a3,a2
   11c7c:	00058613          	mv	a2,a1
   11c80:	00078593          	mv	a1,a5
   11c84:	f68fd06f          	j	f3ec <_vfprintf_r>

00011c88 <__sbprintf>:
   11c88:	b8010113          	addi	sp,sp,-1152
   11c8c:	00c59783          	lh	a5,12(a1)
   11c90:	00e5d703          	lhu	a4,14(a1)
   11c94:	46812c23          	sw	s0,1144(sp)
   11c98:	00058413          	mv	s0,a1
   11c9c:	000105b7          	lui	a1,0x10
   11ca0:	ffd58593          	addi	a1,a1,-3 # fffd <_vfprintf_r+0xc11>
   11ca4:	06442e03          	lw	t3,100(s0)
   11ca8:	01c42303          	lw	t1,28(s0)
   11cac:	02442883          	lw	a7,36(s0)
   11cb0:	01071713          	slli	a4,a4,0x10
   11cb4:	00b7f7b3          	and	a5,a5,a1
   11cb8:	00e7e7b3          	or	a5,a5,a4
   11cbc:	40000813          	li	a6,1024
   11cc0:	00f12a23          	sw	a5,20(sp)
   11cc4:	00810593          	addi	a1,sp,8
   11cc8:	07010793          	addi	a5,sp,112
   11ccc:	46912a23          	sw	s1,1140(sp)
   11cd0:	47212823          	sw	s2,1136(sp)
   11cd4:	46112e23          	sw	ra,1148(sp)
   11cd8:	00050913          	mv	s2,a0
   11cdc:	07c12623          	sw	t3,108(sp)
   11ce0:	02612223          	sw	t1,36(sp)
   11ce4:	03112623          	sw	a7,44(sp)
   11ce8:	00f12423          	sw	a5,8(sp)
   11cec:	00f12c23          	sw	a5,24(sp)
   11cf0:	01012823          	sw	a6,16(sp)
   11cf4:	01012e23          	sw	a6,28(sp)
   11cf8:	02012023          	sw	zero,32(sp)
   11cfc:	ef0fd0ef          	jal	f3ec <_vfprintf_r>
   11d00:	00050493          	mv	s1,a0
   11d04:	02055c63          	bgez	a0,11d3c <__sbprintf+0xb4>
   11d08:	01415783          	lhu	a5,20(sp)
   11d0c:	0407f793          	andi	a5,a5,64
   11d10:	00078863          	beqz	a5,11d20 <__sbprintf+0x98>
   11d14:	00c45783          	lhu	a5,12(s0)
   11d18:	0407e793          	ori	a5,a5,64
   11d1c:	00f41623          	sh	a5,12(s0)
   11d20:	47c12083          	lw	ra,1148(sp)
   11d24:	47812403          	lw	s0,1144(sp)
   11d28:	47012903          	lw	s2,1136(sp)
   11d2c:	00048513          	mv	a0,s1
   11d30:	47412483          	lw	s1,1140(sp)
   11d34:	48010113          	addi	sp,sp,1152
   11d38:	00008067          	ret
   11d3c:	00810593          	addi	a1,sp,8
   11d40:	00090513          	mv	a0,s2
   11d44:	0c9010ef          	jal	1360c <_fflush_r>
   11d48:	fc0500e3          	beqz	a0,11d08 <__sbprintf+0x80>
   11d4c:	fff00493          	li	s1,-1
   11d50:	fb9ff06f          	j	11d08 <__sbprintf+0x80>

00011d54 <__sprint_r.part.0>:
   11d54:	0645a783          	lw	a5,100(a1)
   11d58:	fd010113          	addi	sp,sp,-48
   11d5c:	01612823          	sw	s6,16(sp)
   11d60:	02112623          	sw	ra,44(sp)
   11d64:	01279713          	slli	a4,a5,0x12
   11d68:	00060b13          	mv	s6,a2
   11d6c:	0e075863          	bgez	a4,11e5c <__sprint_r.part.0+0x108>
   11d70:	00862783          	lw	a5,8(a2)
   11d74:	03212023          	sw	s2,32(sp)
   11d78:	01312e23          	sw	s3,28(sp)
   11d7c:	01512a23          	sw	s5,20(sp)
   11d80:	01712623          	sw	s7,12(sp)
   11d84:	00058913          	mv	s2,a1
   11d88:	00062b83          	lw	s7,0(a2)
   11d8c:	00050993          	mv	s3,a0
   11d90:	fff00a93          	li	s5,-1
   11d94:	0a078863          	beqz	a5,11e44 <__sprint_r.part.0+0xf0>
   11d98:	02812423          	sw	s0,40(sp)
   11d9c:	02912223          	sw	s1,36(sp)
   11da0:	01412c23          	sw	s4,24(sp)
   11da4:	01812423          	sw	s8,8(sp)
   11da8:	004bac03          	lw	s8,4(s7)
   11dac:	000ba403          	lw	s0,0(s7)
   11db0:	002c5a13          	srli	s4,s8,0x2
   11db4:	060a0663          	beqz	s4,11e20 <__sprint_r.part.0+0xcc>
   11db8:	00000493          	li	s1,0
   11dbc:	00c0006f          	j	11dc8 <__sprint_r.part.0+0x74>
   11dc0:	00440413          	addi	s0,s0,4
   11dc4:	049a0c63          	beq	s4,s1,11e1c <__sprint_r.part.0+0xc8>
   11dc8:	00042583          	lw	a1,0(s0)
   11dcc:	00090613          	mv	a2,s2
   11dd0:	00098513          	mv	a0,s3
   11dd4:	338020ef          	jal	1410c <_fputwc_r>
   11dd8:	00148493          	addi	s1,s1,1
   11ddc:	ff5512e3          	bne	a0,s5,11dc0 <__sprint_r.part.0+0x6c>
   11de0:	02812403          	lw	s0,40(sp)
   11de4:	02412483          	lw	s1,36(sp)
   11de8:	02012903          	lw	s2,32(sp)
   11dec:	01c12983          	lw	s3,28(sp)
   11df0:	01812a03          	lw	s4,24(sp)
   11df4:	01412a83          	lw	s5,20(sp)
   11df8:	00c12b83          	lw	s7,12(sp)
   11dfc:	00812c03          	lw	s8,8(sp)
   11e00:	fff00513          	li	a0,-1
   11e04:	02c12083          	lw	ra,44(sp)
   11e08:	000b2423          	sw	zero,8(s6)
   11e0c:	000b2223          	sw	zero,4(s6)
   11e10:	01012b03          	lw	s6,16(sp)
   11e14:	03010113          	addi	sp,sp,48
   11e18:	00008067          	ret
   11e1c:	008b2783          	lw	a5,8(s6)
   11e20:	ffcc7c13          	andi	s8,s8,-4
   11e24:	418787b3          	sub	a5,a5,s8
   11e28:	00fb2423          	sw	a5,8(s6)
   11e2c:	008b8b93          	addi	s7,s7,8
   11e30:	f6079ce3          	bnez	a5,11da8 <__sprint_r.part.0+0x54>
   11e34:	02812403          	lw	s0,40(sp)
   11e38:	02412483          	lw	s1,36(sp)
   11e3c:	01812a03          	lw	s4,24(sp)
   11e40:	00812c03          	lw	s8,8(sp)
   11e44:	02012903          	lw	s2,32(sp)
   11e48:	01c12983          	lw	s3,28(sp)
   11e4c:	01412a83          	lw	s5,20(sp)
   11e50:	00c12b83          	lw	s7,12(sp)
   11e54:	00000513          	li	a0,0
   11e58:	fadff06f          	j	11e04 <__sprint_r.part.0+0xb0>
   11e5c:	095010ef          	jal	136f0 <__sfvwrite_r>
   11e60:	02c12083          	lw	ra,44(sp)
   11e64:	000b2423          	sw	zero,8(s6)
   11e68:	000b2223          	sw	zero,4(s6)
   11e6c:	01012b03          	lw	s6,16(sp)
   11e70:	03010113          	addi	sp,sp,48
   11e74:	00008067          	ret

00011e78 <__sprint_r>:
   11e78:	00862703          	lw	a4,8(a2)
   11e7c:	00070463          	beqz	a4,11e84 <__sprint_r+0xc>
   11e80:	ed5ff06f          	j	11d54 <__sprint_r.part.0>
   11e84:	00062223          	sw	zero,4(a2)
   11e88:	00000513          	li	a0,0
   11e8c:	00008067          	ret

00011e90 <_vfiprintf_r>:
   11e90:	ed010113          	addi	sp,sp,-304
   11e94:	11312e23          	sw	s3,284(sp)
   11e98:	11612823          	sw	s6,272(sp)
   11e9c:	11712623          	sw	s7,268(sp)
   11ea0:	11812423          	sw	s8,264(sp)
   11ea4:	12112623          	sw	ra,300(sp)
   11ea8:	11a12023          	sw	s10,256(sp)
   11eac:	00050c13          	mv	s8,a0
   11eb0:	00058b13          	mv	s6,a1
   11eb4:	00060993          	mv	s3,a2
   11eb8:	00068b93          	mv	s7,a3
   11ebc:	00050863          	beqz	a0,11ecc <_vfiprintf_r+0x3c>
   11ec0:	03452783          	lw	a5,52(a0)
   11ec4:	00079463          	bnez	a5,11ecc <_vfiprintf_r+0x3c>
   11ec8:	1c40106f          	j	1308c <_vfiprintf_r+0x11fc>
   11ecc:	00cb1783          	lh	a5,12(s6)
   11ed0:	01279713          	slli	a4,a5,0x12
   11ed4:	02074663          	bltz	a4,11f00 <_vfiprintf_r+0x70>
   11ed8:	064b2703          	lw	a4,100(s6)
   11edc:	00002637          	lui	a2,0x2
   11ee0:	ffffe6b7          	lui	a3,0xffffe
   11ee4:	00c7e7b3          	or	a5,a5,a2
   11ee8:	fff68693          	addi	a3,a3,-1 # ffffdfff <_end+0xfffe0d9b>
   11eec:	01079793          	slli	a5,a5,0x10
   11ef0:	4107d793          	srai	a5,a5,0x10
   11ef4:	00d77733          	and	a4,a4,a3
   11ef8:	00fb1623          	sh	a5,12(s6)
   11efc:	06eb2223          	sw	a4,100(s6)
   11f00:	0087f713          	andi	a4,a5,8
   11f04:	12070c63          	beqz	a4,1203c <_vfiprintf_r+0x1ac>
   11f08:	010b2703          	lw	a4,16(s6)
   11f0c:	12070863          	beqz	a4,1203c <_vfiprintf_r+0x1ac>
   11f10:	01a7f793          	andi	a5,a5,26
   11f14:	00a00713          	li	a4,10
   11f18:	14e78463          	beq	a5,a4,12060 <_vfiprintf_r+0x1d0>
   11f1c:	0001a7b7          	lui	a5,0x1a
   11f20:	00000d13          	li	s10,0
   11f24:	11512a23          	sw	s5,276(sp)
   11f28:	11912223          	sw	s9,260(sp)
   11f2c:	04c10a93          	addi	s5,sp,76
   11f30:	a2c78793          	addi	a5,a5,-1492 # 19a2c <blanks.1+0x10>
   11f34:	0001acb7          	lui	s9,0x1a
   11f38:	12812423          	sw	s0,296(sp)
   11f3c:	13212023          	sw	s2,288(sp)
   11f40:	11412c23          	sw	s4,280(sp)
   11f44:	000d0913          	mv	s2,s10
   11f48:	12912223          	sw	s1,292(sp)
   11f4c:	0fb12e23          	sw	s11,252(sp)
   11f50:	05512023          	sw	s5,64(sp)
   11f54:	04012423          	sw	zero,72(sp)
   11f58:	04012223          	sw	zero,68(sp)
   11f5c:	000a8413          	mv	s0,s5
   11f60:	00012223          	sw	zero,4(sp)
   11f64:	00012a23          	sw	zero,20(sp)
   11f68:	00012c23          	sw	zero,24(sp)
   11f6c:	00012e23          	sw	zero,28(sp)
   11f70:	00f12023          	sw	a5,0(sp)
   11f74:	01000a13          	li	s4,16
   11f78:	b98c8c93          	addi	s9,s9,-1128 # 19b98 <zeroes.0>
   11f7c:	000b8d13          	mv	s10,s7
   11f80:	0009c783          	lbu	a5,0(s3)
   11f84:	32078263          	beqz	a5,122a8 <_vfiprintf_r+0x418>
   11f88:	00098493          	mv	s1,s3
   11f8c:	02500713          	li	a4,37
   11f90:	3ce78063          	beq	a5,a4,12350 <_vfiprintf_r+0x4c0>
   11f94:	0014c783          	lbu	a5,1(s1)
   11f98:	00148493          	addi	s1,s1,1
   11f9c:	fe079ae3          	bnez	a5,11f90 <_vfiprintf_r+0x100>
   11fa0:	41348bb3          	sub	s7,s1,s3
   11fa4:	31348263          	beq	s1,s3,122a8 <_vfiprintf_r+0x418>
   11fa8:	04812703          	lw	a4,72(sp)
   11fac:	04412783          	lw	a5,68(sp)
   11fb0:	01342023          	sw	s3,0(s0)
   11fb4:	00eb8733          	add	a4,s7,a4
   11fb8:	00178793          	addi	a5,a5,1
   11fbc:	01742223          	sw	s7,4(s0)
   11fc0:	04e12423          	sw	a4,72(sp)
   11fc4:	04f12223          	sw	a5,68(sp)
   11fc8:	00700693          	li	a3,7
   11fcc:	00840413          	addi	s0,s0,8
   11fd0:	02f6d063          	bge	a3,a5,11ff0 <_vfiprintf_r+0x160>
   11fd4:	4c070ae3          	beqz	a4,12ca8 <_vfiprintf_r+0xe18>
   11fd8:	04010613          	addi	a2,sp,64
   11fdc:	000b0593          	mv	a1,s6
   11fe0:	000c0513          	mv	a0,s8
   11fe4:	d71ff0ef          	jal	11d54 <__sprint_r.part.0>
   11fe8:	0c051263          	bnez	a0,120ac <_vfiprintf_r+0x21c>
   11fec:	000a8413          	mv	s0,s5
   11ff0:	0004c783          	lbu	a5,0(s1)
   11ff4:	01790933          	add	s2,s2,s7
   11ff8:	2a078863          	beqz	a5,122a8 <_vfiprintf_r+0x418>
   11ffc:	0014c783          	lbu	a5,1(s1)
   12000:	00148993          	addi	s3,s1,1
   12004:	02010da3          	sb	zero,59(sp)
   12008:	fff00d93          	li	s11,-1
   1200c:	00000b93          	li	s7,0
   12010:	00000893          	li	a7,0
   12014:	05a00493          	li	s1,90
   12018:	00198993          	addi	s3,s3,1
   1201c:	00078693          	mv	a3,a5
   12020:	fe068713          	addi	a4,a3,-32
   12024:	10e4e863          	bltu	s1,a4,12134 <_vfiprintf_r+0x2a4>
   12028:	00012783          	lw	a5,0(sp)
   1202c:	00271713          	slli	a4,a4,0x2
   12030:	00f70733          	add	a4,a4,a5
   12034:	00072783          	lw	a5,0(a4)
   12038:	00078067          	jr	a5
   1203c:	000b0593          	mv	a1,s6
   12040:	000c0513          	mv	a0,s8
   12044:	695010ef          	jal	13ed8 <__swsetup_r>
   12048:	00050463          	beqz	a0,12050 <_vfiprintf_r+0x1c0>
   1204c:	1480106f          	j	13194 <_vfiprintf_r+0x1304>
   12050:	00cb1783          	lh	a5,12(s6)
   12054:	00a00713          	li	a4,10
   12058:	01a7f793          	andi	a5,a5,26
   1205c:	ece790e3          	bne	a5,a4,11f1c <_vfiprintf_r+0x8c>
   12060:	00eb1783          	lh	a5,14(s6)
   12064:	ea07cce3          	bltz	a5,11f1c <_vfiprintf_r+0x8c>
   12068:	12c12083          	lw	ra,300(sp)
   1206c:	10012d03          	lw	s10,256(sp)
   12070:	000b8693          	mv	a3,s7
   12074:	00098613          	mv	a2,s3
   12078:	10c12b83          	lw	s7,268(sp)
   1207c:	11c12983          	lw	s3,284(sp)
   12080:	000b0593          	mv	a1,s6
   12084:	000c0513          	mv	a0,s8
   12088:	11012b03          	lw	s6,272(sp)
   1208c:	10812c03          	lw	s8,264(sp)
   12090:	13010113          	addi	sp,sp,304
   12094:	14c0106f          	j	131e0 <__sbprintf>
   12098:	04010613          	addi	a2,sp,64
   1209c:	000b0593          	mv	a1,s6
   120a0:	000c0513          	mv	a0,s8
   120a4:	cb1ff0ef          	jal	11d54 <__sprint_r.part.0>
   120a8:	1e050863          	beqz	a0,12298 <_vfiprintf_r+0x408>
   120ac:	00090d13          	mv	s10,s2
   120b0:	00cb5783          	lhu	a5,12(s6)
   120b4:	12812403          	lw	s0,296(sp)
   120b8:	12412483          	lw	s1,292(sp)
   120bc:	0407f793          	andi	a5,a5,64
   120c0:	12012903          	lw	s2,288(sp)
   120c4:	11812a03          	lw	s4,280(sp)
   120c8:	11412a83          	lw	s5,276(sp)
   120cc:	10412c83          	lw	s9,260(sp)
   120d0:	0fc12d83          	lw	s11,252(sp)
   120d4:	00078463          	beqz	a5,120dc <_vfiprintf_r+0x24c>
   120d8:	0bc0106f          	j	13194 <_vfiprintf_r+0x1304>
   120dc:	12c12083          	lw	ra,300(sp)
   120e0:	11c12983          	lw	s3,284(sp)
   120e4:	11012b03          	lw	s6,272(sp)
   120e8:	10c12b83          	lw	s7,268(sp)
   120ec:	10812c03          	lw	s8,264(sp)
   120f0:	000d0513          	mv	a0,s10
   120f4:	10012d03          	lw	s10,256(sp)
   120f8:	13010113          	addi	sp,sp,304
   120fc:	00008067          	ret
   12100:	00000b93          	li	s7,0
   12104:	fd068793          	addi	a5,a3,-48
   12108:	00900613          	li	a2,9
   1210c:	0009c683          	lbu	a3,0(s3)
   12110:	002b9713          	slli	a4,s7,0x2
   12114:	01770bb3          	add	s7,a4,s7
   12118:	001b9b93          	slli	s7,s7,0x1
   1211c:	01778bb3          	add	s7,a5,s7
   12120:	fd068793          	addi	a5,a3,-48
   12124:	00198993          	addi	s3,s3,1
   12128:	fef672e3          	bgeu	a2,a5,1210c <_vfiprintf_r+0x27c>
   1212c:	fe068713          	addi	a4,a3,-32
   12130:	eee4fce3          	bgeu	s1,a4,12028 <_vfiprintf_r+0x198>
   12134:	16068a63          	beqz	a3,122a8 <_vfiprintf_r+0x418>
   12138:	08d10623          	sb	a3,140(sp)
   1213c:	02010da3          	sb	zero,59(sp)
   12140:	00100313          	li	t1,1
   12144:	00100e93          	li	t4,1
   12148:	08c10493          	addi	s1,sp,140
   1214c:	00000d93          	li	s11,0
   12150:	00000f93          	li	t6,0
   12154:	04412703          	lw	a4,68(sp)
   12158:	0848f293          	andi	t0,a7,132
   1215c:	04812783          	lw	a5,72(sp)
   12160:	00170613          	addi	a2,a4,1
   12164:	00060593          	mv	a1,a2
   12168:	00029663          	bnez	t0,12174 <_vfiprintf_r+0x2e4>
   1216c:	406b86b3          	sub	a3,s7,t1
   12170:	1cd04ee3          	bgtz	a3,12b4c <_vfiprintf_r+0xcbc>
   12174:	03b14683          	lbu	a3,59(sp)
   12178:	02068a63          	beqz	a3,121ac <_vfiprintf_r+0x31c>
   1217c:	03b10713          	addi	a4,sp,59
   12180:	00178793          	addi	a5,a5,1
   12184:	00e42023          	sw	a4,0(s0)
   12188:	00100713          	li	a4,1
   1218c:	00e42223          	sw	a4,4(s0)
   12190:	04f12423          	sw	a5,72(sp)
   12194:	04b12223          	sw	a1,68(sp)
   12198:	00700713          	li	a4,7
   1219c:	0cb74ce3          	blt	a4,a1,12a74 <_vfiprintf_r+0xbe4>
   121a0:	00058713          	mv	a4,a1
   121a4:	00840413          	addi	s0,s0,8
   121a8:	00158593          	addi	a1,a1,1
   121ac:	060f8863          	beqz	t6,1221c <_vfiprintf_r+0x38c>
   121b0:	03c10713          	addi	a4,sp,60
   121b4:	00278793          	addi	a5,a5,2
   121b8:	00e42023          	sw	a4,0(s0)
   121bc:	00200713          	li	a4,2
   121c0:	00e42223          	sw	a4,4(s0)
   121c4:	04f12423          	sw	a5,72(sp)
   121c8:	04b12223          	sw	a1,68(sp)
   121cc:	00700713          	li	a4,7
   121d0:	10b75ae3          	bge	a4,a1,12ae4 <_vfiprintf_r+0xc54>
   121d4:	340780e3          	beqz	a5,12d14 <_vfiprintf_r+0xe84>
   121d8:	04010613          	addi	a2,sp,64
   121dc:	000b0593          	mv	a1,s6
   121e0:	000c0513          	mv	a0,s8
   121e4:	02612023          	sw	t1,32(sp)
   121e8:	01d12823          	sw	t4,16(sp)
   121ec:	00512623          	sw	t0,12(sp)
   121f0:	01112423          	sw	a7,8(sp)
   121f4:	b61ff0ef          	jal	11d54 <__sprint_r.part.0>
   121f8:	ea051ae3          	bnez	a0,120ac <_vfiprintf_r+0x21c>
   121fc:	04412703          	lw	a4,68(sp)
   12200:	04812783          	lw	a5,72(sp)
   12204:	02012303          	lw	t1,32(sp)
   12208:	01012e83          	lw	t4,16(sp)
   1220c:	00c12283          	lw	t0,12(sp)
   12210:	00812883          	lw	a7,8(sp)
   12214:	000a8413          	mv	s0,s5
   12218:	00170593          	addi	a1,a4,1
   1221c:	08000693          	li	a3,128
   12220:	62d28e63          	beq	t0,a3,1285c <_vfiprintf_r+0x9cc>
   12224:	41dd8db3          	sub	s11,s11,t4
   12228:	75b04e63          	bgtz	s11,12984 <_vfiprintf_r+0xaf4>
   1222c:	00fe87b3          	add	a5,t4,a5
   12230:	00942023          	sw	s1,0(s0)
   12234:	01d42223          	sw	t4,4(s0)
   12238:	04f12423          	sw	a5,72(sp)
   1223c:	04b12223          	sw	a1,68(sp)
   12240:	00700713          	li	a4,7
   12244:	60b75063          	bge	a4,a1,12844 <_vfiprintf_r+0x9b4>
   12248:	10078c63          	beqz	a5,12360 <_vfiprintf_r+0x4d0>
   1224c:	04010613          	addi	a2,sp,64
   12250:	000b0593          	mv	a1,s6
   12254:	000c0513          	mv	a0,s8
   12258:	00612623          	sw	t1,12(sp)
   1225c:	01112423          	sw	a7,8(sp)
   12260:	af5ff0ef          	jal	11d54 <__sprint_r.part.0>
   12264:	e40514e3          	bnez	a0,120ac <_vfiprintf_r+0x21c>
   12268:	04812783          	lw	a5,72(sp)
   1226c:	00c12303          	lw	t1,12(sp)
   12270:	00812883          	lw	a7,8(sp)
   12274:	000a8413          	mv	s0,s5
   12278:	0048f893          	andi	a7,a7,4
   1227c:	00088663          	beqz	a7,12288 <_vfiprintf_r+0x3f8>
   12280:	406b84b3          	sub	s1,s7,t1
   12284:	0e904a63          	bgtz	s1,12378 <_vfiprintf_r+0x4e8>
   12288:	006bd463          	bge	s7,t1,12290 <_vfiprintf_r+0x400>
   1228c:	00030b93          	mv	s7,t1
   12290:	01790933          	add	s2,s2,s7
   12294:	e00792e3          	bnez	a5,12098 <_vfiprintf_r+0x208>
   12298:	0009c783          	lbu	a5,0(s3)
   1229c:	04012223          	sw	zero,68(sp)
   122a0:	000a8413          	mv	s0,s5
   122a4:	ce0792e3          	bnez	a5,11f88 <_vfiprintf_r+0xf8>
   122a8:	04812783          	lw	a5,72(sp)
   122ac:	00090d13          	mv	s10,s2
   122b0:	e00780e3          	beqz	a5,120b0 <_vfiprintf_r+0x220>
   122b4:	04010613          	addi	a2,sp,64
   122b8:	000b0593          	mv	a1,s6
   122bc:	000c0513          	mv	a0,s8
   122c0:	a95ff0ef          	jal	11d54 <__sprint_r.part.0>
   122c4:	dedff06f          	j	120b0 <_vfiprintf_r+0x220>
   122c8:	000d2b83          	lw	s7,0(s10)
   122cc:	004d0d13          	addi	s10,s10,4
   122d0:	280bcc63          	bltz	s7,12568 <_vfiprintf_r+0x6d8>
   122d4:	0009c783          	lbu	a5,0(s3)
   122d8:	d41ff06f          	j	12018 <_vfiprintf_r+0x188>
   122dc:	0009c783          	lbu	a5,0(s3)
   122e0:	0208e893          	ori	a7,a7,32
   122e4:	d35ff06f          	j	12018 <_vfiprintf_r+0x188>
   122e8:	0108e893          	ori	a7,a7,16
   122ec:	0208f793          	andi	a5,a7,32
   122f0:	16078463          	beqz	a5,12458 <_vfiprintf_r+0x5c8>
   122f4:	007d0d13          	addi	s10,s10,7
   122f8:	ff8d7d13          	andi	s10,s10,-8
   122fc:	004d2703          	lw	a4,4(s10)
   12300:	000d2783          	lw	a5,0(s10)
   12304:	008d0d13          	addi	s10,s10,8
   12308:	00070313          	mv	t1,a4
   1230c:	16074c63          	bltz	a4,12484 <_vfiprintf_r+0x5f4>
   12310:	180dca63          	bltz	s11,124a4 <_vfiprintf_r+0x614>
   12314:	0067e733          	or	a4,a5,t1
   12318:	f7f8f893          	andi	a7,a7,-129
   1231c:	18071463          	bnez	a4,124a4 <_vfiprintf_r+0x614>
   12320:	640d96e3          	bnez	s11,1316c <_vfiprintf_r+0x12dc>
   12324:	03b14783          	lbu	a5,59(sp)
   12328:	00000313          	li	t1,0
   1232c:	00000e93          	li	t4,0
   12330:	0f010493          	addi	s1,sp,240
   12334:	00078463          	beqz	a5,1233c <_vfiprintf_r+0x4ac>
   12338:	00130313          	addi	t1,t1,1
   1233c:	0028ff93          	andi	t6,a7,2
   12340:	e00f8ae3          	beqz	t6,12154 <_vfiprintf_r+0x2c4>
   12344:	00230313          	addi	t1,t1,2
   12348:	00200f93          	li	t6,2
   1234c:	e09ff06f          	j	12154 <_vfiprintf_r+0x2c4>
   12350:	41348bb3          	sub	s7,s1,s3
   12354:	c5349ae3          	bne	s1,s3,11fa8 <_vfiprintf_r+0x118>
   12358:	0004c783          	lbu	a5,0(s1)
   1235c:	c9dff06f          	j	11ff8 <_vfiprintf_r+0x168>
   12360:	04012223          	sw	zero,68(sp)
   12364:	0048f893          	andi	a7,a7,4
   12368:	0e0886e3          	beqz	a7,12c54 <_vfiprintf_r+0xdc4>
   1236c:	406b84b3          	sub	s1,s7,t1
   12370:	0e9052e3          	blez	s1,12c54 <_vfiprintf_r+0xdc4>
   12374:	000a8413          	mv	s0,s5
   12378:	01000713          	li	a4,16
   1237c:	04412683          	lw	a3,68(sp)
   12380:	609752e3          	bge	a4,s1,13184 <_vfiprintf_r+0x12f4>
   12384:	0001ae37          	lui	t3,0x1a
   12388:	ba8e0e13          	addi	t3,t3,-1112 # 19ba8 <blanks.1>
   1238c:	00040593          	mv	a1,s0
   12390:	01000d93          	li	s11,16
   12394:	00700893          	li	a7,7
   12398:	00612423          	sw	t1,8(sp)
   1239c:	000e0413          	mv	s0,t3
   123a0:	0180006f          	j	123b8 <_vfiprintf_r+0x528>
   123a4:	00268613          	addi	a2,a3,2
   123a8:	00858593          	addi	a1,a1,8
   123ac:	00070693          	mv	a3,a4
   123b0:	ff048493          	addi	s1,s1,-16
   123b4:	049dda63          	bge	s11,s1,12408 <_vfiprintf_r+0x578>
   123b8:	01078793          	addi	a5,a5,16
   123bc:	00168713          	addi	a4,a3,1
   123c0:	0085a023          	sw	s0,0(a1)
   123c4:	01b5a223          	sw	s11,4(a1)
   123c8:	04f12423          	sw	a5,72(sp)
   123cc:	04e12223          	sw	a4,68(sp)
   123d0:	fce8dae3          	bge	a7,a4,123a4 <_vfiprintf_r+0x514>
   123d4:	46078c63          	beqz	a5,1284c <_vfiprintf_r+0x9bc>
   123d8:	04010613          	addi	a2,sp,64
   123dc:	000b0593          	mv	a1,s6
   123e0:	000c0513          	mv	a0,s8
   123e4:	971ff0ef          	jal	11d54 <__sprint_r.part.0>
   123e8:	cc0512e3          	bnez	a0,120ac <_vfiprintf_r+0x21c>
   123ec:	04412683          	lw	a3,68(sp)
   123f0:	ff048493          	addi	s1,s1,-16
   123f4:	04812783          	lw	a5,72(sp)
   123f8:	000a8593          	mv	a1,s5
   123fc:	00168613          	addi	a2,a3,1
   12400:	00700893          	li	a7,7
   12404:	fa9dcae3          	blt	s11,s1,123b8 <_vfiprintf_r+0x528>
   12408:	00812303          	lw	t1,8(sp)
   1240c:	00040e13          	mv	t3,s0
   12410:	00058413          	mv	s0,a1
   12414:	009787b3          	add	a5,a5,s1
   12418:	01c42023          	sw	t3,0(s0)
   1241c:	00942223          	sw	s1,4(s0)
   12420:	04f12423          	sw	a5,72(sp)
   12424:	04c12223          	sw	a2,68(sp)
   12428:	00700713          	li	a4,7
   1242c:	e4c75ee3          	bge	a4,a2,12288 <_vfiprintf_r+0x3f8>
   12430:	020782e3          	beqz	a5,12c54 <_vfiprintf_r+0xdc4>
   12434:	04010613          	addi	a2,sp,64
   12438:	000b0593          	mv	a1,s6
   1243c:	000c0513          	mv	a0,s8
   12440:	00612423          	sw	t1,8(sp)
   12444:	911ff0ef          	jal	11d54 <__sprint_r.part.0>
   12448:	c60512e3          	bnez	a0,120ac <_vfiprintf_r+0x21c>
   1244c:	04812783          	lw	a5,72(sp)
   12450:	00812303          	lw	t1,8(sp)
   12454:	e35ff06f          	j	12288 <_vfiprintf_r+0x3f8>
   12458:	0108f713          	andi	a4,a7,16
   1245c:	000d2783          	lw	a5,0(s10)
   12460:	004d0d13          	addi	s10,s10,4
   12464:	0e071c63          	bnez	a4,1255c <_vfiprintf_r+0x6cc>
   12468:	0408f713          	andi	a4,a7,64
   1246c:	0e070463          	beqz	a4,12554 <_vfiprintf_r+0x6c4>
   12470:	01079793          	slli	a5,a5,0x10
   12474:	4107d793          	srai	a5,a5,0x10
   12478:	41f7d313          	srai	t1,a5,0x1f
   1247c:	00030713          	mv	a4,t1
   12480:	e80758e3          	bgez	a4,12310 <_vfiprintf_r+0x480>
   12484:	02d00693          	li	a3,45
   12488:	00f03733          	snez	a4,a5
   1248c:	40600333          	neg	t1,t1
   12490:	02d10da3          	sb	a3,59(sp)
   12494:	40e30333          	sub	t1,t1,a4
   12498:	40f007b3          	neg	a5,a5
   1249c:	000dc463          	bltz	s11,124a4 <_vfiprintf_r+0x614>
   124a0:	f7f8f893          	andi	a7,a7,-129
   124a4:	0c031ae3          	bnez	t1,12d78 <_vfiprintf_r+0xee8>
   124a8:	00900713          	li	a4,9
   124ac:	0cf766e3          	bltu	a4,a5,12d78 <_vfiprintf_r+0xee8>
   124b0:	03078793          	addi	a5,a5,48
   124b4:	0ff7f793          	zext.b	a5,a5
   124b8:	0ef107a3          	sb	a5,239(sp)
   124bc:	000d8313          	mv	t1,s11
   124c0:	01b04463          	bgtz	s11,124c8 <_vfiprintf_r+0x638>
   124c4:	00100313          	li	t1,1
   124c8:	00100e93          	li	t4,1
   124cc:	0ef10493          	addi	s1,sp,239
   124d0:	03b14783          	lbu	a5,59(sp)
   124d4:	e60792e3          	bnez	a5,12338 <_vfiprintf_r+0x4a8>
   124d8:	e65ff06f          	j	1233c <_vfiprintf_r+0x4ac>
   124dc:	000d2483          	lw	s1,0(s10)
   124e0:	02010da3          	sb	zero,59(sp)
   124e4:	004d0d13          	addi	s10,s10,4
   124e8:	3c048ee3          	beqz	s1,130c4 <_vfiprintf_r+0x1234>
   124ec:	01112423          	sw	a7,8(sp)
   124f0:	260dcee3          	bltz	s11,12f6c <_vfiprintf_r+0x10dc>
   124f4:	000d8613          	mv	a2,s11
   124f8:	00000593          	li	a1,0
   124fc:	00048513          	mv	a0,s1
   12500:	4b5010ef          	jal	141b4 <memchr>
   12504:	00812883          	lw	a7,8(sp)
   12508:	000d8e93          	mv	t4,s11
   1250c:	00050463          	beqz	a0,12514 <_vfiprintf_r+0x684>
   12510:	40950eb3          	sub	t4,a0,s1
   12514:	03b14783          	lbu	a5,59(sp)
   12518:	fffec313          	not	t1,t4
   1251c:	41f35313          	srai	t1,t1,0x1f
   12520:	006ef333          	and	t1,t4,t1
   12524:	00000d93          	li	s11,0
   12528:	00000f93          	li	t6,0
   1252c:	e00796e3          	bnez	a5,12338 <_vfiprintf_r+0x4a8>
   12530:	c25ff06f          	j	12154 <_vfiprintf_r+0x2c4>
   12534:	000d2783          	lw	a5,0(s10)
   12538:	02010da3          	sb	zero,59(sp)
   1253c:	004d0d13          	addi	s10,s10,4
   12540:	08f10623          	sb	a5,140(sp)
   12544:	00100313          	li	t1,1
   12548:	00100e93          	li	t4,1
   1254c:	08c10493          	addi	s1,sp,140
   12550:	bfdff06f          	j	1214c <_vfiprintf_r+0x2bc>
   12554:	2008f713          	andi	a4,a7,512
   12558:	3e0714e3          	bnez	a4,13140 <_vfiprintf_r+0x12b0>
   1255c:	41f7d313          	srai	t1,a5,0x1f
   12560:	00030713          	mv	a4,t1
   12564:	da9ff06f          	j	1230c <_vfiprintf_r+0x47c>
   12568:	41700bb3          	neg	s7,s7
   1256c:	0009c783          	lbu	a5,0(s3)
   12570:	0048e893          	ori	a7,a7,4
   12574:	aa5ff06f          	j	12018 <_vfiprintf_r+0x188>
   12578:	02b00713          	li	a4,43
   1257c:	0009c783          	lbu	a5,0(s3)
   12580:	02e10da3          	sb	a4,59(sp)
   12584:	a95ff06f          	j	12018 <_vfiprintf_r+0x188>
   12588:	0009c783          	lbu	a5,0(s3)
   1258c:	0808e893          	ori	a7,a7,128
   12590:	a89ff06f          	j	12018 <_vfiprintf_r+0x188>
   12594:	0009c683          	lbu	a3,0(s3)
   12598:	02a00793          	li	a5,42
   1259c:	00198613          	addi	a2,s3,1
   125a0:	40f686e3          	beq	a3,a5,131ac <_vfiprintf_r+0x131c>
   125a4:	fd068793          	addi	a5,a3,-48
   125a8:	00900713          	li	a4,9
   125ac:	00000d93          	li	s11,0
   125b0:	00900593          	li	a1,9
   125b4:	02f76463          	bltu	a4,a5,125dc <_vfiprintf_r+0x74c>
   125b8:	00064683          	lbu	a3,0(a2) # 2000 <_start-0x6000>
   125bc:	002d9713          	slli	a4,s11,0x2
   125c0:	01b70db3          	add	s11,a4,s11
   125c4:	001d9d93          	slli	s11,s11,0x1
   125c8:	00fd8db3          	add	s11,s11,a5
   125cc:	fd068793          	addi	a5,a3,-48
   125d0:	00160613          	addi	a2,a2,1
   125d4:	fef5f2e3          	bgeu	a1,a5,125b8 <_vfiprintf_r+0x728>
   125d8:	0e0dc6e3          	bltz	s11,12ec4 <_vfiprintf_r+0x1034>
   125dc:	00060993          	mv	s3,a2
   125e0:	a41ff06f          	j	12020 <_vfiprintf_r+0x190>
   125e4:	000c0513          	mv	a0,s8
   125e8:	01112423          	sw	a7,8(sp)
   125ec:	64d010ef          	jal	14438 <_localeconv_r>
   125f0:	00452783          	lw	a5,4(a0)
   125f4:	00078513          	mv	a0,a5
   125f8:	00f12e23          	sw	a5,28(sp)
   125fc:	fd8fc0ef          	jal	edd4 <strlen>
   12600:	00050793          	mv	a5,a0
   12604:	000c0513          	mv	a0,s8
   12608:	00f12c23          	sw	a5,24(sp)
   1260c:	62d010ef          	jal	14438 <_localeconv_r>
   12610:	00852703          	lw	a4,8(a0)
   12614:	01812783          	lw	a5,24(sp)
   12618:	00812883          	lw	a7,8(sp)
   1261c:	00e12a23          	sw	a4,20(sp)
   12620:	ca078ae3          	beqz	a5,122d4 <_vfiprintf_r+0x444>
   12624:	01412703          	lw	a4,20(sp)
   12628:	0009c783          	lbu	a5,0(s3)
   1262c:	9e0706e3          	beqz	a4,12018 <_vfiprintf_r+0x188>
   12630:	00074703          	lbu	a4,0(a4)
   12634:	9e0702e3          	beqz	a4,12018 <_vfiprintf_r+0x188>
   12638:	4008e893          	ori	a7,a7,1024
   1263c:	9ddff06f          	j	12018 <_vfiprintf_r+0x188>
   12640:	0009c783          	lbu	a5,0(s3)
   12644:	0018e893          	ori	a7,a7,1
   12648:	9d1ff06f          	j	12018 <_vfiprintf_r+0x188>
   1264c:	03b14703          	lbu	a4,59(sp)
   12650:	0009c783          	lbu	a5,0(s3)
   12654:	9c0712e3          	bnez	a4,12018 <_vfiprintf_r+0x188>
   12658:	02000713          	li	a4,32
   1265c:	02e10da3          	sb	a4,59(sp)
   12660:	9b9ff06f          	j	12018 <_vfiprintf_r+0x188>
   12664:	0108e713          	ori	a4,a7,16
   12668:	02077793          	andi	a5,a4,32
   1266c:	66078863          	beqz	a5,12cdc <_vfiprintf_r+0xe4c>
   12670:	007d0d13          	addi	s10,s10,7
   12674:	ff8d7d13          	andi	s10,s10,-8
   12678:	000d2783          	lw	a5,0(s10)
   1267c:	004d2603          	lw	a2,4(s10)
   12680:	008d0d13          	addi	s10,s10,8
   12684:	02010da3          	sb	zero,59(sp)
   12688:	bff77893          	andi	a7,a4,-1025
   1268c:	0c0dc063          	bltz	s11,1274c <_vfiprintf_r+0x8bc>
   12690:	00c7e6b3          	or	a3,a5,a2
   12694:	b7f77713          	andi	a4,a4,-1153
   12698:	1e0692e3          	bnez	a3,1307c <_vfiprintf_r+0x11ec>
   1269c:	00088e93          	mv	t4,a7
   126a0:	00000793          	li	a5,0
   126a4:	00070893          	mv	a7,a4
   126a8:	080d9663          	bnez	s11,12734 <_vfiprintf_r+0x8a4>
   126ac:	c6079ce3          	bnez	a5,12324 <_vfiprintf_r+0x494>
   126b0:	001efe93          	andi	t4,t4,1
   126b4:	7c0e8063          	beqz	t4,12e74 <_vfiprintf_r+0xfe4>
   126b8:	03000793          	li	a5,48
   126bc:	0ef107a3          	sb	a5,239(sp)
   126c0:	000e8313          	mv	t1,t4
   126c4:	0ef10493          	addi	s1,sp,239
   126c8:	e09ff06f          	j	124d0 <_vfiprintf_r+0x640>
   126cc:	0009c783          	lbu	a5,0(s3)
   126d0:	06c00713          	li	a4,108
   126d4:	1ce788e3          	beq	a5,a4,130a4 <_vfiprintf_r+0x1214>
   126d8:	0108e893          	ori	a7,a7,16
   126dc:	93dff06f          	j	12018 <_vfiprintf_r+0x188>
   126e0:	0009c783          	lbu	a5,0(s3)
   126e4:	06800713          	li	a4,104
   126e8:	1ae786e3          	beq	a5,a4,13094 <_vfiprintf_r+0x1204>
   126ec:	0408e893          	ori	a7,a7,64
   126f0:	929ff06f          	j	12018 <_vfiprintf_r+0x188>
   126f4:	0108ee93          	ori	t4,a7,16
   126f8:	020ef793          	andi	a5,t4,32
   126fc:	5a078c63          	beqz	a5,12cb4 <_vfiprintf_r+0xe24>
   12700:	007d0d13          	addi	s10,s10,7
   12704:	ff8d7d13          	andi	s10,s10,-8
   12708:	000d2783          	lw	a5,0(s10)
   1270c:	004d2303          	lw	t1,4(s10)
   12710:	008d0d13          	addi	s10,s10,8
   12714:	02010da3          	sb	zero,59(sp)
   12718:	000e8893          	mv	a7,t4
   1271c:	d80dc4e3          	bltz	s11,124a4 <_vfiprintf_r+0x614>
   12720:	0067e733          	or	a4,a5,t1
   12724:	f7fef893          	andi	a7,t4,-129
   12728:	d6071ee3          	bnez	a4,124a4 <_vfiprintf_r+0x614>
   1272c:	00100793          	li	a5,1
   12730:	f60d8ee3          	beqz	s11,126ac <_vfiprintf_r+0x81c>
   12734:	00100713          	li	a4,1
   12738:	22e78ae3          	beq	a5,a4,1316c <_vfiprintf_r+0x12dc>
   1273c:	00200713          	li	a4,2
   12740:	1ae78ae3          	beq	a5,a4,130f4 <_vfiprintf_r+0x1264>
   12744:	00000793          	li	a5,0
   12748:	00000613          	li	a2,0
   1274c:	0f010493          	addi	s1,sp,240
   12750:	01d61693          	slli	a3,a2,0x1d
   12754:	0077f713          	andi	a4,a5,7
   12758:	0037d793          	srli	a5,a5,0x3
   1275c:	03070713          	addi	a4,a4,48
   12760:	00f6e7b3          	or	a5,a3,a5
   12764:	00365613          	srli	a2,a2,0x3
   12768:	fee48fa3          	sb	a4,-1(s1)
   1276c:	00c7e6b3          	or	a3,a5,a2
   12770:	00048593          	mv	a1,s1
   12774:	fff48493          	addi	s1,s1,-1
   12778:	fc069ce3          	bnez	a3,12750 <_vfiprintf_r+0x8c0>
   1277c:	0018f793          	andi	a5,a7,1
   12780:	3a078a63          	beqz	a5,12b34 <_vfiprintf_r+0xca4>
   12784:	03000793          	li	a5,48
   12788:	3af70663          	beq	a4,a5,12b34 <_vfiprintf_r+0xca4>
   1278c:	ffe58593          	addi	a1,a1,-2
   12790:	fef48fa3          	sb	a5,-1(s1)
   12794:	0f010793          	addi	a5,sp,240
   12798:	40b78eb3          	sub	t4,a5,a1
   1279c:	000d8313          	mv	t1,s11
   127a0:	71ddcc63          	blt	s11,t4,12eb8 <_vfiprintf_r+0x1028>
   127a4:	00058493          	mv	s1,a1
   127a8:	d29ff06f          	j	124d0 <_vfiprintf_r+0x640>
   127ac:	00008737          	lui	a4,0x8
   127b0:	83070713          	addi	a4,a4,-2000 # 7830 <_start-0x7d0>
   127b4:	02e11e23          	sh	a4,60(sp)
   127b8:	00019737          	lui	a4,0x19
   127bc:	71070713          	addi	a4,a4,1808 # 19710 <_getpid_r+0x5f4>
   127c0:	000d2783          	lw	a5,0(s10)
   127c4:	00000613          	li	a2,0
   127c8:	0028e893          	ori	a7,a7,2
   127cc:	004d0d13          	addi	s10,s10,4
   127d0:	00e12223          	sw	a4,4(sp)
   127d4:	02010da3          	sb	zero,59(sp)
   127d8:	320dc463          	bltz	s11,12b00 <_vfiprintf_r+0xc70>
   127dc:	00c7e733          	or	a4,a5,a2
   127e0:	f7f8f693          	andi	a3,a7,-129
   127e4:	30071863          	bnez	a4,12af4 <_vfiprintf_r+0xc64>
   127e8:	00088e93          	mv	t4,a7
   127ec:	00200793          	li	a5,2
   127f0:	00068893          	mv	a7,a3
   127f4:	eb5ff06f          	j	126a8 <_vfiprintf_r+0x818>
   127f8:	0208f793          	andi	a5,a7,32
   127fc:	68079a63          	bnez	a5,12e90 <_vfiprintf_r+0x1000>
   12800:	0108f793          	andi	a5,a7,16
   12804:	0a0798e3          	bnez	a5,130b4 <_vfiprintf_r+0x1224>
   12808:	0408f793          	andi	a5,a7,64
   1280c:	120792e3          	bnez	a5,13130 <_vfiprintf_r+0x12a0>
   12810:	2008f893          	andi	a7,a7,512
   12814:	0a0880e3          	beqz	a7,130b4 <_vfiprintf_r+0x1224>
   12818:	000d2783          	lw	a5,0(s10)
   1281c:	004d0d13          	addi	s10,s10,4
   12820:	01278023          	sb	s2,0(a5)
   12824:	f5cff06f          	j	11f80 <_vfiprintf_r+0xf0>
   12828:	00100713          	li	a4,1
   1282c:	000e8793          	mv	a5,t4
   12830:	04912623          	sw	s1,76(sp)
   12834:	05d12823          	sw	t4,80(sp)
   12838:	05d12423          	sw	t4,72(sp)
   1283c:	04e12223          	sw	a4,68(sp)
   12840:	000a8413          	mv	s0,s5
   12844:	00840413          	addi	s0,s0,8
   12848:	a31ff06f          	j	12278 <_vfiprintf_r+0x3e8>
   1284c:	00100613          	li	a2,1
   12850:	00000693          	li	a3,0
   12854:	000a8593          	mv	a1,s5
   12858:	b59ff06f          	j	123b0 <_vfiprintf_r+0x520>
   1285c:	406b8e33          	sub	t3,s7,t1
   12860:	9dc052e3          	blez	t3,12224 <_vfiprintf_r+0x394>
   12864:	01000693          	li	a3,16
   12868:	13c6dae3          	bge	a3,t3,1319c <_vfiprintf_r+0x130c>
   1286c:	0001af37          	lui	t5,0x1a
   12870:	b98f0f13          	addi	t5,t5,-1128 # 19b98 <zeroes.0>
   12874:	00912823          	sw	s1,16(sp)
   12878:	00040593          	mv	a1,s0
   1287c:	01000f93          	li	t6,16
   12880:	00700293          	li	t0,7
   12884:	01112423          	sw	a7,8(sp)
   12888:	01d12623          	sw	t4,12(sp)
   1288c:	02612023          	sw	t1,32(sp)
   12890:	000e0413          	mv	s0,t3
   12894:	000f0493          	mv	s1,t5
   12898:	0180006f          	j	128b0 <_vfiprintf_r+0xa20>
   1289c:	00270613          	addi	a2,a4,2
   128a0:	00858593          	addi	a1,a1,8
   128a4:	00068713          	mv	a4,a3
   128a8:	ff040413          	addi	s0,s0,-16
   128ac:	048fdc63          	bge	t6,s0,12904 <_vfiprintf_r+0xa74>
   128b0:	01078793          	addi	a5,a5,16
   128b4:	00170693          	addi	a3,a4,1
   128b8:	0095a023          	sw	s1,0(a1)
   128bc:	01f5a223          	sw	t6,4(a1)
   128c0:	04f12423          	sw	a5,72(sp)
   128c4:	04d12223          	sw	a3,68(sp)
   128c8:	fcd2dae3          	bge	t0,a3,1289c <_vfiprintf_r+0xa0c>
   128cc:	18078c63          	beqz	a5,12a64 <_vfiprintf_r+0xbd4>
   128d0:	04010613          	addi	a2,sp,64
   128d4:	000b0593          	mv	a1,s6
   128d8:	000c0513          	mv	a0,s8
   128dc:	c78ff0ef          	jal	11d54 <__sprint_r.part.0>
   128e0:	fc051663          	bnez	a0,120ac <_vfiprintf_r+0x21c>
   128e4:	04412703          	lw	a4,68(sp)
   128e8:	01000f93          	li	t6,16
   128ec:	ff040413          	addi	s0,s0,-16
   128f0:	04812783          	lw	a5,72(sp)
   128f4:	000a8593          	mv	a1,s5
   128f8:	00170613          	addi	a2,a4,1
   128fc:	00700293          	li	t0,7
   12900:	fa8fc8e3          	blt	t6,s0,128b0 <_vfiprintf_r+0xa20>
   12904:	00048f13          	mv	t5,s1
   12908:	00812883          	lw	a7,8(sp)
   1290c:	00c12e83          	lw	t4,12(sp)
   12910:	02012303          	lw	t1,32(sp)
   12914:	01012483          	lw	s1,16(sp)
   12918:	00040e13          	mv	t3,s0
   1291c:	00058413          	mv	s0,a1
   12920:	01c787b3          	add	a5,a5,t3
   12924:	01e42023          	sw	t5,0(s0)
   12928:	01c42223          	sw	t3,4(s0)
   1292c:	04f12423          	sw	a5,72(sp)
   12930:	04c12223          	sw	a2,68(sp)
   12934:	00700713          	li	a4,7
   12938:	54c75463          	bge	a4,a2,12e80 <_vfiprintf_r+0xff0>
   1293c:	7c078263          	beqz	a5,13100 <_vfiprintf_r+0x1270>
   12940:	04010613          	addi	a2,sp,64
   12944:	000b0593          	mv	a1,s6
   12948:	000c0513          	mv	a0,s8
   1294c:	00612823          	sw	t1,16(sp)
   12950:	01d12623          	sw	t4,12(sp)
   12954:	01112423          	sw	a7,8(sp)
   12958:	bfcff0ef          	jal	11d54 <__sprint_r.part.0>
   1295c:	f4051863          	bnez	a0,120ac <_vfiprintf_r+0x21c>
   12960:	00c12e83          	lw	t4,12(sp)
   12964:	04412703          	lw	a4,68(sp)
   12968:	04812783          	lw	a5,72(sp)
   1296c:	41dd8db3          	sub	s11,s11,t4
   12970:	01012303          	lw	t1,16(sp)
   12974:	00812883          	lw	a7,8(sp)
   12978:	000a8413          	mv	s0,s5
   1297c:	00170593          	addi	a1,a4,1
   12980:	8bb056e3          	blez	s11,1222c <_vfiprintf_r+0x39c>
   12984:	0001af37          	lui	t5,0x1a
   12988:	b98f0f13          	addi	t5,t5,-1128 # 19b98 <zeroes.0>
   1298c:	0bba5063          	bge	s4,s11,12a2c <_vfiprintf_r+0xb9c>
   12990:	00040613          	mv	a2,s0
   12994:	00700e13          	li	t3,7
   12998:	000d8413          	mv	s0,s11
   1299c:	01112423          	sw	a7,8(sp)
   129a0:	01d12623          	sw	t4,12(sp)
   129a4:	00612823          	sw	t1,16(sp)
   129a8:	000c8d93          	mv	s11,s9
   129ac:	0180006f          	j	129c4 <_vfiprintf_r+0xb34>
   129b0:	00270593          	addi	a1,a4,2
   129b4:	00860613          	addi	a2,a2,8
   129b8:	00068713          	mv	a4,a3
   129bc:	ff040413          	addi	s0,s0,-16
   129c0:	048a5a63          	bge	s4,s0,12a14 <_vfiprintf_r+0xb84>
   129c4:	01078793          	addi	a5,a5,16
   129c8:	00170693          	addi	a3,a4,1
   129cc:	01962023          	sw	s9,0(a2)
   129d0:	01462223          	sw	s4,4(a2)
   129d4:	04f12423          	sw	a5,72(sp)
   129d8:	04d12223          	sw	a3,68(sp)
   129dc:	fcde5ae3          	bge	t3,a3,129b0 <_vfiprintf_r+0xb20>
   129e0:	06078a63          	beqz	a5,12a54 <_vfiprintf_r+0xbc4>
   129e4:	04010613          	addi	a2,sp,64
   129e8:	000b0593          	mv	a1,s6
   129ec:	000c0513          	mv	a0,s8
   129f0:	b64ff0ef          	jal	11d54 <__sprint_r.part.0>
   129f4:	ea051c63          	bnez	a0,120ac <_vfiprintf_r+0x21c>
   129f8:	04412703          	lw	a4,68(sp)
   129fc:	ff040413          	addi	s0,s0,-16
   12a00:	04812783          	lw	a5,72(sp)
   12a04:	000a8613          	mv	a2,s5
   12a08:	00170593          	addi	a1,a4,1
   12a0c:	00700e13          	li	t3,7
   12a10:	fa8a4ae3          	blt	s4,s0,129c4 <_vfiprintf_r+0xb34>
   12a14:	00812883          	lw	a7,8(sp)
   12a18:	00c12e83          	lw	t4,12(sp)
   12a1c:	01012303          	lw	t1,16(sp)
   12a20:	000d8f13          	mv	t5,s11
   12a24:	00040d93          	mv	s11,s0
   12a28:	00060413          	mv	s0,a2
   12a2c:	01b787b3          	add	a5,a5,s11
   12a30:	01e42023          	sw	t5,0(s0)
   12a34:	01b42223          	sw	s11,4(s0)
   12a38:	04f12423          	sw	a5,72(sp)
   12a3c:	04b12223          	sw	a1,68(sp)
   12a40:	00700713          	li	a4,7
   12a44:	22b74063          	blt	a4,a1,12c64 <_vfiprintf_r+0xdd4>
   12a48:	00840413          	addi	s0,s0,8
   12a4c:	00158593          	addi	a1,a1,1
   12a50:	fdcff06f          	j	1222c <_vfiprintf_r+0x39c>
   12a54:	00100593          	li	a1,1
   12a58:	00000713          	li	a4,0
   12a5c:	000a8613          	mv	a2,s5
   12a60:	f5dff06f          	j	129bc <_vfiprintf_r+0xb2c>
   12a64:	00100613          	li	a2,1
   12a68:	00000713          	li	a4,0
   12a6c:	000a8593          	mv	a1,s5
   12a70:	e39ff06f          	j	128a8 <_vfiprintf_r+0xa18>
   12a74:	04078a63          	beqz	a5,12ac8 <_vfiprintf_r+0xc38>
   12a78:	04010613          	addi	a2,sp,64
   12a7c:	000b0593          	mv	a1,s6
   12a80:	000c0513          	mv	a0,s8
   12a84:	02612223          	sw	t1,36(sp)
   12a88:	03d12023          	sw	t4,32(sp)
   12a8c:	00512823          	sw	t0,16(sp)
   12a90:	01f12623          	sw	t6,12(sp)
   12a94:	01112423          	sw	a7,8(sp)
   12a98:	abcff0ef          	jal	11d54 <__sprint_r.part.0>
   12a9c:	e0051863          	bnez	a0,120ac <_vfiprintf_r+0x21c>
   12aa0:	04412703          	lw	a4,68(sp)
   12aa4:	04812783          	lw	a5,72(sp)
   12aa8:	02412303          	lw	t1,36(sp)
   12aac:	02012e83          	lw	t4,32(sp)
   12ab0:	01012283          	lw	t0,16(sp)
   12ab4:	00c12f83          	lw	t6,12(sp)
   12ab8:	00812883          	lw	a7,8(sp)
   12abc:	000a8413          	mv	s0,s5
   12ac0:	00170593          	addi	a1,a4,1
   12ac4:	ee8ff06f          	j	121ac <_vfiprintf_r+0x31c>
   12ac8:	3e0f8063          	beqz	t6,12ea8 <_vfiprintf_r+0x1018>
   12acc:	03c10793          	addi	a5,sp,60
   12ad0:	04f12623          	sw	a5,76(sp)
   12ad4:	00200793          	li	a5,2
   12ad8:	04f12823          	sw	a5,80(sp)
   12adc:	00100593          	li	a1,1
   12ae0:	000a8413          	mv	s0,s5
   12ae4:	00058713          	mv	a4,a1
   12ae8:	00840413          	addi	s0,s0,8
   12aec:	00158593          	addi	a1,a1,1
   12af0:	f2cff06f          	j	1221c <_vfiprintf_r+0x38c>
   12af4:	00200713          	li	a4,2
   12af8:	00068893          	mv	a7,a3
   12afc:	c40708e3          	beqz	a4,1274c <_vfiprintf_r+0x8bc>
   12b00:	00412583          	lw	a1,4(sp)
   12b04:	0f010493          	addi	s1,sp,240
   12b08:	00f7f713          	andi	a4,a5,15
   12b0c:	00e58733          	add	a4,a1,a4
   12b10:	00074683          	lbu	a3,0(a4)
   12b14:	0047d793          	srli	a5,a5,0x4
   12b18:	01c61713          	slli	a4,a2,0x1c
   12b1c:	00f767b3          	or	a5,a4,a5
   12b20:	00465613          	srli	a2,a2,0x4
   12b24:	fed48fa3          	sb	a3,-1(s1)
   12b28:	00c7e733          	or	a4,a5,a2
   12b2c:	fff48493          	addi	s1,s1,-1
   12b30:	fc071ce3          	bnez	a4,12b08 <_vfiprintf_r+0xc78>
   12b34:	0f010793          	addi	a5,sp,240
   12b38:	40978eb3          	sub	t4,a5,s1
   12b3c:	000d8313          	mv	t1,s11
   12b40:	99ddd8e3          	bge	s11,t4,124d0 <_vfiprintf_r+0x640>
   12b44:	000e8313          	mv	t1,t4
   12b48:	989ff06f          	j	124d0 <_vfiprintf_r+0x640>
   12b4c:	01000593          	li	a1,16
   12b50:	62d5d263          	bge	a1,a3,13174 <_vfiprintf_r+0x12e4>
   12b54:	0001ae37          	lui	t3,0x1a
   12b58:	ba8e0e13          	addi	t3,t3,-1112 # 19ba8 <blanks.1>
   12b5c:	02912223          	sw	s1,36(sp)
   12b60:	00040593          	mv	a1,s0
   12b64:	01000f13          	li	t5,16
   12b68:	00700393          	li	t2,7
   12b6c:	01112423          	sw	a7,8(sp)
   12b70:	01f12623          	sw	t6,12(sp)
   12b74:	00512823          	sw	t0,16(sp)
   12b78:	03d12023          	sw	t4,32(sp)
   12b7c:	02612423          	sw	t1,40(sp)
   12b80:	00068413          	mv	s0,a3
   12b84:	000e0493          	mv	s1,t3
   12b88:	01c0006f          	j	12ba4 <_vfiprintf_r+0xd14>
   12b8c:	00270513          	addi	a0,a4,2
   12b90:	00858593          	addi	a1,a1,8
   12b94:	00060713          	mv	a4,a2
   12b98:	ff040413          	addi	s0,s0,-16
   12b9c:	048f5c63          	bge	t5,s0,12bf4 <_vfiprintf_r+0xd64>
   12ba0:	00170613          	addi	a2,a4,1
   12ba4:	01078793          	addi	a5,a5,16
   12ba8:	0095a023          	sw	s1,0(a1)
   12bac:	01e5a223          	sw	t5,4(a1)
   12bb0:	04f12423          	sw	a5,72(sp)
   12bb4:	04c12223          	sw	a2,68(sp)
   12bb8:	fcc3dae3          	bge	t2,a2,12b8c <_vfiprintf_r+0xcfc>
   12bbc:	08078463          	beqz	a5,12c44 <_vfiprintf_r+0xdb4>
   12bc0:	04010613          	addi	a2,sp,64
   12bc4:	000b0593          	mv	a1,s6
   12bc8:	000c0513          	mv	a0,s8
   12bcc:	988ff0ef          	jal	11d54 <__sprint_r.part.0>
   12bd0:	cc051e63          	bnez	a0,120ac <_vfiprintf_r+0x21c>
   12bd4:	04412703          	lw	a4,68(sp)
   12bd8:	01000f13          	li	t5,16
   12bdc:	ff040413          	addi	s0,s0,-16
   12be0:	04812783          	lw	a5,72(sp)
   12be4:	000a8593          	mv	a1,s5
   12be8:	00170513          	addi	a0,a4,1
   12bec:	00700393          	li	t2,7
   12bf0:	fa8f48e3          	blt	t5,s0,12ba0 <_vfiprintf_r+0xd10>
   12bf4:	00048e13          	mv	t3,s1
   12bf8:	00812883          	lw	a7,8(sp)
   12bfc:	00c12f83          	lw	t6,12(sp)
   12c00:	01012283          	lw	t0,16(sp)
   12c04:	02012e83          	lw	t4,32(sp)
   12c08:	02812303          	lw	t1,40(sp)
   12c0c:	02412483          	lw	s1,36(sp)
   12c10:	00040693          	mv	a3,s0
   12c14:	00058413          	mv	s0,a1
   12c18:	00d787b3          	add	a5,a5,a3
   12c1c:	01c42023          	sw	t3,0(s0)
   12c20:	00d42223          	sw	a3,4(s0)
   12c24:	04f12423          	sw	a5,72(sp)
   12c28:	04a12223          	sw	a0,68(sp)
   12c2c:	00700713          	li	a4,7
   12c30:	0ea74a63          	blt	a4,a0,12d24 <_vfiprintf_r+0xe94>
   12c34:	00840413          	addi	s0,s0,8
   12c38:	00150593          	addi	a1,a0,1
   12c3c:	00050713          	mv	a4,a0
   12c40:	d34ff06f          	j	12174 <_vfiprintf_r+0x2e4>
   12c44:	00000713          	li	a4,0
   12c48:	00100513          	li	a0,1
   12c4c:	000a8593          	mv	a1,s5
   12c50:	f49ff06f          	j	12b98 <_vfiprintf_r+0xd08>
   12c54:	006bd463          	bge	s7,t1,12c5c <_vfiprintf_r+0xdcc>
   12c58:	00030b93          	mv	s7,t1
   12c5c:	01790933          	add	s2,s2,s7
   12c60:	e38ff06f          	j	12298 <_vfiprintf_r+0x408>
   12c64:	bc0782e3          	beqz	a5,12828 <_vfiprintf_r+0x998>
   12c68:	04010613          	addi	a2,sp,64
   12c6c:	000b0593          	mv	a1,s6
   12c70:	000c0513          	mv	a0,s8
   12c74:	00612823          	sw	t1,16(sp)
   12c78:	01d12623          	sw	t4,12(sp)
   12c7c:	01112423          	sw	a7,8(sp)
   12c80:	8d4ff0ef          	jal	11d54 <__sprint_r.part.0>
   12c84:	c2051463          	bnez	a0,120ac <_vfiprintf_r+0x21c>
   12c88:	04412583          	lw	a1,68(sp)
   12c8c:	04812783          	lw	a5,72(sp)
   12c90:	01012303          	lw	t1,16(sp)
   12c94:	00c12e83          	lw	t4,12(sp)
   12c98:	00812883          	lw	a7,8(sp)
   12c9c:	000a8413          	mv	s0,s5
   12ca0:	00158593          	addi	a1,a1,1
   12ca4:	d88ff06f          	j	1222c <_vfiprintf_r+0x39c>
   12ca8:	04012223          	sw	zero,68(sp)
   12cac:	000a8413          	mv	s0,s5
   12cb0:	b40ff06f          	j	11ff0 <_vfiprintf_r+0x160>
   12cb4:	010ef713          	andi	a4,t4,16
   12cb8:	000d2783          	lw	a5,0(s10)
   12cbc:	004d0d13          	addi	s10,s10,4
   12cc0:	00071a63          	bnez	a4,12cd4 <_vfiprintf_r+0xe44>
   12cc4:	040ef713          	andi	a4,t4,64
   12cc8:	40070c63          	beqz	a4,130e0 <_vfiprintf_r+0x1250>
   12ccc:	01079793          	slli	a5,a5,0x10
   12cd0:	0107d793          	srli	a5,a5,0x10
   12cd4:	00000313          	li	t1,0
   12cd8:	a3dff06f          	j	12714 <_vfiprintf_r+0x884>
   12cdc:	01077693          	andi	a3,a4,16
   12ce0:	000d2783          	lw	a5,0(s10)
   12ce4:	004d0d13          	addi	s10,s10,4
   12ce8:	02069263          	bnez	a3,12d0c <_vfiprintf_r+0xe7c>
   12cec:	04077693          	andi	a3,a4,64
   12cf0:	00068a63          	beqz	a3,12d04 <_vfiprintf_r+0xe74>
   12cf4:	01079793          	slli	a5,a5,0x10
   12cf8:	0107d793          	srli	a5,a5,0x10
   12cfc:	00000613          	li	a2,0
   12d00:	985ff06f          	j	12684 <_vfiprintf_r+0x7f4>
   12d04:	20077693          	andi	a3,a4,512
   12d08:	44069663          	bnez	a3,13154 <_vfiprintf_r+0x12c4>
   12d0c:	00000613          	li	a2,0
   12d10:	975ff06f          	j	12684 <_vfiprintf_r+0x7f4>
   12d14:	00100593          	li	a1,1
   12d18:	00000713          	li	a4,0
   12d1c:	000a8413          	mv	s0,s5
   12d20:	cfcff06f          	j	1221c <_vfiprintf_r+0x38c>
   12d24:	24078e63          	beqz	a5,12f80 <_vfiprintf_r+0x10f0>
   12d28:	04010613          	addi	a2,sp,64
   12d2c:	000b0593          	mv	a1,s6
   12d30:	000c0513          	mv	a0,s8
   12d34:	02612223          	sw	t1,36(sp)
   12d38:	03d12023          	sw	t4,32(sp)
   12d3c:	00512823          	sw	t0,16(sp)
   12d40:	01f12623          	sw	t6,12(sp)
   12d44:	01112423          	sw	a7,8(sp)
   12d48:	80cff0ef          	jal	11d54 <__sprint_r.part.0>
   12d4c:	b6051063          	bnez	a0,120ac <_vfiprintf_r+0x21c>
   12d50:	04412703          	lw	a4,68(sp)
   12d54:	04812783          	lw	a5,72(sp)
   12d58:	02412303          	lw	t1,36(sp)
   12d5c:	02012e83          	lw	t4,32(sp)
   12d60:	01012283          	lw	t0,16(sp)
   12d64:	00c12f83          	lw	t6,12(sp)
   12d68:	00812883          	lw	a7,8(sp)
   12d6c:	000a8413          	mv	s0,s5
   12d70:	00170593          	addi	a1,a4,1
   12d74:	c00ff06f          	j	12174 <_vfiprintf_r+0x2e4>
   12d78:	ccccdfb7          	lui	t6,0xccccd
   12d7c:	ccccd2b7          	lui	t0,0xccccd
   12d80:	01412803          	lw	a6,20(sp)
   12d84:	4008fe93          	andi	t4,a7,1024
   12d88:	00000613          	li	a2,0
   12d8c:	0f010593          	addi	a1,sp,240
   12d90:	00500e13          	li	t3,5
   12d94:	ccdf8f93          	addi	t6,t6,-819 # cccccccd <_end+0xcccafa69>
   12d98:	ccc28293          	addi	t0,t0,-820 # cccccccc <_end+0xcccafa68>
   12d9c:	0ff00f13          	li	t5,255
   12da0:	0540006f          	j	12df4 <_vfiprintf_r+0xf64>
   12da4:	00f4b733          	sltu	a4,s1,a5
   12da8:	00e48733          	add	a4,s1,a4
   12dac:	03c77733          	remu	a4,a4,t3
   12db0:	40e78733          	sub	a4,a5,a4
   12db4:	00e7b5b3          	sltu	a1,a5,a4
   12db8:	40b305b3          	sub	a1,t1,a1
   12dbc:	025703b3          	mul	t2,a4,t0
   12dc0:	03f585b3          	mul	a1,a1,t6
   12dc4:	03f73533          	mulhu	a0,a4,t6
   12dc8:	007585b3          	add	a1,a1,t2
   12dcc:	03f70733          	mul	a4,a4,t6
   12dd0:	00a585b3          	add	a1,a1,a0
   12dd4:	01f59513          	slli	a0,a1,0x1f
   12dd8:	0015d593          	srli	a1,a1,0x1
   12ddc:	00175713          	srli	a4,a4,0x1
   12de0:	00e56733          	or	a4,a0,a4
   12de4:	32030663          	beqz	t1,13110 <_vfiprintf_r+0x1280>
   12de8:	00058313          	mv	t1,a1
   12dec:	00070793          	mv	a5,a4
   12df0:	00068593          	mv	a1,a3
   12df4:	006784b3          	add	s1,a5,t1
   12df8:	00f4b733          	sltu	a4,s1,a5
   12dfc:	00e48733          	add	a4,s1,a4
   12e00:	03c77733          	remu	a4,a4,t3
   12e04:	fff58693          	addi	a3,a1,-1
   12e08:	00160613          	addi	a2,a2,1
   12e0c:	40e78733          	sub	a4,a5,a4
   12e10:	00e7b3b3          	sltu	t2,a5,a4
   12e14:	407303b3          	sub	t2,t1,t2
   12e18:	03f73533          	mulhu	a0,a4,t6
   12e1c:	03f383b3          	mul	t2,t2,t6
   12e20:	03f70733          	mul	a4,a4,t6
   12e24:	00a383b3          	add	t2,t2,a0
   12e28:	01f39393          	slli	t2,t2,0x1f
   12e2c:	00175513          	srli	a0,a4,0x1
   12e30:	00a3e533          	or	a0,t2,a0
   12e34:	00251713          	slli	a4,a0,0x2
   12e38:	00a70733          	add	a4,a4,a0
   12e3c:	00171713          	slli	a4,a4,0x1
   12e40:	40e78733          	sub	a4,a5,a4
   12e44:	03070713          	addi	a4,a4,48
   12e48:	fee58fa3          	sb	a4,-1(a1)
   12e4c:	f40e8ce3          	beqz	t4,12da4 <_vfiprintf_r+0xf14>
   12e50:	00084703          	lbu	a4,0(a6)
   12e54:	f4c718e3          	bne	a4,a2,12da4 <_vfiprintf_r+0xf14>
   12e58:	f5e606e3          	beq	a2,t5,12da4 <_vfiprintf_r+0xf14>
   12e5c:	14031463          	bnez	t1,12fa4 <_vfiprintf_r+0x1114>
   12e60:	00900713          	li	a4,9
   12e64:	14f76063          	bltu	a4,a5,12fa4 <_vfiprintf_r+0x1114>
   12e68:	01012a23          	sw	a6,20(sp)
   12e6c:	00068493          	mv	s1,a3
   12e70:	cc5ff06f          	j	12b34 <_vfiprintf_r+0xca4>
   12e74:	00000313          	li	t1,0
   12e78:	0f010493          	addi	s1,sp,240
   12e7c:	e54ff06f          	j	124d0 <_vfiprintf_r+0x640>
   12e80:	00840413          	addi	s0,s0,8
   12e84:	00160593          	addi	a1,a2,1
   12e88:	00060713          	mv	a4,a2
   12e8c:	b98ff06f          	j	12224 <_vfiprintf_r+0x394>
   12e90:	000d2783          	lw	a5,0(s10)
   12e94:	41f95713          	srai	a4,s2,0x1f
   12e98:	004d0d13          	addi	s10,s10,4
   12e9c:	0127a023          	sw	s2,0(a5)
   12ea0:	00e7a223          	sw	a4,4(a5)
   12ea4:	8dcff06f          	j	11f80 <_vfiprintf_r+0xf0>
   12ea8:	00000713          	li	a4,0
   12eac:	00100593          	li	a1,1
   12eb0:	000a8413          	mv	s0,s5
   12eb4:	b68ff06f          	j	1221c <_vfiprintf_r+0x38c>
   12eb8:	000e8313          	mv	t1,t4
   12ebc:	00058493          	mv	s1,a1
   12ec0:	e10ff06f          	j	124d0 <_vfiprintf_r+0x640>
   12ec4:	fff00d93          	li	s11,-1
   12ec8:	00060993          	mv	s3,a2
   12ecc:	954ff06f          	j	12020 <_vfiprintf_r+0x190>
   12ed0:	00088e93          	mv	t4,a7
   12ed4:	825ff06f          	j	126f8 <_vfiprintf_r+0x868>
   12ed8:	00088713          	mv	a4,a7
   12edc:	f8cff06f          	j	12668 <_vfiprintf_r+0x7d8>
   12ee0:	000197b7          	lui	a5,0x19
   12ee4:	72478793          	addi	a5,a5,1828 # 19724 <_getpid_r+0x608>
   12ee8:	00f12223          	sw	a5,4(sp)
   12eec:	0208f793          	andi	a5,a7,32
   12ef0:	04078a63          	beqz	a5,12f44 <_vfiprintf_r+0x10b4>
   12ef4:	007d0d13          	addi	s10,s10,7
   12ef8:	ff8d7d13          	andi	s10,s10,-8
   12efc:	000d2783          	lw	a5,0(s10)
   12f00:	004d2603          	lw	a2,4(s10)
   12f04:	008d0d13          	addi	s10,s10,8
   12f08:	0018f713          	andi	a4,a7,1
   12f0c:	00070e63          	beqz	a4,12f28 <_vfiprintf_r+0x1098>
   12f10:	00c7e733          	or	a4,a5,a2
   12f14:	00070a63          	beqz	a4,12f28 <_vfiprintf_r+0x1098>
   12f18:	03000713          	li	a4,48
   12f1c:	02e10e23          	sb	a4,60(sp)
   12f20:	02d10ea3          	sb	a3,61(sp)
   12f24:	0028e893          	ori	a7,a7,2
   12f28:	bff8f893          	andi	a7,a7,-1025
   12f2c:	8a9ff06f          	j	127d4 <_vfiprintf_r+0x944>
   12f30:	000197b7          	lui	a5,0x19
   12f34:	71078793          	addi	a5,a5,1808 # 19710 <_getpid_r+0x5f4>
   12f38:	00f12223          	sw	a5,4(sp)
   12f3c:	0208f793          	andi	a5,a7,32
   12f40:	fa079ae3          	bnez	a5,12ef4 <_vfiprintf_r+0x1064>
   12f44:	0108f713          	andi	a4,a7,16
   12f48:	000d2783          	lw	a5,0(s10)
   12f4c:	004d0d13          	addi	s10,s10,4
   12f50:	12071263          	bnez	a4,13074 <_vfiprintf_r+0x11e4>
   12f54:	0408f713          	andi	a4,a7,64
   12f58:	10070a63          	beqz	a4,1306c <_vfiprintf_r+0x11dc>
   12f5c:	01079793          	slli	a5,a5,0x10
   12f60:	0107d793          	srli	a5,a5,0x10
   12f64:	00000613          	li	a2,0
   12f68:	fa1ff06f          	j	12f08 <_vfiprintf_r+0x1078>
   12f6c:	00048513          	mv	a0,s1
   12f70:	e65fb0ef          	jal	edd4 <strlen>
   12f74:	00812883          	lw	a7,8(sp)
   12f78:	00050e93          	mv	t4,a0
   12f7c:	d98ff06f          	j	12514 <_vfiprintf_r+0x684>
   12f80:	03b14703          	lbu	a4,59(sp)
   12f84:	1a070063          	beqz	a4,13124 <_vfiprintf_r+0x1294>
   12f88:	03b10793          	addi	a5,sp,59
   12f8c:	04f12623          	sw	a5,76(sp)
   12f90:	00100793          	li	a5,1
   12f94:	04f12823          	sw	a5,80(sp)
   12f98:	00100593          	li	a1,1
   12f9c:	000a8413          	mv	s0,s5
   12fa0:	a00ff06f          	j	121a0 <_vfiprintf_r+0x310>
   12fa4:	02f12423          	sw	a5,40(sp)
   12fa8:	01812783          	lw	a5,24(sp)
   12fac:	01c12583          	lw	a1,28(sp)
   12fb0:	02612623          	sw	t1,44(sp)
   12fb4:	40f686b3          	sub	a3,a3,a5
   12fb8:	00078613          	mv	a2,a5
   12fbc:	00068513          	mv	a0,a3
   12fc0:	02512223          	sw	t0,36(sp)
   12fc4:	03f12023          	sw	t6,32(sp)
   12fc8:	01d12a23          	sw	t4,20(sp)
   12fcc:	01012823          	sw	a6,16(sp)
   12fd0:	01112623          	sw	a7,12(sp)
   12fd4:	00d12423          	sw	a3,8(sp)
   12fd8:	2a0010ef          	jal	14278 <strncpy>
   12fdc:	02812783          	lw	a5,40(sp)
   12fe0:	00500613          	li	a2,5
   12fe4:	01012803          	lw	a6,16(sp)
   12fe8:	00f4b733          	sltu	a4,s1,a5
   12fec:	00e48733          	add	a4,s1,a4
   12ff0:	02c77733          	remu	a4,a4,a2
   12ff4:	00184583          	lbu	a1,1(a6)
   12ff8:	02c12303          	lw	t1,44(sp)
   12ffc:	ccccd537          	lui	a0,0xccccd
   13000:	00b035b3          	snez	a1,a1
   13004:	ccccd3b7          	lui	t2,0xccccd
   13008:	00b80833          	add	a6,a6,a1
   1300c:	ccd50513          	addi	a0,a0,-819 # cccccccd <_end+0xcccafa69>
   13010:	ccc38393          	addi	t2,t2,-820 # cccccccc <_end+0xcccafa68>
   13014:	00812683          	lw	a3,8(sp)
   13018:	00c12883          	lw	a7,12(sp)
   1301c:	01412e83          	lw	t4,20(sp)
   13020:	02012f83          	lw	t6,32(sp)
   13024:	02412283          	lw	t0,36(sp)
   13028:	00000613          	li	a2,0
   1302c:	00500e13          	li	t3,5
   13030:	0ff00f13          	li	t5,255
   13034:	40e78733          	sub	a4,a5,a4
   13038:	00e7b5b3          	sltu	a1,a5,a4
   1303c:	40b305b3          	sub	a1,t1,a1
   13040:	027703b3          	mul	t2,a4,t2
   13044:	02a585b3          	mul	a1,a1,a0
   13048:	02a73333          	mulhu	t1,a4,a0
   1304c:	007585b3          	add	a1,a1,t2
   13050:	02a707b3          	mul	a5,a4,a0
   13054:	006585b3          	add	a1,a1,t1
   13058:	01f59713          	slli	a4,a1,0x1f
   1305c:	0015d593          	srli	a1,a1,0x1
   13060:	0017d793          	srli	a5,a5,0x1
   13064:	00f76733          	or	a4,a4,a5
   13068:	d81ff06f          	j	12de8 <_vfiprintf_r+0xf58>
   1306c:	2008f713          	andi	a4,a7,512
   13070:	0e071863          	bnez	a4,13160 <_vfiprintf_r+0x12d0>
   13074:	00000613          	li	a2,0
   13078:	e91ff06f          	j	12f08 <_vfiprintf_r+0x1078>
   1307c:	00070893          	mv	a7,a4
   13080:	00000713          	li	a4,0
   13084:	ec070463          	beqz	a4,1274c <_vfiprintf_r+0x8bc>
   13088:	a79ff06f          	j	12b00 <_vfiprintf_r+0xc70>
   1308c:	df0fb0ef          	jal	e67c <__sinit>
   13090:	e3dfe06f          	j	11ecc <_vfiprintf_r+0x3c>
   13094:	0019c783          	lbu	a5,1(s3)
   13098:	2008e893          	ori	a7,a7,512
   1309c:	00198993          	addi	s3,s3,1
   130a0:	f79fe06f          	j	12018 <_vfiprintf_r+0x188>
   130a4:	0019c783          	lbu	a5,1(s3)
   130a8:	0208e893          	ori	a7,a7,32
   130ac:	00198993          	addi	s3,s3,1
   130b0:	f69fe06f          	j	12018 <_vfiprintf_r+0x188>
   130b4:	000d2783          	lw	a5,0(s10)
   130b8:	004d0d13          	addi	s10,s10,4
   130bc:	0127a023          	sw	s2,0(a5)
   130c0:	ec1fe06f          	j	11f80 <_vfiprintf_r+0xf0>
   130c4:	00600793          	li	a5,6
   130c8:	000d8e93          	mv	t4,s11
   130cc:	05b7e863          	bltu	a5,s11,1311c <_vfiprintf_r+0x128c>
   130d0:	000194b7          	lui	s1,0x19
   130d4:	000e8313          	mv	t1,t4
   130d8:	73848493          	addi	s1,s1,1848 # 19738 <_getpid_r+0x61c>
   130dc:	870ff06f          	j	1214c <_vfiprintf_r+0x2bc>
   130e0:	200ef713          	andi	a4,t4,512
   130e4:	be0708e3          	beqz	a4,12cd4 <_vfiprintf_r+0xe44>
   130e8:	0ff7f793          	zext.b	a5,a5
   130ec:	00000313          	li	t1,0
   130f0:	e24ff06f          	j	12714 <_vfiprintf_r+0x884>
   130f4:	00000793          	li	a5,0
   130f8:	00000613          	li	a2,0
   130fc:	a05ff06f          	j	12b00 <_vfiprintf_r+0xc70>
   13100:	00100593          	li	a1,1
   13104:	00000713          	li	a4,0
   13108:	000a8413          	mv	s0,s5
   1310c:	918ff06f          	j	12224 <_vfiprintf_r+0x394>
   13110:	00900513          	li	a0,9
   13114:	ccf56ae3          	bltu	a0,a5,12de8 <_vfiprintf_r+0xf58>
   13118:	d51ff06f          	j	12e68 <_vfiprintf_r+0xfd8>
   1311c:	00600e93          	li	t4,6
   13120:	fb1ff06f          	j	130d0 <_vfiprintf_r+0x1240>
   13124:	00100593          	li	a1,1
   13128:	000a8413          	mv	s0,s5
   1312c:	880ff06f          	j	121ac <_vfiprintf_r+0x31c>
   13130:	000d2783          	lw	a5,0(s10)
   13134:	004d0d13          	addi	s10,s10,4
   13138:	01279023          	sh	s2,0(a5)
   1313c:	e45fe06f          	j	11f80 <_vfiprintf_r+0xf0>
   13140:	01879793          	slli	a5,a5,0x18
   13144:	4187d793          	srai	a5,a5,0x18
   13148:	41f7d313          	srai	t1,a5,0x1f
   1314c:	00030713          	mv	a4,t1
   13150:	9bcff06f          	j	1230c <_vfiprintf_r+0x47c>
   13154:	0ff7f793          	zext.b	a5,a5
   13158:	00000613          	li	a2,0
   1315c:	d28ff06f          	j	12684 <_vfiprintf_r+0x7f4>
   13160:	0ff7f793          	zext.b	a5,a5
   13164:	00000613          	li	a2,0
   13168:	da1ff06f          	j	12f08 <_vfiprintf_r+0x1078>
   1316c:	03000793          	li	a5,48
   13170:	b48ff06f          	j	124b8 <_vfiprintf_r+0x628>
   13174:	0001ae37          	lui	t3,0x1a
   13178:	00060513          	mv	a0,a2
   1317c:	ba8e0e13          	addi	t3,t3,-1112 # 19ba8 <blanks.1>
   13180:	a99ff06f          	j	12c18 <_vfiprintf_r+0xd88>
   13184:	0001ae37          	lui	t3,0x1a
   13188:	00168613          	addi	a2,a3,1
   1318c:	ba8e0e13          	addi	t3,t3,-1112 # 19ba8 <blanks.1>
   13190:	a84ff06f          	j	12414 <_vfiprintf_r+0x584>
   13194:	fff00d13          	li	s10,-1
   13198:	f45fe06f          	j	120dc <_vfiprintf_r+0x24c>
   1319c:	0001af37          	lui	t5,0x1a
   131a0:	00058613          	mv	a2,a1
   131a4:	b98f0f13          	addi	t5,t5,-1128 # 19b98 <zeroes.0>
   131a8:	f78ff06f          	j	12920 <_vfiprintf_r+0xa90>
   131ac:	000d2d83          	lw	s11,0(s10)
   131b0:	004d0d13          	addi	s10,s10,4
   131b4:	000dd463          	bgez	s11,131bc <_vfiprintf_r+0x132c>
   131b8:	fff00d93          	li	s11,-1
   131bc:	0019c783          	lbu	a5,1(s3)
   131c0:	00060993          	mv	s3,a2
   131c4:	e55fe06f          	j	12018 <_vfiprintf_r+0x188>

000131c8 <vfiprintf>:
   131c8:	00050793          	mv	a5,a0
   131cc:	86c1a503          	lw	a0,-1940(gp) # 1a724 <_impure_ptr>
   131d0:	00060693          	mv	a3,a2
   131d4:	00058613          	mv	a2,a1
   131d8:	00078593          	mv	a1,a5
   131dc:	cb5fe06f          	j	11e90 <_vfiprintf_r>

000131e0 <__sbprintf>:
   131e0:	b8010113          	addi	sp,sp,-1152
   131e4:	00c59783          	lh	a5,12(a1)
   131e8:	00e5d703          	lhu	a4,14(a1)
   131ec:	46812c23          	sw	s0,1144(sp)
   131f0:	00058413          	mv	s0,a1
   131f4:	000105b7          	lui	a1,0x10
   131f8:	ffd58593          	addi	a1,a1,-3 # fffd <_vfprintf_r+0xc11>
   131fc:	06442e03          	lw	t3,100(s0)
   13200:	01c42303          	lw	t1,28(s0)
   13204:	02442883          	lw	a7,36(s0)
   13208:	01071713          	slli	a4,a4,0x10
   1320c:	00b7f7b3          	and	a5,a5,a1
   13210:	00e7e7b3          	or	a5,a5,a4
   13214:	40000813          	li	a6,1024
   13218:	00f12a23          	sw	a5,20(sp)
   1321c:	00810593          	addi	a1,sp,8
   13220:	07010793          	addi	a5,sp,112
   13224:	46912a23          	sw	s1,1140(sp)
   13228:	47212823          	sw	s2,1136(sp)
   1322c:	46112e23          	sw	ra,1148(sp)
   13230:	00050913          	mv	s2,a0
   13234:	07c12623          	sw	t3,108(sp)
   13238:	02612223          	sw	t1,36(sp)
   1323c:	03112623          	sw	a7,44(sp)
   13240:	00f12423          	sw	a5,8(sp)
   13244:	00f12c23          	sw	a5,24(sp)
   13248:	01012823          	sw	a6,16(sp)
   1324c:	01012e23          	sw	a6,28(sp)
   13250:	02012023          	sw	zero,32(sp)
   13254:	c3dfe0ef          	jal	11e90 <_vfiprintf_r>
   13258:	00050493          	mv	s1,a0
   1325c:	02055c63          	bgez	a0,13294 <__sbprintf+0xb4>
   13260:	01415783          	lhu	a5,20(sp)
   13264:	0407f793          	andi	a5,a5,64
   13268:	00078863          	beqz	a5,13278 <__sbprintf+0x98>
   1326c:	00c45783          	lhu	a5,12(s0)
   13270:	0407e793          	ori	a5,a5,64
   13274:	00f41623          	sh	a5,12(s0)
   13278:	47c12083          	lw	ra,1148(sp)
   1327c:	47812403          	lw	s0,1144(sp)
   13280:	47012903          	lw	s2,1136(sp)
   13284:	00048513          	mv	a0,s1
   13288:	47412483          	lw	s1,1140(sp)
   1328c:	48010113          	addi	sp,sp,1152
   13290:	00008067          	ret
   13294:	00810593          	addi	a1,sp,8
   13298:	00090513          	mv	a0,s2
   1329c:	370000ef          	jal	1360c <_fflush_r>
   132a0:	fc0500e3          	beqz	a0,13260 <__sbprintf+0x80>
   132a4:	fff00493          	li	s1,-1
   132a8:	fb9ff06f          	j	13260 <__sbprintf+0x80>

000132ac <_fclose_r>:
   132ac:	ff010113          	addi	sp,sp,-16
   132b0:	00112623          	sw	ra,12(sp)
   132b4:	01212023          	sw	s2,0(sp)
   132b8:	02058863          	beqz	a1,132e8 <_fclose_r+0x3c>
   132bc:	00812423          	sw	s0,8(sp)
   132c0:	00912223          	sw	s1,4(sp)
   132c4:	00058413          	mv	s0,a1
   132c8:	00050493          	mv	s1,a0
   132cc:	00050663          	beqz	a0,132d8 <_fclose_r+0x2c>
   132d0:	03452783          	lw	a5,52(a0)
   132d4:	0c078c63          	beqz	a5,133ac <_fclose_r+0x100>
   132d8:	00c41783          	lh	a5,12(s0)
   132dc:	02079263          	bnez	a5,13300 <_fclose_r+0x54>
   132e0:	00812403          	lw	s0,8(sp)
   132e4:	00412483          	lw	s1,4(sp)
   132e8:	00c12083          	lw	ra,12(sp)
   132ec:	00000913          	li	s2,0
   132f0:	00090513          	mv	a0,s2
   132f4:	00012903          	lw	s2,0(sp)
   132f8:	01010113          	addi	sp,sp,16
   132fc:	00008067          	ret
   13300:	00040593          	mv	a1,s0
   13304:	00048513          	mv	a0,s1
   13308:	0b8000ef          	jal	133c0 <__sflush_r>
   1330c:	02c42783          	lw	a5,44(s0)
   13310:	00050913          	mv	s2,a0
   13314:	00078a63          	beqz	a5,13328 <_fclose_r+0x7c>
   13318:	01c42583          	lw	a1,28(s0)
   1331c:	00048513          	mv	a0,s1
   13320:	000780e7          	jalr	a5
   13324:	06054463          	bltz	a0,1338c <_fclose_r+0xe0>
   13328:	00c45783          	lhu	a5,12(s0)
   1332c:	0807f793          	andi	a5,a5,128
   13330:	06079663          	bnez	a5,1339c <_fclose_r+0xf0>
   13334:	03042583          	lw	a1,48(s0)
   13338:	00058c63          	beqz	a1,13350 <_fclose_r+0xa4>
   1333c:	04040793          	addi	a5,s0,64
   13340:	00f58663          	beq	a1,a5,1334c <_fclose_r+0xa0>
   13344:	00048513          	mv	a0,s1
   13348:	da1fb0ef          	jal	f0e8 <_free_r>
   1334c:	02042823          	sw	zero,48(s0)
   13350:	04442583          	lw	a1,68(s0)
   13354:	00058863          	beqz	a1,13364 <_fclose_r+0xb8>
   13358:	00048513          	mv	a0,s1
   1335c:	d8dfb0ef          	jal	f0e8 <_free_r>
   13360:	04042223          	sw	zero,68(s0)
   13364:	b3cfb0ef          	jal	e6a0 <__sfp_lock_acquire>
   13368:	00041623          	sh	zero,12(s0)
   1336c:	b38fb0ef          	jal	e6a4 <__sfp_lock_release>
   13370:	00c12083          	lw	ra,12(sp)
   13374:	00812403          	lw	s0,8(sp)
   13378:	00412483          	lw	s1,4(sp)
   1337c:	00090513          	mv	a0,s2
   13380:	00012903          	lw	s2,0(sp)
   13384:	01010113          	addi	sp,sp,16
   13388:	00008067          	ret
   1338c:	00c45783          	lhu	a5,12(s0)
   13390:	fff00913          	li	s2,-1
   13394:	0807f793          	andi	a5,a5,128
   13398:	f8078ee3          	beqz	a5,13334 <_fclose_r+0x88>
   1339c:	01042583          	lw	a1,16(s0)
   133a0:	00048513          	mv	a0,s1
   133a4:	d45fb0ef          	jal	f0e8 <_free_r>
   133a8:	f8dff06f          	j	13334 <_fclose_r+0x88>
   133ac:	ad0fb0ef          	jal	e67c <__sinit>
   133b0:	f29ff06f          	j	132d8 <_fclose_r+0x2c>

000133b4 <fclose>:
   133b4:	00050593          	mv	a1,a0
   133b8:	86c1a503          	lw	a0,-1940(gp) # 1a724 <_impure_ptr>
   133bc:	ef1ff06f          	j	132ac <_fclose_r>

000133c0 <__sflush_r>:
   133c0:	00c59703          	lh	a4,12(a1)
   133c4:	fe010113          	addi	sp,sp,-32
   133c8:	00812c23          	sw	s0,24(sp)
   133cc:	01312623          	sw	s3,12(sp)
   133d0:	00112e23          	sw	ra,28(sp)
   133d4:	00877793          	andi	a5,a4,8
   133d8:	00058413          	mv	s0,a1
   133dc:	00050993          	mv	s3,a0
   133e0:	12079063          	bnez	a5,13500 <__sflush_r+0x140>
   133e4:	000017b7          	lui	a5,0x1
   133e8:	80078793          	addi	a5,a5,-2048 # 800 <_start-0x7800>
   133ec:	0045a683          	lw	a3,4(a1)
   133f0:	00f767b3          	or	a5,a4,a5
   133f4:	00f59623          	sh	a5,12(a1)
   133f8:	18d05263          	blez	a3,1357c <__sflush_r+0x1bc>
   133fc:	02842803          	lw	a6,40(s0)
   13400:	0e080463          	beqz	a6,134e8 <__sflush_r+0x128>
   13404:	00912a23          	sw	s1,20(sp)
   13408:	01371693          	slli	a3,a4,0x13
   1340c:	0009a483          	lw	s1,0(s3)
   13410:	0009a023          	sw	zero,0(s3)
   13414:	01c42583          	lw	a1,28(s0)
   13418:	1606ce63          	bltz	a3,13594 <__sflush_r+0x1d4>
   1341c:	00000613          	li	a2,0
   13420:	00100693          	li	a3,1
   13424:	00098513          	mv	a0,s3
   13428:	000800e7          	jalr	a6
   1342c:	fff00793          	li	a5,-1
   13430:	00050613          	mv	a2,a0
   13434:	1af50463          	beq	a0,a5,135dc <__sflush_r+0x21c>
   13438:	00c41783          	lh	a5,12(s0)
   1343c:	02842803          	lw	a6,40(s0)
   13440:	01c42583          	lw	a1,28(s0)
   13444:	0047f793          	andi	a5,a5,4
   13448:	00078e63          	beqz	a5,13464 <__sflush_r+0xa4>
   1344c:	00442703          	lw	a4,4(s0)
   13450:	03042783          	lw	a5,48(s0)
   13454:	40e60633          	sub	a2,a2,a4
   13458:	00078663          	beqz	a5,13464 <__sflush_r+0xa4>
   1345c:	03c42783          	lw	a5,60(s0)
   13460:	40f60633          	sub	a2,a2,a5
   13464:	00000693          	li	a3,0
   13468:	00098513          	mv	a0,s3
   1346c:	000800e7          	jalr	a6
   13470:	fff00793          	li	a5,-1
   13474:	12f51463          	bne	a0,a5,1359c <__sflush_r+0x1dc>
   13478:	0009a683          	lw	a3,0(s3)
   1347c:	01d00793          	li	a5,29
   13480:	00c41703          	lh	a4,12(s0)
   13484:	16d7ea63          	bltu	a5,a3,135f8 <__sflush_r+0x238>
   13488:	204007b7          	lui	a5,0x20400
   1348c:	00178793          	addi	a5,a5,1 # 20400001 <_end+0x203e2d9d>
   13490:	00d7d7b3          	srl	a5,a5,a3
   13494:	0017f793          	andi	a5,a5,1
   13498:	16078063          	beqz	a5,135f8 <__sflush_r+0x238>
   1349c:	01042603          	lw	a2,16(s0)
   134a0:	fffff7b7          	lui	a5,0xfffff
   134a4:	7ff78793          	addi	a5,a5,2047 # fffff7ff <_end+0xfffe259b>
   134a8:	00f777b3          	and	a5,a4,a5
   134ac:	00f41623          	sh	a5,12(s0)
   134b0:	00042223          	sw	zero,4(s0)
   134b4:	00c42023          	sw	a2,0(s0)
   134b8:	01371793          	slli	a5,a4,0x13
   134bc:	0007d463          	bgez	a5,134c4 <__sflush_r+0x104>
   134c0:	10068263          	beqz	a3,135c4 <__sflush_r+0x204>
   134c4:	03042583          	lw	a1,48(s0)
   134c8:	0099a023          	sw	s1,0(s3)
   134cc:	10058463          	beqz	a1,135d4 <__sflush_r+0x214>
   134d0:	04040793          	addi	a5,s0,64
   134d4:	00f58663          	beq	a1,a5,134e0 <__sflush_r+0x120>
   134d8:	00098513          	mv	a0,s3
   134dc:	c0dfb0ef          	jal	f0e8 <_free_r>
   134e0:	01412483          	lw	s1,20(sp)
   134e4:	02042823          	sw	zero,48(s0)
   134e8:	00000513          	li	a0,0
   134ec:	01c12083          	lw	ra,28(sp)
   134f0:	01812403          	lw	s0,24(sp)
   134f4:	00c12983          	lw	s3,12(sp)
   134f8:	02010113          	addi	sp,sp,32
   134fc:	00008067          	ret
   13500:	01212823          	sw	s2,16(sp)
   13504:	0105a903          	lw	s2,16(a1)
   13508:	08090263          	beqz	s2,1358c <__sflush_r+0x1cc>
   1350c:	00912a23          	sw	s1,20(sp)
   13510:	0005a483          	lw	s1,0(a1)
   13514:	00377713          	andi	a4,a4,3
   13518:	0125a023          	sw	s2,0(a1)
   1351c:	412484b3          	sub	s1,s1,s2
   13520:	00000793          	li	a5,0
   13524:	00071463          	bnez	a4,1352c <__sflush_r+0x16c>
   13528:	0145a783          	lw	a5,20(a1)
   1352c:	00f42423          	sw	a5,8(s0)
   13530:	00904863          	bgtz	s1,13540 <__sflush_r+0x180>
   13534:	0540006f          	j	13588 <__sflush_r+0x1c8>
   13538:	00a90933          	add	s2,s2,a0
   1353c:	04905663          	blez	s1,13588 <__sflush_r+0x1c8>
   13540:	02442783          	lw	a5,36(s0)
   13544:	01c42583          	lw	a1,28(s0)
   13548:	00048693          	mv	a3,s1
   1354c:	00090613          	mv	a2,s2
   13550:	00098513          	mv	a0,s3
   13554:	000780e7          	jalr	a5
   13558:	40a484b3          	sub	s1,s1,a0
   1355c:	fca04ee3          	bgtz	a0,13538 <__sflush_r+0x178>
   13560:	00c41703          	lh	a4,12(s0)
   13564:	01012903          	lw	s2,16(sp)
   13568:	04076713          	ori	a4,a4,64
   1356c:	01412483          	lw	s1,20(sp)
   13570:	00e41623          	sh	a4,12(s0)
   13574:	fff00513          	li	a0,-1
   13578:	f75ff06f          	j	134ec <__sflush_r+0x12c>
   1357c:	03c5a683          	lw	a3,60(a1)
   13580:	e6d04ee3          	bgtz	a3,133fc <__sflush_r+0x3c>
   13584:	f65ff06f          	j	134e8 <__sflush_r+0x128>
   13588:	01412483          	lw	s1,20(sp)
   1358c:	01012903          	lw	s2,16(sp)
   13590:	f59ff06f          	j	134e8 <__sflush_r+0x128>
   13594:	05042603          	lw	a2,80(s0)
   13598:	eadff06f          	j	13444 <__sflush_r+0x84>
   1359c:	00c41703          	lh	a4,12(s0)
   135a0:	01042683          	lw	a3,16(s0)
   135a4:	fffff7b7          	lui	a5,0xfffff
   135a8:	7ff78793          	addi	a5,a5,2047 # fffff7ff <_end+0xfffe259b>
   135ac:	00f777b3          	and	a5,a4,a5
   135b0:	00f41623          	sh	a5,12(s0)
   135b4:	00042223          	sw	zero,4(s0)
   135b8:	00d42023          	sw	a3,0(s0)
   135bc:	01371793          	slli	a5,a4,0x13
   135c0:	f007d2e3          	bgez	a5,134c4 <__sflush_r+0x104>
   135c4:	03042583          	lw	a1,48(s0)
   135c8:	04a42823          	sw	a0,80(s0)
   135cc:	0099a023          	sw	s1,0(s3)
   135d0:	f00590e3          	bnez	a1,134d0 <__sflush_r+0x110>
   135d4:	01412483          	lw	s1,20(sp)
   135d8:	f11ff06f          	j	134e8 <__sflush_r+0x128>
   135dc:	0009a783          	lw	a5,0(s3)
   135e0:	e4078ce3          	beqz	a5,13438 <__sflush_r+0x78>
   135e4:	01d00713          	li	a4,29
   135e8:	00e78c63          	beq	a5,a4,13600 <__sflush_r+0x240>
   135ec:	01600713          	li	a4,22
   135f0:	00e78863          	beq	a5,a4,13600 <__sflush_r+0x240>
   135f4:	00c41703          	lh	a4,12(s0)
   135f8:	04076713          	ori	a4,a4,64
   135fc:	f71ff06f          	j	1356c <__sflush_r+0x1ac>
   13600:	0099a023          	sw	s1,0(s3)
   13604:	01412483          	lw	s1,20(sp)
   13608:	ee1ff06f          	j	134e8 <__sflush_r+0x128>

0001360c <_fflush_r>:
   1360c:	fe010113          	addi	sp,sp,-32
   13610:	00812c23          	sw	s0,24(sp)
   13614:	00112e23          	sw	ra,28(sp)
   13618:	00050413          	mv	s0,a0
   1361c:	00050663          	beqz	a0,13628 <_fflush_r+0x1c>
   13620:	03452783          	lw	a5,52(a0)
   13624:	02078a63          	beqz	a5,13658 <_fflush_r+0x4c>
   13628:	00c59783          	lh	a5,12(a1)
   1362c:	00079c63          	bnez	a5,13644 <_fflush_r+0x38>
   13630:	01c12083          	lw	ra,28(sp)
   13634:	01812403          	lw	s0,24(sp)
   13638:	00000513          	li	a0,0
   1363c:	02010113          	addi	sp,sp,32
   13640:	00008067          	ret
   13644:	00040513          	mv	a0,s0
   13648:	01812403          	lw	s0,24(sp)
   1364c:	01c12083          	lw	ra,28(sp)
   13650:	02010113          	addi	sp,sp,32
   13654:	d6dff06f          	j	133c0 <__sflush_r>
   13658:	00b12623          	sw	a1,12(sp)
   1365c:	820fb0ef          	jal	e67c <__sinit>
   13660:	00c12583          	lw	a1,12(sp)
   13664:	fc5ff06f          	j	13628 <_fflush_r+0x1c>

00013668 <fflush>:
   13668:	06050063          	beqz	a0,136c8 <fflush+0x60>
   1366c:	00050593          	mv	a1,a0
   13670:	86c1a503          	lw	a0,-1940(gp) # 1a724 <_impure_ptr>
   13674:	00050663          	beqz	a0,13680 <fflush+0x18>
   13678:	03452783          	lw	a5,52(a0)
   1367c:	00078c63          	beqz	a5,13694 <fflush+0x2c>
   13680:	00c59783          	lh	a5,12(a1)
   13684:	00079663          	bnez	a5,13690 <fflush+0x28>
   13688:	00000513          	li	a0,0
   1368c:	00008067          	ret
   13690:	d31ff06f          	j	133c0 <__sflush_r>
   13694:	fe010113          	addi	sp,sp,-32
   13698:	00b12623          	sw	a1,12(sp)
   1369c:	00a12423          	sw	a0,8(sp)
   136a0:	00112e23          	sw	ra,28(sp)
   136a4:	fd9fa0ef          	jal	e67c <__sinit>
   136a8:	00c12583          	lw	a1,12(sp)
   136ac:	00812503          	lw	a0,8(sp)
   136b0:	00c59783          	lh	a5,12(a1)
   136b4:	02079863          	bnez	a5,136e4 <fflush+0x7c>
   136b8:	01c12083          	lw	ra,28(sp)
   136bc:	00000513          	li	a0,0
   136c0:	02010113          	addi	sp,sp,32
   136c4:	00008067          	ret
   136c8:	0001a637          	lui	a2,0x1a
   136cc:	000135b7          	lui	a1,0x13
   136d0:	0001a537          	lui	a0,0x1a
   136d4:	41860613          	addi	a2,a2,1048 # 1a418 <__sglue>
   136d8:	60c58593          	addi	a1,a1,1548 # 1360c <_fflush_r>
   136dc:	42850513          	addi	a0,a0,1064 # 1a428 <_impure_data>
   136e0:	ff9fa06f          	j	e6d8 <_fwalk_sglue>
   136e4:	01c12083          	lw	ra,28(sp)
   136e8:	02010113          	addi	sp,sp,32
   136ec:	cd5ff06f          	j	133c0 <__sflush_r>

000136f0 <__sfvwrite_r>:
   136f0:	00862783          	lw	a5,8(a2)
   136f4:	2c078463          	beqz	a5,139bc <__sfvwrite_r+0x2cc>
   136f8:	00c59683          	lh	a3,12(a1)
   136fc:	fd010113          	addi	sp,sp,-48
   13700:	02812423          	sw	s0,40(sp)
   13704:	01412c23          	sw	s4,24(sp)
   13708:	01612823          	sw	s6,16(sp)
   1370c:	02112623          	sw	ra,44(sp)
   13710:	0086f793          	andi	a5,a3,8
   13714:	00060b13          	mv	s6,a2
   13718:	00050a13          	mv	s4,a0
   1371c:	00058413          	mv	s0,a1
   13720:	08078e63          	beqz	a5,137bc <__sfvwrite_r+0xcc>
   13724:	0105a783          	lw	a5,16(a1)
   13728:	08078a63          	beqz	a5,137bc <__sfvwrite_r+0xcc>
   1372c:	02912223          	sw	s1,36(sp)
   13730:	03212023          	sw	s2,32(sp)
   13734:	01312e23          	sw	s3,28(sp)
   13738:	01512a23          	sw	s5,20(sp)
   1373c:	0026f793          	andi	a5,a3,2
   13740:	000b2483          	lw	s1,0(s6)
   13744:	0a078463          	beqz	a5,137ec <__sfvwrite_r+0xfc>
   13748:	02442783          	lw	a5,36(s0)
   1374c:	01c42583          	lw	a1,28(s0)
   13750:	80000ab7          	lui	s5,0x80000
   13754:	00000993          	li	s3,0
   13758:	00000913          	li	s2,0
   1375c:	c00a8a93          	addi	s5,s5,-1024 # 7ffffc00 <_end+0x7ffe299c>
   13760:	00098613          	mv	a2,s3
   13764:	000a0513          	mv	a0,s4
   13768:	04090263          	beqz	s2,137ac <__sfvwrite_r+0xbc>
   1376c:	00090693          	mv	a3,s2
   13770:	012af463          	bgeu	s5,s2,13778 <__sfvwrite_r+0x88>
   13774:	000a8693          	mv	a3,s5
   13778:	000780e7          	jalr	a5
   1377c:	46a05063          	blez	a0,13bdc <__sfvwrite_r+0x4ec>
   13780:	008b2783          	lw	a5,8(s6)
   13784:	00a989b3          	add	s3,s3,a0
   13788:	40a90933          	sub	s2,s2,a0
   1378c:	40a787b3          	sub	a5,a5,a0
   13790:	00fb2423          	sw	a5,8(s6)
   13794:	1a078663          	beqz	a5,13940 <__sfvwrite_r+0x250>
   13798:	02442783          	lw	a5,36(s0)
   1379c:	01c42583          	lw	a1,28(s0)
   137a0:	00098613          	mv	a2,s3
   137a4:	000a0513          	mv	a0,s4
   137a8:	fc0912e3          	bnez	s2,1376c <__sfvwrite_r+0x7c>
   137ac:	0004a983          	lw	s3,0(s1)
   137b0:	0044a903          	lw	s2,4(s1)
   137b4:	00848493          	addi	s1,s1,8
   137b8:	fa9ff06f          	j	13760 <__sfvwrite_r+0x70>
   137bc:	00040593          	mv	a1,s0
   137c0:	000a0513          	mv	a0,s4
   137c4:	714000ef          	jal	13ed8 <__swsetup_r>
   137c8:	1c051c63          	bnez	a0,139a0 <__sfvwrite_r+0x2b0>
   137cc:	00c41683          	lh	a3,12(s0)
   137d0:	02912223          	sw	s1,36(sp)
   137d4:	03212023          	sw	s2,32(sp)
   137d8:	01312e23          	sw	s3,28(sp)
   137dc:	01512a23          	sw	s5,20(sp)
   137e0:	0026f793          	andi	a5,a3,2
   137e4:	000b2483          	lw	s1,0(s6)
   137e8:	f60790e3          	bnez	a5,13748 <__sfvwrite_r+0x58>
   137ec:	01712623          	sw	s7,12(sp)
   137f0:	01812423          	sw	s8,8(sp)
   137f4:	0016f793          	andi	a5,a3,1
   137f8:	1c079663          	bnez	a5,139c4 <__sfvwrite_r+0x2d4>
   137fc:	00042783          	lw	a5,0(s0)
   13800:	00842703          	lw	a4,8(s0)
   13804:	80000ab7          	lui	s5,0x80000
   13808:	01912223          	sw	s9,4(sp)
   1380c:	00000b93          	li	s7,0
   13810:	00000993          	li	s3,0
   13814:	fffa8a93          	addi	s5,s5,-1 # 7fffffff <_end+0x7ffe2d9b>
   13818:	00078513          	mv	a0,a5
   1381c:	00070c13          	mv	s8,a4
   13820:	10098263          	beqz	s3,13924 <__sfvwrite_r+0x234>
   13824:	2006f613          	andi	a2,a3,512
   13828:	28060863          	beqz	a2,13ab8 <__sfvwrite_r+0x3c8>
   1382c:	00070c93          	mv	s9,a4
   13830:	32e9e663          	bltu	s3,a4,13b5c <__sfvwrite_r+0x46c>
   13834:	4806f713          	andi	a4,a3,1152
   13838:	08070a63          	beqz	a4,138cc <__sfvwrite_r+0x1dc>
   1383c:	01442603          	lw	a2,20(s0)
   13840:	01042583          	lw	a1,16(s0)
   13844:	00161713          	slli	a4,a2,0x1
   13848:	00c70733          	add	a4,a4,a2
   1384c:	40b78933          	sub	s2,a5,a1
   13850:	01f75c13          	srli	s8,a4,0x1f
   13854:	00ec0c33          	add	s8,s8,a4
   13858:	00190793          	addi	a5,s2,1
   1385c:	401c5c13          	srai	s8,s8,0x1
   13860:	013787b3          	add	a5,a5,s3
   13864:	000c0613          	mv	a2,s8
   13868:	00fc7663          	bgeu	s8,a5,13874 <__sfvwrite_r+0x184>
   1386c:	00078c13          	mv	s8,a5
   13870:	00078613          	mv	a2,a5
   13874:	4006f693          	andi	a3,a3,1024
   13878:	30068e63          	beqz	a3,13b94 <__sfvwrite_r+0x4a4>
   1387c:	00060593          	mv	a1,a2
   13880:	000a0513          	mv	a0,s4
   13884:	afcfa0ef          	jal	db80 <_malloc_r>
   13888:	00050c93          	mv	s9,a0
   1388c:	34050c63          	beqz	a0,13be4 <__sfvwrite_r+0x4f4>
   13890:	01042583          	lw	a1,16(s0)
   13894:	00090613          	mv	a2,s2
   13898:	521000ef          	jal	145b8 <memcpy>
   1389c:	00c45783          	lhu	a5,12(s0)
   138a0:	b7f7f793          	andi	a5,a5,-1153
   138a4:	0807e793          	ori	a5,a5,128
   138a8:	00f41623          	sh	a5,12(s0)
   138ac:	012c8533          	add	a0,s9,s2
   138b0:	412c07b3          	sub	a5,s8,s2
   138b4:	01942823          	sw	s9,16(s0)
   138b8:	01842a23          	sw	s8,20(s0)
   138bc:	00a42023          	sw	a0,0(s0)
   138c0:	00098c13          	mv	s8,s3
   138c4:	00f42423          	sw	a5,8(s0)
   138c8:	00098c93          	mv	s9,s3
   138cc:	000c8613          	mv	a2,s9
   138d0:	000b8593          	mv	a1,s7
   138d4:	3d9000ef          	jal	144ac <memmove>
   138d8:	00842703          	lw	a4,8(s0)
   138dc:	00042783          	lw	a5,0(s0)
   138e0:	00098913          	mv	s2,s3
   138e4:	41870733          	sub	a4,a4,s8
   138e8:	019787b3          	add	a5,a5,s9
   138ec:	00e42423          	sw	a4,8(s0)
   138f0:	00f42023          	sw	a5,0(s0)
   138f4:	00000993          	li	s3,0
   138f8:	008b2783          	lw	a5,8(s6)
   138fc:	012b8bb3          	add	s7,s7,s2
   13900:	412787b3          	sub	a5,a5,s2
   13904:	00fb2423          	sw	a5,8(s6)
   13908:	02078663          	beqz	a5,13934 <__sfvwrite_r+0x244>
   1390c:	00042783          	lw	a5,0(s0)
   13910:	00842703          	lw	a4,8(s0)
   13914:	00c41683          	lh	a3,12(s0)
   13918:	00078513          	mv	a0,a5
   1391c:	00070c13          	mv	s8,a4
   13920:	f00992e3          	bnez	s3,13824 <__sfvwrite_r+0x134>
   13924:	0004ab83          	lw	s7,0(s1)
   13928:	0044a983          	lw	s3,4(s1)
   1392c:	00848493          	addi	s1,s1,8
   13930:	ee9ff06f          	j	13818 <__sfvwrite_r+0x128>
   13934:	00c12b83          	lw	s7,12(sp)
   13938:	00812c03          	lw	s8,8(sp)
   1393c:	00412c83          	lw	s9,4(sp)
   13940:	02c12083          	lw	ra,44(sp)
   13944:	02812403          	lw	s0,40(sp)
   13948:	02412483          	lw	s1,36(sp)
   1394c:	02012903          	lw	s2,32(sp)
   13950:	01c12983          	lw	s3,28(sp)
   13954:	01412a83          	lw	s5,20(sp)
   13958:	01812a03          	lw	s4,24(sp)
   1395c:	01012b03          	lw	s6,16(sp)
   13960:	00000513          	li	a0,0
   13964:	03010113          	addi	sp,sp,48
   13968:	00008067          	ret
   1396c:	00040593          	mv	a1,s0
   13970:	000a0513          	mv	a0,s4
   13974:	c99ff0ef          	jal	1360c <_fflush_r>
   13978:	0a050e63          	beqz	a0,13a34 <__sfvwrite_r+0x344>
   1397c:	00c41783          	lh	a5,12(s0)
   13980:	00c12b83          	lw	s7,12(sp)
   13984:	00812c03          	lw	s8,8(sp)
   13988:	02412483          	lw	s1,36(sp)
   1398c:	02012903          	lw	s2,32(sp)
   13990:	01c12983          	lw	s3,28(sp)
   13994:	01412a83          	lw	s5,20(sp)
   13998:	0407e793          	ori	a5,a5,64
   1399c:	00f41623          	sh	a5,12(s0)
   139a0:	02c12083          	lw	ra,44(sp)
   139a4:	02812403          	lw	s0,40(sp)
   139a8:	01812a03          	lw	s4,24(sp)
   139ac:	01012b03          	lw	s6,16(sp)
   139b0:	fff00513          	li	a0,-1
   139b4:	03010113          	addi	sp,sp,48
   139b8:	00008067          	ret
   139bc:	00000513          	li	a0,0
   139c0:	00008067          	ret
   139c4:	00000a93          	li	s5,0
   139c8:	00000513          	li	a0,0
   139cc:	00000c13          	li	s8,0
   139d0:	00000993          	li	s3,0
   139d4:	08098263          	beqz	s3,13a58 <__sfvwrite_r+0x368>
   139d8:	08050a63          	beqz	a0,13a6c <__sfvwrite_r+0x37c>
   139dc:	000a8793          	mv	a5,s5
   139e0:	00098b93          	mv	s7,s3
   139e4:	0137f463          	bgeu	a5,s3,139ec <__sfvwrite_r+0x2fc>
   139e8:	00078b93          	mv	s7,a5
   139ec:	00042503          	lw	a0,0(s0)
   139f0:	01042783          	lw	a5,16(s0)
   139f4:	00842903          	lw	s2,8(s0)
   139f8:	01442683          	lw	a3,20(s0)
   139fc:	00a7f663          	bgeu	a5,a0,13a08 <__sfvwrite_r+0x318>
   13a00:	00d90933          	add	s2,s2,a3
   13a04:	09794463          	blt	s2,s7,13a8c <__sfvwrite_r+0x39c>
   13a08:	16dbc063          	blt	s7,a3,13b68 <__sfvwrite_r+0x478>
   13a0c:	02442783          	lw	a5,36(s0)
   13a10:	01c42583          	lw	a1,28(s0)
   13a14:	000c0613          	mv	a2,s8
   13a18:	000a0513          	mv	a0,s4
   13a1c:	000780e7          	jalr	a5
   13a20:	00050913          	mv	s2,a0
   13a24:	f4a05ce3          	blez	a0,1397c <__sfvwrite_r+0x28c>
   13a28:	412a8ab3          	sub	s5,s5,s2
   13a2c:	00100513          	li	a0,1
   13a30:	f20a8ee3          	beqz	s5,1396c <__sfvwrite_r+0x27c>
   13a34:	008b2783          	lw	a5,8(s6)
   13a38:	012c0c33          	add	s8,s8,s2
   13a3c:	412989b3          	sub	s3,s3,s2
   13a40:	412787b3          	sub	a5,a5,s2
   13a44:	00fb2423          	sw	a5,8(s6)
   13a48:	f80796e3          	bnez	a5,139d4 <__sfvwrite_r+0x2e4>
   13a4c:	00c12b83          	lw	s7,12(sp)
   13a50:	00812c03          	lw	s8,8(sp)
   13a54:	eedff06f          	j	13940 <__sfvwrite_r+0x250>
   13a58:	0044a983          	lw	s3,4(s1)
   13a5c:	00048793          	mv	a5,s1
   13a60:	00848493          	addi	s1,s1,8
   13a64:	fe098ae3          	beqz	s3,13a58 <__sfvwrite_r+0x368>
   13a68:	0007ac03          	lw	s8,0(a5)
   13a6c:	00098613          	mv	a2,s3
   13a70:	00a00593          	li	a1,10
   13a74:	000c0513          	mv	a0,s8
   13a78:	73c000ef          	jal	141b4 <memchr>
   13a7c:	14050a63          	beqz	a0,13bd0 <__sfvwrite_r+0x4e0>
   13a80:	00150513          	addi	a0,a0,1
   13a84:	41850ab3          	sub	s5,a0,s8
   13a88:	f55ff06f          	j	139dc <__sfvwrite_r+0x2ec>
   13a8c:	000c0593          	mv	a1,s8
   13a90:	00090613          	mv	a2,s2
   13a94:	219000ef          	jal	144ac <memmove>
   13a98:	00042783          	lw	a5,0(s0)
   13a9c:	00040593          	mv	a1,s0
   13aa0:	000a0513          	mv	a0,s4
   13aa4:	012787b3          	add	a5,a5,s2
   13aa8:	00f42023          	sw	a5,0(s0)
   13aac:	b61ff0ef          	jal	1360c <_fflush_r>
   13ab0:	f6050ce3          	beqz	a0,13a28 <__sfvwrite_r+0x338>
   13ab4:	ec9ff06f          	j	1397c <__sfvwrite_r+0x28c>
   13ab8:	01042683          	lw	a3,16(s0)
   13abc:	04f6e263          	bltu	a3,a5,13b00 <__sfvwrite_r+0x410>
   13ac0:	01442603          	lw	a2,20(s0)
   13ac4:	02c9ee63          	bltu	s3,a2,13b00 <__sfvwrite_r+0x410>
   13ac8:	00098793          	mv	a5,s3
   13acc:	013af463          	bgeu	s5,s3,13ad4 <__sfvwrite_r+0x3e4>
   13ad0:	000a8793          	mv	a5,s5
   13ad4:	02c7e6b3          	rem	a3,a5,a2
   13ad8:	02442703          	lw	a4,36(s0)
   13adc:	01c42583          	lw	a1,28(s0)
   13ae0:	000b8613          	mv	a2,s7
   13ae4:	000a0513          	mv	a0,s4
   13ae8:	40d786b3          	sub	a3,a5,a3
   13aec:	000700e7          	jalr	a4
   13af0:	00050913          	mv	s2,a0
   13af4:	04a05a63          	blez	a0,13b48 <__sfvwrite_r+0x458>
   13af8:	412989b3          	sub	s3,s3,s2
   13afc:	dfdff06f          	j	138f8 <__sfvwrite_r+0x208>
   13b00:	00070913          	mv	s2,a4
   13b04:	00e9f463          	bgeu	s3,a4,13b0c <__sfvwrite_r+0x41c>
   13b08:	00098913          	mv	s2,s3
   13b0c:	00078513          	mv	a0,a5
   13b10:	00090613          	mv	a2,s2
   13b14:	000b8593          	mv	a1,s7
   13b18:	195000ef          	jal	144ac <memmove>
   13b1c:	00842703          	lw	a4,8(s0)
   13b20:	00042783          	lw	a5,0(s0)
   13b24:	41270733          	sub	a4,a4,s2
   13b28:	012787b3          	add	a5,a5,s2
   13b2c:	00e42423          	sw	a4,8(s0)
   13b30:	00f42023          	sw	a5,0(s0)
   13b34:	fc0712e3          	bnez	a4,13af8 <__sfvwrite_r+0x408>
   13b38:	00040593          	mv	a1,s0
   13b3c:	000a0513          	mv	a0,s4
   13b40:	acdff0ef          	jal	1360c <_fflush_r>
   13b44:	fa050ae3          	beqz	a0,13af8 <__sfvwrite_r+0x408>
   13b48:	00c41783          	lh	a5,12(s0)
   13b4c:	00c12b83          	lw	s7,12(sp)
   13b50:	00812c03          	lw	s8,8(sp)
   13b54:	00412c83          	lw	s9,4(sp)
   13b58:	e31ff06f          	j	13988 <__sfvwrite_r+0x298>
   13b5c:	00098c13          	mv	s8,s3
   13b60:	00098c93          	mv	s9,s3
   13b64:	d69ff06f          	j	138cc <__sfvwrite_r+0x1dc>
   13b68:	000b8613          	mv	a2,s7
   13b6c:	000c0593          	mv	a1,s8
   13b70:	13d000ef          	jal	144ac <memmove>
   13b74:	00842703          	lw	a4,8(s0)
   13b78:	00042783          	lw	a5,0(s0)
   13b7c:	000b8913          	mv	s2,s7
   13b80:	41770733          	sub	a4,a4,s7
   13b84:	017787b3          	add	a5,a5,s7
   13b88:	00e42423          	sw	a4,8(s0)
   13b8c:	00f42023          	sw	a5,0(s0)
   13b90:	e99ff06f          	j	13a28 <__sfvwrite_r+0x338>
   13b94:	000a0513          	mv	a0,s4
   13b98:	410040ef          	jal	17fa8 <_realloc_r>
   13b9c:	00050c93          	mv	s9,a0
   13ba0:	d00516e3          	bnez	a0,138ac <__sfvwrite_r+0x1bc>
   13ba4:	01042583          	lw	a1,16(s0)
   13ba8:	000a0513          	mv	a0,s4
   13bac:	d3cfb0ef          	jal	f0e8 <_free_r>
   13bb0:	00c41783          	lh	a5,12(s0)
   13bb4:	00c00713          	li	a4,12
   13bb8:	00c12b83          	lw	s7,12(sp)
   13bbc:	00812c03          	lw	s8,8(sp)
   13bc0:	00412c83          	lw	s9,4(sp)
   13bc4:	00ea2023          	sw	a4,0(s4)
   13bc8:	f7f7f793          	andi	a5,a5,-129
   13bcc:	dbdff06f          	j	13988 <__sfvwrite_r+0x298>
   13bd0:	00198793          	addi	a5,s3,1
   13bd4:	00078a93          	mv	s5,a5
   13bd8:	e09ff06f          	j	139e0 <__sfvwrite_r+0x2f0>
   13bdc:	00c41783          	lh	a5,12(s0)
   13be0:	da9ff06f          	j	13988 <__sfvwrite_r+0x298>
   13be4:	00c00713          	li	a4,12
   13be8:	00c41783          	lh	a5,12(s0)
   13bec:	00c12b83          	lw	s7,12(sp)
   13bf0:	00812c03          	lw	s8,8(sp)
   13bf4:	00412c83          	lw	s9,4(sp)
   13bf8:	00ea2023          	sw	a4,0(s4)
   13bfc:	d8dff06f          	j	13988 <__sfvwrite_r+0x298>

00013c00 <_putc_r>:
   13c00:	fe010113          	addi	sp,sp,-32
   13c04:	00812c23          	sw	s0,24(sp)
   13c08:	00112e23          	sw	ra,28(sp)
   13c0c:	00050413          	mv	s0,a0
   13c10:	00050663          	beqz	a0,13c1c <_putc_r+0x1c>
   13c14:	03452783          	lw	a5,52(a0)
   13c18:	06078063          	beqz	a5,13c78 <_putc_r+0x78>
   13c1c:	00862783          	lw	a5,8(a2)
   13c20:	fff78793          	addi	a5,a5,-1
   13c24:	00f62423          	sw	a5,8(a2)
   13c28:	0007dc63          	bgez	a5,13c40 <_putc_r+0x40>
   13c2c:	01862703          	lw	a4,24(a2)
   13c30:	02e7ca63          	blt	a5,a4,13c64 <_putc_r+0x64>
   13c34:	0ff5f793          	zext.b	a5,a1
   13c38:	00a00713          	li	a4,10
   13c3c:	02e78463          	beq	a5,a4,13c64 <_putc_r+0x64>
   13c40:	00062783          	lw	a5,0(a2)
   13c44:	0ff5f513          	zext.b	a0,a1
   13c48:	00178713          	addi	a4,a5,1
   13c4c:	00e62023          	sw	a4,0(a2)
   13c50:	00b78023          	sb	a1,0(a5)
   13c54:	01c12083          	lw	ra,28(sp)
   13c58:	01812403          	lw	s0,24(sp)
   13c5c:	02010113          	addi	sp,sp,32
   13c60:	00008067          	ret
   13c64:	00040513          	mv	a0,s0
   13c68:	01812403          	lw	s0,24(sp)
   13c6c:	01c12083          	lw	ra,28(sp)
   13c70:	02010113          	addi	sp,sp,32
   13c74:	0c00006f          	j	13d34 <__swbuf_r>
   13c78:	00c12623          	sw	a2,12(sp)
   13c7c:	00b12423          	sw	a1,8(sp)
   13c80:	9fdfa0ef          	jal	e67c <__sinit>
   13c84:	00c12603          	lw	a2,12(sp)
   13c88:	00812583          	lw	a1,8(sp)
   13c8c:	f91ff06f          	j	13c1c <_putc_r+0x1c>

00013c90 <putc>:
   13c90:	fe010113          	addi	sp,sp,-32
   13c94:	01212a23          	sw	s2,20(sp)
   13c98:	86c1a903          	lw	s2,-1940(gp) # 1a724 <_impure_ptr>
   13c9c:	00912c23          	sw	s1,24(sp)
   13ca0:	00112e23          	sw	ra,28(sp)
   13ca4:	00050493          	mv	s1,a0
   13ca8:	00090663          	beqz	s2,13cb4 <putc+0x24>
   13cac:	03492783          	lw	a5,52(s2)
   13cb0:	06078863          	beqz	a5,13d20 <putc+0x90>
   13cb4:	0085a783          	lw	a5,8(a1)
   13cb8:	fff78793          	addi	a5,a5,-1
   13cbc:	00f5a423          	sw	a5,8(a1)
   13cc0:	0007dc63          	bgez	a5,13cd8 <putc+0x48>
   13cc4:	0185a703          	lw	a4,24(a1)
   13cc8:	02e7cc63          	blt	a5,a4,13d00 <putc+0x70>
   13ccc:	0ff4f793          	zext.b	a5,s1
   13cd0:	00a00713          	li	a4,10
   13cd4:	02e78663          	beq	a5,a4,13d00 <putc+0x70>
   13cd8:	0005a783          	lw	a5,0(a1)
   13cdc:	0ff4f513          	zext.b	a0,s1
   13ce0:	00178713          	addi	a4,a5,1
   13ce4:	00e5a023          	sw	a4,0(a1)
   13ce8:	00978023          	sb	s1,0(a5)
   13cec:	01c12083          	lw	ra,28(sp)
   13cf0:	01812483          	lw	s1,24(sp)
   13cf4:	01412903          	lw	s2,20(sp)
   13cf8:	02010113          	addi	sp,sp,32
   13cfc:	00008067          	ret
   13d00:	01c12083          	lw	ra,28(sp)
   13d04:	00058613          	mv	a2,a1
   13d08:	00090513          	mv	a0,s2
   13d0c:	00048593          	mv	a1,s1
   13d10:	01412903          	lw	s2,20(sp)
   13d14:	01812483          	lw	s1,24(sp)
   13d18:	02010113          	addi	sp,sp,32
   13d1c:	0180006f          	j	13d34 <__swbuf_r>
   13d20:	00090513          	mv	a0,s2
   13d24:	00b12623          	sw	a1,12(sp)
   13d28:	955fa0ef          	jal	e67c <__sinit>
   13d2c:	00c12583          	lw	a1,12(sp)
   13d30:	f85ff06f          	j	13cb4 <putc+0x24>

00013d34 <__swbuf_r>:
   13d34:	fe010113          	addi	sp,sp,-32
   13d38:	00812c23          	sw	s0,24(sp)
   13d3c:	00912a23          	sw	s1,20(sp)
   13d40:	01212823          	sw	s2,16(sp)
   13d44:	00112e23          	sw	ra,28(sp)
   13d48:	00050913          	mv	s2,a0
   13d4c:	00058493          	mv	s1,a1
   13d50:	00060413          	mv	s0,a2
   13d54:	00050663          	beqz	a0,13d60 <__swbuf_r+0x2c>
   13d58:	03452783          	lw	a5,52(a0)
   13d5c:	16078063          	beqz	a5,13ebc <__swbuf_r+0x188>
   13d60:	01842783          	lw	a5,24(s0)
   13d64:	00c41703          	lh	a4,12(s0)
   13d68:	00f42423          	sw	a5,8(s0)
   13d6c:	00877793          	andi	a5,a4,8
   13d70:	08078063          	beqz	a5,13df0 <__swbuf_r+0xbc>
   13d74:	01042783          	lw	a5,16(s0)
   13d78:	06078c63          	beqz	a5,13df0 <__swbuf_r+0xbc>
   13d7c:	01312623          	sw	s3,12(sp)
   13d80:	01271693          	slli	a3,a4,0x12
   13d84:	0ff4f993          	zext.b	s3,s1
   13d88:	0ff4f493          	zext.b	s1,s1
   13d8c:	0806d863          	bgez	a3,13e1c <__swbuf_r+0xe8>
   13d90:	00042703          	lw	a4,0(s0)
   13d94:	01442683          	lw	a3,20(s0)
   13d98:	40f707b3          	sub	a5,a4,a5
   13d9c:	0ad7d863          	bge	a5,a3,13e4c <__swbuf_r+0x118>
   13da0:	00842683          	lw	a3,8(s0)
   13da4:	00170613          	addi	a2,a4,1
   13da8:	00c42023          	sw	a2,0(s0)
   13dac:	fff68693          	addi	a3,a3,-1
   13db0:	00d42423          	sw	a3,8(s0)
   13db4:	01370023          	sb	s3,0(a4)
   13db8:	01442703          	lw	a4,20(s0)
   13dbc:	00178793          	addi	a5,a5,1
   13dc0:	0cf70263          	beq	a4,a5,13e84 <__swbuf_r+0x150>
   13dc4:	00c45783          	lhu	a5,12(s0)
   13dc8:	0017f793          	andi	a5,a5,1
   13dcc:	0c079a63          	bnez	a5,13ea0 <__swbuf_r+0x16c>
   13dd0:	00c12983          	lw	s3,12(sp)
   13dd4:	01c12083          	lw	ra,28(sp)
   13dd8:	01812403          	lw	s0,24(sp)
   13ddc:	01012903          	lw	s2,16(sp)
   13de0:	00048513          	mv	a0,s1
   13de4:	01412483          	lw	s1,20(sp)
   13de8:	02010113          	addi	sp,sp,32
   13dec:	00008067          	ret
   13df0:	00040593          	mv	a1,s0
   13df4:	00090513          	mv	a0,s2
   13df8:	0e0000ef          	jal	13ed8 <__swsetup_r>
   13dfc:	08051e63          	bnez	a0,13e98 <__swbuf_r+0x164>
   13e00:	00c41703          	lh	a4,12(s0)
   13e04:	01312623          	sw	s3,12(sp)
   13e08:	01042783          	lw	a5,16(s0)
   13e0c:	01271693          	slli	a3,a4,0x12
   13e10:	0ff4f993          	zext.b	s3,s1
   13e14:	0ff4f493          	zext.b	s1,s1
   13e18:	f606cce3          	bltz	a3,13d90 <__swbuf_r+0x5c>
   13e1c:	06442683          	lw	a3,100(s0)
   13e20:	ffffe637          	lui	a2,0xffffe
   13e24:	000025b7          	lui	a1,0x2
   13e28:	00b76733          	or	a4,a4,a1
   13e2c:	fff60613          	addi	a2,a2,-1 # ffffdfff <_end+0xfffe0d9b>
   13e30:	00c6f6b3          	and	a3,a3,a2
   13e34:	00e41623          	sh	a4,12(s0)
   13e38:	00042703          	lw	a4,0(s0)
   13e3c:	06d42223          	sw	a3,100(s0)
   13e40:	01442683          	lw	a3,20(s0)
   13e44:	40f707b3          	sub	a5,a4,a5
   13e48:	f4d7cce3          	blt	a5,a3,13da0 <__swbuf_r+0x6c>
   13e4c:	00040593          	mv	a1,s0
   13e50:	00090513          	mv	a0,s2
   13e54:	fb8ff0ef          	jal	1360c <_fflush_r>
   13e58:	02051e63          	bnez	a0,13e94 <__swbuf_r+0x160>
   13e5c:	00042703          	lw	a4,0(s0)
   13e60:	00842683          	lw	a3,8(s0)
   13e64:	00100793          	li	a5,1
   13e68:	00170613          	addi	a2,a4,1
   13e6c:	fff68693          	addi	a3,a3,-1
   13e70:	00c42023          	sw	a2,0(s0)
   13e74:	00d42423          	sw	a3,8(s0)
   13e78:	01370023          	sb	s3,0(a4)
   13e7c:	01442703          	lw	a4,20(s0)
   13e80:	f4f712e3          	bne	a4,a5,13dc4 <__swbuf_r+0x90>
   13e84:	00040593          	mv	a1,s0
   13e88:	00090513          	mv	a0,s2
   13e8c:	f80ff0ef          	jal	1360c <_fflush_r>
   13e90:	f40500e3          	beqz	a0,13dd0 <__swbuf_r+0x9c>
   13e94:	00c12983          	lw	s3,12(sp)
   13e98:	fff00493          	li	s1,-1
   13e9c:	f39ff06f          	j	13dd4 <__swbuf_r+0xa0>
   13ea0:	00a00793          	li	a5,10
   13ea4:	f2f496e3          	bne	s1,a5,13dd0 <__swbuf_r+0x9c>
   13ea8:	00040593          	mv	a1,s0
   13eac:	00090513          	mv	a0,s2
   13eb0:	f5cff0ef          	jal	1360c <_fflush_r>
   13eb4:	f0050ee3          	beqz	a0,13dd0 <__swbuf_r+0x9c>
   13eb8:	fddff06f          	j	13e94 <__swbuf_r+0x160>
   13ebc:	fc0fa0ef          	jal	e67c <__sinit>
   13ec0:	ea1ff06f          	j	13d60 <__swbuf_r+0x2c>

00013ec4 <__swbuf>:
   13ec4:	00050793          	mv	a5,a0
   13ec8:	86c1a503          	lw	a0,-1940(gp) # 1a724 <_impure_ptr>
   13ecc:	00058613          	mv	a2,a1
   13ed0:	00078593          	mv	a1,a5
   13ed4:	e61ff06f          	j	13d34 <__swbuf_r>

00013ed8 <__swsetup_r>:
   13ed8:	86c1a783          	lw	a5,-1940(gp) # 1a724 <_impure_ptr>
   13edc:	ff010113          	addi	sp,sp,-16
   13ee0:	00812423          	sw	s0,8(sp)
   13ee4:	00912223          	sw	s1,4(sp)
   13ee8:	00112623          	sw	ra,12(sp)
   13eec:	00050493          	mv	s1,a0
   13ef0:	00058413          	mv	s0,a1
   13ef4:	00078663          	beqz	a5,13f00 <__swsetup_r+0x28>
   13ef8:	0347a703          	lw	a4,52(a5)
   13efc:	0e070c63          	beqz	a4,13ff4 <__swsetup_r+0x11c>
   13f00:	00c41783          	lh	a5,12(s0)
   13f04:	0087f713          	andi	a4,a5,8
   13f08:	06070a63          	beqz	a4,13f7c <__swsetup_r+0xa4>
   13f0c:	01042703          	lw	a4,16(s0)
   13f10:	08070663          	beqz	a4,13f9c <__swsetup_r+0xc4>
   13f14:	0017f693          	andi	a3,a5,1
   13f18:	02068863          	beqz	a3,13f48 <__swsetup_r+0x70>
   13f1c:	01442683          	lw	a3,20(s0)
   13f20:	00042423          	sw	zero,8(s0)
   13f24:	00000513          	li	a0,0
   13f28:	40d006b3          	neg	a3,a3
   13f2c:	00d42c23          	sw	a3,24(s0)
   13f30:	02070a63          	beqz	a4,13f64 <__swsetup_r+0x8c>
   13f34:	00c12083          	lw	ra,12(sp)
   13f38:	00812403          	lw	s0,8(sp)
   13f3c:	00412483          	lw	s1,4(sp)
   13f40:	01010113          	addi	sp,sp,16
   13f44:	00008067          	ret
   13f48:	0027f693          	andi	a3,a5,2
   13f4c:	00000613          	li	a2,0
   13f50:	00069463          	bnez	a3,13f58 <__swsetup_r+0x80>
   13f54:	01442603          	lw	a2,20(s0)
   13f58:	00c42423          	sw	a2,8(s0)
   13f5c:	00000513          	li	a0,0
   13f60:	fc071ae3          	bnez	a4,13f34 <__swsetup_r+0x5c>
   13f64:	0807f713          	andi	a4,a5,128
   13f68:	fc0706e3          	beqz	a4,13f34 <__swsetup_r+0x5c>
   13f6c:	0407e793          	ori	a5,a5,64
   13f70:	00f41623          	sh	a5,12(s0)
   13f74:	fff00513          	li	a0,-1
   13f78:	fbdff06f          	j	13f34 <__swsetup_r+0x5c>
   13f7c:	0107f713          	andi	a4,a5,16
   13f80:	08070063          	beqz	a4,14000 <__swsetup_r+0x128>
   13f84:	0047f713          	andi	a4,a5,4
   13f88:	02071c63          	bnez	a4,13fc0 <__swsetup_r+0xe8>
   13f8c:	01042703          	lw	a4,16(s0)
   13f90:	0087e793          	ori	a5,a5,8
   13f94:	00f41623          	sh	a5,12(s0)
   13f98:	f6071ee3          	bnez	a4,13f14 <__swsetup_r+0x3c>
   13f9c:	2807f693          	andi	a3,a5,640
   13fa0:	20000613          	li	a2,512
   13fa4:	f6c688e3          	beq	a3,a2,13f14 <__swsetup_r+0x3c>
   13fa8:	00040593          	mv	a1,s0
   13fac:	00048513          	mv	a0,s1
   13fb0:	6ac040ef          	jal	1865c <__smakebuf_r>
   13fb4:	00c41783          	lh	a5,12(s0)
   13fb8:	01042703          	lw	a4,16(s0)
   13fbc:	f59ff06f          	j	13f14 <__swsetup_r+0x3c>
   13fc0:	03042583          	lw	a1,48(s0)
   13fc4:	00058e63          	beqz	a1,13fe0 <__swsetup_r+0x108>
   13fc8:	04040713          	addi	a4,s0,64
   13fcc:	00e58863          	beq	a1,a4,13fdc <__swsetup_r+0x104>
   13fd0:	00048513          	mv	a0,s1
   13fd4:	914fb0ef          	jal	f0e8 <_free_r>
   13fd8:	00c41783          	lh	a5,12(s0)
   13fdc:	02042823          	sw	zero,48(s0)
   13fe0:	01042703          	lw	a4,16(s0)
   13fe4:	fdb7f793          	andi	a5,a5,-37
   13fe8:	00042223          	sw	zero,4(s0)
   13fec:	00e42023          	sw	a4,0(s0)
   13ff0:	fa1ff06f          	j	13f90 <__swsetup_r+0xb8>
   13ff4:	00078513          	mv	a0,a5
   13ff8:	e84fa0ef          	jal	e67c <__sinit>
   13ffc:	f05ff06f          	j	13f00 <__swsetup_r+0x28>
   14000:	00900713          	li	a4,9
   14004:	00e4a023          	sw	a4,0(s1)
   14008:	0407e793          	ori	a5,a5,64
   1400c:	00f41623          	sh	a5,12(s0)
   14010:	fff00513          	li	a0,-1
   14014:	f21ff06f          	j	13f34 <__swsetup_r+0x5c>

00014018 <__fputwc>:
   14018:	fe010113          	addi	sp,sp,-32
   1401c:	00812c23          	sw	s0,24(sp)
   14020:	00912a23          	sw	s1,20(sp)
   14024:	01212823          	sw	s2,16(sp)
   14028:	00112e23          	sw	ra,28(sp)
   1402c:	00050913          	mv	s2,a0
   14030:	00058493          	mv	s1,a1
   14034:	00060413          	mv	s0,a2
   14038:	36c000ef          	jal	143a4 <__locale_mb_cur_max>
   1403c:	00100793          	li	a5,1
   14040:	00f51c63          	bne	a0,a5,14058 <__fputwc+0x40>
   14044:	fff48793          	addi	a5,s1,-1
   14048:	0fe00713          	li	a4,254
   1404c:	00f76663          	bltu	a4,a5,14058 <__fputwc+0x40>
   14050:	00910623          	sb	s1,12(sp)
   14054:	0240006f          	j	14078 <__fputwc+0x60>
   14058:	05c40693          	addi	a3,s0,92
   1405c:	00048613          	mv	a2,s1
   14060:	00c10593          	addi	a1,sp,12
   14064:	00090513          	mv	a0,s2
   14068:	4ec040ef          	jal	18554 <_wcrtomb_r>
   1406c:	fff00793          	li	a5,-1
   14070:	08f50463          	beq	a0,a5,140f8 <__fputwc+0xe0>
   14074:	02050c63          	beqz	a0,140ac <__fputwc+0x94>
   14078:	00842783          	lw	a5,8(s0)
   1407c:	00c14583          	lbu	a1,12(sp)
   14080:	fff78793          	addi	a5,a5,-1
   14084:	00f42423          	sw	a5,8(s0)
   14088:	0007da63          	bgez	a5,1409c <__fputwc+0x84>
   1408c:	01842703          	lw	a4,24(s0)
   14090:	02e7cc63          	blt	a5,a4,140c8 <__fputwc+0xb0>
   14094:	00a00793          	li	a5,10
   14098:	02f58863          	beq	a1,a5,140c8 <__fputwc+0xb0>
   1409c:	00042783          	lw	a5,0(s0)
   140a0:	00178713          	addi	a4,a5,1
   140a4:	00e42023          	sw	a4,0(s0)
   140a8:	00b78023          	sb	a1,0(a5)
   140ac:	01c12083          	lw	ra,28(sp)
   140b0:	01812403          	lw	s0,24(sp)
   140b4:	01012903          	lw	s2,16(sp)
   140b8:	00048513          	mv	a0,s1
   140bc:	01412483          	lw	s1,20(sp)
   140c0:	02010113          	addi	sp,sp,32
   140c4:	00008067          	ret
   140c8:	00040613          	mv	a2,s0
   140cc:	00090513          	mv	a0,s2
   140d0:	c65ff0ef          	jal	13d34 <__swbuf_r>
   140d4:	fff00793          	li	a5,-1
   140d8:	fcf51ae3          	bne	a0,a5,140ac <__fputwc+0x94>
   140dc:	fff00513          	li	a0,-1
   140e0:	01c12083          	lw	ra,28(sp)
   140e4:	01812403          	lw	s0,24(sp)
   140e8:	01412483          	lw	s1,20(sp)
   140ec:	01012903          	lw	s2,16(sp)
   140f0:	02010113          	addi	sp,sp,32
   140f4:	00008067          	ret
   140f8:	00c45783          	lhu	a5,12(s0)
   140fc:	fff00513          	li	a0,-1
   14100:	0407e793          	ori	a5,a5,64
   14104:	00f41623          	sh	a5,12(s0)
   14108:	fd9ff06f          	j	140e0 <__fputwc+0xc8>

0001410c <_fputwc_r>:
   1410c:	00c61783          	lh	a5,12(a2)
   14110:	01279713          	slli	a4,a5,0x12
   14114:	02074063          	bltz	a4,14134 <_fputwc_r+0x28>
   14118:	06462703          	lw	a4,100(a2)
   1411c:	000026b7          	lui	a3,0x2
   14120:	00d7e7b3          	or	a5,a5,a3
   14124:	000026b7          	lui	a3,0x2
   14128:	00d76733          	or	a4,a4,a3
   1412c:	00f61623          	sh	a5,12(a2)
   14130:	06e62223          	sw	a4,100(a2)
   14134:	ee5ff06f          	j	14018 <__fputwc>

00014138 <fputwc>:
   14138:	fe010113          	addi	sp,sp,-32
   1413c:	00812c23          	sw	s0,24(sp)
   14140:	86c1a403          	lw	s0,-1940(gp) # 1a724 <_impure_ptr>
   14144:	00112e23          	sw	ra,28(sp)
   14148:	00058613          	mv	a2,a1
   1414c:	00050593          	mv	a1,a0
   14150:	00040663          	beqz	s0,1415c <fputwc+0x24>
   14154:	03442783          	lw	a5,52(s0)
   14158:	04078063          	beqz	a5,14198 <fputwc+0x60>
   1415c:	00c61783          	lh	a5,12(a2)
   14160:	01279713          	slli	a4,a5,0x12
   14164:	02074063          	bltz	a4,14184 <fputwc+0x4c>
   14168:	06462703          	lw	a4,100(a2)
   1416c:	000026b7          	lui	a3,0x2
   14170:	00d7e7b3          	or	a5,a5,a3
   14174:	000026b7          	lui	a3,0x2
   14178:	00d76733          	or	a4,a4,a3
   1417c:	00f61623          	sh	a5,12(a2)
   14180:	06e62223          	sw	a4,100(a2)
   14184:	00040513          	mv	a0,s0
   14188:	01812403          	lw	s0,24(sp)
   1418c:	01c12083          	lw	ra,28(sp)
   14190:	02010113          	addi	sp,sp,32
   14194:	e85ff06f          	j	14018 <__fputwc>
   14198:	00a12423          	sw	a0,8(sp)
   1419c:	00040513          	mv	a0,s0
   141a0:	00c12623          	sw	a2,12(sp)
   141a4:	cd8fa0ef          	jal	e67c <__sinit>
   141a8:	00c12603          	lw	a2,12(sp)
   141ac:	00812583          	lw	a1,8(sp)
   141b0:	fadff06f          	j	1415c <fputwc+0x24>

000141b4 <memchr>:
   141b4:	00357793          	andi	a5,a0,3
   141b8:	0ff5f693          	zext.b	a3,a1
   141bc:	02078a63          	beqz	a5,141f0 <memchr+0x3c>
   141c0:	fff60793          	addi	a5,a2,-1
   141c4:	02060e63          	beqz	a2,14200 <memchr+0x4c>
   141c8:	fff00613          	li	a2,-1
   141cc:	0180006f          	j	141e4 <memchr+0x30>
   141d0:	00150513          	addi	a0,a0,1
   141d4:	00357713          	andi	a4,a0,3
   141d8:	00070e63          	beqz	a4,141f4 <memchr+0x40>
   141dc:	fff78793          	addi	a5,a5,-1
   141e0:	02c78063          	beq	a5,a2,14200 <memchr+0x4c>
   141e4:	00054703          	lbu	a4,0(a0)
   141e8:	fed714e3          	bne	a4,a3,141d0 <memchr+0x1c>
   141ec:	00008067          	ret
   141f0:	00060793          	mv	a5,a2
   141f4:	00300713          	li	a4,3
   141f8:	00f76863          	bltu	a4,a5,14208 <memchr+0x54>
   141fc:	06079063          	bnez	a5,1425c <memchr+0xa8>
   14200:	00000513          	li	a0,0
   14204:	00008067          	ret
   14208:	0ff5f593          	zext.b	a1,a1
   1420c:	00859713          	slli	a4,a1,0x8
   14210:	00b705b3          	add	a1,a4,a1
   14214:	01059713          	slli	a4,a1,0x10
   14218:	feff08b7          	lui	a7,0xfeff0
   1421c:	80808837          	lui	a6,0x80808
   14220:	00e585b3          	add	a1,a1,a4
   14224:	eff88893          	addi	a7,a7,-257 # fefefeff <_end+0xfefd2c9b>
   14228:	08080813          	addi	a6,a6,128 # 80808080 <_end+0x807eae1c>
   1422c:	00300313          	li	t1,3
   14230:	0100006f          	j	14240 <memchr+0x8c>
   14234:	ffc78793          	addi	a5,a5,-4
   14238:	00450513          	addi	a0,a0,4
   1423c:	fcf370e3          	bgeu	t1,a5,141fc <memchr+0x48>
   14240:	00052703          	lw	a4,0(a0)
   14244:	00e5c733          	xor	a4,a1,a4
   14248:	01170633          	add	a2,a4,a7
   1424c:	fff74713          	not	a4,a4
   14250:	00e67733          	and	a4,a2,a4
   14254:	01077733          	and	a4,a4,a6
   14258:	fc070ee3          	beqz	a4,14234 <memchr+0x80>
   1425c:	00f507b3          	add	a5,a0,a5
   14260:	00c0006f          	j	1426c <memchr+0xb8>
   14264:	00150513          	addi	a0,a0,1
   14268:	f8a78ce3          	beq	a5,a0,14200 <memchr+0x4c>
   1426c:	00054703          	lbu	a4,0(a0)
   14270:	fed71ae3          	bne	a4,a3,14264 <memchr+0xb0>
   14274:	00008067          	ret

00014278 <strncpy>:
   14278:	00a5e7b3          	or	a5,a1,a0
   1427c:	0037f793          	andi	a5,a5,3
   14280:	00079663          	bnez	a5,1428c <strncpy+0x14>
   14284:	00300793          	li	a5,3
   14288:	04c7e663          	bltu	a5,a2,142d4 <strncpy+0x5c>
   1428c:	00050713          	mv	a4,a0
   14290:	01c0006f          	j	142ac <strncpy+0x34>
   14294:	fff5c683          	lbu	a3,-1(a1) # 1fff <_start-0x6001>
   14298:	fff60813          	addi	a6,a2,-1
   1429c:	fed78fa3          	sb	a3,-1(a5)
   142a0:	00068e63          	beqz	a3,142bc <strncpy+0x44>
   142a4:	00078713          	mv	a4,a5
   142a8:	00080613          	mv	a2,a6
   142ac:	00158593          	addi	a1,a1,1
   142b0:	00170793          	addi	a5,a4,1
   142b4:	fe0610e3          	bnez	a2,14294 <strncpy+0x1c>
   142b8:	00008067          	ret
   142bc:	00c70733          	add	a4,a4,a2
   142c0:	06080063          	beqz	a6,14320 <strncpy+0xa8>
   142c4:	00178793          	addi	a5,a5,1
   142c8:	fe078fa3          	sb	zero,-1(a5)
   142cc:	fee79ce3          	bne	a5,a4,142c4 <strncpy+0x4c>
   142d0:	00008067          	ret
   142d4:	feff0337          	lui	t1,0xfeff0
   142d8:	808088b7          	lui	a7,0x80808
   142dc:	00050713          	mv	a4,a0
   142e0:	eff30313          	addi	t1,t1,-257 # fefefeff <_end+0xfefd2c9b>
   142e4:	08088893          	addi	a7,a7,128 # 80808080 <_end+0x807eae1c>
   142e8:	00300e13          	li	t3,3
   142ec:	0180006f          	j	14304 <strncpy+0x8c>
   142f0:	00d72023          	sw	a3,0(a4)
   142f4:	ffc60613          	addi	a2,a2,-4
   142f8:	00470713          	addi	a4,a4,4
   142fc:	00458593          	addi	a1,a1,4
   14300:	face76e3          	bgeu	t3,a2,142ac <strncpy+0x34>
   14304:	0005a683          	lw	a3,0(a1)
   14308:	006687b3          	add	a5,a3,t1
   1430c:	fff6c813          	not	a6,a3
   14310:	0107f7b3          	and	a5,a5,a6
   14314:	0117f7b3          	and	a5,a5,a7
   14318:	fc078ce3          	beqz	a5,142f0 <strncpy+0x78>
   1431c:	f91ff06f          	j	142ac <strncpy+0x34>
   14320:	00008067          	ret

00014324 <_setlocale_r>:
   14324:	ff010113          	addi	sp,sp,-16
   14328:	00112623          	sw	ra,12(sp)
   1432c:	00912223          	sw	s1,4(sp)
   14330:	02060e63          	beqz	a2,1436c <_setlocale_r+0x48>
   14334:	000195b7          	lui	a1,0x19
   14338:	74858593          	addi	a1,a1,1864 # 19748 <_getpid_r+0x62c>
   1433c:	00060513          	mv	a0,a2
   14340:	00812423          	sw	s0,8(sp)
   14344:	00060413          	mv	s0,a2
   14348:	a28f40ef          	jal	8570 <strcmp>
   1434c:	000194b7          	lui	s1,0x19
   14350:	02051263          	bnez	a0,14374 <_setlocale_r+0x50>
   14354:	00812403          	lw	s0,8(sp)
   14358:	74448513          	addi	a0,s1,1860 # 19744 <_getpid_r+0x628>
   1435c:	00c12083          	lw	ra,12(sp)
   14360:	00412483          	lw	s1,4(sp)
   14364:	01010113          	addi	sp,sp,16
   14368:	00008067          	ret
   1436c:	000194b7          	lui	s1,0x19
   14370:	fe9ff06f          	j	14358 <_setlocale_r+0x34>
   14374:	74448593          	addi	a1,s1,1860 # 19744 <_getpid_r+0x628>
   14378:	00040513          	mv	a0,s0
   1437c:	9f4f40ef          	jal	8570 <strcmp>
   14380:	fc050ae3          	beqz	a0,14354 <_setlocale_r+0x30>
   14384:	000195b7          	lui	a1,0x19
   14388:	2e858593          	addi	a1,a1,744 # 192e8 <_getpid_r+0x1cc>
   1438c:	00040513          	mv	a0,s0
   14390:	9e0f40ef          	jal	8570 <strcmp>
   14394:	fc0500e3          	beqz	a0,14354 <_setlocale_r+0x30>
   14398:	00812403          	lw	s0,8(sp)
   1439c:	00000513          	li	a0,0
   143a0:	fbdff06f          	j	1435c <_setlocale_r+0x38>

000143a4 <__locale_mb_cur_max>:
   143a4:	0001a7b7          	lui	a5,0x1a
   143a8:	6707c503          	lbu	a0,1648(a5) # 1a670 <__global_locale+0x128>
   143ac:	00008067          	ret

000143b0 <setlocale>:
   143b0:	ff010113          	addi	sp,sp,-16
   143b4:	00112623          	sw	ra,12(sp)
   143b8:	00912223          	sw	s1,4(sp)
   143bc:	02058e63          	beqz	a1,143f8 <setlocale+0x48>
   143c0:	00812423          	sw	s0,8(sp)
   143c4:	00058413          	mv	s0,a1
   143c8:	000195b7          	lui	a1,0x19
   143cc:	74858593          	addi	a1,a1,1864 # 19748 <_getpid_r+0x62c>
   143d0:	00040513          	mv	a0,s0
   143d4:	99cf40ef          	jal	8570 <strcmp>
   143d8:	000194b7          	lui	s1,0x19
   143dc:	02051263          	bnez	a0,14400 <setlocale+0x50>
   143e0:	00812403          	lw	s0,8(sp)
   143e4:	74448513          	addi	a0,s1,1860 # 19744 <_getpid_r+0x628>
   143e8:	00c12083          	lw	ra,12(sp)
   143ec:	00412483          	lw	s1,4(sp)
   143f0:	01010113          	addi	sp,sp,16
   143f4:	00008067          	ret
   143f8:	000194b7          	lui	s1,0x19
   143fc:	fe9ff06f          	j	143e4 <setlocale+0x34>
   14400:	74448593          	addi	a1,s1,1860 # 19744 <_getpid_r+0x628>
   14404:	00040513          	mv	a0,s0
   14408:	968f40ef          	jal	8570 <strcmp>
   1440c:	fc050ae3          	beqz	a0,143e0 <setlocale+0x30>
   14410:	000195b7          	lui	a1,0x19
   14414:	2e858593          	addi	a1,a1,744 # 192e8 <_getpid_r+0x1cc>
   14418:	00040513          	mv	a0,s0
   1441c:	954f40ef          	jal	8570 <strcmp>
   14420:	fc0500e3          	beqz	a0,143e0 <setlocale+0x30>
   14424:	00812403          	lw	s0,8(sp)
   14428:	00000513          	li	a0,0
   1442c:	fbdff06f          	j	143e8 <setlocale+0x38>

00014430 <__localeconv_l>:
   14430:	0f050513          	addi	a0,a0,240
   14434:	00008067          	ret

00014438 <_localeconv_r>:
   14438:	0001a537          	lui	a0,0x1a
   1443c:	63850513          	addi	a0,a0,1592 # 1a638 <__global_locale+0xf0>
   14440:	00008067          	ret

00014444 <localeconv>:
   14444:	0001a537          	lui	a0,0x1a
   14448:	63850513          	addi	a0,a0,1592 # 1a638 <__global_locale+0xf0>
   1444c:	00008067          	ret

00014450 <__libc_fini_array>:
   14450:	ff010113          	addi	sp,sp,-16
   14454:	00812423          	sw	s0,8(sp)
   14458:	0001a7b7          	lui	a5,0x1a
   1445c:	0001a437          	lui	s0,0x1a
   14460:	00c78793          	addi	a5,a5,12 # 1a00c <__do_global_dtors_aux_fini_array_entry>
   14464:	01040413          	addi	s0,s0,16 # 1a010 <__malloc_av_>
   14468:	40f40433          	sub	s0,s0,a5
   1446c:	00912223          	sw	s1,4(sp)
   14470:	00112623          	sw	ra,12(sp)
   14474:	40245493          	srai	s1,s0,0x2
   14478:	02048063          	beqz	s1,14498 <__libc_fini_array+0x48>
   1447c:	ffc40413          	addi	s0,s0,-4
   14480:	00f40433          	add	s0,s0,a5
   14484:	00042783          	lw	a5,0(s0)
   14488:	fff48493          	addi	s1,s1,-1
   1448c:	ffc40413          	addi	s0,s0,-4
   14490:	000780e7          	jalr	a5
   14494:	fe0498e3          	bnez	s1,14484 <__libc_fini_array+0x34>
   14498:	00c12083          	lw	ra,12(sp)
   1449c:	00812403          	lw	s0,8(sp)
   144a0:	00412483          	lw	s1,4(sp)
   144a4:	01010113          	addi	sp,sp,16
   144a8:	00008067          	ret

000144ac <memmove>:
   144ac:	02a5f663          	bgeu	a1,a0,144d8 <memmove+0x2c>
   144b0:	00c58733          	add	a4,a1,a2
   144b4:	02e57263          	bgeu	a0,a4,144d8 <memmove+0x2c>
   144b8:	00c507b3          	add	a5,a0,a2
   144bc:	04060663          	beqz	a2,14508 <memmove+0x5c>
   144c0:	fff74683          	lbu	a3,-1(a4)
   144c4:	fff78793          	addi	a5,a5,-1
   144c8:	fff70713          	addi	a4,a4,-1
   144cc:	00d78023          	sb	a3,0(a5)
   144d0:	fef518e3          	bne	a0,a5,144c0 <memmove+0x14>
   144d4:	00008067          	ret
   144d8:	00f00793          	li	a5,15
   144dc:	02c7e863          	bltu	a5,a2,1450c <memmove+0x60>
   144e0:	00050793          	mv	a5,a0
   144e4:	fff60693          	addi	a3,a2,-1
   144e8:	0c060263          	beqz	a2,145ac <memmove+0x100>
   144ec:	00168693          	addi	a3,a3,1 # 2001 <_start-0x5fff>
   144f0:	00d786b3          	add	a3,a5,a3
   144f4:	0005c703          	lbu	a4,0(a1)
   144f8:	00178793          	addi	a5,a5,1
   144fc:	00158593          	addi	a1,a1,1
   14500:	fee78fa3          	sb	a4,-1(a5)
   14504:	fed798e3          	bne	a5,a3,144f4 <memmove+0x48>
   14508:	00008067          	ret
   1450c:	00b567b3          	or	a5,a0,a1
   14510:	0037f793          	andi	a5,a5,3
   14514:	08079663          	bnez	a5,145a0 <memmove+0xf4>
   14518:	ff060893          	addi	a7,a2,-16
   1451c:	ff08f893          	andi	a7,a7,-16
   14520:	01088893          	addi	a7,a7,16
   14524:	011506b3          	add	a3,a0,a7
   14528:	00058713          	mv	a4,a1
   1452c:	00050793          	mv	a5,a0
   14530:	00072803          	lw	a6,0(a4)
   14534:	01070713          	addi	a4,a4,16
   14538:	01078793          	addi	a5,a5,16
   1453c:	ff07a823          	sw	a6,-16(a5)
   14540:	ff472803          	lw	a6,-12(a4)
   14544:	ff07aa23          	sw	a6,-12(a5)
   14548:	ff872803          	lw	a6,-8(a4)
   1454c:	ff07ac23          	sw	a6,-8(a5)
   14550:	ffc72803          	lw	a6,-4(a4)
   14554:	ff07ae23          	sw	a6,-4(a5)
   14558:	fcd79ce3          	bne	a5,a3,14530 <memmove+0x84>
   1455c:	00c67813          	andi	a6,a2,12
   14560:	011585b3          	add	a1,a1,a7
   14564:	00f67713          	andi	a4,a2,15
   14568:	04080463          	beqz	a6,145b0 <memmove+0x104>
   1456c:	ffc70813          	addi	a6,a4,-4
   14570:	ffc87813          	andi	a6,a6,-4
   14574:	00480813          	addi	a6,a6,4
   14578:	010687b3          	add	a5,a3,a6
   1457c:	00058713          	mv	a4,a1
   14580:	00072883          	lw	a7,0(a4)
   14584:	00468693          	addi	a3,a3,4
   14588:	00470713          	addi	a4,a4,4
   1458c:	ff16ae23          	sw	a7,-4(a3)
   14590:	fef698e3          	bne	a3,a5,14580 <memmove+0xd4>
   14594:	00367613          	andi	a2,a2,3
   14598:	010585b3          	add	a1,a1,a6
   1459c:	f49ff06f          	j	144e4 <memmove+0x38>
   145a0:	fff60693          	addi	a3,a2,-1
   145a4:	00050793          	mv	a5,a0
   145a8:	f45ff06f          	j	144ec <memmove+0x40>
   145ac:	00008067          	ret
   145b0:	00070613          	mv	a2,a4
   145b4:	f31ff06f          	j	144e4 <memmove+0x38>

000145b8 <memcpy>:
   145b8:	00a5c7b3          	xor	a5,a1,a0
   145bc:	0037f793          	andi	a5,a5,3
   145c0:	00c508b3          	add	a7,a0,a2
   145c4:	06079463          	bnez	a5,1462c <memcpy+0x74>
   145c8:	00300793          	li	a5,3
   145cc:	06c7f063          	bgeu	a5,a2,1462c <memcpy+0x74>
   145d0:	00357793          	andi	a5,a0,3
   145d4:	00050713          	mv	a4,a0
   145d8:	06079a63          	bnez	a5,1464c <memcpy+0x94>
   145dc:	ffc8f613          	andi	a2,a7,-4
   145e0:	40e606b3          	sub	a3,a2,a4
   145e4:	02000793          	li	a5,32
   145e8:	08d7ce63          	blt	a5,a3,14684 <memcpy+0xcc>
   145ec:	00058693          	mv	a3,a1
   145f0:	00070793          	mv	a5,a4
   145f4:	02c77863          	bgeu	a4,a2,14624 <memcpy+0x6c>
   145f8:	0006a803          	lw	a6,0(a3)
   145fc:	00478793          	addi	a5,a5,4
   14600:	00468693          	addi	a3,a3,4
   14604:	ff07ae23          	sw	a6,-4(a5)
   14608:	fec7e8e3          	bltu	a5,a2,145f8 <memcpy+0x40>
   1460c:	fff60793          	addi	a5,a2,-1
   14610:	40e787b3          	sub	a5,a5,a4
   14614:	ffc7f793          	andi	a5,a5,-4
   14618:	00478793          	addi	a5,a5,4
   1461c:	00f70733          	add	a4,a4,a5
   14620:	00f585b3          	add	a1,a1,a5
   14624:	01176863          	bltu	a4,a7,14634 <memcpy+0x7c>
   14628:	00008067          	ret
   1462c:	00050713          	mv	a4,a0
   14630:	05157863          	bgeu	a0,a7,14680 <memcpy+0xc8>
   14634:	0005c783          	lbu	a5,0(a1)
   14638:	00170713          	addi	a4,a4,1
   1463c:	00158593          	addi	a1,a1,1
   14640:	fef70fa3          	sb	a5,-1(a4)
   14644:	fee898e3          	bne	a7,a4,14634 <memcpy+0x7c>
   14648:	00008067          	ret
   1464c:	0005c683          	lbu	a3,0(a1)
   14650:	00170713          	addi	a4,a4,1
   14654:	00377793          	andi	a5,a4,3
   14658:	fed70fa3          	sb	a3,-1(a4)
   1465c:	00158593          	addi	a1,a1,1
   14660:	f6078ee3          	beqz	a5,145dc <memcpy+0x24>
   14664:	0005c683          	lbu	a3,0(a1)
   14668:	00170713          	addi	a4,a4,1
   1466c:	00377793          	andi	a5,a4,3
   14670:	fed70fa3          	sb	a3,-1(a4)
   14674:	00158593          	addi	a1,a1,1
   14678:	fc079ae3          	bnez	a5,1464c <memcpy+0x94>
   1467c:	f61ff06f          	j	145dc <memcpy+0x24>
   14680:	00008067          	ret
   14684:	ff010113          	addi	sp,sp,-16
   14688:	00812623          	sw	s0,12(sp)
   1468c:	02000413          	li	s0,32
   14690:	0005a383          	lw	t2,0(a1)
   14694:	0045a283          	lw	t0,4(a1)
   14698:	0085af83          	lw	t6,8(a1)
   1469c:	00c5af03          	lw	t5,12(a1)
   146a0:	0105ae83          	lw	t4,16(a1)
   146a4:	0145ae03          	lw	t3,20(a1)
   146a8:	0185a303          	lw	t1,24(a1)
   146ac:	01c5a803          	lw	a6,28(a1)
   146b0:	0205a683          	lw	a3,32(a1)
   146b4:	02470713          	addi	a4,a4,36
   146b8:	40e607b3          	sub	a5,a2,a4
   146bc:	fc772e23          	sw	t2,-36(a4)
   146c0:	fe572023          	sw	t0,-32(a4)
   146c4:	fff72223          	sw	t6,-28(a4)
   146c8:	ffe72423          	sw	t5,-24(a4)
   146cc:	ffd72623          	sw	t4,-20(a4)
   146d0:	ffc72823          	sw	t3,-16(a4)
   146d4:	fe672a23          	sw	t1,-12(a4)
   146d8:	ff072c23          	sw	a6,-8(a4)
   146dc:	fed72e23          	sw	a3,-4(a4)
   146e0:	02458593          	addi	a1,a1,36
   146e4:	faf446e3          	blt	s0,a5,14690 <memcpy+0xd8>
   146e8:	00058693          	mv	a3,a1
   146ec:	00070793          	mv	a5,a4
   146f0:	02c77863          	bgeu	a4,a2,14720 <memcpy+0x168>
   146f4:	0006a803          	lw	a6,0(a3)
   146f8:	00478793          	addi	a5,a5,4
   146fc:	00468693          	addi	a3,a3,4
   14700:	ff07ae23          	sw	a6,-4(a5)
   14704:	fec7e8e3          	bltu	a5,a2,146f4 <memcpy+0x13c>
   14708:	fff60793          	addi	a5,a2,-1
   1470c:	40e787b3          	sub	a5,a5,a4
   14710:	ffc7f793          	andi	a5,a5,-4
   14714:	00478793          	addi	a5,a5,4
   14718:	00f70733          	add	a4,a4,a5
   1471c:	00f585b3          	add	a1,a1,a5
   14720:	01176863          	bltu	a4,a7,14730 <memcpy+0x178>
   14724:	00c12403          	lw	s0,12(sp)
   14728:	01010113          	addi	sp,sp,16
   1472c:	00008067          	ret
   14730:	0005c783          	lbu	a5,0(a1)
   14734:	00170713          	addi	a4,a4,1
   14738:	00158593          	addi	a1,a1,1
   1473c:	fef70fa3          	sb	a5,-1(a4)
   14740:	fee882e3          	beq	a7,a4,14724 <memcpy+0x16c>
   14744:	0005c783          	lbu	a5,0(a1)
   14748:	00170713          	addi	a4,a4,1
   1474c:	00158593          	addi	a1,a1,1
   14750:	fef70fa3          	sb	a5,-1(a4)
   14754:	fce89ee3          	bne	a7,a4,14730 <memcpy+0x178>
   14758:	fcdff06f          	j	14724 <memcpy+0x16c>

0001475c <frexpl>:
   1475c:	f9010113          	addi	sp,sp,-112
   14760:	07212023          	sw	s2,96(sp)
   14764:	00c5a903          	lw	s2,12(a1)
   14768:	05412c23          	sw	s4,88(sp)
   1476c:	05512a23          	sw	s5,84(sp)
   14770:	05612823          	sw	s6,80(sp)
   14774:	0045aa83          	lw	s5,4(a1)
   14778:	0005ab03          	lw	s6,0(a1)
   1477c:	0085aa03          	lw	s4,8(a1)
   14780:	05312e23          	sw	s3,92(sp)
   14784:	000089b7          	lui	s3,0x8
   14788:	06812423          	sw	s0,104(sp)
   1478c:	06912223          	sw	s1,100(sp)
   14790:	06112623          	sw	ra,108(sp)
   14794:	01095493          	srli	s1,s2,0x10
   14798:	fff98993          	addi	s3,s3,-1 # 7fff <_start-0x1>
   1479c:	03612823          	sw	s6,48(sp)
   147a0:	03512a23          	sw	s5,52(sp)
   147a4:	03412c23          	sw	s4,56(sp)
   147a8:	03212e23          	sw	s2,60(sp)
   147ac:	0134f4b3          	and	s1,s1,s3
   147b0:	00062023          	sw	zero,0(a2)
   147b4:	00050413          	mv	s0,a0
   147b8:	09348063          	beq	s1,s3,14838 <frexpl+0xdc>
   147bc:	01010593          	addi	a1,sp,16
   147c0:	02010513          	addi	a0,sp,32
   147c4:	05712623          	sw	s7,76(sp)
   147c8:	03612023          	sw	s6,32(sp)
   147cc:	00060b93          	mv	s7,a2
   147d0:	03512223          	sw	s5,36(sp)
   147d4:	03412423          	sw	s4,40(sp)
   147d8:	03212623          	sw	s2,44(sp)
   147dc:	00012823          	sw	zero,16(sp)
   147e0:	00012a23          	sw	zero,20(sp)
   147e4:	00012c23          	sw	zero,24(sp)
   147e8:	00012e23          	sw	zero,28(sp)
   147ec:	e75f50ef          	jal	a660 <__eqtf2>
   147f0:	0e050463          	beqz	a0,148d8 <frexpl+0x17c>
   147f4:	00000693          	li	a3,0
   147f8:	06048e63          	beqz	s1,14874 <frexpl+0x118>
   147fc:	ffffc737          	lui	a4,0xffffc
   14800:	00270713          	addi	a4,a4,2 # ffffc002 <_end+0xfffded9e>
   14804:	03c12903          	lw	s2,60(sp)
   14808:	00e484b3          	add	s1,s1,a4
   1480c:	800107b7          	lui	a5,0x80010
   14810:	00d484b3          	add	s1,s1,a3
   14814:	fff78793          	addi	a5,a5,-1 # 8000ffff <_end+0x7fff2d9b>
   14818:	009ba023          	sw	s1,0(s7)
   1481c:	03012b03          	lw	s6,48(sp)
   14820:	03412a83          	lw	s5,52(sp)
   14824:	03812a03          	lw	s4,56(sp)
   14828:	04c12b83          	lw	s7,76(sp)
   1482c:	00f97933          	and	s2,s2,a5
   14830:	3ffe07b7          	lui	a5,0x3ffe0
   14834:	00f96933          	or	s2,s2,a5
   14838:	01642023          	sw	s6,0(s0)
   1483c:	01542223          	sw	s5,4(s0)
   14840:	01442423          	sw	s4,8(s0)
   14844:	01242623          	sw	s2,12(s0)
   14848:	06c12083          	lw	ra,108(sp)
   1484c:	00040513          	mv	a0,s0
   14850:	06812403          	lw	s0,104(sp)
   14854:	06412483          	lw	s1,100(sp)
   14858:	06012903          	lw	s2,96(sp)
   1485c:	05c12983          	lw	s3,92(sp)
   14860:	05812a03          	lw	s4,88(sp)
   14864:	05412a83          	lw	s5,84(sp)
   14868:	05012b03          	lw	s6,80(sp)
   1486c:	07010113          	addi	sp,sp,112
   14870:	00008067          	ret
   14874:	407107b7          	lui	a5,0x40710
   14878:	00010613          	mv	a2,sp
   1487c:	01010593          	addi	a1,sp,16
   14880:	02010513          	addi	a0,sp,32
   14884:	00f12623          	sw	a5,12(sp)
   14888:	01612823          	sw	s6,16(sp)
   1488c:	01512a23          	sw	s5,20(sp)
   14890:	01412c23          	sw	s4,24(sp)
   14894:	01212e23          	sw	s2,28(sp)
   14898:	00012023          	sw	zero,0(sp)
   1489c:	00012223          	sw	zero,4(sp)
   148a0:	00012423          	sw	zero,8(sp)
   148a4:	8e8f60ef          	jal	a98c <__multf3>
   148a8:	02012703          	lw	a4,32(sp)
   148ac:	02c12783          	lw	a5,44(sp)
   148b0:	f8e00693          	li	a3,-114
   148b4:	02e12823          	sw	a4,48(sp)
   148b8:	02412703          	lw	a4,36(sp)
   148bc:	0107d493          	srli	s1,a5,0x10
   148c0:	02f12e23          	sw	a5,60(sp)
   148c4:	02e12a23          	sw	a4,52(sp)
   148c8:	02812703          	lw	a4,40(sp)
   148cc:	0134f4b3          	and	s1,s1,s3
   148d0:	02e12c23          	sw	a4,56(sp)
   148d4:	f29ff06f          	j	147fc <frexpl+0xa0>
   148d8:	04c12b83          	lw	s7,76(sp)
   148dc:	f5dff06f          	j	14838 <frexpl+0xdc>

000148e0 <__register_exitproc>:
   148e0:	8c01a783          	lw	a5,-1856(gp) # 1a778 <__atexit>
   148e4:	04078c63          	beqz	a5,1493c <__register_exitproc+0x5c>
   148e8:	0047a703          	lw	a4,4(a5) # 40710004 <_end+0x406f2da0>
   148ec:	01f00813          	li	a6,31
   148f0:	08e84263          	blt	a6,a4,14974 <__register_exitproc+0x94>
   148f4:	00271813          	slli	a6,a4,0x2
   148f8:	02050663          	beqz	a0,14924 <__register_exitproc+0x44>
   148fc:	01078333          	add	t1,a5,a6
   14900:	08c32423          	sw	a2,136(t1)
   14904:	1887a883          	lw	a7,392(a5)
   14908:	00100613          	li	a2,1
   1490c:	00e61633          	sll	a2,a2,a4
   14910:	00c8e8b3          	or	a7,a7,a2
   14914:	1917a423          	sw	a7,392(a5)
   14918:	10d32423          	sw	a3,264(t1)
   1491c:	00200693          	li	a3,2
   14920:	02d50863          	beq	a0,a3,14950 <__register_exitproc+0x70>
   14924:	00170713          	addi	a4,a4,1
   14928:	00e7a223          	sw	a4,4(a5)
   1492c:	010787b3          	add	a5,a5,a6
   14930:	00b7a423          	sw	a1,8(a5)
   14934:	00000513          	li	a0,0
   14938:	00008067          	ret
   1493c:	0001d7b7          	lui	a5,0x1d
   14940:	0d478813          	addi	a6,a5,212 # 1d0d4 <__atexit0>
   14944:	8d01a023          	sw	a6,-1856(gp) # 1a778 <__atexit>
   14948:	0d478793          	addi	a5,a5,212
   1494c:	f9dff06f          	j	148e8 <__register_exitproc+0x8>
   14950:	18c7a683          	lw	a3,396(a5)
   14954:	00170713          	addi	a4,a4,1
   14958:	00e7a223          	sw	a4,4(a5)
   1495c:	00c6e6b3          	or	a3,a3,a2
   14960:	18d7a623          	sw	a3,396(a5)
   14964:	010787b3          	add	a5,a5,a6
   14968:	00b7a423          	sw	a1,8(a5)
   1496c:	00000513          	li	a0,0
   14970:	00008067          	ret
   14974:	fff00513          	li	a0,-1
   14978:	00008067          	ret

0001497c <_ldtoa_r>:
   1497c:	0001a8b7          	lui	a7,0x1a
   14980:	bb888893          	addi	a7,a7,-1096 # 19bb8 <blanks.1+0x10>
   14984:	0008af83          	lw	t6,0(a7)
   14988:	0048af03          	lw	t5,4(a7)
   1498c:	0088ae83          	lw	t4,8(a7)
   14990:	00c8ae03          	lw	t3,12(a7)
   14994:	0108a303          	lw	t1,16(a7)
   14998:	03852883          	lw	a7,56(a0)
   1499c:	f5010113          	addi	sp,sp,-176
   149a0:	0b212023          	sw	s2,160(sp)
   149a4:	09312e23          	sw	s3,156(sp)
   149a8:	09412c23          	sw	s4,152(sp)
   149ac:	09612823          	sw	s6,144(sp)
   149b0:	09712623          	sw	s7,140(sp)
   149b4:	09812423          	sw	s8,136(sp)
   149b8:	09912223          	sw	s9,132(sp)
   149bc:	09a12023          	sw	s10,128(sp)
   149c0:	0a112623          	sw	ra,172(sp)
   149c4:	0a812423          	sw	s0,168(sp)
   149c8:	0a912223          	sw	s1,164(sp)
   149cc:	09512a23          	sw	s5,148(sp)
   149d0:	07b12e23          	sw	s11,124(sp)
   149d4:	05f12e23          	sw	t6,92(sp)
   149d8:	07e12023          	sw	t5,96(sp)
   149dc:	07d12223          	sw	t4,100(sp)
   149e0:	07c12423          	sw	t3,104(sp)
   149e4:	06612623          	sw	t1,108(sp)
   149e8:	00c12c23          	sw	a2,24(sp)
   149ec:	00d12e23          	sw	a3,28(sp)
   149f0:	0005aa03          	lw	s4,0(a1)
   149f4:	0045a983          	lw	s3,4(a1)
   149f8:	0085a903          	lw	s2,8(a1)
   149fc:	00c5ac03          	lw	s8,12(a1)
   14a00:	00050b13          	mv	s6,a0
   14a04:	00070b93          	mv	s7,a4
   14a08:	00078c93          	mv	s9,a5
   14a0c:	00080d13          	mv	s10,a6
   14a10:	02088263          	beqz	a7,14a34 <_ldtoa_r+0xb8>
   14a14:	03c52683          	lw	a3,60(a0)
   14a18:	00100713          	li	a4,1
   14a1c:	00088593          	mv	a1,a7
   14a20:	00d71733          	sll	a4,a4,a3
   14a24:	00d8a223          	sw	a3,4(a7)
   14a28:	00e8a423          	sw	a4,8(a7)
   14a2c:	41c020ef          	jal	16e48 <_Bfree>
   14a30:	020b2c23          	sw	zero,56(s6)
   14a34:	06812603          	lw	a2,104(sp)
   14a38:	01fc5693          	srli	a3,s8,0x1f
   14a3c:	001c1a93          	slli	s5,s8,0x1
   14a40:	40165713          	srai	a4,a2,0x1
   14a44:	ffffc4b7          	lui	s1,0xffffc
   14a48:	001c1413          	slli	s0,s8,0x1
   14a4c:	00d77733          	and	a4,a4,a3
   14a50:	011ada93          	srli	s5,s5,0x11
   14a54:	f9148493          	addi	s1,s1,-111 # ffffbf91 <_end+0xfffded2d>
   14a58:	010c1d93          	slli	s11,s8,0x10
   14a5c:	00dca023          	sw	a3,0(s9)
   14a60:	00145413          	srli	s0,s0,0x1
   14a64:	00c74733          	xor	a4,a4,a2
   14a68:	010ddd93          	srli	s11,s11,0x10
   14a6c:	009a87b3          	add	a5,s5,s1
   14a70:	02010593          	addi	a1,sp,32
   14a74:	03010513          	addi	a0,sp,48
   14a78:	03412823          	sw	s4,48(sp)
   14a7c:	03312a23          	sw	s3,52(sp)
   14a80:	03212c23          	sw	s2,56(sp)
   14a84:	02812e23          	sw	s0,60(sp)
   14a88:	03412023          	sw	s4,32(sp)
   14a8c:	03312223          	sw	s3,36(sp)
   14a90:	03212423          	sw	s2,40(sp)
   14a94:	02812623          	sw	s0,44(sp)
   14a98:	06e12423          	sw	a4,104(sp)
   14a9c:	00f12a23          	sw	a5,20(sp)
   14aa0:	05412623          	sw	s4,76(sp)
   14aa4:	05312823          	sw	s3,80(sp)
   14aa8:	05212a23          	sw	s2,84(sp)
   14aac:	05b12c23          	sw	s11,88(sp)
   14ab0:	b70f80ef          	jal	ce20 <__unordtf2>
   14ab4:	16051a63          	bnez	a0,14c28 <_ldtoa_r+0x2ac>
   14ab8:	7fff0cb7          	lui	s9,0x7fff0
   14abc:	fff00493          	li	s1,-1
   14ac0:	fffc8c93          	addi	s9,s9,-1 # 7ffeffff <_end+0x7ffd2d9b>
   14ac4:	02010593          	addi	a1,sp,32
   14ac8:	03010513          	addi	a0,sp,48
   14acc:	03412823          	sw	s4,48(sp)
   14ad0:	03312a23          	sw	s3,52(sp)
   14ad4:	03212c23          	sw	s2,56(sp)
   14ad8:	02812e23          	sw	s0,60(sp)
   14adc:	02912023          	sw	s1,32(sp)
   14ae0:	02912223          	sw	s1,36(sp)
   14ae4:	02912423          	sw	s1,40(sp)
   14ae8:	03912623          	sw	s9,44(sp)
   14aec:	b34f80ef          	jal	ce20 <__unordtf2>
   14af0:	08051c63          	bnez	a0,14b88 <_ldtoa_r+0x20c>
   14af4:	02010593          	addi	a1,sp,32
   14af8:	03010513          	addi	a0,sp,48
   14afc:	d61f50ef          	jal	a85c <__letf2>
   14b00:	08a05463          	blez	a0,14b88 <_ldtoa_r+0x20c>
   14b04:	00300793          	li	a5,3
   14b08:	04f12423          	sw	a5,72(sp)
   14b0c:	01812783          	lw	a5,24(sp)
   14b10:	01c12803          	lw	a6,28(sp)
   14b14:	01412603          	lw	a2,20(sp)
   14b18:	04810713          	addi	a4,sp,72
   14b1c:	01a12023          	sw	s10,0(sp)
   14b20:	000b8893          	mv	a7,s7
   14b24:	04c10693          	addi	a3,sp,76
   14b28:	05c10593          	addi	a1,sp,92
   14b2c:	000b0513          	mv	a0,s6
   14b30:	208000ef          	jal	14d38 <__gdtoa>
   14b34:	000ba703          	lw	a4,0(s7)
   14b38:	ffff87b7          	lui	a5,0xffff8
   14b3c:	00f71863          	bne	a4,a5,14b4c <_ldtoa_r+0x1d0>
   14b40:	800007b7          	lui	a5,0x80000
   14b44:	fff78793          	addi	a5,a5,-1 # 7fffffff <_end+0x7ffe2d9b>
   14b48:	00fba023          	sw	a5,0(s7)
   14b4c:	0ac12083          	lw	ra,172(sp)
   14b50:	0a812403          	lw	s0,168(sp)
   14b54:	0a412483          	lw	s1,164(sp)
   14b58:	0a012903          	lw	s2,160(sp)
   14b5c:	09c12983          	lw	s3,156(sp)
   14b60:	09812a03          	lw	s4,152(sp)
   14b64:	09412a83          	lw	s5,148(sp)
   14b68:	09012b03          	lw	s6,144(sp)
   14b6c:	08c12b83          	lw	s7,140(sp)
   14b70:	08812c03          	lw	s8,136(sp)
   14b74:	08412c83          	lw	s9,132(sp)
   14b78:	08012d03          	lw	s10,128(sp)
   14b7c:	07c12d83          	lw	s11,124(sp)
   14b80:	0b010113          	addi	sp,sp,176
   14b84:	00008067          	ret
   14b88:	000107b7          	lui	a5,0x10
   14b8c:	02010593          	addi	a1,sp,32
   14b90:	03010513          	addi	a0,sp,48
   14b94:	03412823          	sw	s4,48(sp)
   14b98:	03312a23          	sw	s3,52(sp)
   14b9c:	03212c23          	sw	s2,56(sp)
   14ba0:	02812e23          	sw	s0,60(sp)
   14ba4:	02012023          	sw	zero,32(sp)
   14ba8:	02012223          	sw	zero,36(sp)
   14bac:	02012423          	sw	zero,40(sp)
   14bb0:	02f12623          	sw	a5,44(sp)
   14bb4:	b79f50ef          	jal	a72c <__getf2>
   14bb8:	00054e63          	bltz	a0,14bd4 <_ldtoa_r+0x258>
   14bbc:	000107b7          	lui	a5,0x10
   14bc0:	00fdedb3          	or	s11,s11,a5
   14bc4:	00100793          	li	a5,1
   14bc8:	04f12423          	sw	a5,72(sp)
   14bcc:	05b12c23          	sw	s11,88(sp)
   14bd0:	f3dff06f          	j	14b0c <_ldtoa_r+0x190>
   14bd4:	02010593          	addi	a1,sp,32
   14bd8:	03010513          	addi	a0,sp,48
   14bdc:	03412823          	sw	s4,48(sp)
   14be0:	03312a23          	sw	s3,52(sp)
   14be4:	03212c23          	sw	s2,56(sp)
   14be8:	03812e23          	sw	s8,60(sp)
   14bec:	02012023          	sw	zero,32(sp)
   14bf0:	02012223          	sw	zero,36(sp)
   14bf4:	02012423          	sw	zero,40(sp)
   14bf8:	02012623          	sw	zero,44(sp)
   14bfc:	a65f50ef          	jal	a660 <__eqtf2>
   14c00:	00051663          	bnez	a0,14c0c <_ldtoa_r+0x290>
   14c04:	04012423          	sw	zero,72(sp)
   14c08:	f05ff06f          	j	14b0c <_ldtoa_r+0x190>
   14c0c:	ffffc4b7          	lui	s1,0xffffc
   14c10:	00200793          	li	a5,2
   14c14:	f9248493          	addi	s1,s1,-110 # ffffbf92 <_end+0xfffded2e>
   14c18:	04f12423          	sw	a5,72(sp)
   14c1c:	009a87b3          	add	a5,s5,s1
   14c20:	00f12a23          	sw	a5,20(sp)
   14c24:	ee9ff06f          	j	14b0c <_ldtoa_r+0x190>
   14c28:	00400793          	li	a5,4
   14c2c:	04f12423          	sw	a5,72(sp)
   14c30:	eddff06f          	j	14b0c <_ldtoa_r+0x190>

00014c34 <_ldcheck>:
   14c34:	fc010113          	addi	sp,sp,-64
   14c38:	02912a23          	sw	s1,52(sp)
   14c3c:	00c52483          	lw	s1,12(a0)
   14c40:	03312623          	sw	s3,44(sp)
   14c44:	03412423          	sw	s4,40(sp)
   14c48:	00852983          	lw	s3,8(a0)
   14c4c:	00452a03          	lw	s4,4(a0)
   14c50:	03512223          	sw	s5,36(sp)
   14c54:	00052a83          	lw	s5,0(a0)
   14c58:	00149493          	slli	s1,s1,0x1
   14c5c:	0014d493          	srli	s1,s1,0x1
   14c60:	00010593          	mv	a1,sp
   14c64:	01010513          	addi	a0,sp,16
   14c68:	02112e23          	sw	ra,60(sp)
   14c6c:	01512823          	sw	s5,16(sp)
   14c70:	01412a23          	sw	s4,20(sp)
   14c74:	01312c23          	sw	s3,24(sp)
   14c78:	00912e23          	sw	s1,28(sp)
   14c7c:	01512023          	sw	s5,0(sp)
   14c80:	01412223          	sw	s4,4(sp)
   14c84:	01312423          	sw	s3,8(sp)
   14c88:	00912623          	sw	s1,12(sp)
   14c8c:	994f80ef          	jal	ce20 <__unordtf2>
   14c90:	08051463          	bnez	a0,14d18 <_ldcheck+0xe4>
   14c94:	03612023          	sw	s6,32(sp)
   14c98:	7fff0b37          	lui	s6,0x7fff0
   14c9c:	03212823          	sw	s2,48(sp)
   14ca0:	fffb0b13          	addi	s6,s6,-1 # 7ffeffff <_end+0x7ffd2d9b>
   14ca4:	fff00913          	li	s2,-1
   14ca8:	00010593          	mv	a1,sp
   14cac:	01010513          	addi	a0,sp,16
   14cb0:	02812c23          	sw	s0,56(sp)
   14cb4:	01212023          	sw	s2,0(sp)
   14cb8:	01212223          	sw	s2,4(sp)
   14cbc:	01212423          	sw	s2,8(sp)
   14cc0:	01612623          	sw	s6,12(sp)
   14cc4:	00100413          	li	s0,1
   14cc8:	958f80ef          	jal	ce20 <__unordtf2>
   14ccc:	02050c63          	beqz	a0,14d04 <_ldcheck+0xd0>
   14cd0:	03c12083          	lw	ra,60(sp)
   14cd4:	00144513          	xori	a0,s0,1
   14cd8:	03812403          	lw	s0,56(sp)
   14cdc:	0ff57513          	zext.b	a0,a0
   14ce0:	03012903          	lw	s2,48(sp)
   14ce4:	02012b03          	lw	s6,32(sp)
   14ce8:	03412483          	lw	s1,52(sp)
   14cec:	02c12983          	lw	s3,44(sp)
   14cf0:	02812a03          	lw	s4,40(sp)
   14cf4:	02412a83          	lw	s5,36(sp)
   14cf8:	00151513          	slli	a0,a0,0x1
   14cfc:	04010113          	addi	sp,sp,64
   14d00:	00008067          	ret
   14d04:	00010593          	mv	a1,sp
   14d08:	01010513          	addi	a0,sp,16
   14d0c:	b51f50ef          	jal	a85c <__letf2>
   14d10:	00152413          	slti	s0,a0,1
   14d14:	fbdff06f          	j	14cd0 <_ldcheck+0x9c>
   14d18:	03c12083          	lw	ra,60(sp)
   14d1c:	03412483          	lw	s1,52(sp)
   14d20:	02c12983          	lw	s3,44(sp)
   14d24:	02812a03          	lw	s4,40(sp)
   14d28:	02412a83          	lw	s5,36(sp)
   14d2c:	00100513          	li	a0,1
   14d30:	04010113          	addi	sp,sp,64
   14d34:	00008067          	ret

00014d38 <__gdtoa>:
   14d38:	f3010113          	addi	sp,sp,-208
   14d3c:	0b612823          	sw	s6,176(sp)
   14d40:	00072b03          	lw	s6,0(a4)
   14d44:	0ba12023          	sw	s10,160(sp)
   14d48:	0c112623          	sw	ra,204(sp)
   14d4c:	fcfb7313          	andi	t1,s6,-49
   14d50:	00672023          	sw	t1,0(a4)
   14d54:	00070d13          	mv	s10,a4
   14d58:	0d012703          	lw	a4,208(sp)
   14d5c:	00fb7313          	andi	t1,s6,15
   14d60:	00300e93          	li	t4,3
   14d64:	00e12623          	sw	a4,12(sp)
   14d68:	00f12823          	sw	a5,16(sp)
   14d6c:	01012c23          	sw	a6,24(sp)
   14d70:	01112423          	sw	a7,8(sp)
   14d74:	7dd30e63          	beq	t1,t4,15550 <__gdtoa+0x818>
   14d78:	0b912223          	sw	s9,164(sp)
   14d7c:	00cb7c93          	andi	s9,s6,12
   14d80:	720c9263          	bnez	s9,154a4 <__gdtoa+0x76c>
   14d84:	0c812423          	sw	s0,200(sp)
   14d88:	00050413          	mv	s0,a0
   14d8c:	76030e63          	beqz	t1,15508 <__gdtoa+0x7d0>
   14d90:	0b712623          	sw	s7,172(sp)
   14d94:	0005ab83          	lw	s7,0(a1)
   14d98:	0d212023          	sw	s2,192(sp)
   14d9c:	0b512a23          	sw	s5,180(sp)
   14da0:	09b12e23          	sw	s11,156(sp)
   14da4:	00068913          	mv	s2,a3
   14da8:	0c912223          	sw	s1,196(sp)
   14dac:	02000693          	li	a3,32
   14db0:	00058d93          	mv	s11,a1
   14db4:	00060a93          	mv	s5,a2
   14db8:	00000593          	li	a1,0
   14dbc:	02000793          	li	a5,32
   14dc0:	0176d863          	bge	a3,s7,14dd0 <__gdtoa+0x98>
   14dc4:	00179793          	slli	a5,a5,0x1
   14dc8:	00158593          	addi	a1,a1,1
   14dcc:	ff77cce3          	blt	a5,s7,14dc4 <__gdtoa+0x8c>
   14dd0:	00040513          	mv	a0,s0
   14dd4:	7c1010ef          	jal	16d94 <_Balloc>
   14dd8:	00050493          	mv	s1,a0
   14ddc:	380506e3          	beqz	a0,15968 <__gdtoa+0xc30>
   14de0:	fffb8513          	addi	a0,s7,-1
   14de4:	40555513          	srai	a0,a0,0x5
   14de8:	00251593          	slli	a1,a0,0x2
   14dec:	0b312e23          	sw	s3,188(sp)
   14df0:	0b812423          	sw	s8,168(sp)
   14df4:	00b905b3          	add	a1,s2,a1
   14df8:	01448693          	addi	a3,s1,20
   14dfc:	00090793          	mv	a5,s2
   14e00:	0007a703          	lw	a4,0(a5) # 10000 <_vfprintf_r+0xc14>
   14e04:	00478793          	addi	a5,a5,4
   14e08:	00468693          	addi	a3,a3,4
   14e0c:	fee6ae23          	sw	a4,-4(a3)
   14e10:	fef5f8e3          	bgeu	a1,a5,14e00 <__gdtoa+0xc8>
   14e14:	00158593          	addi	a1,a1,1
   14e18:	00190793          	addi	a5,s2,1
   14e1c:	00400693          	li	a3,4
   14e20:	00f5e663          	bltu	a1,a5,14e2c <__gdtoa+0xf4>
   14e24:	00251513          	slli	a0,a0,0x2
   14e28:	00450693          	addi	a3,a0,4
   14e2c:	4026dc13          	srai	s8,a3,0x2
   14e30:	00d486b3          	add	a3,s1,a3
   14e34:	00c0006f          	j	14e40 <__gdtoa+0x108>
   14e38:	ffc68693          	addi	a3,a3,-4
   14e3c:	780c0663          	beqz	s8,155c8 <__gdtoa+0x890>
   14e40:	0106a783          	lw	a5,16(a3)
   14e44:	000c0993          	mv	s3,s8
   14e48:	fffc0c13          	addi	s8,s8,-1
   14e4c:	fe0786e3          	beqz	a5,14e38 <__gdtoa+0x100>
   14e50:	004c0793          	addi	a5,s8,4
   14e54:	00279793          	slli	a5,a5,0x2
   14e58:	00f487b3          	add	a5,s1,a5
   14e5c:	0047a503          	lw	a0,4(a5)
   14e60:	0134a823          	sw	s3,16(s1)
   14e64:	00599993          	slli	s3,s3,0x5
   14e68:	288020ef          	jal	170f0 <__hi0bits>
   14e6c:	40a98c33          	sub	s8,s3,a0
   14e70:	00048513          	mv	a0,s1
   14e74:	649010ef          	jal	16cbc <__trailz_D2A>
   14e78:	08a12623          	sw	a0,140(sp)
   14e7c:	03512223          	sw	s5,36(sp)
   14e80:	78051863          	bnez	a0,15610 <__gdtoa+0x8d8>
   14e84:	0104a683          	lw	a3,16(s1)
   14e88:	64068c63          	beqz	a3,154e0 <__gdtoa+0x7a8>
   14e8c:	08c10593          	addi	a1,sp,140
   14e90:	00048513          	mv	a0,s1
   14e94:	0b412c23          	sw	s4,184(sp)
   14e98:	495020ef          	jal	17b2c <__b2d>
   14e9c:	00c59993          	slli	s3,a1,0xc
   14ea0:	00c9d993          	srli	s3,s3,0xc
   14ea4:	3ff006b7          	lui	a3,0x3ff00
   14ea8:	00d9e833          	or	a6,s3,a3
   14eac:	02412703          	lw	a4,36(sp)
   14eb0:	0001a6b7          	lui	a3,0x1a
   14eb4:	6b86a603          	lw	a2,1720(a3) # 1a6b8 <__global_locale+0x170>
   14eb8:	6bc6a683          	lw	a3,1724(a3)
   14ebc:	01870733          	add	a4,a4,s8
   14ec0:	00080593          	mv	a1,a6
   14ec4:	00050793          	mv	a5,a0
   14ec8:	fff70a13          	addi	s4,a4,-1
   14ecc:	03012823          	sw	a6,48(sp)
   14ed0:	02e12423          	sw	a4,40(sp)
   14ed4:	04f12423          	sw	a5,72(sp)
   14ed8:	04a12223          	sw	a0,68(sp)
   14edc:	eb5f40ef          	jal	9d90 <__subdf3>
   14ee0:	8081a603          	lw	a2,-2040(gp) # 1a6c0 <__global_locale+0x178>
   14ee4:	80c1a683          	lw	a3,-2036(gp) # 1a6c4 <__global_locale+0x17c>
   14ee8:	8b9f40ef          	jal	97a0 <__muldf3>
   14eec:	8101a603          	lw	a2,-2032(gp) # 1a6c8 <__global_locale+0x180>
   14ef0:	8141a683          	lw	a3,-2028(gp) # 1a6cc <__global_locale+0x184>
   14ef4:	ff8f30ef          	jal	86ec <__adddf3>
   14ef8:	00050793          	mv	a5,a0
   14efc:	000a0513          	mv	a0,s4
   14f00:	00f12e23          	sw	a5,28(sp)
   14f04:	00058993          	mv	s3,a1
   14f08:	eb0f50ef          	jal	a5b8 <__floatsidf>
   14f0c:	8181a603          	lw	a2,-2024(gp) # 1a6d0 <__global_locale+0x188>
   14f10:	81c1a683          	lw	a3,-2020(gp) # 1a6d4 <__global_locale+0x18c>
   14f14:	88df40ef          	jal	97a0 <__muldf3>
   14f18:	01c12783          	lw	a5,28(sp)
   14f1c:	00050613          	mv	a2,a0
   14f20:	00058693          	mv	a3,a1
   14f24:	00078513          	mv	a0,a5
   14f28:	00098593          	mv	a1,s3
   14f2c:	fc0f30ef          	jal	86ec <__adddf3>
   14f30:	02a12023          	sw	a0,32(sp)
   14f34:	00058993          	mv	s3,a1
   14f38:	000a0513          	mv	a0,s4
   14f3c:	000a5863          	bgez	s4,14f4c <__gdtoa+0x214>
   14f40:	02812703          	lw	a4,40(sp)
   14f44:	00100513          	li	a0,1
   14f48:	40e50533          	sub	a0,a0,a4
   14f4c:	bcb50513          	addi	a0,a0,-1077
   14f50:	02a05863          	blez	a0,14f80 <__gdtoa+0x248>
   14f54:	e64f50ef          	jal	a5b8 <__floatsidf>
   14f58:	8201a603          	lw	a2,-2016(gp) # 1a6d8 <__global_locale+0x190>
   14f5c:	8241a683          	lw	a3,-2012(gp) # 1a6dc <__global_locale+0x194>
   14f60:	841f40ef          	jal	97a0 <__muldf3>
   14f64:	00050613          	mv	a2,a0
   14f68:	02012503          	lw	a0,32(sp)
   14f6c:	00058693          	mv	a3,a1
   14f70:	00098593          	mv	a1,s3
   14f74:	f78f30ef          	jal	86ec <__adddf3>
   14f78:	02a12023          	sw	a0,32(sp)
   14f7c:	00058993          	mv	s3,a1
   14f80:	02012503          	lw	a0,32(sp)
   14f84:	00098593          	mv	a1,s3
   14f88:	db0f50ef          	jal	a538 <__fixdfsi>
   14f8c:	00050813          	mv	a6,a0
   14f90:	02012503          	lw	a0,32(sp)
   14f94:	00098593          	mv	a1,s3
   14f98:	00000613          	li	a2,0
   14f9c:	00000693          	li	a3,0
   14fa0:	01012e23          	sw	a6,28(sp)
   14fa4:	f20f40ef          	jal	96c4 <__ledf2>
   14fa8:	02055463          	bgez	a0,14fd0 <__gdtoa+0x298>
   14fac:	01c12503          	lw	a0,28(sp)
   14fb0:	e08f50ef          	jal	a5b8 <__floatsidf>
   14fb4:	02012603          	lw	a2,32(sp)
   14fb8:	00098693          	mv	a3,s3
   14fbc:	da0f40ef          	jal	955c <__eqdf2>
   14fc0:	01c12783          	lw	a5,28(sp)
   14fc4:	00a03533          	snez	a0,a0
   14fc8:	40a787b3          	sub	a5,a5,a0
   14fcc:	00f12e23          	sw	a5,28(sp)
   14fd0:	03012783          	lw	a5,48(sp)
   14fd4:	014a1613          	slli	a2,s4,0x14
   14fd8:	01c12703          	lw	a4,28(sp)
   14fdc:	414c0a33          	sub	s4,s8,s4
   14fe0:	00f609b3          	add	s3,a2,a5
   14fe4:	fffa0793          	addi	a5,s4,-1
   14fe8:	01600693          	li	a3,22
   14fec:	02f12023          	sw	a5,32(sp)
   14ff0:	5ee6e063          	bltu	a3,a4,155d0 <__gdtoa+0x898>
   14ff4:	0001a7b7          	lui	a5,0x1a
   14ff8:	c2878613          	addi	a2,a5,-984 # 19c28 <__mprec_tens>
   14ffc:	00371693          	slli	a3,a4,0x3
   15000:	00c686b3          	add	a3,a3,a2
   15004:	04412883          	lw	a7,68(sp)
   15008:	0006a503          	lw	a0,0(a3)
   1500c:	0046a583          	lw	a1,4(a3)
   15010:	00088613          	mv	a2,a7
   15014:	00098693          	mv	a3,s3
   15018:	dd0f40ef          	jal	95e8 <__gedf2>
   1501c:	18a04ee3          	bgtz	a0,159b8 <__gdtoa+0xc80>
   15020:	04012823          	sw	zero,80(sp)
   15024:	02012823          	sw	zero,48(sp)
   15028:	01404a63          	bgtz	s4,1503c <__gdtoa+0x304>
   1502c:	00100693          	li	a3,1
   15030:	414687b3          	sub	a5,a3,s4
   15034:	02f12823          	sw	a5,48(sp)
   15038:	02012023          	sw	zero,32(sp)
   1503c:	02012703          	lw	a4,32(sp)
   15040:	01c12783          	lw	a5,28(sp)
   15044:	02012c23          	sw	zero,56(sp)
   15048:	00f70733          	add	a4,a4,a5
   1504c:	02e12023          	sw	a4,32(sp)
   15050:	02f12e23          	sw	a5,60(sp)
   15054:	01012783          	lw	a5,16(sp)
   15058:	00900693          	li	a3,9
   1505c:	5cf6ea63          	bltu	a3,a5,15630 <__gdtoa+0x8f8>
   15060:	00500693          	li	a3,5
   15064:	16f6c4e3          	blt	a3,a5,159cc <__gdtoa+0xc94>
   15068:	02812783          	lw	a5,40(sp)
   1506c:	00400613          	li	a2,4
   15070:	3fd78793          	addi	a5,a5,1021
   15074:	7f87ba13          	sltiu	s4,a5,2040
   15078:	01012783          	lw	a5,16(sp)
   1507c:	00c79463          	bne	a5,a2,15084 <__gdtoa+0x34c>
   15080:	0580106f          	j	160d8 <__gdtoa+0x13a0>
   15084:	00d79463          	bne	a5,a3,1508c <__gdtoa+0x354>
   15088:	0440106f          	j	160cc <__gdtoa+0x1394>
   1508c:	00200693          	li	a3,2
   15090:	00d79463          	bne	a5,a3,15098 <__gdtoa+0x360>
   15094:	0500106f          	j	160e4 <__gdtoa+0x13ac>
   15098:	00300693          	li	a3,3
   1509c:	04012023          	sw	zero,64(sp)
   150a0:	5ad79063          	bne	a5,a3,15640 <__gdtoa+0x908>
   150a4:	03c12783          	lw	a5,60(sp)
   150a8:	01812703          	lw	a4,24(sp)
   150ac:	00e787b3          	add	a5,a5,a4
   150b0:	04f12a23          	sw	a5,84(sp)
   150b4:	00178793          	addi	a5,a5,1
   150b8:	02f12a23          	sw	a5,52(sp)
   150bc:	5ef056e3          	blez	a5,15ea8 <__gdtoa+0x1170>
   150c0:	00078693          	mv	a3,a5
   150c4:	00078593          	mv	a1,a5
   150c8:	00040513          	mv	a0,s0
   150cc:	08d12623          	sw	a3,140(sp)
   150d0:	7f4010ef          	jal	168c4 <__rv_alloc_D2A>
   150d4:	00050f13          	mv	t5,a0
   150d8:	4c050263          	beqz	a0,1559c <__gdtoa+0x864>
   150dc:	00cda783          	lw	a5,12(s11)
   150e0:	fff78793          	addi	a5,a5,-1
   150e4:	02f12423          	sw	a5,40(sp)
   150e8:	5a078263          	beqz	a5,1568c <__gdtoa+0x954>
   150ec:	0c07c0e3          	bltz	a5,159ac <__gdtoa+0xc74>
   150f0:	100b7e13          	andi	t3,s6,256
   150f4:	580e1463          	bnez	t3,1567c <__gdtoa+0x944>
   150f8:	02412783          	lw	a5,36(sp)
   150fc:	0007c863          	bltz	a5,1510c <__gdtoa+0x3d4>
   15100:	03c12783          	lw	a5,60(sp)
   15104:	00e00693          	li	a3,14
   15108:	0ef6dae3          	bge	a3,a5,159fc <__gdtoa+0xcc4>
   1510c:	04012783          	lw	a5,64(sp)
   15110:	080786e3          	beqz	a5,1599c <__gdtoa+0xc64>
   15114:	02412783          	lw	a5,36(sp)
   15118:	418b8333          	sub	t1,s7,s8
   1511c:	004da683          	lw	a3,4(s11)
   15120:	00130613          	addi	a2,t1,1
   15124:	08c12623          	sw	a2,140(sp)
   15128:	40678333          	sub	t1,a5,t1
   1512c:	5cd35ee3          	bge	t1,a3,15f08 <__gdtoa+0x11d0>
   15130:	01012703          	lw	a4,16(sp)
   15134:	ffd70613          	addi	a2,a4,-3
   15138:	ffd67613          	andi	a2,a2,-3
   1513c:	4a060ee3          	beqz	a2,15df8 <__gdtoa+0x10c0>
   15140:	40d786b3          	sub	a3,a5,a3
   15144:	00168693          	addi	a3,a3,1
   15148:	08d12623          	sw	a3,140(sp)
   1514c:	00100613          	li	a2,1
   15150:	00e65c63          	bge	a2,a4,15168 <__gdtoa+0x430>
   15154:	03412783          	lw	a5,52(sp)
   15158:	00f05863          	blez	a5,15168 <__gdtoa+0x430>
   1515c:	03412783          	lw	a5,52(sp)
   15160:	00d7d463          	bge	a5,a3,15168 <__gdtoa+0x430>
   15164:	5740106f          	j	166d8 <__gdtoa+0x19a0>
   15168:	03012783          	lw	a5,48(sp)
   1516c:	02012703          	lw	a4,32(sp)
   15170:	03812b03          	lw	s6,56(sp)
   15174:	00078a13          	mv	s4,a5
   15178:	00d70733          	add	a4,a4,a3
   1517c:	00f687b3          	add	a5,a3,a5
   15180:	02e12023          	sw	a4,32(sp)
   15184:	02f12823          	sw	a5,48(sp)
   15188:	00100593          	li	a1,1
   1518c:	00040513          	mv	a0,s0
   15190:	03e12223          	sw	t5,36(sp)
   15194:	0b4020ef          	jal	17248 <__i2b>
   15198:	02412f03          	lw	t5,36(sp)
   1519c:	00050993          	mv	s3,a0
   151a0:	3e050e63          	beqz	a0,1559c <__gdtoa+0x864>
   151a4:	020a0c63          	beqz	s4,151dc <__gdtoa+0x4a4>
   151a8:	02012783          	lw	a5,32(sp)
   151ac:	02f05863          	blez	a5,151dc <__gdtoa+0x4a4>
   151b0:	000a0693          	mv	a3,s4
   151b4:	0147d463          	bge	a5,s4,151bc <__gdtoa+0x484>
   151b8:	00078693          	mv	a3,a5
   151bc:	03012783          	lw	a5,48(sp)
   151c0:	08d12623          	sw	a3,140(sp)
   151c4:	40da0a33          	sub	s4,s4,a3
   151c8:	40d787b3          	sub	a5,a5,a3
   151cc:	02f12823          	sw	a5,48(sp)
   151d0:	02012783          	lw	a5,32(sp)
   151d4:	40d787b3          	sub	a5,a5,a3
   151d8:	02f12023          	sw	a5,32(sp)
   151dc:	03812783          	lw	a5,56(sp)
   151e0:	02078863          	beqz	a5,15210 <__gdtoa+0x4d8>
   151e4:	04012783          	lw	a5,64(sp)
   151e8:	00078463          	beqz	a5,151f0 <__gdtoa+0x4b8>
   151ec:	600b16e3          	bnez	s6,15ff8 <__gdtoa+0x12c0>
   151f0:	03812603          	lw	a2,56(sp)
   151f4:	00048593          	mv	a1,s1
   151f8:	00040513          	mv	a0,s0
   151fc:	03e12223          	sw	t5,36(sp)
   15200:	32c020ef          	jal	1752c <__pow5mult>
   15204:	02412f03          	lw	t5,36(sp)
   15208:	00050493          	mv	s1,a0
   1520c:	38050863          	beqz	a0,1559c <__gdtoa+0x864>
   15210:	00100593          	li	a1,1
   15214:	00040513          	mv	a0,s0
   15218:	03e12223          	sw	t5,36(sp)
   1521c:	02c020ef          	jal	17248 <__i2b>
   15220:	00050b93          	mv	s7,a0
   15224:	36050c63          	beqz	a0,1559c <__gdtoa+0x864>
   15228:	01c12783          	lw	a5,28(sp)
   1522c:	02412f03          	lw	t5,36(sp)
   15230:	480792e3          	bnez	a5,15eb4 <__gdtoa+0x117c>
   15234:	01012783          	lw	a5,16(sp)
   15238:	00100693          	li	a3,1
   1523c:	18f6dce3          	bge	a3,a5,15bd4 <__gdtoa+0xe9c>
   15240:	01f00a93          	li	s5,31
   15244:	02012783          	lw	a5,32(sp)
   15248:	40fa8ab3          	sub	s5,s5,a5
   1524c:	03012783          	lw	a5,48(sp)
   15250:	ffca8a93          	addi	s5,s5,-4
   15254:	01fafa93          	andi	s5,s5,31
   15258:	00fa8633          	add	a2,s5,a5
   1525c:	09512623          	sw	s5,140(sp)
   15260:	000a8793          	mv	a5,s5
   15264:	26c048e3          	bgtz	a2,15cd4 <__gdtoa+0xf9c>
   15268:	02012703          	lw	a4,32(sp)
   1526c:	00f70633          	add	a2,a4,a5
   15270:	30c04863          	bgtz	a2,15580 <__gdtoa+0x848>
   15274:	05012783          	lw	a5,80(sp)
   15278:	280790e3          	bnez	a5,15cf8 <__gdtoa+0xfc0>
   1527c:	03412783          	lw	a5,52(sp)
   15280:	3af052e3          	blez	a5,15e24 <__gdtoa+0x10ec>
   15284:	04012783          	lw	a5,64(sp)
   15288:	2c0784e3          	beqz	a5,15d50 <__gdtoa+0x1018>
   1528c:	014a8633          	add	a2,s5,s4
   15290:	60c046e3          	bgtz	a2,1609c <__gdtoa+0x1364>
   15294:	01c12783          	lw	a5,28(sp)
   15298:	00098a13          	mv	s4,s3
   1529c:	680790e3          	bnez	a5,1611c <__gdtoa+0x13e4>
   152a0:	01a12e23          	sw	s10,28(sp)
   152a4:	01012c83          	lw	s9,16(sp)
   152a8:	03412d03          	lw	s10,52(sp)
   152ac:	000f0c13          	mv	s8,t5
   152b0:	00100793          	li	a5,1
   152b4:	01e12c23          	sw	t5,24(sp)
   152b8:	0b00006f          	j	15368 <__gdtoa+0x630>
   152bc:	00040513          	mv	a0,s0
   152c0:	389010ef          	jal	16e48 <_Bfree>
   152c4:	000ad463          	bgez	s5,152cc <__gdtoa+0x594>
   152c8:	7e50006f          	j	162ac <__gdtoa+0x1574>
   152cc:	015ceab3          	or	s5,s9,s5
   152d0:	000a9a63          	bnez	s5,152e4 <__gdtoa+0x5ac>
   152d4:	00092783          	lw	a5,0(s2)
   152d8:	0017f793          	andi	a5,a5,1
   152dc:	00079463          	bnez	a5,152e4 <__gdtoa+0x5ac>
   152e0:	7cd0006f          	j	162ac <__gdtoa+0x1574>
   152e4:	02812783          	lw	a5,40(sp)
   152e8:	00200713          	li	a4,2
   152ec:	00e78463          	beq	a5,a4,152f4 <__gdtoa+0x5bc>
   152f0:	3140106f          	j	16604 <__gdtoa+0x18cc>
   152f4:	01bc0023          	sb	s11,0(s8)
   152f8:	08c12783          	lw	a5,140(sp)
   152fc:	001c0c13          	addi	s8,s8,1
   15300:	00fd1463          	bne	s10,a5,15308 <__gdtoa+0x5d0>
   15304:	2340106f          	j	16538 <__gdtoa+0x1800>
   15308:	00048593          	mv	a1,s1
   1530c:	00000693          	li	a3,0
   15310:	00a00613          	li	a2,10
   15314:	00040513          	mv	a0,s0
   15318:	355010ef          	jal	16e6c <__multadd>
   1531c:	00050493          	mv	s1,a0
   15320:	26050e63          	beqz	a0,1559c <__gdtoa+0x864>
   15324:	00000693          	li	a3,0
   15328:	00a00613          	li	a2,10
   1532c:	00098593          	mv	a1,s3
   15330:	00040513          	mv	a0,s0
   15334:	114980e3          	beq	s3,s4,15c34 <__gdtoa+0xefc>
   15338:	335010ef          	jal	16e6c <__multadd>
   1533c:	00050993          	mv	s3,a0
   15340:	24050e63          	beqz	a0,1559c <__gdtoa+0x864>
   15344:	000a0593          	mv	a1,s4
   15348:	00000693          	li	a3,0
   1534c:	00a00613          	li	a2,10
   15350:	00040513          	mv	a0,s0
   15354:	319010ef          	jal	16e6c <__multadd>
   15358:	00050a13          	mv	s4,a0
   1535c:	24050063          	beqz	a0,1559c <__gdtoa+0x864>
   15360:	08c12783          	lw	a5,140(sp)
   15364:	00178793          	addi	a5,a5,1
   15368:	000b8593          	mv	a1,s7
   1536c:	00048513          	mv	a0,s1
   15370:	08f12623          	sw	a5,140(sp)
   15374:	66c010ef          	jal	169e0 <__quorem_D2A>
   15378:	00050b13          	mv	s6,a0
   1537c:	00098593          	mv	a1,s3
   15380:	00048513          	mv	a0,s1
   15384:	488020ef          	jal	1780c <__mcmp>
   15388:	000b8593          	mv	a1,s7
   1538c:	00050a93          	mv	s5,a0
   15390:	000a0613          	mv	a2,s4
   15394:	00040513          	mv	a0,s0
   15398:	4cc020ef          	jal	17864 <__mdiff>
   1539c:	030b0d93          	addi	s11,s6,48
   153a0:	00050593          	mv	a1,a0
   153a4:	1e050c63          	beqz	a0,1559c <__gdtoa+0x864>
   153a8:	00c52783          	lw	a5,12(a0)
   153ac:	f00798e3          	bnez	a5,152bc <__gdtoa+0x584>
   153b0:	00a12823          	sw	a0,16(sp)
   153b4:	00048513          	mv	a0,s1
   153b8:	454020ef          	jal	1780c <__mcmp>
   153bc:	01012583          	lw	a1,16(sp)
   153c0:	00050793          	mv	a5,a0
   153c4:	00040513          	mv	a0,s0
   153c8:	00f12823          	sw	a5,16(sp)
   153cc:	27d010ef          	jal	16e48 <_Bfree>
   153d0:	01012783          	lw	a5,16(sp)
   153d4:	00fce733          	or	a4,s9,a5
   153d8:	00070463          	beqz	a4,153e0 <__gdtoa+0x6a8>
   153dc:	4800106f          	j	1685c <__gdtoa+0x1b24>
   153e0:	00092783          	lw	a5,0(s2)
   153e4:	0017f793          	andi	a5,a5,1
   153e8:	060790e3          	bnez	a5,15c48 <__gdtoa+0xf10>
   153ec:	02812783          	lw	a5,40(sp)
   153f0:	00079463          	bnez	a5,153f8 <__gdtoa+0x6c0>
   153f4:	3580106f          	j	1674c <__gdtoa+0x1a14>
   153f8:	ef504ee3          	bgtz	s5,152f4 <__gdtoa+0x5bc>
   153fc:	0104a683          	lw	a3,16(s1)
   15400:	00100793          	li	a5,1
   15404:	01812f03          	lw	t5,24(sp)
   15408:	01c12d03          	lw	s10,28(sp)
   1540c:	00070c93          	mv	s9,a4
   15410:	00d7c463          	blt	a5,a3,15418 <__gdtoa+0x6e0>
   15414:	4140106f          	j	16828 <__gdtoa+0x1af0>
   15418:	02812703          	lw	a4,40(sp)
   1541c:	00200793          	li	a5,2
   15420:	000f0b13          	mv	s6,t5
   15424:	02f71463          	bne	a4,a5,1544c <__gdtoa+0x714>
   15428:	3d40106f          	j	167fc <__gdtoa+0x1ac4>
   1542c:	241010ef          	jal	16e6c <__multadd>
   15430:	000b8593          	mv	a1,s7
   15434:	00050493          	mv	s1,a0
   15438:	16050263          	beqz	a0,1559c <__gdtoa+0x864>
   1543c:	5a4010ef          	jal	169e0 <__quorem_D2A>
   15440:	03050d93          	addi	s11,a0,48
   15444:	00090c13          	mv	s8,s2
   15448:	000a8a13          	mv	s4,s5
   1544c:	000a0593          	mv	a1,s4
   15450:	000b8513          	mv	a0,s7
   15454:	3b8020ef          	jal	1780c <__mcmp>
   15458:	00050793          	mv	a5,a0
   1545c:	00000693          	li	a3,0
   15460:	00a00613          	li	a2,10
   15464:	000a0593          	mv	a1,s4
   15468:	00040513          	mv	a0,s0
   1546c:	001c0913          	addi	s2,s8,1
   15470:	00f04463          	bgtz	a5,15478 <__gdtoa+0x740>
   15474:	3700106f          	j	167e4 <__gdtoa+0x1aac>
   15478:	ffb90fa3          	sb	s11,-1(s2)
   1547c:	1f1010ef          	jal	16e6c <__multadd>
   15480:	00050a93          	mv	s5,a0
   15484:	00000693          	li	a3,0
   15488:	00a00613          	li	a2,10
   1548c:	00048593          	mv	a1,s1
   15490:	00040513          	mv	a0,s0
   15494:	100a8463          	beqz	s5,1559c <__gdtoa+0x864>
   15498:	f9499ae3          	bne	s3,s4,1542c <__gdtoa+0x6f4>
   1549c:	000a8993          	mv	s3,s5
   154a0:	f8dff06f          	j	1542c <__gdtoa+0x6f4>
   154a4:	00400793          	li	a5,4
   154a8:	10f31c63          	bne	t1,a5,155c0 <__gdtoa+0x888>
   154ac:	00812703          	lw	a4,8(sp)
   154b0:	00c12603          	lw	a2,12(sp)
   154b4:	0a412c83          	lw	s9,164(sp)
   154b8:	0cc12083          	lw	ra,204(sp)
   154bc:	0b012b03          	lw	s6,176(sp)
   154c0:	0a012d03          	lw	s10,160(sp)
   154c4:	ffff87b7          	lui	a5,0xffff8
   154c8:	00f72023          	sw	a5,0(a4)
   154cc:	000195b7          	lui	a1,0x19
   154d0:	00300693          	li	a3,3
   154d4:	76058593          	addi	a1,a1,1888 # 19760 <_getpid_r+0x644>
   154d8:	0d010113          	addi	sp,sp,208
   154dc:	4380106f          	j	16914 <__nrv_alloc_D2A>
   154e0:	00048593          	mv	a1,s1
   154e4:	00040513          	mv	a0,s0
   154e8:	161010ef          	jal	16e48 <_Bfree>
   154ec:	0c412483          	lw	s1,196(sp)
   154f0:	0c012903          	lw	s2,192(sp)
   154f4:	0bc12983          	lw	s3,188(sp)
   154f8:	0b412a83          	lw	s5,180(sp)
   154fc:	0ac12b83          	lw	s7,172(sp)
   15500:	0a812c03          	lw	s8,168(sp)
   15504:	09c12d83          	lw	s11,156(sp)
   15508:	00812703          	lw	a4,8(sp)
   1550c:	00c12603          	lw	a2,12(sp)
   15510:	00100793          	li	a5,1
   15514:	000195b7          	lui	a1,0x19
   15518:	00040513          	mv	a0,s0
   1551c:	00f72023          	sw	a5,0(a4)
   15520:	00100693          	li	a3,1
   15524:	74058593          	addi	a1,a1,1856 # 19740 <_getpid_r+0x624>
   15528:	3ec010ef          	jal	16914 <__nrv_alloc_D2A>
   1552c:	0c812403          	lw	s0,200(sp)
   15530:	00050f13          	mv	t5,a0
   15534:	0cc12083          	lw	ra,204(sp)
   15538:	0a412c83          	lw	s9,164(sp)
   1553c:	0b012b03          	lw	s6,176(sp)
   15540:	0a012d03          	lw	s10,160(sp)
   15544:	000f0513          	mv	a0,t5
   15548:	0d010113          	addi	sp,sp,208
   1554c:	00008067          	ret
   15550:	00812703          	lw	a4,8(sp)
   15554:	00c12603          	lw	a2,12(sp)
   15558:	0cc12083          	lw	ra,204(sp)
   1555c:	0b012b03          	lw	s6,176(sp)
   15560:	0a012d03          	lw	s10,160(sp)
   15564:	ffff87b7          	lui	a5,0xffff8
   15568:	00f72023          	sw	a5,0(a4)
   1556c:	000195b7          	lui	a1,0x19
   15570:	00800693          	li	a3,8
   15574:	75458593          	addi	a1,a1,1876 # 19754 <_getpid_r+0x638>
   15578:	0d010113          	addi	sp,sp,208
   1557c:	3980106f          	j	16914 <__nrv_alloc_D2A>
   15580:	000b8593          	mv	a1,s7
   15584:	00040513          	mv	a0,s0
   15588:	03e12023          	sw	t5,32(sp)
   1558c:	0f0020ef          	jal	1767c <__lshift>
   15590:	02012f03          	lw	t5,32(sp)
   15594:	00050b93          	mv	s7,a0
   15598:	cc051ee3          	bnez	a0,15274 <__gdtoa+0x53c>
   1559c:	0c812403          	lw	s0,200(sp)
   155a0:	0c412483          	lw	s1,196(sp)
   155a4:	0c012903          	lw	s2,192(sp)
   155a8:	0bc12983          	lw	s3,188(sp)
   155ac:	0b812a03          	lw	s4,184(sp)
   155b0:	0b412a83          	lw	s5,180(sp)
   155b4:	0ac12b83          	lw	s7,172(sp)
   155b8:	0a812c03          	lw	s8,168(sp)
   155bc:	09c12d83          	lw	s11,156(sp)
   155c0:	00000f13          	li	t5,0
   155c4:	f71ff06f          	j	15534 <__gdtoa+0x7fc>
   155c8:	0004a823          	sw	zero,16(s1)
   155cc:	8a5ff06f          	j	14e70 <__gdtoa+0x138>
   155d0:	00100793          	li	a5,1
   155d4:	04f12823          	sw	a5,80(sp)
   155d8:	02012823          	sw	zero,48(sp)
   155dc:	fffa0793          	addi	a5,s4,-1
   155e0:	3a07c463          	bltz	a5,15988 <__gdtoa+0xc50>
   155e4:	01c12783          	lw	a5,28(sp)
   155e8:	a407dae3          	bgez	a5,1503c <__gdtoa+0x304>
   155ec:	01c12783          	lw	a5,28(sp)
   155f0:	03012703          	lw	a4,48(sp)
   155f4:	00012e23          	sw	zero,28(sp)
   155f8:	02f12e23          	sw	a5,60(sp)
   155fc:	40f70733          	sub	a4,a4,a5
   15600:	02e12823          	sw	a4,48(sp)
   15604:	40f00733          	neg	a4,a5
   15608:	02e12c23          	sw	a4,56(sp)
   1560c:	a49ff06f          	j	15054 <__gdtoa+0x31c>
   15610:	00050593          	mv	a1,a0
   15614:	00048513          	mv	a0,s1
   15618:	5c0010ef          	jal	16bd8 <__rshift_D2A>
   1561c:	08c12683          	lw	a3,140(sp)
   15620:	015687b3          	add	a5,a3,s5
   15624:	02f12223          	sw	a5,36(sp)
   15628:	40dc0c33          	sub	s8,s8,a3
   1562c:	859ff06f          	j	14e84 <__gdtoa+0x14c>
   15630:	02812783          	lw	a5,40(sp)
   15634:	00012823          	sw	zero,16(sp)
   15638:	3fd78793          	addi	a5,a5,1021 # ffff83fd <_end+0xfffdb199>
   1563c:	7f87ba13          	sltiu	s4,a5,2040
   15640:	000b8513          	mv	a0,s7
   15644:	f75f40ef          	jal	a5b8 <__floatsidf>
   15648:	8281a603          	lw	a2,-2008(gp) # 1a6e0 <__global_locale+0x198>
   1564c:	82c1a683          	lw	a3,-2004(gp) # 1a6e4 <__global_locale+0x19c>
   15650:	950f40ef          	jal	97a0 <__muldf3>
   15654:	ee5f40ef          	jal	a538 <__fixdfsi>
   15658:	00100793          	li	a5,1
   1565c:	00350593          	addi	a1,a0,3
   15660:	04f12023          	sw	a5,64(sp)
   15664:	fff00793          	li	a5,-1
   15668:	00058693          	mv	a3,a1
   1566c:	00012c23          	sw	zero,24(sp)
   15670:	04f12a23          	sw	a5,84(sp)
   15674:	02f12a23          	sw	a5,52(sp)
   15678:	a51ff06f          	j	150c8 <__gdtoa+0x390>
   1567c:	02812783          	lw	a5,40(sp)
   15680:	00300693          	li	a3,3
   15684:	40f687b3          	sub	a5,a3,a5
   15688:	02f12423          	sw	a5,40(sp)
   1568c:	03412783          	lw	a5,52(sp)
   15690:	00e00693          	li	a3,14
   15694:	a6f6e2e3          	bltu	a3,a5,150f8 <__gdtoa+0x3c0>
   15698:	a60a00e3          	beqz	s4,150f8 <__gdtoa+0x3c0>
   1569c:	03c12703          	lw	a4,60(sp)
   156a0:	02812683          	lw	a3,40(sp)
   156a4:	00d766b3          	or	a3,a4,a3
   156a8:	a40698e3          	bnez	a3,150f8 <__gdtoa+0x3c0>
   156ac:	05012703          	lw	a4,80(sp)
   156b0:	08012623          	sw	zero,140(sp)
   156b4:	05312c23          	sw	s3,88(sp)
   156b8:	04412b03          	lw	s6,68(sp)
   156bc:	02070263          	beqz	a4,156e0 <__gdtoa+0x9a8>
   156c0:	8301a603          	lw	a2,-2000(gp) # 1a6e8 <__global_locale+0x1a0>
   156c4:	8341a683          	lw	a3,-1996(gp) # 1a6ec <__global_locale+0x1a4>
   156c8:	000b0513          	mv	a0,s6
   156cc:	00098593          	mv	a1,s3
   156d0:	03e12423          	sw	t5,40(sp)
   156d4:	ff1f30ef          	jal	96c4 <__ledf2>
   156d8:	02812f03          	lw	t5,40(sp)
   156dc:	66054ce3          	bltz	a0,16554 <__gdtoa+0x181c>
   156e0:	04412783          	lw	a5,68(sp)
   156e4:	03e12423          	sw	t5,40(sp)
   156e8:	00078613          	mv	a2,a5
   156ec:	00078513          	mv	a0,a5
   156f0:	05812783          	lw	a5,88(sp)
   156f4:	00078693          	mv	a3,a5
   156f8:	00078593          	mv	a1,a5
   156fc:	ff1f20ef          	jal	86ec <__adddf3>
   15700:	8481a603          	lw	a2,-1976(gp) # 1a700 <__global_locale+0x1b8>
   15704:	84c1a683          	lw	a3,-1972(gp) # 1a704 <__global_locale+0x1bc>
   15708:	fe5f20ef          	jal	86ec <__adddf3>
   1570c:	fcc007b7          	lui	a5,0xfcc00
   15710:	00b78a33          	add	s4,a5,a1
   15714:	03412783          	lw	a5,52(sp)
   15718:	02812f03          	lw	t5,40(sp)
   1571c:	00050713          	mv	a4,a0
   15720:	280782e3          	beqz	a5,161a4 <__gdtoa+0x146c>
   15724:	03412783          	lw	a5,52(sp)
   15728:	04412e83          	lw	t4,68(sp)
   1572c:	05812803          	lw	a6,88(sp)
   15730:	06012023          	sw	zero,96(sp)
   15734:	04f12e23          	sw	a5,92(sp)
   15738:	05c12683          	lw	a3,92(sp)
   1573c:	0001a7b7          	lui	a5,0x1a
   15740:	04012583          	lw	a1,64(sp)
   15744:	fff68693          	addi	a3,a3,-1
   15748:	c2878613          	addi	a2,a5,-984 # 19c28 <__mprec_tens>
   1574c:	00369693          	slli	a3,a3,0x3
   15750:	00c686b3          	add	a3,a3,a2
   15754:	07012223          	sw	a6,100(sp)
   15758:	03d12423          	sw	t4,40(sp)
   1575c:	0006a603          	lw	a2,0(a3)
   15760:	0046a683          	lw	a3,4(a3)
   15764:	42058ce3          	beqz	a1,1639c <__gdtoa+0x1664>
   15768:	8581a503          	lw	a0,-1960(gp) # 1a710 <__global_locale+0x1c8>
   1576c:	85c1a583          	lw	a1,-1956(gp) # 1a714 <__global_locale+0x1cc>
   15770:	06f12e23          	sw	a5,124(sp)
   15774:	001f0b13          	addi	s6,t5,1
   15778:	07e12a23          	sw	t5,116(sp)
   1577c:	04e12423          	sw	a4,72(sp)
   15780:	f00f30ef          	jal	8e80 <__divdf3>
   15784:	04812703          	lw	a4,72(sp)
   15788:	000a0693          	mv	a3,s4
   1578c:	00070613          	mv	a2,a4
   15790:	e00f40ef          	jal	9d90 <__subdf3>
   15794:	02812e83          	lw	t4,40(sp)
   15798:	06412803          	lw	a6,100(sp)
   1579c:	00050613          	mv	a2,a0
   157a0:	00058693          	mv	a3,a1
   157a4:	000e8513          	mv	a0,t4
   157a8:	00080593          	mv	a1,a6
   157ac:	07d12423          	sw	t4,104(sp)
   157b0:	05012423          	sw	a6,72(sp)
   157b4:	06c12623          	sw	a2,108(sp)
   157b8:	06d12823          	sw	a3,112(sp)
   157bc:	d7df40ef          	jal	a538 <__fixdfsi>
   157c0:	02a12423          	sw	a0,40(sp)
   157c4:	df5f40ef          	jal	a5b8 <__floatsidf>
   157c8:	06812e83          	lw	t4,104(sp)
   157cc:	04812803          	lw	a6,72(sp)
   157d0:	00050613          	mv	a2,a0
   157d4:	00058693          	mv	a3,a1
   157d8:	000e8513          	mv	a0,t4
   157dc:	00080593          	mv	a1,a6
   157e0:	db0f40ef          	jal	9d90 <__subdf3>
   157e4:	02812e03          	lw	t3,40(sp)
   157e8:	07412f03          	lw	t5,116(sp)
   157ec:	00050613          	mv	a2,a0
   157f0:	00058693          	mv	a3,a1
   157f4:	00050a13          	mv	s4,a0
   157f8:	00058993          	mv	s3,a1
   157fc:	06c12503          	lw	a0,108(sp)
   15800:	07012583          	lw	a1,112(sp)
   15804:	030e0e13          	addi	t3,t3,48
   15808:	01cf0023          	sb	t3,0(t5)
   1580c:	03e12423          	sw	t5,40(sp)
   15810:	dd9f30ef          	jal	95e8 <__gedf2>
   15814:	02812f03          	lw	t5,40(sp)
   15818:	68a042e3          	bgtz	a0,1669c <__gdtoa+0x1964>
   1581c:	8301a783          	lw	a5,-2000(gp) # 1a6e8 <__global_locale+0x1a0>
   15820:	8341a803          	lw	a6,-1996(gp) # 1a6ec <__global_locale+0x1a4>
   15824:	04f12423          	sw	a5,72(sp)
   15828:	05012623          	sw	a6,76(sp)
   1582c:	8381a783          	lw	a5,-1992(gp) # 1a6f0 <__global_locale+0x1a8>
   15830:	83c1a803          	lw	a6,-1988(gp) # 1a6f4 <__global_locale+0x1ac>
   15834:	06912223          	sw	s1,100(sp)
   15838:	07712a23          	sw	s7,116(sp)
   1583c:	07812c23          	sw	s8,120(sp)
   15840:	06c12483          	lw	s1,108(sp)
   15844:	05c12c03          	lw	s8,92(sp)
   15848:	07012b83          	lw	s7,112(sp)
   1584c:	02f12423          	sw	a5,40(sp)
   15850:	03012623          	sw	a6,44(sp)
   15854:	05e12e23          	sw	t5,92(sp)
   15858:	06812423          	sw	s0,104(sp)
   1585c:	0800006f          	j	158dc <__gdtoa+0xba4>
   15860:	08c12783          	lw	a5,140(sp)
   15864:	00178793          	addi	a5,a5,1
   15868:	08f12623          	sw	a5,140(sp)
   1586c:	6b87d6e3          	bge	a5,s8,16718 <__gdtoa+0x19e0>
   15870:	f31f30ef          	jal	97a0 <__muldf3>
   15874:	02812603          	lw	a2,40(sp)
   15878:	02c12683          	lw	a3,44(sp)
   1587c:	00050493          	mv	s1,a0
   15880:	00058b93          	mv	s7,a1
   15884:	000a0513          	mv	a0,s4
   15888:	00098593          	mv	a1,s3
   1588c:	f15f30ef          	jal	97a0 <__muldf3>
   15890:	00058a13          	mv	s4,a1
   15894:	00050413          	mv	s0,a0
   15898:	ca1f40ef          	jal	a538 <__fixdfsi>
   1589c:	00050993          	mv	s3,a0
   158a0:	d19f40ef          	jal	a5b8 <__floatsidf>
   158a4:	00050613          	mv	a2,a0
   158a8:	00058693          	mv	a3,a1
   158ac:	00040513          	mv	a0,s0
   158b0:	000a0593          	mv	a1,s4
   158b4:	cdcf40ef          	jal	9d90 <__subdf3>
   158b8:	03098793          	addi	a5,s3,48
   158bc:	00048613          	mv	a2,s1
   158c0:	000b8693          	mv	a3,s7
   158c4:	00fb0023          	sb	a5,0(s6)
   158c8:	001b0b13          	addi	s6,s6,1
   158cc:	00050a13          	mv	s4,a0
   158d0:	00058993          	mv	s3,a1
   158d4:	df1f30ef          	jal	96c4 <__ledf2>
   158d8:	5a054ce3          	bltz	a0,16690 <__gdtoa+0x1958>
   158dc:	04812503          	lw	a0,72(sp)
   158e0:	04c12583          	lw	a1,76(sp)
   158e4:	000a0613          	mv	a2,s4
   158e8:	00098693          	mv	a3,s3
   158ec:	ca4f40ef          	jal	9d90 <__subdf3>
   158f0:	00050613          	mv	a2,a0
   158f4:	00058693          	mv	a3,a1
   158f8:	00048513          	mv	a0,s1
   158fc:	000b8593          	mv	a1,s7
   15900:	ce9f30ef          	jal	95e8 <__gedf2>
   15904:	00050793          	mv	a5,a0
   15908:	02812603          	lw	a2,40(sp)
   1590c:	02c12683          	lw	a3,44(sp)
   15910:	00048513          	mv	a0,s1
   15914:	000b8593          	mv	a1,s7
   15918:	f4f054e3          	blez	a5,15860 <__gdtoa+0xb28>
   1591c:	06012783          	lw	a5,96(sp)
   15920:	06412483          	lw	s1,100(sp)
   15924:	05c12f03          	lw	t5,92(sp)
   15928:	06812403          	lw	s0,104(sp)
   1592c:	fffb4b83          	lbu	s7,-1(s6)
   15930:	00178d93          	addi	s11,a5,1
   15934:	03900693          	li	a3,57
   15938:	0100006f          	j	15948 <__gdtoa+0xc10>
   1593c:	24ff0ae3          	beq	t5,a5,16390 <__gdtoa+0x1658>
   15940:	fff7cb83          	lbu	s7,-1(a5)
   15944:	00078b13          	mv	s6,a5
   15948:	fffb0793          	addi	a5,s6,-1
   1594c:	fedb88e3          	beq	s7,a3,1593c <__gdtoa+0xc04>
   15950:	001b8693          	addi	a3,s7,1
   15954:	0ff6f693          	zext.b	a3,a3
   15958:	00d78023          	sb	a3,0(a5)
   1595c:	000d8b93          	mv	s7,s11
   15960:	02000c93          	li	s9,32
   15964:	2100006f          	j	15b74 <__gdtoa+0xe3c>
   15968:	0c812403          	lw	s0,200(sp)
   1596c:	0c412483          	lw	s1,196(sp)
   15970:	0c012903          	lw	s2,192(sp)
   15974:	0b412a83          	lw	s5,180(sp)
   15978:	0ac12b83          	lw	s7,172(sp)
   1597c:	09c12d83          	lw	s11,156(sp)
   15980:	00000f13          	li	t5,0
   15984:	bb1ff06f          	j	15534 <__gdtoa+0x7fc>
   15988:	00100693          	li	a3,1
   1598c:	414687b3          	sub	a5,a3,s4
   15990:	02f12823          	sw	a5,48(sp)
   15994:	02012023          	sw	zero,32(sp)
   15998:	c4dff06f          	j	155e4 <__gdtoa+0x8ac>
   1599c:	03812b03          	lw	s6,56(sp)
   159a0:	03012a03          	lw	s4,48(sp)
   159a4:	00000993          	li	s3,0
   159a8:	ffcff06f          	j	151a4 <__gdtoa+0x46c>
   159ac:	00200793          	li	a5,2
   159b0:	02f12423          	sw	a5,40(sp)
   159b4:	f3cff06f          	j	150f0 <__gdtoa+0x3b8>
   159b8:	01c12783          	lw	a5,28(sp)
   159bc:	04012823          	sw	zero,80(sp)
   159c0:	fff78793          	addi	a5,a5,-1
   159c4:	00f12e23          	sw	a5,28(sp)
   159c8:	c11ff06f          	j	155d8 <__gdtoa+0x8a0>
   159cc:	ffc78793          	addi	a5,a5,-4
   159d0:	00f12823          	sw	a5,16(sp)
   159d4:	00400613          	li	a2,4
   159d8:	22c78863          	beq	a5,a2,15c08 <__gdtoa+0xed0>
   159dc:	6ed78063          	beq	a5,a3,160bc <__gdtoa+0x1384>
   159e0:	00200693          	li	a3,2
   159e4:	04012023          	sw	zero,64(sp)
   159e8:	00000a13          	li	s4,0
   159ec:	22d78463          	beq	a5,a3,15c14 <__gdtoa+0xedc>
   159f0:	00300793          	li	a5,3
   159f4:	00f12823          	sw	a5,16(sp)
   159f8:	eacff06f          	j	150a4 <__gdtoa+0x36c>
   159fc:	0001a6b7          	lui	a3,0x1a
   15a00:	00379793          	slli	a5,a5,0x3
   15a04:	c2868693          	addi	a3,a3,-984 # 19c28 <__mprec_tens>
   15a08:	00d787b3          	add	a5,a5,a3
   15a0c:	0007aa03          	lw	s4,0(a5)
   15a10:	0047aa83          	lw	s5,4(a5)
   15a14:	01812783          	lw	a5,24(sp)
   15a18:	5407c263          	bltz	a5,15f5c <__gdtoa+0x1224>
   15a1c:	04812b03          	lw	s6,72(sp)
   15a20:	00100793          	li	a5,1
   15a24:	000a0613          	mv	a2,s4
   15a28:	000a8693          	mv	a3,s5
   15a2c:	000b0513          	mv	a0,s6
   15a30:	00098593          	mv	a1,s3
   15a34:	01e12823          	sw	t5,16(sp)
   15a38:	08f12623          	sw	a5,140(sp)
   15a3c:	c44f30ef          	jal	8e80 <__divdf3>
   15a40:	af9f40ef          	jal	a538 <__fixdfsi>
   15a44:	00050913          	mv	s2,a0
   15a48:	b71f40ef          	jal	a5b8 <__floatsidf>
   15a4c:	000a0613          	mv	a2,s4
   15a50:	000a8693          	mv	a3,s5
   15a54:	d4df30ef          	jal	97a0 <__muldf3>
   15a58:	00050613          	mv	a2,a0
   15a5c:	00058693          	mv	a3,a1
   15a60:	000b0513          	mv	a0,s6
   15a64:	00098593          	mv	a1,s3
   15a68:	b28f40ef          	jal	9d90 <__subdf3>
   15a6c:	01012f03          	lw	t5,16(sp)
   15a70:	03c12703          	lw	a4,60(sp)
   15a74:	03090793          	addi	a5,s2,48
   15a78:	00ff0023          	sb	a5,0(t5)
   15a7c:	00000613          	li	a2,0
   15a80:	00000693          	li	a3,0
   15a84:	00170d93          	addi	s11,a4,1
   15a88:	001f0b13          	addi	s6,t5,1
   15a8c:	00050c13          	mv	s8,a0
   15a90:	00058993          	mv	s3,a1
   15a94:	ac9f30ef          	jal	955c <__eqdf2>
   15a98:	01012f03          	lw	t5,16(sp)
   15a9c:	000d8b93          	mv	s7,s11
   15aa0:	0c050a63          	beqz	a0,15b74 <__gdtoa+0xe3c>
   15aa4:	83c1a803          	lw	a6,-1988(gp) # 1a6f4 <__global_locale+0x1ac>
   15aa8:	8381a783          	lw	a5,-1992(gp) # 1a6f0 <__global_locale+0x1a8>
   15aac:	01912e23          	sw	s9,28(sp)
   15ab0:	01b12c23          	sw	s11,24(sp)
   15ab4:	03412c83          	lw	s9,52(sp)
   15ab8:	000c0d93          	mv	s11,s8
   15abc:	00f12823          	sw	a5,16(sp)
   15ac0:	00098c13          	mv	s8,s3
   15ac4:	01012a23          	sw	a6,20(sp)
   15ac8:	000f0993          	mv	s3,t5
   15acc:	0700006f          	j	15b3c <__gdtoa+0xe04>
   15ad0:	09112623          	sw	a7,140(sp)
   15ad4:	ccdf30ef          	jal	97a0 <__muldf3>
   15ad8:	000a0613          	mv	a2,s4
   15adc:	000a8693          	mv	a3,s5
   15ae0:	00050d93          	mv	s11,a0
   15ae4:	00058c13          	mv	s8,a1
   15ae8:	b98f30ef          	jal	8e80 <__divdf3>
   15aec:	a4df40ef          	jal	a538 <__fixdfsi>
   15af0:	00050913          	mv	s2,a0
   15af4:	ac5f40ef          	jal	a5b8 <__floatsidf>
   15af8:	000a0613          	mv	a2,s4
   15afc:	000a8693          	mv	a3,s5
   15b00:	ca1f30ef          	jal	97a0 <__muldf3>
   15b04:	00050613          	mv	a2,a0
   15b08:	00058693          	mv	a3,a1
   15b0c:	000d8513          	mv	a0,s11
   15b10:	000c0593          	mv	a1,s8
   15b14:	a7cf40ef          	jal	9d90 <__subdf3>
   15b18:	001b0b13          	addi	s6,s6,1
   15b1c:	03090793          	addi	a5,s2,48
   15b20:	fefb0fa3          	sb	a5,-1(s6)
   15b24:	00000613          	li	a2,0
   15b28:	00000693          	li	a3,0
   15b2c:	00050d93          	mv	s11,a0
   15b30:	00058c13          	mv	s8,a1
   15b34:	a29f30ef          	jal	955c <__eqdf2>
   15b38:	40050c63          	beqz	a0,15f50 <__gdtoa+0x1218>
   15b3c:	08c12803          	lw	a6,140(sp)
   15b40:	01012603          	lw	a2,16(sp)
   15b44:	01412683          	lw	a3,20(sp)
   15b48:	000d8513          	mv	a0,s11
   15b4c:	000c0593          	mv	a1,s8
   15b50:	00180893          	addi	a7,a6,1
   15b54:	f7981ee3          	bne	a6,s9,15ad0 <__gdtoa+0xd98>
   15b58:	02812703          	lw	a4,40(sp)
   15b5c:	01812d83          	lw	s11,24(sp)
   15b60:	00098f13          	mv	t5,s3
   15b64:	7a070a63          	beqz	a4,16318 <__gdtoa+0x15e0>
   15b68:	00100793          	li	a5,1
   15b6c:	01000c93          	li	s9,16
   15b70:	1cf70ee3          	beq	a4,a5,1654c <__gdtoa+0x1814>
   15b74:	00048593          	mv	a1,s1
   15b78:	00040513          	mv	a0,s0
   15b7c:	01e12823          	sw	t5,16(sp)
   15b80:	2c8010ef          	jal	16e48 <_Bfree>
   15b84:	00812783          	lw	a5,8(sp)
   15b88:	000b0023          	sb	zero,0(s6)
   15b8c:	01012f03          	lw	t5,16(sp)
   15b90:	0177a023          	sw	s7,0(a5)
   15b94:	00c12783          	lw	a5,12(sp)
   15b98:	00078463          	beqz	a5,15ba0 <__gdtoa+0xe68>
   15b9c:	0167a023          	sw	s6,0(a5)
   15ba0:	000d2783          	lw	a5,0(s10)
   15ba4:	0c812403          	lw	s0,200(sp)
   15ba8:	0c412483          	lw	s1,196(sp)
   15bac:	0197e7b3          	or	a5,a5,s9
   15bb0:	0c012903          	lw	s2,192(sp)
   15bb4:	0bc12983          	lw	s3,188(sp)
   15bb8:	0b812a03          	lw	s4,184(sp)
   15bbc:	0b412a83          	lw	s5,180(sp)
   15bc0:	0ac12b83          	lw	s7,172(sp)
   15bc4:	0a812c03          	lw	s8,168(sp)
   15bc8:	09c12d83          	lw	s11,156(sp)
   15bcc:	00fd2023          	sw	a5,0(s10)
   15bd0:	965ff06f          	j	15534 <__gdtoa+0x7fc>
   15bd4:	e6dc1663          	bne	s8,a3,15240 <__gdtoa+0x508>
   15bd8:	004da783          	lw	a5,4(s11)
   15bdc:	00178793          	addi	a5,a5,1
   15be0:	e757d063          	bge	a5,s5,15240 <__gdtoa+0x508>
   15be4:	03012783          	lw	a5,48(sp)
   15be8:	00178793          	addi	a5,a5,1
   15bec:	02f12823          	sw	a5,48(sp)
   15bf0:	02012783          	lw	a5,32(sp)
   15bf4:	00178793          	addi	a5,a5,1
   15bf8:	02f12023          	sw	a5,32(sp)
   15bfc:	00100793          	li	a5,1
   15c00:	00f12e23          	sw	a5,28(sp)
   15c04:	e3cff06f          	j	15240 <__gdtoa+0x508>
   15c08:	00100793          	li	a5,1
   15c0c:	00000a13          	li	s4,0
   15c10:	04f12023          	sw	a5,64(sp)
   15c14:	01812583          	lw	a1,24(sp)
   15c18:	00b04463          	bgtz	a1,15c20 <__gdtoa+0xee8>
   15c1c:	00100593          	li	a1,1
   15c20:	00058693          	mv	a3,a1
   15c24:	04b12a23          	sw	a1,84(sp)
   15c28:	02b12a23          	sw	a1,52(sp)
   15c2c:	00b12c23          	sw	a1,24(sp)
   15c30:	c98ff06f          	j	150c8 <__gdtoa+0x390>
   15c34:	238010ef          	jal	16e6c <__multadd>
   15c38:	00050993          	mv	s3,a0
   15c3c:	960500e3          	beqz	a0,1559c <__gdtoa+0x864>
   15c40:	00050a13          	mv	s4,a0
   15c44:	f1cff06f          	j	15360 <__gdtoa+0x628>
   15c48:	ea0ad663          	bgez	s5,152f4 <__gdtoa+0x5bc>
   15c4c:	02812783          	lw	a5,40(sp)
   15c50:	01812f03          	lw	t5,24(sp)
   15c54:	01c12d03          	lw	s10,28(sp)
   15c58:	00070c93          	mv	s9,a4
   15c5c:	3a079ee3          	bnez	a5,16818 <__gdtoa+0x1ae0>
   15c60:	0104a683          	lw	a3,16(s1)
   15c64:	00100793          	li	a5,1
   15c68:	01000c93          	li	s9,16
   15c6c:	001c0913          	addi	s2,s8,1
   15c70:	34d7d0e3          	bge	a5,a3,167b0 <__gdtoa+0x1a78>
   15c74:	00098a93          	mv	s5,s3
   15c78:	00090b13          	mv	s6,s2
   15c7c:	01bc0023          	sb	s11,0(s8)
   15c80:	000a0993          	mv	s3,s4
   15c84:	000b8593          	mv	a1,s7
   15c88:	00040513          	mv	a0,s0
   15c8c:	01e12823          	sw	t5,16(sp)
   15c90:	1b8010ef          	jal	16e48 <_Bfree>
   15c94:	03c12783          	lw	a5,60(sp)
   15c98:	01012f03          	lw	t5,16(sp)
   15c9c:	00178b93          	addi	s7,a5,1
   15ca0:	ec098ae3          	beqz	s3,15b74 <__gdtoa+0xe3c>
   15ca4:	000a8c63          	beqz	s5,15cbc <__gdtoa+0xf84>
   15ca8:	013a8a63          	beq	s5,s3,15cbc <__gdtoa+0xf84>
   15cac:	000a8593          	mv	a1,s5
   15cb0:	00040513          	mv	a0,s0
   15cb4:	194010ef          	jal	16e48 <_Bfree>
   15cb8:	01012f03          	lw	t5,16(sp)
   15cbc:	00098593          	mv	a1,s3
   15cc0:	00040513          	mv	a0,s0
   15cc4:	01e12823          	sw	t5,16(sp)
   15cc8:	180010ef          	jal	16e48 <_Bfree>
   15ccc:	01012f03          	lw	t5,16(sp)
   15cd0:	ea5ff06f          	j	15b74 <__gdtoa+0xe3c>
   15cd4:	00048593          	mv	a1,s1
   15cd8:	00040513          	mv	a0,s0
   15cdc:	03e12223          	sw	t5,36(sp)
   15ce0:	19d010ef          	jal	1767c <__lshift>
   15ce4:	00050493          	mv	s1,a0
   15ce8:	8a050ae3          	beqz	a0,1559c <__gdtoa+0x864>
   15cec:	08c12783          	lw	a5,140(sp)
   15cf0:	02412f03          	lw	t5,36(sp)
   15cf4:	d74ff06f          	j	15268 <__gdtoa+0x530>
   15cf8:	000b8593          	mv	a1,s7
   15cfc:	00048513          	mv	a0,s1
   15d00:	03e12023          	sw	t5,32(sp)
   15d04:	309010ef          	jal	1780c <__mcmp>
   15d08:	02012f03          	lw	t5,32(sp)
   15d0c:	d6055863          	bgez	a0,1527c <__gdtoa+0x544>
   15d10:	03c12783          	lw	a5,60(sp)
   15d14:	00048593          	mv	a1,s1
   15d18:	00000693          	li	a3,0
   15d1c:	fff78793          	addi	a5,a5,-1
   15d20:	00a00613          	li	a2,10
   15d24:	00040513          	mv	a0,s0
   15d28:	02f12e23          	sw	a5,60(sp)
   15d2c:	140010ef          	jal	16e6c <__multadd>
   15d30:	00050493          	mv	s1,a0
   15d34:	860504e3          	beqz	a0,1559c <__gdtoa+0x864>
   15d38:	04012783          	lw	a5,64(sp)
   15d3c:	02012f03          	lw	t5,32(sp)
   15d40:	100792e3          	bnez	a5,16644 <__gdtoa+0x190c>
   15d44:	05412783          	lw	a5,84(sp)
   15d48:	1ef05863          	blez	a5,15f38 <__gdtoa+0x1200>
   15d4c:	02f12a23          	sw	a5,52(sp)
   15d50:	03412903          	lw	s2,52(sp)
   15d54:	000f0c13          	mv	s8,t5
   15d58:	00100793          	li	a5,1
   15d5c:	000f0a13          	mv	s4,t5
   15d60:	0180006f          	j	15d78 <__gdtoa+0x1040>
   15d64:	108010ef          	jal	16e6c <__multadd>
   15d68:	00050493          	mv	s1,a0
   15d6c:	820508e3          	beqz	a0,1559c <__gdtoa+0x864>
   15d70:	08c12783          	lw	a5,140(sp)
   15d74:	00178793          	addi	a5,a5,1
   15d78:	000b8593          	mv	a1,s7
   15d7c:	00048513          	mv	a0,s1
   15d80:	08f12623          	sw	a5,140(sp)
   15d84:	45d000ef          	jal	169e0 <__quorem_D2A>
   15d88:	03050d93          	addi	s11,a0,48
   15d8c:	01bc0023          	sb	s11,0(s8)
   15d90:	08c12783          	lw	a5,140(sp)
   15d94:	00000693          	li	a3,0
   15d98:	00a00613          	li	a2,10
   15d9c:	00048593          	mv	a1,s1
   15da0:	00040513          	mv	a0,s0
   15da4:	001c0c13          	addi	s8,s8,1
   15da8:	fb27cee3          	blt	a5,s2,15d64 <__gdtoa+0x102c>
   15dac:	000a0f13          	mv	t5,s4
   15db0:	00000a93          	li	s5,0
   15db4:	02812703          	lw	a4,40(sp)
   15db8:	48070463          	beqz	a4,16240 <__gdtoa+0x1508>
   15dbc:	00200793          	li	a5,2
   15dc0:	0104a683          	lw	a3,16(s1)
   15dc4:	4af70a63          	beq	a4,a5,16278 <__gdtoa+0x1540>
   15dc8:	00100793          	li	a5,1
   15dcc:	2ad7c263          	blt	a5,a3,16070 <__gdtoa+0x1338>
   15dd0:	0144a783          	lw	a5,20(s1)
   15dd4:	28079e63          	bnez	a5,16070 <__gdtoa+0x1338>
   15dd8:	00f037b3          	snez	a5,a5
   15ddc:	00479c93          	slli	s9,a5,0x4
   15de0:	03000693          	li	a3,48
   15de4:	fffc4783          	lbu	a5,-1(s8)
   15de8:	000c0b13          	mv	s6,s8
   15dec:	fffc0c13          	addi	s8,s8,-1
   15df0:	fed78ae3          	beq	a5,a3,15de4 <__gdtoa+0x10ac>
   15df4:	e91ff06f          	j	15c84 <__gdtoa+0xf4c>
   15df8:	03412783          	lw	a5,52(sp)
   15dfc:	03812703          	lw	a4,56(sp)
   15e00:	fff78693          	addi	a3,a5,-1
   15e04:	1ad74863          	blt	a4,a3,15fb4 <__gdtoa+0x127c>
   15e08:	40d70b33          	sub	s6,a4,a3
   15e0c:	7c07d263          	bgez	a5,165d0 <__gdtoa+0x1898>
   15e10:	03012783          	lw	a5,48(sp)
   15e14:	03412703          	lw	a4,52(sp)
   15e18:	08012623          	sw	zero,140(sp)
   15e1c:	40e78a33          	sub	s4,a5,a4
   15e20:	b68ff06f          	j	15188 <__gdtoa+0x450>
   15e24:	01012703          	lw	a4,16(sp)
   15e28:	00200793          	li	a5,2
   15e2c:	c4e7dc63          	bge	a5,a4,15284 <__gdtoa+0x54c>
   15e30:	000b8593          	mv	a1,s7
   15e34:	00000693          	li	a3,0
   15e38:	00500613          	li	a2,5
   15e3c:	00040513          	mv	a0,s0
   15e40:	01e12823          	sw	t5,16(sp)
   15e44:	028010ef          	jal	16e6c <__multadd>
   15e48:	00050593          	mv	a1,a0
   15e4c:	f4050863          	beqz	a0,1559c <__gdtoa+0x864>
   15e50:	03412783          	lw	a5,52(sp)
   15e54:	01012f03          	lw	t5,16(sp)
   15e58:	14079463          	bnez	a5,15fa0 <__gdtoa+0x1268>
   15e5c:	00a12823          	sw	a0,16(sp)
   15e60:	00048513          	mv	a0,s1
   15e64:	01e12e23          	sw	t5,28(sp)
   15e68:	1a5010ef          	jal	1780c <__mcmp>
   15e6c:	01012583          	lw	a1,16(sp)
   15e70:	01c12f03          	lw	t5,28(sp)
   15e74:	12a05663          	blez	a0,15fa0 <__gdtoa+0x1268>
   15e78:	03c12783          	lw	a5,60(sp)
   15e7c:	00278b93          	addi	s7,a5,2
   15e80:	03100793          	li	a5,49
   15e84:	001f0b13          	addi	s6,t5,1
   15e88:	00ff0023          	sb	a5,0(t5)
   15e8c:	02000c93          	li	s9,32
   15e90:	00040513          	mv	a0,s0
   15e94:	01e12823          	sw	t5,16(sp)
   15e98:	7b1000ef          	jal	16e48 <_Bfree>
   15e9c:	01012f03          	lw	t5,16(sp)
   15ea0:	cc098ae3          	beqz	s3,15b74 <__gdtoa+0xe3c>
   15ea4:	e19ff06f          	j	15cbc <__gdtoa+0xf84>
   15ea8:	00100693          	li	a3,1
   15eac:	00100593          	li	a1,1
   15eb0:	a18ff06f          	j	150c8 <__gdtoa+0x390>
   15eb4:	00050593          	mv	a1,a0
   15eb8:	00078613          	mv	a2,a5
   15ebc:	00040513          	mv	a0,s0
   15ec0:	66c010ef          	jal	1752c <__pow5mult>
   15ec4:	00050b93          	mv	s7,a0
   15ec8:	ec050a63          	beqz	a0,1559c <__gdtoa+0x864>
   15ecc:	01012783          	lw	a5,16(sp)
   15ed0:	00100693          	li	a3,1
   15ed4:	02412f03          	lw	t5,36(sp)
   15ed8:	20f6da63          	bge	a3,a5,160ec <__gdtoa+0x13b4>
   15edc:	010ba783          	lw	a5,16(s7)
   15ee0:	03e12223          	sw	t5,36(sp)
   15ee4:	00378793          	addi	a5,a5,3
   15ee8:	00279793          	slli	a5,a5,0x2
   15eec:	00fb87b3          	add	a5,s7,a5
   15ef0:	0047a503          	lw	a0,4(a5)
   15ef4:	1fc010ef          	jal	170f0 <__hi0bits>
   15ef8:	02412f03          	lw	t5,36(sp)
   15efc:	00050a93          	mv	s5,a0
   15f00:	01912e23          	sw	s9,28(sp)
   15f04:	b40ff06f          	j	15244 <__gdtoa+0x50c>
   15f08:	01012783          	lw	a5,16(sp)
   15f0c:	00100693          	li	a3,1
   15f10:	eef6c4e3          	blt	a3,a5,15df8 <__gdtoa+0x10c0>
   15f14:	03012783          	lw	a5,48(sp)
   15f18:	02012703          	lw	a4,32(sp)
   15f1c:	03812b03          	lw	s6,56(sp)
   15f20:	00078a13          	mv	s4,a5
   15f24:	00c70733          	add	a4,a4,a2
   15f28:	00f607b3          	add	a5,a2,a5
   15f2c:	02e12023          	sw	a4,32(sp)
   15f30:	02f12823          	sw	a5,48(sp)
   15f34:	a54ff06f          	j	15188 <__gdtoa+0x450>
   15f38:	01012703          	lw	a4,16(sp)
   15f3c:	00200793          	li	a5,2
   15f40:	08e7cce3          	blt	a5,a4,167d8 <__gdtoa+0x1aa0>
   15f44:	05412783          	lw	a5,84(sp)
   15f48:	02f12a23          	sw	a5,52(sp)
   15f4c:	e05ff06f          	j	15d50 <__gdtoa+0x1018>
   15f50:	01c12c83          	lw	s9,28(sp)
   15f54:	00098f13          	mv	t5,s3
   15f58:	c1dff06f          	j	15b74 <__gdtoa+0xe3c>
   15f5c:	03412783          	lw	a5,52(sp)
   15f60:	aaf04ee3          	bgtz	a5,15a1c <__gdtoa+0xce4>
   15f64:	02079a63          	bnez	a5,15f98 <__gdtoa+0x1260>
   15f68:	8501a603          	lw	a2,-1968(gp) # 1a708 <__global_locale+0x1c0>
   15f6c:	8541a683          	lw	a3,-1964(gp) # 1a70c <__global_locale+0x1c4>
   15f70:	000a0513          	mv	a0,s4
   15f74:	000a8593          	mv	a1,s5
   15f78:	01e12823          	sw	t5,16(sp)
   15f7c:	825f30ef          	jal	97a0 <__muldf3>
   15f80:	04812883          	lw	a7,72(sp)
   15f84:	00098693          	mv	a3,s3
   15f88:	00088613          	mv	a2,a7
   15f8c:	e5cf30ef          	jal	95e8 <__gedf2>
   15f90:	01012f03          	lw	t5,16(sp)
   15f94:	68054e63          	bltz	a0,16630 <__gdtoa+0x18f8>
   15f98:	00000593          	li	a1,0
   15f9c:	00000993          	li	s3,0
   15fa0:	01812783          	lw	a5,24(sp)
   15fa4:	000f0b13          	mv	s6,t5
   15fa8:	01000c93          	li	s9,16
   15fac:	40f00bb3          	neg	s7,a5
   15fb0:	ee1ff06f          	j	15e90 <__gdtoa+0x1158>
   15fb4:	03812783          	lw	a5,56(sp)
   15fb8:	03012703          	lw	a4,48(sp)
   15fbc:	00000b13          	li	s6,0
   15fc0:	40f68633          	sub	a2,a3,a5
   15fc4:	01c12783          	lw	a5,28(sp)
   15fc8:	00070a13          	mv	s4,a4
   15fcc:	02d12c23          	sw	a3,56(sp)
   15fd0:	00c787b3          	add	a5,a5,a2
   15fd4:	00f12e23          	sw	a5,28(sp)
   15fd8:	02012603          	lw	a2,32(sp)
   15fdc:	03412783          	lw	a5,52(sp)
   15fe0:	00f60633          	add	a2,a2,a5
   15fe4:	08f12623          	sw	a5,140(sp)
   15fe8:	00f707b3          	add	a5,a4,a5
   15fec:	02c12023          	sw	a2,32(sp)
   15ff0:	02f12823          	sw	a5,48(sp)
   15ff4:	994ff06f          	j	15188 <__gdtoa+0x450>
   15ff8:	00098593          	mv	a1,s3
   15ffc:	000b0613          	mv	a2,s6
   16000:	00040513          	mv	a0,s0
   16004:	03e12223          	sw	t5,36(sp)
   16008:	524010ef          	jal	1752c <__pow5mult>
   1600c:	00050993          	mv	s3,a0
   16010:	d8050663          	beqz	a0,1559c <__gdtoa+0x864>
   16014:	00050593          	mv	a1,a0
   16018:	00048613          	mv	a2,s1
   1601c:	00040513          	mv	a0,s0
   16020:	2d8010ef          	jal	172f8 <__multiply>
   16024:	00050b93          	mv	s7,a0
   16028:	d6050a63          	beqz	a0,1559c <__gdtoa+0x864>
   1602c:	00048593          	mv	a1,s1
   16030:	00040513          	mv	a0,s0
   16034:	615000ef          	jal	16e48 <_Bfree>
   16038:	03812783          	lw	a5,56(sp)
   1603c:	02412f03          	lw	t5,36(sp)
   16040:	000b8493          	mv	s1,s7
   16044:	416787b3          	sub	a5,a5,s6
   16048:	02f12c23          	sw	a5,56(sp)
   1604c:	9c078263          	beqz	a5,15210 <__gdtoa+0x4d8>
   16050:	9a0ff06f          	j	151f0 <__gdtoa+0x4b8>
   16054:	00098a93          	mv	s5,s3
   16058:	000c0793          	mv	a5,s8
   1605c:	001c0913          	addi	s2,s8,1
   16060:	000a0993          	mv	s3,s4
   16064:	03900693          	li	a3,57
   16068:	00090c13          	mv	s8,s2
   1606c:	00d78023          	sb	a3,0(a5)
   16070:	03900693          	li	a3,57
   16074:	0080006f          	j	1607c <__gdtoa+0x1344>
   16078:	218f0c63          	beq	t5,s8,16290 <__gdtoa+0x1558>
   1607c:	fffc4783          	lbu	a5,-1(s8)
   16080:	000c0b13          	mv	s6,s8
   16084:	fffc0c13          	addi	s8,s8,-1
   16088:	fed788e3          	beq	a5,a3,16078 <__gdtoa+0x1340>
   1608c:	00178793          	addi	a5,a5,1
   16090:	00fc0023          	sb	a5,0(s8)
   16094:	02000c93          	li	s9,32
   16098:	bedff06f          	j	15c84 <__gdtoa+0xf4c>
   1609c:	00098593          	mv	a1,s3
   160a0:	00040513          	mv	a0,s0
   160a4:	01e12c23          	sw	t5,24(sp)
   160a8:	5d4010ef          	jal	1767c <__lshift>
   160ac:	01812f03          	lw	t5,24(sp)
   160b0:	00050993          	mv	s3,a0
   160b4:	9e051063          	bnez	a0,15294 <__gdtoa+0x55c>
   160b8:	ce4ff06f          	j	1559c <__gdtoa+0x864>
   160bc:	00100793          	li	a5,1
   160c0:	00000a13          	li	s4,0
   160c4:	04f12023          	sw	a5,64(sp)
   160c8:	fddfe06f          	j	150a4 <__gdtoa+0x36c>
   160cc:	00100793          	li	a5,1
   160d0:	04f12023          	sw	a5,64(sp)
   160d4:	fd1fe06f          	j	150a4 <__gdtoa+0x36c>
   160d8:	00100793          	li	a5,1
   160dc:	04f12023          	sw	a5,64(sp)
   160e0:	b35ff06f          	j	15c14 <__gdtoa+0xedc>
   160e4:	04012023          	sw	zero,64(sp)
   160e8:	b2dff06f          	j	15c14 <__gdtoa+0xedc>
   160ec:	dedc18e3          	bne	s8,a3,15edc <__gdtoa+0x11a4>
   160f0:	004da783          	lw	a5,4(s11)
   160f4:	00178793          	addi	a5,a5,1
   160f8:	df57d2e3          	bge	a5,s5,15edc <__gdtoa+0x11a4>
   160fc:	03012783          	lw	a5,48(sp)
   16100:	00100c93          	li	s9,1
   16104:	00178793          	addi	a5,a5,1
   16108:	02f12823          	sw	a5,48(sp)
   1610c:	02012783          	lw	a5,32(sp)
   16110:	00178793          	addi	a5,a5,1
   16114:	02f12023          	sw	a5,32(sp)
   16118:	dc5ff06f          	j	15edc <__gdtoa+0x11a4>
   1611c:	0049a583          	lw	a1,4(s3)
   16120:	00040513          	mv	a0,s0
   16124:	01e12c23          	sw	t5,24(sp)
   16128:	46d000ef          	jal	16d94 <_Balloc>
   1612c:	00050a13          	mv	s4,a0
   16130:	c6050663          	beqz	a0,1559c <__gdtoa+0x864>
   16134:	0109a603          	lw	a2,16(s3)
   16138:	00c98593          	addi	a1,s3,12
   1613c:	00c50513          	addi	a0,a0,12
   16140:	00260613          	addi	a2,a2,2
   16144:	00261613          	slli	a2,a2,0x2
   16148:	c70fe0ef          	jal	145b8 <memcpy>
   1614c:	000a0593          	mv	a1,s4
   16150:	00100613          	li	a2,1
   16154:	00040513          	mv	a0,s0
   16158:	524010ef          	jal	1767c <__lshift>
   1615c:	01812f03          	lw	t5,24(sp)
   16160:	00050a13          	mv	s4,a0
   16164:	00050463          	beqz	a0,1616c <__gdtoa+0x1434>
   16168:	938ff06f          	j	152a0 <__gdtoa+0x568>
   1616c:	c30ff06f          	j	1559c <__gdtoa+0x864>
   16170:	000b0613          	mv	a2,s6
   16174:	00098693          	mv	a3,s3
   16178:	000b0513          	mv	a0,s6
   1617c:	00098593          	mv	a1,s3
   16180:	03e12423          	sw	t5,40(sp)
   16184:	d68f20ef          	jal	86ec <__adddf3>
   16188:	8481a603          	lw	a2,-1976(gp) # 1a700 <__global_locale+0x1b8>
   1618c:	84c1a683          	lw	a3,-1972(gp) # 1a704 <__global_locale+0x1bc>
   16190:	d5cf20ef          	jal	86ec <__adddf3>
   16194:	02812f03          	lw	t5,40(sp)
   16198:	fcc007b7          	lui	a5,0xfcc00
   1619c:	00050713          	mv	a4,a0
   161a0:	00b78a33          	add	s4,a5,a1
   161a4:	8501a603          	lw	a2,-1968(gp) # 1a708 <__global_locale+0x1c0>
   161a8:	04412503          	lw	a0,68(sp)
   161ac:	8541a683          	lw	a3,-1964(gp) # 1a70c <__global_locale+0x1c4>
   161b0:	05812583          	lw	a1,88(sp)
   161b4:	03e12423          	sw	t5,40(sp)
   161b8:	04e12423          	sw	a4,72(sp)
   161bc:	bd5f30ef          	jal	9d90 <__subdf3>
   161c0:	04812703          	lw	a4,72(sp)
   161c4:	000a0693          	mv	a3,s4
   161c8:	00050993          	mv	s3,a0
   161cc:	00070613          	mv	a2,a4
   161d0:	00058b13          	mv	s6,a1
   161d4:	c14f30ef          	jal	95e8 <__gedf2>
   161d8:	02812f03          	lw	t5,40(sp)
   161dc:	40a04c63          	bgtz	a0,165f4 <__gdtoa+0x18bc>
   161e0:	04812703          	lw	a4,72(sp)
   161e4:	800008b7          	lui	a7,0x80000
   161e8:	0148c8b3          	xor	a7,a7,s4
   161ec:	00070613          	mv	a2,a4
   161f0:	00098513          	mv	a0,s3
   161f4:	00088693          	mv	a3,a7
   161f8:	000b0593          	mv	a1,s6
   161fc:	cc8f30ef          	jal	96c4 <__ledf2>
   16200:	02812f03          	lw	t5,40(sp)
   16204:	d8054ae3          	bltz	a0,15f98 <__gdtoa+0x1260>
   16208:	04412783          	lw	a5,68(sp)
   1620c:	02412703          	lw	a4,36(sp)
   16210:	05812983          	lw	s3,88(sp)
   16214:	04f12423          	sw	a5,72(sp)
   16218:	0001a7b7          	lui	a5,0x1a
   1621c:	4e074a63          	bltz	a4,16710 <__gdtoa+0x19d8>
   16220:	c287aa03          	lw	s4,-984(a5) # 19c28 <__mprec_tens>
   16224:	c2c7aa83          	lw	s5,-980(a5)
   16228:	01812783          	lw	a5,24(sp)
   1622c:	02012423          	sw	zero,40(sp)
   16230:	fe07d663          	bgez	a5,15a1c <__gdtoa+0xce4>
   16234:	03412783          	lw	a5,52(sp)
   16238:	fe079263          	bnez	a5,15a1c <__gdtoa+0xce4>
   1623c:	d2dff06f          	j	15f68 <__gdtoa+0x1230>
   16240:	00048593          	mv	a1,s1
   16244:	00100613          	li	a2,1
   16248:	00040513          	mv	a0,s0
   1624c:	01e12823          	sw	t5,16(sp)
   16250:	42c010ef          	jal	1767c <__lshift>
   16254:	00050493          	mv	s1,a0
   16258:	b4050263          	beqz	a0,1559c <__gdtoa+0x864>
   1625c:	000b8593          	mv	a1,s7
   16260:	5ac010ef          	jal	1780c <__mcmp>
   16264:	01012f03          	lw	t5,16(sp)
   16268:	e0a044e3          	bgtz	a0,16070 <__gdtoa+0x1338>
   1626c:	00051663          	bnez	a0,16278 <__gdtoa+0x1540>
   16270:	001dfd93          	andi	s11,s11,1
   16274:	de0d9ee3          	bnez	s11,16070 <__gdtoa+0x1338>
   16278:	0104a683          	lw	a3,16(s1)
   1627c:	00100793          	li	a5,1
   16280:	01000c93          	li	s9,16
   16284:	b4d7cee3          	blt	a5,a3,15de0 <__gdtoa+0x10a8>
   16288:	0144a783          	lw	a5,20(s1)
   1628c:	b4dff06f          	j	15dd8 <__gdtoa+0x10a0>
   16290:	03c12783          	lw	a5,60(sp)
   16294:	02000c93          	li	s9,32
   16298:	00178793          	addi	a5,a5,1
   1629c:	02f12e23          	sw	a5,60(sp)
   162a0:	03100793          	li	a5,49
   162a4:	00ff0023          	sb	a5,0(t5)
   162a8:	9ddff06f          	j	15c84 <__gdtoa+0xf4c>
   162ac:	02812783          	lw	a5,40(sp)
   162b0:	01812f03          	lw	t5,24(sp)
   162b4:	01c12d03          	lw	s10,28(sp)
   162b8:	00078e63          	beqz	a5,162d4 <__gdtoa+0x159c>
   162bc:	0104a683          	lw	a3,16(s1)
   162c0:	00100793          	li	a5,1
   162c4:	94d7ca63          	blt	a5,a3,15418 <__gdtoa+0x6e0>
   162c8:	0144a783          	lw	a5,20(s1)
   162cc:	00078463          	beqz	a5,162d4 <__gdtoa+0x159c>
   162d0:	948ff06f          	j	15418 <__gdtoa+0x6e0>
   162d4:	00048593          	mv	a1,s1
   162d8:	00100613          	li	a2,1
   162dc:	00040513          	mv	a0,s0
   162e0:	01e12823          	sw	t5,16(sp)
   162e4:	398010ef          	jal	1767c <__lshift>
   162e8:	00050493          	mv	s1,a0
   162ec:	aa050863          	beqz	a0,1559c <__gdtoa+0x864>
   162f0:	000b8593          	mv	a1,s7
   162f4:	518010ef          	jal	1780c <__mcmp>
   162f8:	01012f03          	lw	t5,16(sp)
   162fc:	4ca05263          	blez	a0,167c0 <__gdtoa+0x1a88>
   16300:	03900793          	li	a5,57
   16304:	d4fd88e3          	beq	s11,a5,16054 <__gdtoa+0x131c>
   16308:	02000793          	li	a5,32
   1630c:	031b0d93          	addi	s11,s6,49
   16310:	02f12423          	sw	a5,40(sp)
   16314:	94dff06f          	j	15c60 <__gdtoa+0xf28>
   16318:	00050613          	mv	a2,a0
   1631c:	00058693          	mv	a3,a1
   16320:	01e12823          	sw	t5,16(sp)
   16324:	bc8f20ef          	jal	86ec <__adddf3>
   16328:	000a0613          	mv	a2,s4
   1632c:	000a8693          	mv	a3,s5
   16330:	00050c13          	mv	s8,a0
   16334:	00058993          	mv	s3,a1
   16338:	ab0f30ef          	jal	95e8 <__gedf2>
   1633c:	fffb4b83          	lbu	s7,-1(s6)
   16340:	01012f03          	lw	t5,16(sp)
   16344:	dea04863          	bgtz	a0,15934 <__gdtoa+0xbfc>
   16348:	000c0513          	mv	a0,s8
   1634c:	00098593          	mv	a1,s3
   16350:	000a0613          	mv	a2,s4
   16354:	000a8693          	mv	a3,s5
   16358:	a04f30ef          	jal	955c <__eqdf2>
   1635c:	01012f03          	lw	t5,16(sp)
   16360:	00051663          	bnez	a0,1636c <__gdtoa+0x1634>
   16364:	00197913          	andi	s2,s2,1
   16368:	dc091663          	bnez	s2,15934 <__gdtoa+0xbfc>
   1636c:	000b0793          	mv	a5,s6
   16370:	01000c93          	li	s9,16
   16374:	03000613          	li	a2,48
   16378:	fff7c703          	lbu	a4,-1(a5)
   1637c:	00078b13          	mv	s6,a5
   16380:	fff78793          	addi	a5,a5,-1
   16384:	fec70ae3          	beq	a4,a2,16378 <__gdtoa+0x1640>
   16388:	000d8b93          	mv	s7,s11
   1638c:	fe8ff06f          	j	15b74 <__gdtoa+0xe3c>
   16390:	03100693          	li	a3,49
   16394:	001d8d93          	addi	s11,s11,1
   16398:	dc0ff06f          	j	15958 <__gdtoa+0xc20>
   1639c:	00070513          	mv	a0,a4
   163a0:	000a0593          	mv	a1,s4
   163a4:	06f12e23          	sw	a5,124(sp)
   163a8:	07e12823          	sw	t5,112(sp)
   163ac:	bf4f30ef          	jal	97a0 <__muldf3>
   163b0:	8381a783          	lw	a5,-1992(gp) # 1a6f0 <__global_locale+0x1a8>
   163b4:	07012f03          	lw	t5,112(sp)
   163b8:	83c1a803          	lw	a6,-1988(gp) # 1a6f4 <__global_locale+0x1ac>
   163bc:	04812603          	lw	a2,72(sp)
   163c0:	02f12423          	sw	a5,40(sp)
   163c4:	07c12783          	lw	a5,124(sp)
   163c8:	06b12623          	sw	a1,108(sp)
   163cc:	00000693          	li	a3,0
   163d0:	00100593          	li	a1,1
   163d4:	06912823          	sw	s1,112(sp)
   163d8:	06812a23          	sw	s0,116(sp)
   163dc:	05c12483          	lw	s1,92(sp)
   163e0:	07212c23          	sw	s2,120(sp)
   163e4:	03012623          	sw	a6,44(sp)
   163e8:	06a12423          	sw	a0,104(sp)
   163ec:	08b12623          	sw	a1,140(sp)
   163f0:	07312223          	sw	s3,100(sp)
   163f4:	000f0b13          	mv	s6,t5
   163f8:	05e12e23          	sw	t5,92(sp)
   163fc:	00068413          	mv	s0,a3
   16400:	00078b93          	mv	s7,a5
   16404:	00060913          	mv	s2,a2
   16408:	0180006f          	j	16420 <__gdtoa+0x16e8>
   1640c:	08612623          	sw	t1,140(sp)
   16410:	b90f30ef          	jal	97a0 <__muldf3>
   16414:	00050913          	mv	s2,a0
   16418:	00058993          	mv	s3,a1
   1641c:	00100413          	li	s0,1
   16420:	00090513          	mv	a0,s2
   16424:	00098593          	mv	a1,s3
   16428:	910f40ef          	jal	a538 <__fixdfsi>
   1642c:	00050a13          	mv	s4,a0
   16430:	02050463          	beqz	a0,16458 <__gdtoa+0x1720>
   16434:	984f40ef          	jal	a5b8 <__floatsidf>
   16438:	00050613          	mv	a2,a0
   1643c:	00058693          	mv	a3,a1
   16440:	00090513          	mv	a0,s2
   16444:	00098593          	mv	a1,s3
   16448:	949f30ef          	jal	9d90 <__subdf3>
   1644c:	00050913          	mv	s2,a0
   16450:	00058993          	mv	s3,a1
   16454:	00100413          	li	s0,1
   16458:	030a0793          	addi	a5,s4,48
   1645c:	001b0b13          	addi	s6,s6,1
   16460:	0ff7f793          	zext.b	a5,a5
   16464:	fefb0fa3          	sb	a5,-1(s6)
   16468:	08c12883          	lw	a7,140(sp)
   1646c:	02812603          	lw	a2,40(sp)
   16470:	02c12683          	lw	a3,44(sp)
   16474:	00090513          	mv	a0,s2
   16478:	00098593          	mv	a1,s3
   1647c:	00188313          	addi	t1,a7,1 # 80000001 <_end+0x7ffe2d9d>
   16480:	f89896e3          	bne	a7,s1,1640c <__gdtoa+0x16d4>
   16484:	000b8713          	mv	a4,s7
   16488:	00040693          	mv	a3,s0
   1648c:	00078b93          	mv	s7,a5
   16490:	07012483          	lw	s1,112(sp)
   16494:	05c12f03          	lw	t5,92(sp)
   16498:	07412403          	lw	s0,116(sp)
   1649c:	07812903          	lw	s2,120(sp)
   164a0:	00070793          	mv	a5,a4
   164a4:	00068663          	beqz	a3,164b0 <__gdtoa+0x1778>
   164a8:	04a12423          	sw	a0,72(sp)
   164ac:	07312223          	sw	s3,100(sp)
   164b0:	8581a603          	lw	a2,-1960(gp) # 1a710 <__global_locale+0x1c8>
   164b4:	85c1a683          	lw	a3,-1956(gp) # 1a714 <__global_locale+0x1cc>
   164b8:	06812503          	lw	a0,104(sp)
   164bc:	06c12583          	lw	a1,108(sp)
   164c0:	03e12423          	sw	t5,40(sp)
   164c4:	04f12e23          	sw	a5,92(sp)
   164c8:	a24f20ef          	jal	86ec <__adddf3>
   164cc:	06412a03          	lw	s4,100(sp)
   164d0:	04812603          	lw	a2,72(sp)
   164d4:	000a0693          	mv	a3,s4
   164d8:	9ecf30ef          	jal	96c4 <__ledf2>
   164dc:	02812f03          	lw	t5,40(sp)
   164e0:	1e054663          	bltz	a0,166cc <__gdtoa+0x1994>
   164e4:	06812603          	lw	a2,104(sp)
   164e8:	06c12683          	lw	a3,108(sp)
   164ec:	8581a503          	lw	a0,-1960(gp) # 1a710 <__global_locale+0x1c8>
   164f0:	85c1a583          	lw	a1,-1956(gp) # 1a714 <__global_locale+0x1cc>
   164f4:	89df30ef          	jal	9d90 <__subdf3>
   164f8:	04812603          	lw	a2,72(sp)
   164fc:	000a0693          	mv	a3,s4
   16500:	8e8f30ef          	jal	95e8 <__gedf2>
   16504:	02812f03          	lw	t5,40(sp)
   16508:	05c12783          	lw	a5,92(sp)
   1650c:	26a04863          	bgtz	a0,1677c <__gdtoa+0x1a44>
   16510:	04412703          	lw	a4,68(sp)
   16514:	05812983          	lw	s3,88(sp)
   16518:	04e12423          	sw	a4,72(sp)
   1651c:	02412703          	lw	a4,36(sp)
   16520:	d00750e3          	bgez	a4,16220 <__gdtoa+0x14e8>
   16524:	03812b03          	lw	s6,56(sp)
   16528:	03012a03          	lw	s4,48(sp)
   1652c:	02012423          	sw	zero,40(sp)
   16530:	00000993          	li	s3,0
   16534:	c71fe06f          	j	151a4 <__gdtoa+0x46c>
   16538:	00098a93          	mv	s5,s3
   1653c:	01812f03          	lw	t5,24(sp)
   16540:	01c12d03          	lw	s10,28(sp)
   16544:	000a0993          	mv	s3,s4
   16548:	86dff06f          	j	15db4 <__gdtoa+0x107c>
   1654c:	fffb4b83          	lbu	s7,-1(s6)
   16550:	be4ff06f          	j	15934 <__gdtoa+0xbfc>
   16554:	03412783          	lw	a5,52(sp)
   16558:	c0078ce3          	beqz	a5,16170 <__gdtoa+0x1438>
   1655c:	05412783          	lw	a5,84(sp)
   16560:	caf054e3          	blez	a5,16208 <__gdtoa+0x14d0>
   16564:	8381a603          	lw	a2,-1992(gp) # 1a6f0 <__global_locale+0x1a8>
   16568:	83c1a683          	lw	a3,-1988(gp) # 1a6f4 <__global_locale+0x1ac>
   1656c:	00098593          	mv	a1,s3
   16570:	000b0513          	mv	a0,s6
   16574:	07e12423          	sw	t5,104(sp)
   16578:	a28f30ef          	jal	97a0 <__muldf3>
   1657c:	8401a603          	lw	a2,-1984(gp) # 1a6f8 <__global_locale+0x1b0>
   16580:	8441a683          	lw	a3,-1980(gp) # 1a6fc <__global_locale+0x1b4>
   16584:	00058993          	mv	s3,a1
   16588:	04a12423          	sw	a0,72(sp)
   1658c:	06a12223          	sw	a0,100(sp)
   16590:	02b12423          	sw	a1,40(sp)
   16594:	a0cf30ef          	jal	97a0 <__muldf3>
   16598:	8481a603          	lw	a2,-1976(gp) # 1a700 <__global_locale+0x1b8>
   1659c:	84c1a683          	lw	a3,-1972(gp) # 1a704 <__global_locale+0x1bc>
   165a0:	94cf20ef          	jal	86ec <__adddf3>
   165a4:	fcc007b7          	lui	a5,0xfcc00
   165a8:	00b78a33          	add	s4,a5,a1
   165ac:	05412783          	lw	a5,84(sp)
   165b0:	06412e83          	lw	t4,100(sp)
   165b4:	06812f03          	lw	t5,104(sp)
   165b8:	04f12e23          	sw	a5,92(sp)
   165bc:	fff00793          	li	a5,-1
   165c0:	00050713          	mv	a4,a0
   165c4:	06f12023          	sw	a5,96(sp)
   165c8:	00098813          	mv	a6,s3
   165cc:	96cff06f          	j	15738 <__gdtoa+0xa00>
   165d0:	03012703          	lw	a4,48(sp)
   165d4:	02012683          	lw	a3,32(sp)
   165d8:	08f12623          	sw	a5,140(sp)
   165dc:	00070a13          	mv	s4,a4
   165e0:	00f686b3          	add	a3,a3,a5
   165e4:	00f707b3          	add	a5,a4,a5
   165e8:	02d12023          	sw	a3,32(sp)
   165ec:	02f12823          	sw	a5,48(sp)
   165f0:	b99fe06f          	j	15188 <__gdtoa+0x450>
   165f4:	00200b93          	li	s7,2
   165f8:	00000593          	li	a1,0
   165fc:	00000993          	li	s3,0
   16600:	881ff06f          	j	15e80 <__gdtoa+0x1148>
   16604:	03900793          	li	a5,57
   16608:	01812f03          	lw	t5,24(sp)
   1660c:	01c12d03          	lw	s10,28(sp)
   16610:	a4fd82e3          	beq	s11,a5,16054 <__gdtoa+0x131c>
   16614:	001d8d93          	addi	s11,s11,1
   16618:	00098a93          	mv	s5,s3
   1661c:	001c0b13          	addi	s6,s8,1
   16620:	01bc0023          	sb	s11,0(s8)
   16624:	000a0993          	mv	s3,s4
   16628:	02000c93          	li	s9,32
   1662c:	e58ff06f          	j	15c84 <__gdtoa+0xf4c>
   16630:	03c12783          	lw	a5,60(sp)
   16634:	00000593          	li	a1,0
   16638:	00000993          	li	s3,0
   1663c:	00278b93          	addi	s7,a5,2 # fcc00002 <_end+0xfcbe2d9e>
   16640:	841ff06f          	j	15e80 <__gdtoa+0x1148>
   16644:	00098593          	mv	a1,s3
   16648:	00000693          	li	a3,0
   1664c:	00a00613          	li	a2,10
   16650:	00040513          	mv	a0,s0
   16654:	019000ef          	jal	16e6c <__multadd>
   16658:	00050993          	mv	s3,a0
   1665c:	00051463          	bnez	a0,16664 <__gdtoa+0x192c>
   16660:	f3dfe06f          	j	1559c <__gdtoa+0x864>
   16664:	05412783          	lw	a5,84(sp)
   16668:	02012f03          	lw	t5,32(sp)
   1666c:	00f05663          	blez	a5,16678 <__gdtoa+0x1940>
   16670:	02f12a23          	sw	a5,52(sp)
   16674:	c19fe06f          	j	1528c <__gdtoa+0x554>
   16678:	01012703          	lw	a4,16(sp)
   1667c:	00200793          	li	a5,2
   16680:	14e7cc63          	blt	a5,a4,167d8 <__gdtoa+0x1aa0>
   16684:	05412783          	lw	a5,84(sp)
   16688:	02f12a23          	sw	a5,52(sp)
   1668c:	c01fe06f          	j	1528c <__gdtoa+0x554>
   16690:	06412483          	lw	s1,100(sp)
   16694:	05c12f03          	lw	t5,92(sp)
   16698:	06812403          	lw	s0,104(sp)
   1669c:	000a0513          	mv	a0,s4
   166a0:	00098593          	mv	a1,s3
   166a4:	00000613          	li	a2,0
   166a8:	00000693          	li	a3,0
   166ac:	01e12823          	sw	t5,16(sp)
   166b0:	eadf20ef          	jal	955c <__eqdf2>
   166b4:	00a037b3          	snez	a5,a0
   166b8:	00479c93          	slli	s9,a5,0x4
   166bc:	06012783          	lw	a5,96(sp)
   166c0:	01012f03          	lw	t5,16(sp)
   166c4:	00178b93          	addi	s7,a5,1
   166c8:	cacff06f          	j	15b74 <__gdtoa+0xe3c>
   166cc:	06012783          	lw	a5,96(sp)
   166d0:	00178d93          	addi	s11,a5,1
   166d4:	a60ff06f          	j	15934 <__gdtoa+0xbfc>
   166d8:	03412783          	lw	a5,52(sp)
   166dc:	03812703          	lw	a4,56(sp)
   166e0:	fff78693          	addi	a3,a5,-1
   166e4:	8cd748e3          	blt	a4,a3,15fb4 <__gdtoa+0x127c>
   166e8:	03012583          	lw	a1,48(sp)
   166ec:	02012603          	lw	a2,32(sp)
   166f0:	08f12623          	sw	a5,140(sp)
   166f4:	00058a13          	mv	s4,a1
   166f8:	00f60633          	add	a2,a2,a5
   166fc:	00f587b3          	add	a5,a1,a5
   16700:	02c12023          	sw	a2,32(sp)
   16704:	40d70b33          	sub	s6,a4,a3
   16708:	02f12823          	sw	a5,48(sp)
   1670c:	a7dfe06f          	j	15188 <__gdtoa+0x450>
   16710:	02012423          	sw	zero,40(sp)
   16714:	9f9fe06f          	j	1510c <__gdtoa+0x3d4>
   16718:	04412703          	lw	a4,68(sp)
   1671c:	06412483          	lw	s1,100(sp)
   16720:	07412b83          	lw	s7,116(sp)
   16724:	04e12423          	sw	a4,72(sp)
   16728:	02412703          	lw	a4,36(sp)
   1672c:	07812c03          	lw	s8,120(sp)
   16730:	05c12f03          	lw	t5,92(sp)
   16734:	06812403          	lw	s0,104(sp)
   16738:	07c12783          	lw	a5,124(sp)
   1673c:	05812983          	lw	s3,88(sp)
   16740:	ae0750e3          	bgez	a4,16220 <__gdtoa+0x14e8>
   16744:	02012423          	sw	zero,40(sp)
   16748:	9cdfe06f          	j	15114 <__gdtoa+0x3dc>
   1674c:	03900793          	li	a5,57
   16750:	01812f03          	lw	t5,24(sp)
   16754:	01c12d03          	lw	s10,28(sp)
   16758:	8efd8ee3          	beq	s11,a5,16054 <__gdtoa+0x131c>
   1675c:	0f505063          	blez	s5,1683c <__gdtoa+0x1b04>
   16760:	031b0d93          	addi	s11,s6,49
   16764:	02000c93          	li	s9,32
   16768:	00098a93          	mv	s5,s3
   1676c:	001c0b13          	addi	s6,s8,1
   16770:	01bc0023          	sb	s11,0(s8)
   16774:	000a0993          	mv	s3,s4
   16778:	d0cff06f          	j	15c84 <__gdtoa+0xf4c>
   1677c:	04812503          	lw	a0,72(sp)
   16780:	000a0593          	mv	a1,s4
   16784:	00000613          	li	a2,0
   16788:	00000693          	li	a3,0
   1678c:	01e12823          	sw	t5,16(sp)
   16790:	dcdf20ef          	jal	955c <__eqdf2>
   16794:	06012703          	lw	a4,96(sp)
   16798:	00a037b3          	snez	a5,a0
   1679c:	00479c93          	slli	s9,a5,0x4
   167a0:	01012f03          	lw	t5,16(sp)
   167a4:	000b0793          	mv	a5,s6
   167a8:	00170d93          	addi	s11,a4,1
   167ac:	bc9ff06f          	j	16374 <__gdtoa+0x163c>
   167b0:	0144a783          	lw	a5,20(s1)
   167b4:	cc079063          	bnez	a5,15c74 <__gdtoa+0xf3c>
   167b8:	02812c83          	lw	s9,40(sp)
   167bc:	cb8ff06f          	j	15c74 <__gdtoa+0xf3c>
   167c0:	00051663          	bnez	a0,167cc <__gdtoa+0x1a94>
   167c4:	001df793          	andi	a5,s11,1
   167c8:	b2079ce3          	bnez	a5,16300 <__gdtoa+0x15c8>
   167cc:	02000793          	li	a5,32
   167d0:	02f12423          	sw	a5,40(sp)
   167d4:	c8cff06f          	j	15c60 <__gdtoa+0xf28>
   167d8:	05412783          	lw	a5,84(sp)
   167dc:	02f12a23          	sw	a5,52(sp)
   167e0:	e50ff06f          	j	15e30 <__gdtoa+0x10f8>
   167e4:	03900793          	li	a5,57
   167e8:	000b0f13          	mv	t5,s6
   167ec:	00fd8e63          	beq	s11,a5,16808 <__gdtoa+0x1ad0>
   167f0:	001d8d93          	addi	s11,s11,1
   167f4:	02000c93          	li	s9,32
   167f8:	c7cff06f          	j	15c74 <__gdtoa+0xf3c>
   167fc:	01000c93          	li	s9,16
   16800:	001c0913          	addi	s2,s8,1
   16804:	c70ff06f          	j	15c74 <__gdtoa+0xf3c>
   16808:	00098a93          	mv	s5,s3
   1680c:	000c0793          	mv	a5,s8
   16810:	000a0993          	mv	s3,s4
   16814:	851ff06f          	j	16064 <__gdtoa+0x132c>
   16818:	0104a683          	lw	a3,16(s1)
   1681c:	00100793          	li	a5,1
   16820:	00d7d463          	bge	a5,a3,16828 <__gdtoa+0x1af0>
   16824:	bf5fe06f          	j	15418 <__gdtoa+0x6e0>
   16828:	0144a783          	lw	a5,20(s1)
   1682c:	00078463          	beqz	a5,16834 <__gdtoa+0x1afc>
   16830:	be9fe06f          	j	15418 <__gdtoa+0x6e0>
   16834:	001c0913          	addi	s2,s8,1
   16838:	c3cff06f          	j	15c74 <__gdtoa+0xf3c>
   1683c:	0104a683          	lw	a3,16(s1)
   16840:	00100793          	li	a5,1
   16844:	01000c93          	li	s9,16
   16848:	f2d7c0e3          	blt	a5,a3,16768 <__gdtoa+0x1a30>
   1684c:	0144a783          	lw	a5,20(s1)
   16850:	00f037b3          	snez	a5,a5
   16854:	00479c93          	slli	s9,a5,0x4
   16858:	f11ff06f          	j	16768 <__gdtoa+0x1a30>
   1685c:	020ac263          	bltz	s5,16880 <__gdtoa+0x1b48>
   16860:	015ceab3          	or	s5,s9,s5
   16864:	000a9863          	bnez	s5,16874 <__gdtoa+0x1b3c>
   16868:	00092703          	lw	a4,0(s2)
   1686c:	00177713          	andi	a4,a4,1
   16870:	00070863          	beqz	a4,16880 <__gdtoa+0x1b48>
   16874:	00f04463          	bgtz	a5,1687c <__gdtoa+0x1b44>
   16878:	a7dfe06f          	j	152f4 <__gdtoa+0x5bc>
   1687c:	a69fe06f          	j	152e4 <__gdtoa+0x5ac>
   16880:	02812703          	lw	a4,40(sp)
   16884:	01812f03          	lw	t5,24(sp)
   16888:	01c12d03          	lw	s10,28(sp)
   1688c:	02070863          	beqz	a4,168bc <__gdtoa+0x1b84>
   16890:	0104a603          	lw	a2,16(s1)
   16894:	00100693          	li	a3,1
   16898:	00c6d463          	bge	a3,a2,168a0 <__gdtoa+0x1b68>
   1689c:	b7dfe06f          	j	15418 <__gdtoa+0x6e0>
   168a0:	0144a683          	lw	a3,20(s1)
   168a4:	00068463          	beqz	a3,168ac <__gdtoa+0x1b74>
   168a8:	b71fe06f          	j	15418 <__gdtoa+0x6e0>
   168ac:	a2f044e3          	bgtz	a5,162d4 <__gdtoa+0x159c>
   168b0:	00000c93          	li	s9,0
   168b4:	001c0913          	addi	s2,s8,1
   168b8:	bbcff06f          	j	15c74 <__gdtoa+0xf3c>
   168bc:	baf05263          	blez	a5,15c60 <__gdtoa+0xf28>
   168c0:	a15ff06f          	j	162d4 <__gdtoa+0x159c>

000168c4 <__rv_alloc_D2A>:
   168c4:	ff010113          	addi	sp,sp,-16
   168c8:	00812423          	sw	s0,8(sp)
   168cc:	00112623          	sw	ra,12(sp)
   168d0:	01300793          	li	a5,19
   168d4:	00000413          	li	s0,0
   168d8:	00b7fc63          	bgeu	a5,a1,168f0 <__rv_alloc_D2A+0x2c>
   168dc:	00400793          	li	a5,4
   168e0:	00179793          	slli	a5,a5,0x1
   168e4:	01078713          	addi	a4,a5,16
   168e8:	00140413          	addi	s0,s0,1
   168ec:	fee5fae3          	bgeu	a1,a4,168e0 <__rv_alloc_D2A+0x1c>
   168f0:	00040593          	mv	a1,s0
   168f4:	4a0000ef          	jal	16d94 <_Balloc>
   168f8:	00050663          	beqz	a0,16904 <__rv_alloc_D2A+0x40>
   168fc:	00852023          	sw	s0,0(a0)
   16900:	00450513          	addi	a0,a0,4
   16904:	00c12083          	lw	ra,12(sp)
   16908:	00812403          	lw	s0,8(sp)
   1690c:	01010113          	addi	sp,sp,16
   16910:	00008067          	ret

00016914 <__nrv_alloc_D2A>:
   16914:	ff010113          	addi	sp,sp,-16
   16918:	00812423          	sw	s0,8(sp)
   1691c:	01212023          	sw	s2,0(sp)
   16920:	00112623          	sw	ra,12(sp)
   16924:	00912223          	sw	s1,4(sp)
   16928:	01300793          	li	a5,19
   1692c:	00058413          	mv	s0,a1
   16930:	00060913          	mv	s2,a2
   16934:	06d7fe63          	bgeu	a5,a3,169b0 <__nrv_alloc_D2A+0x9c>
   16938:	00400793          	li	a5,4
   1693c:	00000493          	li	s1,0
   16940:	00179793          	slli	a5,a5,0x1
   16944:	01078713          	addi	a4,a5,16
   16948:	00148493          	addi	s1,s1,1
   1694c:	fee6fae3          	bgeu	a3,a4,16940 <__nrv_alloc_D2A+0x2c>
   16950:	00048593          	mv	a1,s1
   16954:	440000ef          	jal	16d94 <_Balloc>
   16958:	00050793          	mv	a5,a0
   1695c:	04050e63          	beqz	a0,169b8 <__nrv_alloc_D2A+0xa4>
   16960:	00952023          	sw	s1,0(a0)
   16964:	00044703          	lbu	a4,0(s0)
   16968:	00450513          	addi	a0,a0,4
   1696c:	00140593          	addi	a1,s0,1
   16970:	00e78223          	sb	a4,4(a5)
   16974:	00050793          	mv	a5,a0
   16978:	00070c63          	beqz	a4,16990 <__nrv_alloc_D2A+0x7c>
   1697c:	0005c703          	lbu	a4,0(a1)
   16980:	00178793          	addi	a5,a5,1
   16984:	00158593          	addi	a1,a1,1
   16988:	00e78023          	sb	a4,0(a5)
   1698c:	fe0718e3          	bnez	a4,1697c <__nrv_alloc_D2A+0x68>
   16990:	00090463          	beqz	s2,16998 <__nrv_alloc_D2A+0x84>
   16994:	00f92023          	sw	a5,0(s2)
   16998:	00c12083          	lw	ra,12(sp)
   1699c:	00812403          	lw	s0,8(sp)
   169a0:	00412483          	lw	s1,4(sp)
   169a4:	00012903          	lw	s2,0(sp)
   169a8:	01010113          	addi	sp,sp,16
   169ac:	00008067          	ret
   169b0:	00000493          	li	s1,0
   169b4:	f9dff06f          	j	16950 <__nrv_alloc_D2A+0x3c>
   169b8:	00000513          	li	a0,0
   169bc:	fddff06f          	j	16998 <__nrv_alloc_D2A+0x84>

000169c0 <__freedtoa>:
   169c0:	ffc5a683          	lw	a3,-4(a1)
   169c4:	00100713          	li	a4,1
   169c8:	00058793          	mv	a5,a1
   169cc:	00d71733          	sll	a4,a4,a3
   169d0:	ffc58593          	addi	a1,a1,-4
   169d4:	00d7a023          	sw	a3,0(a5)
   169d8:	00e7a223          	sw	a4,4(a5)
   169dc:	46c0006f          	j	16e48 <_Bfree>

000169e0 <__quorem_D2A>:
   169e0:	fe010113          	addi	sp,sp,-32
   169e4:	00912a23          	sw	s1,20(sp)
   169e8:	01052783          	lw	a5,16(a0)
   169ec:	0105a483          	lw	s1,16(a1)
   169f0:	00112e23          	sw	ra,28(sp)
   169f4:	1c97c863          	blt	a5,s1,16bc4 <__quorem_D2A+0x1e4>
   169f8:	fff48493          	addi	s1,s1,-1
   169fc:	00249313          	slli	t1,s1,0x2
   16a00:	00812c23          	sw	s0,24(sp)
   16a04:	01458413          	addi	s0,a1,20
   16a08:	01312623          	sw	s3,12(sp)
   16a0c:	01412423          	sw	s4,8(sp)
   16a10:	006409b3          	add	s3,s0,t1
   16a14:	01450a13          	addi	s4,a0,20
   16a18:	0009a783          	lw	a5,0(s3)
   16a1c:	006a0333          	add	t1,s4,t1
   16a20:	00032703          	lw	a4,0(t1)
   16a24:	01212823          	sw	s2,16(sp)
   16a28:	01512223          	sw	s5,4(sp)
   16a2c:	00178793          	addi	a5,a5,1
   16a30:	02f75933          	divu	s2,a4,a5
   16a34:	00050a93          	mv	s5,a0
   16a38:	0af76e63          	bltu	a4,a5,16af4 <__quorem_D2A+0x114>
   16a3c:	00010537          	lui	a0,0x10
   16a40:	00040893          	mv	a7,s0
   16a44:	000a0813          	mv	a6,s4
   16a48:	00000f13          	li	t5,0
   16a4c:	00000e93          	li	t4,0
   16a50:	fff50513          	addi	a0,a0,-1 # ffff <_vfprintf_r+0xc13>
   16a54:	0008a783          	lw	a5,0(a7)
   16a58:	00082603          	lw	a2,0(a6)
   16a5c:	00480813          	addi	a6,a6,4
   16a60:	00a7f6b3          	and	a3,a5,a0
   16a64:	0107d793          	srli	a5,a5,0x10
   16a68:	00a67733          	and	a4,a2,a0
   16a6c:	01065e13          	srli	t3,a2,0x10
   16a70:	00488893          	addi	a7,a7,4
   16a74:	032686b3          	mul	a3,a3,s2
   16a78:	032787b3          	mul	a5,a5,s2
   16a7c:	01e686b3          	add	a3,a3,t5
   16a80:	00a6f633          	and	a2,a3,a0
   16a84:	40c70733          	sub	a4,a4,a2
   16a88:	41d70733          	sub	a4,a4,t4
   16a8c:	0106d693          	srli	a3,a3,0x10
   16a90:	01075613          	srli	a2,a4,0x10
   16a94:	00167613          	andi	a2,a2,1
   16a98:	00a77733          	and	a4,a4,a0
   16a9c:	00d787b3          	add	a5,a5,a3
   16aa0:	00a7f6b3          	and	a3,a5,a0
   16aa4:	00d60633          	add	a2,a2,a3
   16aa8:	40ce06b3          	sub	a3,t3,a2
   16aac:	01069613          	slli	a2,a3,0x10
   16ab0:	00e66733          	or	a4,a2,a4
   16ab4:	0106d693          	srli	a3,a3,0x10
   16ab8:	fee82e23          	sw	a4,-4(a6)
   16abc:	0107df13          	srli	t5,a5,0x10
   16ac0:	0016fe93          	andi	t4,a3,1
   16ac4:	f919f8e3          	bgeu	s3,a7,16a54 <__quorem_D2A+0x74>
   16ac8:	00032783          	lw	a5,0(t1)
   16acc:	02079463          	bnez	a5,16af4 <__quorem_D2A+0x114>
   16ad0:	ffc30313          	addi	t1,t1,-4
   16ad4:	006a6863          	bltu	s4,t1,16ae4 <__quorem_D2A+0x104>
   16ad8:	0180006f          	j	16af0 <__quorem_D2A+0x110>
   16adc:	fff48493          	addi	s1,s1,-1
   16ae0:	006a7863          	bgeu	s4,t1,16af0 <__quorem_D2A+0x110>
   16ae4:	00032783          	lw	a5,0(t1)
   16ae8:	ffc30313          	addi	t1,t1,-4
   16aec:	fe0788e3          	beqz	a5,16adc <__quorem_D2A+0xfc>
   16af0:	009aa823          	sw	s1,16(s5)
   16af4:	000a8513          	mv	a0,s5
   16af8:	515000ef          	jal	1780c <__mcmp>
   16afc:	0a054063          	bltz	a0,16b9c <__quorem_D2A+0x1bc>
   16b00:	00010537          	lui	a0,0x10
   16b04:	000a0593          	mv	a1,s4
   16b08:	00000693          	li	a3,0
   16b0c:	fff50513          	addi	a0,a0,-1 # ffff <_vfprintf_r+0xc13>
   16b10:	0005a783          	lw	a5,0(a1)
   16b14:	00042603          	lw	a2,0(s0)
   16b18:	00458593          	addi	a1,a1,4
   16b1c:	00a7f733          	and	a4,a5,a0
   16b20:	00a67833          	and	a6,a2,a0
   16b24:	41070733          	sub	a4,a4,a6
   16b28:	40d70733          	sub	a4,a4,a3
   16b2c:	01075693          	srli	a3,a4,0x10
   16b30:	0016f693          	andi	a3,a3,1
   16b34:	01065613          	srli	a2,a2,0x10
   16b38:	00c686b3          	add	a3,a3,a2
   16b3c:	0107d793          	srli	a5,a5,0x10
   16b40:	40d787b3          	sub	a5,a5,a3
   16b44:	01079693          	slli	a3,a5,0x10
   16b48:	00a77733          	and	a4,a4,a0
   16b4c:	00e6e733          	or	a4,a3,a4
   16b50:	0107d793          	srli	a5,a5,0x10
   16b54:	00440413          	addi	s0,s0,4
   16b58:	fee5ae23          	sw	a4,-4(a1)
   16b5c:	0017f693          	andi	a3,a5,1
   16b60:	fa89f8e3          	bgeu	s3,s0,16b10 <__quorem_D2A+0x130>
   16b64:	00249793          	slli	a5,s1,0x2
   16b68:	00fa07b3          	add	a5,s4,a5
   16b6c:	0007a703          	lw	a4,0(a5)
   16b70:	02071463          	bnez	a4,16b98 <__quorem_D2A+0x1b8>
   16b74:	ffc78793          	addi	a5,a5,-4
   16b78:	00fa6863          	bltu	s4,a5,16b88 <__quorem_D2A+0x1a8>
   16b7c:	0180006f          	j	16b94 <__quorem_D2A+0x1b4>
   16b80:	fff48493          	addi	s1,s1,-1
   16b84:	00fa7863          	bgeu	s4,a5,16b94 <__quorem_D2A+0x1b4>
   16b88:	0007a703          	lw	a4,0(a5)
   16b8c:	ffc78793          	addi	a5,a5,-4
   16b90:	fe0708e3          	beqz	a4,16b80 <__quorem_D2A+0x1a0>
   16b94:	009aa823          	sw	s1,16(s5)
   16b98:	00190913          	addi	s2,s2,1
   16b9c:	01812403          	lw	s0,24(sp)
   16ba0:	01c12083          	lw	ra,28(sp)
   16ba4:	00c12983          	lw	s3,12(sp)
   16ba8:	00812a03          	lw	s4,8(sp)
   16bac:	00412a83          	lw	s5,4(sp)
   16bb0:	01412483          	lw	s1,20(sp)
   16bb4:	00090513          	mv	a0,s2
   16bb8:	01012903          	lw	s2,16(sp)
   16bbc:	02010113          	addi	sp,sp,32
   16bc0:	00008067          	ret
   16bc4:	01c12083          	lw	ra,28(sp)
   16bc8:	01412483          	lw	s1,20(sp)
   16bcc:	00000513          	li	a0,0
   16bd0:	02010113          	addi	sp,sp,32
   16bd4:	00008067          	ret

00016bd8 <__rshift_D2A>:
   16bd8:	01052803          	lw	a6,16(a0)
   16bdc:	4055de13          	srai	t3,a1,0x5
   16be0:	010e4863          	blt	t3,a6,16bf0 <__rshift_D2A+0x18>
   16be4:	00052823          	sw	zero,16(a0)
   16be8:	00052a23          	sw	zero,20(a0)
   16bec:	00008067          	ret
   16bf0:	01450313          	addi	t1,a0,20
   16bf4:	00281613          	slli	a2,a6,0x2
   16bf8:	002e1793          	slli	a5,t3,0x2
   16bfc:	01f5f593          	andi	a1,a1,31
   16c00:	00c30633          	add	a2,t1,a2
   16c04:	00f307b3          	add	a5,t1,a5
   16c08:	06058263          	beqz	a1,16c6c <__rshift_D2A+0x94>
   16c0c:	0007a683          	lw	a3,0(a5)
   16c10:	02000e93          	li	t4,32
   16c14:	00478793          	addi	a5,a5,4
   16c18:	40be8eb3          	sub	t4,t4,a1
   16c1c:	00b6d6b3          	srl	a3,a3,a1
   16c20:	08c7f463          	bgeu	a5,a2,16ca8 <__rshift_D2A+0xd0>
   16c24:	00030893          	mv	a7,t1
   16c28:	0007a703          	lw	a4,0(a5)
   16c2c:	00488893          	addi	a7,a7,4
   16c30:	00478793          	addi	a5,a5,4
   16c34:	01d71733          	sll	a4,a4,t4
   16c38:	00d76733          	or	a4,a4,a3
   16c3c:	fee8ae23          	sw	a4,-4(a7)
   16c40:	ffc7a683          	lw	a3,-4(a5)
   16c44:	00b6d6b3          	srl	a3,a3,a1
   16c48:	fec7e0e3          	bltu	a5,a2,16c28 <__rshift_D2A+0x50>
   16c4c:	41c80833          	sub	a6,a6,t3
   16c50:	00281813          	slli	a6,a6,0x2
   16c54:	ffc80813          	addi	a6,a6,-4
   16c58:	01030833          	add	a6,t1,a6
   16c5c:	00d82023          	sw	a3,0(a6)
   16c60:	02068a63          	beqz	a3,16c94 <__rshift_D2A+0xbc>
   16c64:	00480813          	addi	a6,a6,4
   16c68:	02c0006f          	j	16c94 <__rshift_D2A+0xbc>
   16c6c:	00030713          	mv	a4,t1
   16c70:	f6c7fae3          	bgeu	a5,a2,16be4 <__rshift_D2A+0xc>
   16c74:	0007a683          	lw	a3,0(a5)
   16c78:	00478793          	addi	a5,a5,4
   16c7c:	00470713          	addi	a4,a4,4
   16c80:	fed72e23          	sw	a3,-4(a4)
   16c84:	fec7e8e3          	bltu	a5,a2,16c74 <__rshift_D2A+0x9c>
   16c88:	41c80833          	sub	a6,a6,t3
   16c8c:	00281813          	slli	a6,a6,0x2
   16c90:	01030833          	add	a6,t1,a6
   16c94:	406807b3          	sub	a5,a6,t1
   16c98:	4027d793          	srai	a5,a5,0x2
   16c9c:	00f52823          	sw	a5,16(a0)
   16ca0:	f46804e3          	beq	a6,t1,16be8 <__rshift_D2A+0x10>
   16ca4:	00008067          	ret
   16ca8:	00d52a23          	sw	a3,20(a0)
   16cac:	f2068ce3          	beqz	a3,16be4 <__rshift_D2A+0xc>
   16cb0:	00030813          	mv	a6,t1
   16cb4:	00480813          	addi	a6,a6,4
   16cb8:	fddff06f          	j	16c94 <__rshift_D2A+0xbc>

00016cbc <__trailz_D2A>:
   16cbc:	01052703          	lw	a4,16(a0)
   16cc0:	fe010113          	addi	sp,sp,-32
   16cc4:	01450513          	addi	a0,a0,20
   16cc8:	00271713          	slli	a4,a4,0x2
   16ccc:	00812c23          	sw	s0,24(sp)
   16cd0:	00112e23          	sw	ra,28(sp)
   16cd4:	00e50733          	add	a4,a0,a4
   16cd8:	00000413          	li	s0,0
   16cdc:	00e56a63          	bltu	a0,a4,16cf0 <__trailz_D2A+0x34>
   16ce0:	02c0006f          	j	16d0c <__trailz_D2A+0x50>
   16ce4:	00450513          	addi	a0,a0,4
   16ce8:	02040413          	addi	s0,s0,32
   16cec:	02e57063          	bgeu	a0,a4,16d0c <__trailz_D2A+0x50>
   16cf0:	00052783          	lw	a5,0(a0)
   16cf4:	fe0788e3          	beqz	a5,16ce4 <__trailz_D2A+0x28>
   16cf8:	00e57a63          	bgeu	a0,a4,16d0c <__trailz_D2A+0x50>
   16cfc:	00c10513          	addi	a0,sp,12
   16d00:	00f12623          	sw	a5,12(sp)
   16d04:	464000ef          	jal	17168 <__lo0bits>
   16d08:	00a40433          	add	s0,s0,a0
   16d0c:	01c12083          	lw	ra,28(sp)
   16d10:	00040513          	mv	a0,s0
   16d14:	01812403          	lw	s0,24(sp)
   16d18:	02010113          	addi	sp,sp,32
   16d1c:	00008067          	ret

00016d20 <_mbtowc_r>:
   16d20:	0001a7b7          	lui	a5,0x1a
   16d24:	62c7a783          	lw	a5,1580(a5) # 1a62c <__global_locale+0xe4>
   16d28:	00078067          	jr	a5

00016d2c <__ascii_mbtowc>:
   16d2c:	02058063          	beqz	a1,16d4c <__ascii_mbtowc+0x20>
   16d30:	04060263          	beqz	a2,16d74 <__ascii_mbtowc+0x48>
   16d34:	04068863          	beqz	a3,16d84 <__ascii_mbtowc+0x58>
   16d38:	00064783          	lbu	a5,0(a2)
   16d3c:	00f5a023          	sw	a5,0(a1)
   16d40:	00064503          	lbu	a0,0(a2)
   16d44:	00a03533          	snez	a0,a0
   16d48:	00008067          	ret
   16d4c:	ff010113          	addi	sp,sp,-16
   16d50:	00c10593          	addi	a1,sp,12
   16d54:	02060463          	beqz	a2,16d7c <__ascii_mbtowc+0x50>
   16d58:	02068a63          	beqz	a3,16d8c <__ascii_mbtowc+0x60>
   16d5c:	00064783          	lbu	a5,0(a2)
   16d60:	00f5a023          	sw	a5,0(a1)
   16d64:	00064503          	lbu	a0,0(a2)
   16d68:	00a03533          	snez	a0,a0
   16d6c:	01010113          	addi	sp,sp,16
   16d70:	00008067          	ret
   16d74:	00000513          	li	a0,0
   16d78:	00008067          	ret
   16d7c:	00000513          	li	a0,0
   16d80:	fedff06f          	j	16d6c <__ascii_mbtowc+0x40>
   16d84:	ffe00513          	li	a0,-2
   16d88:	00008067          	ret
   16d8c:	ffe00513          	li	a0,-2
   16d90:	fddff06f          	j	16d6c <__ascii_mbtowc+0x40>

00016d94 <_Balloc>:
   16d94:	04452783          	lw	a5,68(a0)
   16d98:	ff010113          	addi	sp,sp,-16
   16d9c:	00812423          	sw	s0,8(sp)
   16da0:	00912223          	sw	s1,4(sp)
   16da4:	00112623          	sw	ra,12(sp)
   16da8:	00050413          	mv	s0,a0
   16dac:	00058493          	mv	s1,a1
   16db0:	02078c63          	beqz	a5,16de8 <_Balloc+0x54>
   16db4:	00249713          	slli	a4,s1,0x2
   16db8:	00e787b3          	add	a5,a5,a4
   16dbc:	0007a503          	lw	a0,0(a5)
   16dc0:	04050463          	beqz	a0,16e08 <_Balloc+0x74>
   16dc4:	00052703          	lw	a4,0(a0)
   16dc8:	00e7a023          	sw	a4,0(a5)
   16dcc:	00052823          	sw	zero,16(a0)
   16dd0:	00052623          	sw	zero,12(a0)
   16dd4:	00c12083          	lw	ra,12(sp)
   16dd8:	00812403          	lw	s0,8(sp)
   16ddc:	00412483          	lw	s1,4(sp)
   16de0:	01010113          	addi	sp,sp,16
   16de4:	00008067          	ret
   16de8:	02100613          	li	a2,33
   16dec:	00400593          	li	a1,4
   16df0:	405010ef          	jal	189f4 <_calloc_r>
   16df4:	04a42223          	sw	a0,68(s0)
   16df8:	00050793          	mv	a5,a0
   16dfc:	fa051ce3          	bnez	a0,16db4 <_Balloc+0x20>
   16e00:	00000513          	li	a0,0
   16e04:	fd1ff06f          	j	16dd4 <_Balloc+0x40>
   16e08:	01212023          	sw	s2,0(sp)
   16e0c:	00100913          	li	s2,1
   16e10:	00991933          	sll	s2,s2,s1
   16e14:	00590613          	addi	a2,s2,5
   16e18:	00261613          	slli	a2,a2,0x2
   16e1c:	00100593          	li	a1,1
   16e20:	00040513          	mv	a0,s0
   16e24:	3d1010ef          	jal	189f4 <_calloc_r>
   16e28:	00050a63          	beqz	a0,16e3c <_Balloc+0xa8>
   16e2c:	01252423          	sw	s2,8(a0)
   16e30:	00952223          	sw	s1,4(a0)
   16e34:	00012903          	lw	s2,0(sp)
   16e38:	f95ff06f          	j	16dcc <_Balloc+0x38>
   16e3c:	00012903          	lw	s2,0(sp)
   16e40:	00000513          	li	a0,0
   16e44:	f91ff06f          	j	16dd4 <_Balloc+0x40>

00016e48 <_Bfree>:
   16e48:	02058063          	beqz	a1,16e68 <_Bfree+0x20>
   16e4c:	0045a703          	lw	a4,4(a1)
   16e50:	04452783          	lw	a5,68(a0)
   16e54:	00271713          	slli	a4,a4,0x2
   16e58:	00e787b3          	add	a5,a5,a4
   16e5c:	0007a703          	lw	a4,0(a5)
   16e60:	00e5a023          	sw	a4,0(a1)
   16e64:	00b7a023          	sw	a1,0(a5)
   16e68:	00008067          	ret

00016e6c <__multadd>:
   16e6c:	fe010113          	addi	sp,sp,-32
   16e70:	00912a23          	sw	s1,20(sp)
   16e74:	0105a483          	lw	s1,16(a1)
   16e78:	00010337          	lui	t1,0x10
   16e7c:	00812c23          	sw	s0,24(sp)
   16e80:	01212823          	sw	s2,16(sp)
   16e84:	01312623          	sw	s3,12(sp)
   16e88:	00112e23          	sw	ra,28(sp)
   16e8c:	00058913          	mv	s2,a1
   16e90:	00050993          	mv	s3,a0
   16e94:	00068413          	mv	s0,a3
   16e98:	01458813          	addi	a6,a1,20
   16e9c:	00000893          	li	a7,0
   16ea0:	fff30313          	addi	t1,t1,-1 # ffff <_vfprintf_r+0xc13>
   16ea4:	00082783          	lw	a5,0(a6)
   16ea8:	00480813          	addi	a6,a6,4
   16eac:	00188893          	addi	a7,a7,1
   16eb0:	0067f733          	and	a4,a5,t1
   16eb4:	02c70733          	mul	a4,a4,a2
   16eb8:	0107d693          	srli	a3,a5,0x10
   16ebc:	02c686b3          	mul	a3,a3,a2
   16ec0:	008707b3          	add	a5,a4,s0
   16ec4:	0107d713          	srli	a4,a5,0x10
   16ec8:	0067f7b3          	and	a5,a5,t1
   16ecc:	00e686b3          	add	a3,a3,a4
   16ed0:	01069713          	slli	a4,a3,0x10
   16ed4:	00f707b3          	add	a5,a4,a5
   16ed8:	fef82e23          	sw	a5,-4(a6)
   16edc:	0106d413          	srli	s0,a3,0x10
   16ee0:	fc98c2e3          	blt	a7,s1,16ea4 <__multadd+0x38>
   16ee4:	02040263          	beqz	s0,16f08 <__multadd+0x9c>
   16ee8:	00892783          	lw	a5,8(s2)
   16eec:	02f4de63          	bge	s1,a5,16f28 <__multadd+0xbc>
   16ef0:	00448793          	addi	a5,s1,4
   16ef4:	00279793          	slli	a5,a5,0x2
   16ef8:	00f907b3          	add	a5,s2,a5
   16efc:	0087a223          	sw	s0,4(a5)
   16f00:	00148493          	addi	s1,s1,1
   16f04:	00992823          	sw	s1,16(s2)
   16f08:	01c12083          	lw	ra,28(sp)
   16f0c:	01812403          	lw	s0,24(sp)
   16f10:	01412483          	lw	s1,20(sp)
   16f14:	00c12983          	lw	s3,12(sp)
   16f18:	00090513          	mv	a0,s2
   16f1c:	01012903          	lw	s2,16(sp)
   16f20:	02010113          	addi	sp,sp,32
   16f24:	00008067          	ret
   16f28:	00492583          	lw	a1,4(s2)
   16f2c:	00098513          	mv	a0,s3
   16f30:	01412423          	sw	s4,8(sp)
   16f34:	00158593          	addi	a1,a1,1
   16f38:	e5dff0ef          	jal	16d94 <_Balloc>
   16f3c:	00050a13          	mv	s4,a0
   16f40:	04050e63          	beqz	a0,16f9c <__multadd+0x130>
   16f44:	01092603          	lw	a2,16(s2)
   16f48:	00c90593          	addi	a1,s2,12
   16f4c:	00c50513          	addi	a0,a0,12
   16f50:	00260613          	addi	a2,a2,2
   16f54:	00261613          	slli	a2,a2,0x2
   16f58:	e60fd0ef          	jal	145b8 <memcpy>
   16f5c:	00492703          	lw	a4,4(s2)
   16f60:	0449a783          	lw	a5,68(s3)
   16f64:	00271713          	slli	a4,a4,0x2
   16f68:	00e787b3          	add	a5,a5,a4
   16f6c:	0007a703          	lw	a4,0(a5)
   16f70:	00e92023          	sw	a4,0(s2)
   16f74:	0127a023          	sw	s2,0(a5)
   16f78:	00448793          	addi	a5,s1,4
   16f7c:	000a0913          	mv	s2,s4
   16f80:	00279793          	slli	a5,a5,0x2
   16f84:	00f907b3          	add	a5,s2,a5
   16f88:	00812a03          	lw	s4,8(sp)
   16f8c:	00148493          	addi	s1,s1,1
   16f90:	0087a223          	sw	s0,4(a5)
   16f94:	00992823          	sw	s1,16(s2)
   16f98:	f71ff06f          	j	16f08 <__multadd+0x9c>
   16f9c:	000196b7          	lui	a3,0x19
   16fa0:	00019537          	lui	a0,0x19
   16fa4:	76468693          	addi	a3,a3,1892 # 19764 <_getpid_r+0x648>
   16fa8:	00000613          	li	a2,0
   16fac:	0ba00593          	li	a1,186
   16fb0:	77850513          	addi	a0,a0,1912 # 19778 <_getpid_r+0x65c>
   16fb4:	1d9010ef          	jal	1898c <__assert_func>

00016fb8 <__s2b>:
   16fb8:	fe010113          	addi	sp,sp,-32
   16fbc:	00812c23          	sw	s0,24(sp)
   16fc0:	00912a23          	sw	s1,20(sp)
   16fc4:	01212823          	sw	s2,16(sp)
   16fc8:	01312623          	sw	s3,12(sp)
   16fcc:	01412423          	sw	s4,8(sp)
   16fd0:	00068993          	mv	s3,a3
   16fd4:	00900793          	li	a5,9
   16fd8:	00868693          	addi	a3,a3,8
   16fdc:	00112e23          	sw	ra,28(sp)
   16fe0:	02f6c6b3          	div	a3,a3,a5
   16fe4:	00050913          	mv	s2,a0
   16fe8:	00058413          	mv	s0,a1
   16fec:	00060a13          	mv	s4,a2
   16ff0:	00070493          	mv	s1,a4
   16ff4:	0d37da63          	bge	a5,s3,170c8 <__s2b+0x110>
   16ff8:	00100793          	li	a5,1
   16ffc:	00000593          	li	a1,0
   17000:	00179793          	slli	a5,a5,0x1
   17004:	00158593          	addi	a1,a1,1
   17008:	fed7cce3          	blt	a5,a3,17000 <__s2b+0x48>
   1700c:	00090513          	mv	a0,s2
   17010:	d85ff0ef          	jal	16d94 <_Balloc>
   17014:	00050593          	mv	a1,a0
   17018:	0a050c63          	beqz	a0,170d0 <__s2b+0x118>
   1701c:	00100793          	li	a5,1
   17020:	00f52823          	sw	a5,16(a0)
   17024:	00952a23          	sw	s1,20(a0)
   17028:	00900793          	li	a5,9
   1702c:	0947d863          	bge	a5,s4,170bc <__s2b+0x104>
   17030:	01512223          	sw	s5,4(sp)
   17034:	00940a93          	addi	s5,s0,9
   17038:	000a8493          	mv	s1,s5
   1703c:	01440433          	add	s0,s0,s4
   17040:	0004c683          	lbu	a3,0(s1)
   17044:	00a00613          	li	a2,10
   17048:	00090513          	mv	a0,s2
   1704c:	fd068693          	addi	a3,a3,-48
   17050:	e1dff0ef          	jal	16e6c <__multadd>
   17054:	00148493          	addi	s1,s1,1
   17058:	00050593          	mv	a1,a0
   1705c:	fe8492e3          	bne	s1,s0,17040 <__s2b+0x88>
   17060:	ff8a0413          	addi	s0,s4,-8
   17064:	008a8433          	add	s0,s5,s0
   17068:	00412a83          	lw	s5,4(sp)
   1706c:	033a5663          	bge	s4,s3,17098 <__s2b+0xe0>
   17070:	414989b3          	sub	s3,s3,s4
   17074:	013409b3          	add	s3,s0,s3
   17078:	00044683          	lbu	a3,0(s0)
   1707c:	00a00613          	li	a2,10
   17080:	00090513          	mv	a0,s2
   17084:	fd068693          	addi	a3,a3,-48
   17088:	de5ff0ef          	jal	16e6c <__multadd>
   1708c:	00140413          	addi	s0,s0,1
   17090:	00050593          	mv	a1,a0
   17094:	ff3412e3          	bne	s0,s3,17078 <__s2b+0xc0>
   17098:	01c12083          	lw	ra,28(sp)
   1709c:	01812403          	lw	s0,24(sp)
   170a0:	01412483          	lw	s1,20(sp)
   170a4:	01012903          	lw	s2,16(sp)
   170a8:	00c12983          	lw	s3,12(sp)
   170ac:	00812a03          	lw	s4,8(sp)
   170b0:	00058513          	mv	a0,a1
   170b4:	02010113          	addi	sp,sp,32
   170b8:	00008067          	ret
   170bc:	00a40413          	addi	s0,s0,10
   170c0:	00900a13          	li	s4,9
   170c4:	fa9ff06f          	j	1706c <__s2b+0xb4>
   170c8:	00000593          	li	a1,0
   170cc:	f41ff06f          	j	1700c <__s2b+0x54>
   170d0:	000196b7          	lui	a3,0x19
   170d4:	00019537          	lui	a0,0x19
   170d8:	76468693          	addi	a3,a3,1892 # 19764 <_getpid_r+0x648>
   170dc:	00000613          	li	a2,0
   170e0:	0d300593          	li	a1,211
   170e4:	77850513          	addi	a0,a0,1912 # 19778 <_getpid_r+0x65c>
   170e8:	01512223          	sw	s5,4(sp)
   170ec:	0a1010ef          	jal	1898c <__assert_func>

000170f0 <__hi0bits>:
   170f0:	00050793          	mv	a5,a0
   170f4:	00010737          	lui	a4,0x10
   170f8:	00000513          	li	a0,0
   170fc:	00e7f663          	bgeu	a5,a4,17108 <__hi0bits+0x18>
   17100:	01079793          	slli	a5,a5,0x10
   17104:	01000513          	li	a0,16
   17108:	01000737          	lui	a4,0x1000
   1710c:	00e7f663          	bgeu	a5,a4,17118 <__hi0bits+0x28>
   17110:	00850513          	addi	a0,a0,8
   17114:	00879793          	slli	a5,a5,0x8
   17118:	10000737          	lui	a4,0x10000
   1711c:	00e7f663          	bgeu	a5,a4,17128 <__hi0bits+0x38>
   17120:	00450513          	addi	a0,a0,4
   17124:	00479793          	slli	a5,a5,0x4
   17128:	40000737          	lui	a4,0x40000
   1712c:	00e7ea63          	bltu	a5,a4,17140 <__hi0bits+0x50>
   17130:	fff7c793          	not	a5,a5
   17134:	01f7d793          	srli	a5,a5,0x1f
   17138:	00f50533          	add	a0,a0,a5
   1713c:	00008067          	ret
   17140:	00279793          	slli	a5,a5,0x2
   17144:	0007ca63          	bltz	a5,17158 <__hi0bits+0x68>
   17148:	00179713          	slli	a4,a5,0x1
   1714c:	00074a63          	bltz	a4,17160 <__hi0bits+0x70>
   17150:	02000513          	li	a0,32
   17154:	00008067          	ret
   17158:	00250513          	addi	a0,a0,2
   1715c:	00008067          	ret
   17160:	00350513          	addi	a0,a0,3
   17164:	00008067          	ret

00017168 <__lo0bits>:
   17168:	00052783          	lw	a5,0(a0)
   1716c:	00050713          	mv	a4,a0
   17170:	0077f693          	andi	a3,a5,7
   17174:	02068463          	beqz	a3,1719c <__lo0bits+0x34>
   17178:	0017f693          	andi	a3,a5,1
   1717c:	00000513          	li	a0,0
   17180:	04069e63          	bnez	a3,171dc <__lo0bits+0x74>
   17184:	0027f693          	andi	a3,a5,2
   17188:	0a068863          	beqz	a3,17238 <__lo0bits+0xd0>
   1718c:	0017d793          	srli	a5,a5,0x1
   17190:	00f72023          	sw	a5,0(a4) # 40000000 <_end+0x3ffe2d9c>
   17194:	00100513          	li	a0,1
   17198:	00008067          	ret
   1719c:	01079693          	slli	a3,a5,0x10
   171a0:	0106d693          	srli	a3,a3,0x10
   171a4:	00000513          	li	a0,0
   171a8:	06068e63          	beqz	a3,17224 <__lo0bits+0xbc>
   171ac:	0ff7f693          	zext.b	a3,a5
   171b0:	06068063          	beqz	a3,17210 <__lo0bits+0xa8>
   171b4:	00f7f693          	andi	a3,a5,15
   171b8:	04068263          	beqz	a3,171fc <__lo0bits+0x94>
   171bc:	0037f693          	andi	a3,a5,3
   171c0:	02068463          	beqz	a3,171e8 <__lo0bits+0x80>
   171c4:	0017f693          	andi	a3,a5,1
   171c8:	00069c63          	bnez	a3,171e0 <__lo0bits+0x78>
   171cc:	0017d793          	srli	a5,a5,0x1
   171d0:	00150513          	addi	a0,a0,1
   171d4:	00079663          	bnez	a5,171e0 <__lo0bits+0x78>
   171d8:	02000513          	li	a0,32
   171dc:	00008067          	ret
   171e0:	00f72023          	sw	a5,0(a4)
   171e4:	00008067          	ret
   171e8:	0027d793          	srli	a5,a5,0x2
   171ec:	0017f693          	andi	a3,a5,1
   171f0:	00250513          	addi	a0,a0,2
   171f4:	fe0696e3          	bnez	a3,171e0 <__lo0bits+0x78>
   171f8:	fd5ff06f          	j	171cc <__lo0bits+0x64>
   171fc:	0047d793          	srli	a5,a5,0x4
   17200:	0037f693          	andi	a3,a5,3
   17204:	00450513          	addi	a0,a0,4
   17208:	fa069ee3          	bnez	a3,171c4 <__lo0bits+0x5c>
   1720c:	fddff06f          	j	171e8 <__lo0bits+0x80>
   17210:	0087d793          	srli	a5,a5,0x8
   17214:	00f7f693          	andi	a3,a5,15
   17218:	00850513          	addi	a0,a0,8
   1721c:	fa0690e3          	bnez	a3,171bc <__lo0bits+0x54>
   17220:	fddff06f          	j	171fc <__lo0bits+0x94>
   17224:	0107d793          	srli	a5,a5,0x10
   17228:	0ff7f693          	zext.b	a3,a5
   1722c:	01000513          	li	a0,16
   17230:	f80692e3          	bnez	a3,171b4 <__lo0bits+0x4c>
   17234:	fddff06f          	j	17210 <__lo0bits+0xa8>
   17238:	0027d793          	srli	a5,a5,0x2
   1723c:	00f72023          	sw	a5,0(a4)
   17240:	00200513          	li	a0,2
   17244:	00008067          	ret

00017248 <__i2b>:
   17248:	04452783          	lw	a5,68(a0)
   1724c:	ff010113          	addi	sp,sp,-16
   17250:	00812423          	sw	s0,8(sp)
   17254:	00912223          	sw	s1,4(sp)
   17258:	00112623          	sw	ra,12(sp)
   1725c:	00050413          	mv	s0,a0
   17260:	00058493          	mv	s1,a1
   17264:	02078c63          	beqz	a5,1729c <__i2b+0x54>
   17268:	0047a503          	lw	a0,4(a5)
   1726c:	06050263          	beqz	a0,172d0 <__i2b+0x88>
   17270:	00052703          	lw	a4,0(a0)
   17274:	00e7a223          	sw	a4,4(a5)
   17278:	00c12083          	lw	ra,12(sp)
   1727c:	00812403          	lw	s0,8(sp)
   17280:	00100793          	li	a5,1
   17284:	00952a23          	sw	s1,20(a0)
   17288:	00052623          	sw	zero,12(a0)
   1728c:	00f52823          	sw	a5,16(a0)
   17290:	00412483          	lw	s1,4(sp)
   17294:	01010113          	addi	sp,sp,16
   17298:	00008067          	ret
   1729c:	02100613          	li	a2,33
   172a0:	00400593          	li	a1,4
   172a4:	750010ef          	jal	189f4 <_calloc_r>
   172a8:	04a42223          	sw	a0,68(s0)
   172ac:	00050793          	mv	a5,a0
   172b0:	fa051ce3          	bnez	a0,17268 <__i2b+0x20>
   172b4:	000196b7          	lui	a3,0x19
   172b8:	00019537          	lui	a0,0x19
   172bc:	76468693          	addi	a3,a3,1892 # 19764 <_getpid_r+0x648>
   172c0:	00000613          	li	a2,0
   172c4:	14500593          	li	a1,325
   172c8:	77850513          	addi	a0,a0,1912 # 19778 <_getpid_r+0x65c>
   172cc:	6c0010ef          	jal	1898c <__assert_func>
   172d0:	01c00613          	li	a2,28
   172d4:	00100593          	li	a1,1
   172d8:	00040513          	mv	a0,s0
   172dc:	718010ef          	jal	189f4 <_calloc_r>
   172e0:	fc050ae3          	beqz	a0,172b4 <__i2b+0x6c>
   172e4:	00100793          	li	a5,1
   172e8:	00f52223          	sw	a5,4(a0)
   172ec:	00200793          	li	a5,2
   172f0:	00f52423          	sw	a5,8(a0)
   172f4:	f85ff06f          	j	17278 <__i2b+0x30>

000172f8 <__multiply>:
   172f8:	fe010113          	addi	sp,sp,-32
   172fc:	01212823          	sw	s2,16(sp)
   17300:	01312623          	sw	s3,12(sp)
   17304:	0105a903          	lw	s2,16(a1)
   17308:	01062983          	lw	s3,16(a2)
   1730c:	00912a23          	sw	s1,20(sp)
   17310:	01412423          	sw	s4,8(sp)
   17314:	00112e23          	sw	ra,28(sp)
   17318:	00812c23          	sw	s0,24(sp)
   1731c:	00058a13          	mv	s4,a1
   17320:	00060493          	mv	s1,a2
   17324:	01394c63          	blt	s2,s3,1733c <__multiply+0x44>
   17328:	00098713          	mv	a4,s3
   1732c:	00058493          	mv	s1,a1
   17330:	00090993          	mv	s3,s2
   17334:	00060a13          	mv	s4,a2
   17338:	00070913          	mv	s2,a4
   1733c:	0084a783          	lw	a5,8(s1)
   17340:	0044a583          	lw	a1,4(s1)
   17344:	01298433          	add	s0,s3,s2
   17348:	0087a7b3          	slt	a5,a5,s0
   1734c:	00f585b3          	add	a1,a1,a5
   17350:	a45ff0ef          	jal	16d94 <_Balloc>
   17354:	1a050e63          	beqz	a0,17510 <__multiply+0x218>
   17358:	01450313          	addi	t1,a0,20
   1735c:	00241893          	slli	a7,s0,0x2
   17360:	011308b3          	add	a7,t1,a7
   17364:	00030793          	mv	a5,t1
   17368:	01137863          	bgeu	t1,a7,17378 <__multiply+0x80>
   1736c:	0007a023          	sw	zero,0(a5)
   17370:	00478793          	addi	a5,a5,4
   17374:	ff17ece3          	bltu	a5,a7,1736c <__multiply+0x74>
   17378:	014a0813          	addi	a6,s4,20
   1737c:	00291e13          	slli	t3,s2,0x2
   17380:	01448e93          	addi	t4,s1,20
   17384:	00299593          	slli	a1,s3,0x2
   17388:	01c80e33          	add	t3,a6,t3
   1738c:	00be85b3          	add	a1,t4,a1
   17390:	13c87663          	bgeu	a6,t3,174bc <__multiply+0x1c4>
   17394:	01548793          	addi	a5,s1,21
   17398:	00400f13          	li	t5,4
   1739c:	16f5f063          	bgeu	a1,a5,174fc <__multiply+0x204>
   173a0:	000106b7          	lui	a3,0x10
   173a4:	fff68693          	addi	a3,a3,-1 # ffff <_vfprintf_r+0xc13>
   173a8:	0180006f          	j	173c0 <__multiply+0xc8>
   173ac:	010fdf93          	srli	t6,t6,0x10
   173b0:	080f9863          	bnez	t6,17440 <__multiply+0x148>
   173b4:	00480813          	addi	a6,a6,4
   173b8:	00430313          	addi	t1,t1,4
   173bc:	11c87063          	bgeu	a6,t3,174bc <__multiply+0x1c4>
   173c0:	00082f83          	lw	t6,0(a6)
   173c4:	00dff3b3          	and	t2,t6,a3
   173c8:	fe0382e3          	beqz	t2,173ac <__multiply+0xb4>
   173cc:	00030293          	mv	t0,t1
   173d0:	000e8f93          	mv	t6,t4
   173d4:	00000493          	li	s1,0
   173d8:	000fa783          	lw	a5,0(t6)
   173dc:	0002a603          	lw	a2,0(t0)
   173e0:	00428293          	addi	t0,t0,4
   173e4:	00d7f733          	and	a4,a5,a3
   173e8:	02770733          	mul	a4,a4,t2
   173ec:	0107d793          	srli	a5,a5,0x10
   173f0:	00d67933          	and	s2,a2,a3
   173f4:	01065613          	srli	a2,a2,0x10
   173f8:	004f8f93          	addi	t6,t6,4
   173fc:	027787b3          	mul	a5,a5,t2
   17400:	01270733          	add	a4,a4,s2
   17404:	00970733          	add	a4,a4,s1
   17408:	01075493          	srli	s1,a4,0x10
   1740c:	00d77733          	and	a4,a4,a3
   17410:	00c787b3          	add	a5,a5,a2
   17414:	009787b3          	add	a5,a5,s1
   17418:	01079613          	slli	a2,a5,0x10
   1741c:	00e66733          	or	a4,a2,a4
   17420:	fee2ae23          	sw	a4,-4(t0)
   17424:	0107d493          	srli	s1,a5,0x10
   17428:	fabfe8e3          	bltu	t6,a1,173d8 <__multiply+0xe0>
   1742c:	01e307b3          	add	a5,t1,t5
   17430:	0097a023          	sw	s1,0(a5)
   17434:	00082f83          	lw	t6,0(a6)
   17438:	010fdf93          	srli	t6,t6,0x10
   1743c:	f60f8ce3          	beqz	t6,173b4 <__multiply+0xbc>
   17440:	00032703          	lw	a4,0(t1)
   17444:	00030293          	mv	t0,t1
   17448:	000e8613          	mv	a2,t4
   1744c:	00070493          	mv	s1,a4
   17450:	00000393          	li	t2,0
   17454:	00062783          	lw	a5,0(a2)
   17458:	0104d993          	srli	s3,s1,0x10
   1745c:	00d77733          	and	a4,a4,a3
   17460:	00d7f7b3          	and	a5,a5,a3
   17464:	03f787b3          	mul	a5,a5,t6
   17468:	0042a483          	lw	s1,4(t0)
   1746c:	00428293          	addi	t0,t0,4
   17470:	00460613          	addi	a2,a2,4
   17474:	00d4f933          	and	s2,s1,a3
   17478:	007787b3          	add	a5,a5,t2
   1747c:	013787b3          	add	a5,a5,s3
   17480:	01079393          	slli	t2,a5,0x10
   17484:	00e3e733          	or	a4,t2,a4
   17488:	fee2ae23          	sw	a4,-4(t0)
   1748c:	ffe65703          	lhu	a4,-2(a2)
   17490:	0107d793          	srli	a5,a5,0x10
   17494:	03f70733          	mul	a4,a4,t6
   17498:	01270733          	add	a4,a4,s2
   1749c:	00f70733          	add	a4,a4,a5
   174a0:	01075393          	srli	t2,a4,0x10
   174a4:	fab668e3          	bltu	a2,a1,17454 <__multiply+0x15c>
   174a8:	01e307b3          	add	a5,t1,t5
   174ac:	00e7a023          	sw	a4,0(a5)
   174b0:	00480813          	addi	a6,a6,4
   174b4:	00430313          	addi	t1,t1,4
   174b8:	f1c864e3          	bltu	a6,t3,173c0 <__multiply+0xc8>
   174bc:	00804863          	bgtz	s0,174cc <__multiply+0x1d4>
   174c0:	0180006f          	j	174d8 <__multiply+0x1e0>
   174c4:	fff40413          	addi	s0,s0,-1
   174c8:	00040863          	beqz	s0,174d8 <__multiply+0x1e0>
   174cc:	ffc8a783          	lw	a5,-4(a7)
   174d0:	ffc88893          	addi	a7,a7,-4
   174d4:	fe0788e3          	beqz	a5,174c4 <__multiply+0x1cc>
   174d8:	01c12083          	lw	ra,28(sp)
   174dc:	00852823          	sw	s0,16(a0)
   174e0:	01812403          	lw	s0,24(sp)
   174e4:	01412483          	lw	s1,20(sp)
   174e8:	01012903          	lw	s2,16(sp)
   174ec:	00c12983          	lw	s3,12(sp)
   174f0:	00812a03          	lw	s4,8(sp)
   174f4:	02010113          	addi	sp,sp,32
   174f8:	00008067          	ret
   174fc:	409587b3          	sub	a5,a1,s1
   17500:	feb78793          	addi	a5,a5,-21
   17504:	ffc7f793          	andi	a5,a5,-4
   17508:	00478f13          	addi	t5,a5,4
   1750c:	e95ff06f          	j	173a0 <__multiply+0xa8>
   17510:	000196b7          	lui	a3,0x19
   17514:	00019537          	lui	a0,0x19
   17518:	76468693          	addi	a3,a3,1892 # 19764 <_getpid_r+0x648>
   1751c:	00000613          	li	a2,0
   17520:	16200593          	li	a1,354
   17524:	77850513          	addi	a0,a0,1912 # 19778 <_getpid_r+0x65c>
   17528:	464010ef          	jal	1898c <__assert_func>

0001752c <__pow5mult>:
   1752c:	fe010113          	addi	sp,sp,-32
   17530:	00812c23          	sw	s0,24(sp)
   17534:	01212823          	sw	s2,16(sp)
   17538:	01312623          	sw	s3,12(sp)
   1753c:	00112e23          	sw	ra,28(sp)
   17540:	00367793          	andi	a5,a2,3
   17544:	00060413          	mv	s0,a2
   17548:	00050993          	mv	s3,a0
   1754c:	00058913          	mv	s2,a1
   17550:	0a079c63          	bnez	a5,17608 <__pow5mult+0xdc>
   17554:	40245413          	srai	s0,s0,0x2
   17558:	06040a63          	beqz	s0,175cc <__pow5mult+0xa0>
   1755c:	00912a23          	sw	s1,20(sp)
   17560:	0409a483          	lw	s1,64(s3)
   17564:	0c048663          	beqz	s1,17630 <__pow5mult+0x104>
   17568:	00147793          	andi	a5,s0,1
   1756c:	02079063          	bnez	a5,1758c <__pow5mult+0x60>
   17570:	40145413          	srai	s0,s0,0x1
   17574:	04040a63          	beqz	s0,175c8 <__pow5mult+0x9c>
   17578:	0004a503          	lw	a0,0(s1)
   1757c:	06050663          	beqz	a0,175e8 <__pow5mult+0xbc>
   17580:	00050493          	mv	s1,a0
   17584:	00147793          	andi	a5,s0,1
   17588:	fe0784e3          	beqz	a5,17570 <__pow5mult+0x44>
   1758c:	00048613          	mv	a2,s1
   17590:	00090593          	mv	a1,s2
   17594:	00098513          	mv	a0,s3
   17598:	d61ff0ef          	jal	172f8 <__multiply>
   1759c:	02090063          	beqz	s2,175bc <__pow5mult+0x90>
   175a0:	00492703          	lw	a4,4(s2)
   175a4:	0449a783          	lw	a5,68(s3)
   175a8:	00271713          	slli	a4,a4,0x2
   175ac:	00e787b3          	add	a5,a5,a4
   175b0:	0007a703          	lw	a4,0(a5)
   175b4:	00e92023          	sw	a4,0(s2)
   175b8:	0127a023          	sw	s2,0(a5)
   175bc:	40145413          	srai	s0,s0,0x1
   175c0:	00050913          	mv	s2,a0
   175c4:	fa041ae3          	bnez	s0,17578 <__pow5mult+0x4c>
   175c8:	01412483          	lw	s1,20(sp)
   175cc:	01c12083          	lw	ra,28(sp)
   175d0:	01812403          	lw	s0,24(sp)
   175d4:	00c12983          	lw	s3,12(sp)
   175d8:	00090513          	mv	a0,s2
   175dc:	01012903          	lw	s2,16(sp)
   175e0:	02010113          	addi	sp,sp,32
   175e4:	00008067          	ret
   175e8:	00048613          	mv	a2,s1
   175ec:	00048593          	mv	a1,s1
   175f0:	00098513          	mv	a0,s3
   175f4:	d05ff0ef          	jal	172f8 <__multiply>
   175f8:	00a4a023          	sw	a0,0(s1)
   175fc:	00052023          	sw	zero,0(a0)
   17600:	00050493          	mv	s1,a0
   17604:	f81ff06f          	j	17584 <__pow5mult+0x58>
   17608:	fff78793          	addi	a5,a5,-1
   1760c:	0001a737          	lui	a4,0x1a
   17610:	bcc70713          	addi	a4,a4,-1076 # 19bcc <p05.0>
   17614:	00279793          	slli	a5,a5,0x2
   17618:	00f707b3          	add	a5,a4,a5
   1761c:	0007a603          	lw	a2,0(a5)
   17620:	00000693          	li	a3,0
   17624:	849ff0ef          	jal	16e6c <__multadd>
   17628:	00050913          	mv	s2,a0
   1762c:	f29ff06f          	j	17554 <__pow5mult+0x28>
   17630:	00100593          	li	a1,1
   17634:	00098513          	mv	a0,s3
   17638:	f5cff0ef          	jal	16d94 <_Balloc>
   1763c:	00050493          	mv	s1,a0
   17640:	02050063          	beqz	a0,17660 <__pow5mult+0x134>
   17644:	27100793          	li	a5,625
   17648:	00f52a23          	sw	a5,20(a0)
   1764c:	00100793          	li	a5,1
   17650:	00f52823          	sw	a5,16(a0)
   17654:	04a9a023          	sw	a0,64(s3)
   17658:	00052023          	sw	zero,0(a0)
   1765c:	f0dff06f          	j	17568 <__pow5mult+0x3c>
   17660:	000196b7          	lui	a3,0x19
   17664:	00019537          	lui	a0,0x19
   17668:	76468693          	addi	a3,a3,1892 # 19764 <_getpid_r+0x648>
   1766c:	00000613          	li	a2,0
   17670:	14500593          	li	a1,325
   17674:	77850513          	addi	a0,a0,1912 # 19778 <_getpid_r+0x65c>
   17678:	314010ef          	jal	1898c <__assert_func>

0001767c <__lshift>:
   1767c:	fe010113          	addi	sp,sp,-32
   17680:	01512223          	sw	s5,4(sp)
   17684:	0105aa83          	lw	s5,16(a1)
   17688:	0085a783          	lw	a5,8(a1)
   1768c:	01312623          	sw	s3,12(sp)
   17690:	40565993          	srai	s3,a2,0x5
   17694:	01598ab3          	add	s5,s3,s5
   17698:	00812c23          	sw	s0,24(sp)
   1769c:	00912a23          	sw	s1,20(sp)
   176a0:	01212823          	sw	s2,16(sp)
   176a4:	01412423          	sw	s4,8(sp)
   176a8:	00112e23          	sw	ra,28(sp)
   176ac:	001a8913          	addi	s2,s5,1
   176b0:	00058493          	mv	s1,a1
   176b4:	00060413          	mv	s0,a2
   176b8:	0045a583          	lw	a1,4(a1)
   176bc:	00050a13          	mv	s4,a0
   176c0:	0127d863          	bge	a5,s2,176d0 <__lshift+0x54>
   176c4:	00179793          	slli	a5,a5,0x1
   176c8:	00158593          	addi	a1,a1,1
   176cc:	ff27cce3          	blt	a5,s2,176c4 <__lshift+0x48>
   176d0:	000a0513          	mv	a0,s4
   176d4:	ec0ff0ef          	jal	16d94 <_Balloc>
   176d8:	10050c63          	beqz	a0,177f0 <__lshift+0x174>
   176dc:	01450813          	addi	a6,a0,20
   176e0:	03305463          	blez	s3,17708 <__lshift+0x8c>
   176e4:	00598993          	addi	s3,s3,5
   176e8:	00299993          	slli	s3,s3,0x2
   176ec:	01350733          	add	a4,a0,s3
   176f0:	00080793          	mv	a5,a6
   176f4:	00478793          	addi	a5,a5,4
   176f8:	fe07ae23          	sw	zero,-4(a5)
   176fc:	fee79ce3          	bne	a5,a4,176f4 <__lshift+0x78>
   17700:	fec98993          	addi	s3,s3,-20
   17704:	01380833          	add	a6,a6,s3
   17708:	0104a883          	lw	a7,16(s1)
   1770c:	01448793          	addi	a5,s1,20
   17710:	01f47613          	andi	a2,s0,31
   17714:	00289893          	slli	a7,a7,0x2
   17718:	011788b3          	add	a7,a5,a7
   1771c:	0a060463          	beqz	a2,177c4 <__lshift+0x148>
   17720:	02000593          	li	a1,32
   17724:	40c585b3          	sub	a1,a1,a2
   17728:	00080313          	mv	t1,a6
   1772c:	00000693          	li	a3,0
   17730:	0007a703          	lw	a4,0(a5)
   17734:	00430313          	addi	t1,t1,4
   17738:	00478793          	addi	a5,a5,4
   1773c:	00c71733          	sll	a4,a4,a2
   17740:	00d76733          	or	a4,a4,a3
   17744:	fee32e23          	sw	a4,-4(t1)
   17748:	ffc7a683          	lw	a3,-4(a5)
   1774c:	00b6d6b3          	srl	a3,a3,a1
   17750:	ff17e0e3          	bltu	a5,a7,17730 <__lshift+0xb4>
   17754:	01548793          	addi	a5,s1,21
   17758:	00400713          	li	a4,4
   1775c:	00f8ea63          	bltu	a7,a5,17770 <__lshift+0xf4>
   17760:	409887b3          	sub	a5,a7,s1
   17764:	feb78793          	addi	a5,a5,-21
   17768:	ffc7f793          	andi	a5,a5,-4
   1776c:	00478713          	addi	a4,a5,4
   17770:	00e80833          	add	a6,a6,a4
   17774:	00d82023          	sw	a3,0(a6)
   17778:	00069463          	bnez	a3,17780 <__lshift+0x104>
   1777c:	000a8913          	mv	s2,s5
   17780:	0044a703          	lw	a4,4(s1)
   17784:	044a2783          	lw	a5,68(s4)
   17788:	01c12083          	lw	ra,28(sp)
   1778c:	00271713          	slli	a4,a4,0x2
   17790:	00e787b3          	add	a5,a5,a4
   17794:	0007a703          	lw	a4,0(a5)
   17798:	01252823          	sw	s2,16(a0)
   1779c:	01812403          	lw	s0,24(sp)
   177a0:	00e4a023          	sw	a4,0(s1)
   177a4:	0097a023          	sw	s1,0(a5)
   177a8:	01012903          	lw	s2,16(sp)
   177ac:	01412483          	lw	s1,20(sp)
   177b0:	00c12983          	lw	s3,12(sp)
   177b4:	00812a03          	lw	s4,8(sp)
   177b8:	00412a83          	lw	s5,4(sp)
   177bc:	02010113          	addi	sp,sp,32
   177c0:	00008067          	ret
   177c4:	0007a703          	lw	a4,0(a5)
   177c8:	00478793          	addi	a5,a5,4
   177cc:	00480813          	addi	a6,a6,4
   177d0:	fee82e23          	sw	a4,-4(a6)
   177d4:	fb17f4e3          	bgeu	a5,a7,1777c <__lshift+0x100>
   177d8:	0007a703          	lw	a4,0(a5)
   177dc:	00478793          	addi	a5,a5,4
   177e0:	00480813          	addi	a6,a6,4
   177e4:	fee82e23          	sw	a4,-4(a6)
   177e8:	fd17eee3          	bltu	a5,a7,177c4 <__lshift+0x148>
   177ec:	f91ff06f          	j	1777c <__lshift+0x100>
   177f0:	000196b7          	lui	a3,0x19
   177f4:	00019537          	lui	a0,0x19
   177f8:	76468693          	addi	a3,a3,1892 # 19764 <_getpid_r+0x648>
   177fc:	00000613          	li	a2,0
   17800:	1de00593          	li	a1,478
   17804:	77850513          	addi	a0,a0,1912 # 19778 <_getpid_r+0x65c>
   17808:	184010ef          	jal	1898c <__assert_func>

0001780c <__mcmp>:
   1780c:	01052703          	lw	a4,16(a0)
   17810:	0105a783          	lw	a5,16(a1)
   17814:	00050813          	mv	a6,a0
   17818:	40f70533          	sub	a0,a4,a5
   1781c:	04f71263          	bne	a4,a5,17860 <__mcmp+0x54>
   17820:	00279793          	slli	a5,a5,0x2
   17824:	01480813          	addi	a6,a6,20
   17828:	01458593          	addi	a1,a1,20
   1782c:	00f80733          	add	a4,a6,a5
   17830:	00f587b3          	add	a5,a1,a5
   17834:	0080006f          	j	1783c <__mcmp+0x30>
   17838:	02e87463          	bgeu	a6,a4,17860 <__mcmp+0x54>
   1783c:	ffc72603          	lw	a2,-4(a4)
   17840:	ffc7a683          	lw	a3,-4(a5)
   17844:	ffc70713          	addi	a4,a4,-4
   17848:	ffc78793          	addi	a5,a5,-4
   1784c:	fed606e3          	beq	a2,a3,17838 <__mcmp+0x2c>
   17850:	00100513          	li	a0,1
   17854:	00d67663          	bgeu	a2,a3,17860 <__mcmp+0x54>
   17858:	fff00513          	li	a0,-1
   1785c:	00008067          	ret
   17860:	00008067          	ret

00017864 <__mdiff>:
   17864:	0105a703          	lw	a4,16(a1)
   17868:	01062783          	lw	a5,16(a2)
   1786c:	ff010113          	addi	sp,sp,-16
   17870:	00812423          	sw	s0,8(sp)
   17874:	00912223          	sw	s1,4(sp)
   17878:	00112623          	sw	ra,12(sp)
   1787c:	01212023          	sw	s2,0(sp)
   17880:	00058413          	mv	s0,a1
   17884:	00060493          	mv	s1,a2
   17888:	40f706b3          	sub	a3,a4,a5
   1788c:	18f71e63          	bne	a4,a5,17a28 <__mdiff+0x1c4>
   17890:	00279693          	slli	a3,a5,0x2
   17894:	01458613          	addi	a2,a1,20
   17898:	01448713          	addi	a4,s1,20
   1789c:	00d607b3          	add	a5,a2,a3
   178a0:	00d70733          	add	a4,a4,a3
   178a4:	0080006f          	j	178ac <__mdiff+0x48>
   178a8:	18f67c63          	bgeu	a2,a5,17a40 <__mdiff+0x1dc>
   178ac:	ffc7a583          	lw	a1,-4(a5)
   178b0:	ffc72683          	lw	a3,-4(a4)
   178b4:	ffc78793          	addi	a5,a5,-4
   178b8:	ffc70713          	addi	a4,a4,-4
   178bc:	fed586e3          	beq	a1,a3,178a8 <__mdiff+0x44>
   178c0:	00100913          	li	s2,1
   178c4:	00d5ea63          	bltu	a1,a3,178d8 <__mdiff+0x74>
   178c8:	00048793          	mv	a5,s1
   178cc:	00000913          	li	s2,0
   178d0:	00040493          	mv	s1,s0
   178d4:	00078413          	mv	s0,a5
   178d8:	0044a583          	lw	a1,4(s1)
   178dc:	cb8ff0ef          	jal	16d94 <_Balloc>
   178e0:	1a050663          	beqz	a0,17a8c <__mdiff+0x228>
   178e4:	0104a883          	lw	a7,16(s1)
   178e8:	01042283          	lw	t0,16(s0)
   178ec:	01448f93          	addi	t6,s1,20
   178f0:	00289313          	slli	t1,a7,0x2
   178f4:	01440813          	addi	a6,s0,20
   178f8:	00229293          	slli	t0,t0,0x2
   178fc:	01450593          	addi	a1,a0,20
   17900:	00010e37          	lui	t3,0x10
   17904:	01252623          	sw	s2,12(a0)
   17908:	006f8333          	add	t1,t6,t1
   1790c:	005802b3          	add	t0,a6,t0
   17910:	00058f13          	mv	t5,a1
   17914:	000f8e93          	mv	t4,t6
   17918:	00000693          	li	a3,0
   1791c:	fffe0e13          	addi	t3,t3,-1 # ffff <_vfprintf_r+0xc13>
   17920:	000ea703          	lw	a4,0(t4)
   17924:	00082603          	lw	a2,0(a6)
   17928:	004f0f13          	addi	t5,t5,4
   1792c:	01c777b3          	and	a5,a4,t3
   17930:	01c673b3          	and	t2,a2,t3
   17934:	407787b3          	sub	a5,a5,t2
   17938:	00d787b3          	add	a5,a5,a3
   1793c:	01075713          	srli	a4,a4,0x10
   17940:	01065613          	srli	a2,a2,0x10
   17944:	4107d693          	srai	a3,a5,0x10
   17948:	40c70733          	sub	a4,a4,a2
   1794c:	00d70733          	add	a4,a4,a3
   17950:	01071693          	slli	a3,a4,0x10
   17954:	01c7f7b3          	and	a5,a5,t3
   17958:	00d7e7b3          	or	a5,a5,a3
   1795c:	00480813          	addi	a6,a6,4
   17960:	feff2e23          	sw	a5,-4(t5)
   17964:	004e8e93          	addi	t4,t4,4
   17968:	41075693          	srai	a3,a4,0x10
   1796c:	fa586ae3          	bltu	a6,t0,17920 <__mdiff+0xbc>
   17970:	01540713          	addi	a4,s0,21
   17974:	40828433          	sub	s0,t0,s0
   17978:	feb40413          	addi	s0,s0,-21
   1797c:	00e2b2b3          	sltu	t0,t0,a4
   17980:	0012cf13          	xori	t5,t0,1
   17984:	00245413          	srli	s0,s0,0x2
   17988:	00400713          	li	a4,4
   1798c:	0a028463          	beqz	t0,17a34 <__mdiff+0x1d0>
   17990:	00ef8fb3          	add	t6,t6,a4
   17994:	00e58833          	add	a6,a1,a4
   17998:	00010eb7          	lui	t4,0x10
   1799c:	00080e13          	mv	t3,a6
   179a0:	000f8613          	mv	a2,t6
   179a4:	fffe8e93          	addi	t4,t4,-1 # ffff <_vfprintf_r+0xc13>
   179a8:	0c6ff463          	bgeu	t6,t1,17a70 <__mdiff+0x20c>
   179ac:	00062783          	lw	a5,0(a2)
   179b0:	004e0e13          	addi	t3,t3,4
   179b4:	00460613          	addi	a2,a2,4
   179b8:	01d7f733          	and	a4,a5,t4
   179bc:	00d70733          	add	a4,a4,a3
   179c0:	0107d593          	srli	a1,a5,0x10
   179c4:	41075713          	srai	a4,a4,0x10
   179c8:	00b70733          	add	a4,a4,a1
   179cc:	00d787b3          	add	a5,a5,a3
   179d0:	01d7f7b3          	and	a5,a5,t4
   179d4:	01071693          	slli	a3,a4,0x10
   179d8:	00d7e7b3          	or	a5,a5,a3
   179dc:	fefe2e23          	sw	a5,-4(t3)
   179e0:	41075693          	srai	a3,a4,0x10
   179e4:	fc6664e3          	bltu	a2,t1,179ac <__mdiff+0x148>
   179e8:	fff30313          	addi	t1,t1,-1
   179ec:	41f30333          	sub	t1,t1,t6
   179f0:	ffc37313          	andi	t1,t1,-4
   179f4:	00680733          	add	a4,a6,t1
   179f8:	00079a63          	bnez	a5,17a0c <__mdiff+0x1a8>
   179fc:	ffc72783          	lw	a5,-4(a4)
   17a00:	fff88893          	addi	a7,a7,-1
   17a04:	ffc70713          	addi	a4,a4,-4
   17a08:	fe078ae3          	beqz	a5,179fc <__mdiff+0x198>
   17a0c:	00c12083          	lw	ra,12(sp)
   17a10:	00812403          	lw	s0,8(sp)
   17a14:	01152823          	sw	a7,16(a0)
   17a18:	00412483          	lw	s1,4(sp)
   17a1c:	00012903          	lw	s2,0(sp)
   17a20:	01010113          	addi	sp,sp,16
   17a24:	00008067          	ret
   17a28:	00100913          	li	s2,1
   17a2c:	e806dee3          	bgez	a3,178c8 <__mdiff+0x64>
   17a30:	ea9ff06f          	j	178d8 <__mdiff+0x74>
   17a34:	00140713          	addi	a4,s0,1
   17a38:	00271713          	slli	a4,a4,0x2
   17a3c:	f55ff06f          	j	17990 <__mdiff+0x12c>
   17a40:	00000593          	li	a1,0
   17a44:	b50ff0ef          	jal	16d94 <_Balloc>
   17a48:	06050063          	beqz	a0,17aa8 <__mdiff+0x244>
   17a4c:	00c12083          	lw	ra,12(sp)
   17a50:	00812403          	lw	s0,8(sp)
   17a54:	00100793          	li	a5,1
   17a58:	00f52823          	sw	a5,16(a0)
   17a5c:	00052a23          	sw	zero,20(a0)
   17a60:	00412483          	lw	s1,4(sp)
   17a64:	00012903          	lw	s2,0(sp)
   17a68:	01010113          	addi	sp,sp,16
   17a6c:	00008067          	ret
   17a70:	00000713          	li	a4,0
   17a74:	000f1663          	bnez	t5,17a80 <__mdiff+0x21c>
   17a78:	00e58733          	add	a4,a1,a4
   17a7c:	f7dff06f          	j	179f8 <__mdiff+0x194>
   17a80:	00241713          	slli	a4,s0,0x2
   17a84:	00e58733          	add	a4,a1,a4
   17a88:	f71ff06f          	j	179f8 <__mdiff+0x194>
   17a8c:	000196b7          	lui	a3,0x19
   17a90:	00019537          	lui	a0,0x19
   17a94:	76468693          	addi	a3,a3,1892 # 19764 <_getpid_r+0x648>
   17a98:	00000613          	li	a2,0
   17a9c:	24500593          	li	a1,581
   17aa0:	77850513          	addi	a0,a0,1912 # 19778 <_getpid_r+0x65c>
   17aa4:	6e9000ef          	jal	1898c <__assert_func>
   17aa8:	000196b7          	lui	a3,0x19
   17aac:	00019537          	lui	a0,0x19
   17ab0:	76468693          	addi	a3,a3,1892 # 19764 <_getpid_r+0x648>
   17ab4:	00000613          	li	a2,0
   17ab8:	23700593          	li	a1,567
   17abc:	77850513          	addi	a0,a0,1912 # 19778 <_getpid_r+0x65c>
   17ac0:	6cd000ef          	jal	1898c <__assert_func>

00017ac4 <__ulp>:
   17ac4:	7ff007b7          	lui	a5,0x7ff00
   17ac8:	00b7f5b3          	and	a1,a5,a1
   17acc:	fcc007b7          	lui	a5,0xfcc00
   17ad0:	00f585b3          	add	a1,a1,a5
   17ad4:	00000793          	li	a5,0
   17ad8:	00b05663          	blez	a1,17ae4 <__ulp+0x20>
   17adc:	00078513          	mv	a0,a5
   17ae0:	00008067          	ret
   17ae4:	40b005b3          	neg	a1,a1
   17ae8:	4145d593          	srai	a1,a1,0x14
   17aec:	01300793          	li	a5,19
   17af0:	00b7cc63          	blt	a5,a1,17b08 <__ulp+0x44>
   17af4:	000807b7          	lui	a5,0x80
   17af8:	40b7d5b3          	sra	a1,a5,a1
   17afc:	00000793          	li	a5,0
   17b00:	00078513          	mv	a0,a5
   17b04:	00008067          	ret
   17b08:	fec58593          	addi	a1,a1,-20
   17b0c:	01e00713          	li	a4,30
   17b10:	00100793          	li	a5,1
   17b14:	00b74663          	blt	a4,a1,17b20 <__ulp+0x5c>
   17b18:	800007b7          	lui	a5,0x80000
   17b1c:	00b7d7b3          	srl	a5,a5,a1
   17b20:	00000593          	li	a1,0
   17b24:	00078513          	mv	a0,a5
   17b28:	00008067          	ret

00017b2c <__b2d>:
   17b2c:	fe010113          	addi	sp,sp,-32
   17b30:	00912a23          	sw	s1,20(sp)
   17b34:	01052483          	lw	s1,16(a0)
   17b38:	00812c23          	sw	s0,24(sp)
   17b3c:	01450413          	addi	s0,a0,20
   17b40:	00249493          	slli	s1,s1,0x2
   17b44:	009404b3          	add	s1,s0,s1
   17b48:	01212823          	sw	s2,16(sp)
   17b4c:	ffc4a903          	lw	s2,-4(s1)
   17b50:	01312623          	sw	s3,12(sp)
   17b54:	01412423          	sw	s4,8(sp)
   17b58:	00090513          	mv	a0,s2
   17b5c:	00058993          	mv	s3,a1
   17b60:	00112e23          	sw	ra,28(sp)
   17b64:	d8cff0ef          	jal	170f0 <__hi0bits>
   17b68:	02000713          	li	a4,32
   17b6c:	40a707b3          	sub	a5,a4,a0
   17b70:	00f9a023          	sw	a5,0(s3)
   17b74:	00a00793          	li	a5,10
   17b78:	ffc48a13          	addi	s4,s1,-4
   17b7c:	08a7dc63          	bge	a5,a0,17c14 <__b2d+0xe8>
   17b80:	ff550613          	addi	a2,a0,-11
   17b84:	05447063          	bgeu	s0,s4,17bc4 <__b2d+0x98>
   17b88:	ff84a783          	lw	a5,-8(s1)
   17b8c:	04060c63          	beqz	a2,17be4 <__b2d+0xb8>
   17b90:	40c706b3          	sub	a3,a4,a2
   17b94:	00d7d733          	srl	a4,a5,a3
   17b98:	00c91933          	sll	s2,s2,a2
   17b9c:	00e96933          	or	s2,s2,a4
   17ba0:	ff848593          	addi	a1,s1,-8
   17ba4:	3ff00737          	lui	a4,0x3ff00
   17ba8:	00e96733          	or	a4,s2,a4
   17bac:	00c797b3          	sll	a5,a5,a2
   17bb0:	02b47e63          	bgeu	s0,a1,17bec <__b2d+0xc0>
   17bb4:	ff44a603          	lw	a2,-12(s1)
   17bb8:	00d656b3          	srl	a3,a2,a3
   17bbc:	00d7e7b3          	or	a5,a5,a3
   17bc0:	02c0006f          	j	17bec <__b2d+0xc0>
   17bc4:	00b00793          	li	a5,11
   17bc8:	00f50c63          	beq	a0,a5,17be0 <__b2d+0xb4>
   17bcc:	00c91933          	sll	s2,s2,a2
   17bd0:	3ff00737          	lui	a4,0x3ff00
   17bd4:	00e96733          	or	a4,s2,a4
   17bd8:	00000793          	li	a5,0
   17bdc:	0100006f          	j	17bec <__b2d+0xc0>
   17be0:	00000793          	li	a5,0
   17be4:	3ff00737          	lui	a4,0x3ff00
   17be8:	00e96733          	or	a4,s2,a4
   17bec:	01c12083          	lw	ra,28(sp)
   17bf0:	01812403          	lw	s0,24(sp)
   17bf4:	01412483          	lw	s1,20(sp)
   17bf8:	01012903          	lw	s2,16(sp)
   17bfc:	00c12983          	lw	s3,12(sp)
   17c00:	00812a03          	lw	s4,8(sp)
   17c04:	00078513          	mv	a0,a5
   17c08:	00070593          	mv	a1,a4
   17c0c:	02010113          	addi	sp,sp,32
   17c10:	00008067          	ret
   17c14:	00b00693          	li	a3,11
   17c18:	40a686b3          	sub	a3,a3,a0
   17c1c:	3ff007b7          	lui	a5,0x3ff00
   17c20:	00d95733          	srl	a4,s2,a3
   17c24:	00f76733          	or	a4,a4,a5
   17c28:	00000793          	li	a5,0
   17c2c:	01447663          	bgeu	s0,s4,17c38 <__b2d+0x10c>
   17c30:	ff84a783          	lw	a5,-8(s1)
   17c34:	00d7d7b3          	srl	a5,a5,a3
   17c38:	01550513          	addi	a0,a0,21
   17c3c:	00a91933          	sll	s2,s2,a0
   17c40:	00f967b3          	or	a5,s2,a5
   17c44:	fa9ff06f          	j	17bec <__b2d+0xc0>

00017c48 <__d2b>:
   17c48:	fd010113          	addi	sp,sp,-48
   17c4c:	01512a23          	sw	s5,20(sp)
   17c50:	00058a93          	mv	s5,a1
   17c54:	00100593          	li	a1,1
   17c58:	02912223          	sw	s1,36(sp)
   17c5c:	01312e23          	sw	s3,28(sp)
   17c60:	01412c23          	sw	s4,24(sp)
   17c64:	02112623          	sw	ra,44(sp)
   17c68:	02812423          	sw	s0,40(sp)
   17c6c:	03212023          	sw	s2,32(sp)
   17c70:	00060493          	mv	s1,a2
   17c74:	00068a13          	mv	s4,a3
   17c78:	00070993          	mv	s3,a4
   17c7c:	918ff0ef          	jal	16d94 <_Balloc>
   17c80:	10050263          	beqz	a0,17d84 <__d2b+0x13c>
   17c84:	00100737          	lui	a4,0x100
   17c88:	0144d913          	srli	s2,s1,0x14
   17c8c:	fff70793          	addi	a5,a4,-1 # fffff <_end+0xe2d9b>
   17c90:	7ff97913          	andi	s2,s2,2047
   17c94:	00050413          	mv	s0,a0
   17c98:	0097f7b3          	and	a5,a5,s1
   17c9c:	00090463          	beqz	s2,17ca4 <__d2b+0x5c>
   17ca0:	00e7e7b3          	or	a5,a5,a4
   17ca4:	00f12623          	sw	a5,12(sp)
   17ca8:	060a9263          	bnez	s5,17d0c <__d2b+0xc4>
   17cac:	00c10513          	addi	a0,sp,12
   17cb0:	cb8ff0ef          	jal	17168 <__lo0bits>
   17cb4:	00c12703          	lw	a4,12(sp)
   17cb8:	00100493          	li	s1,1
   17cbc:	00942823          	sw	s1,16(s0)
   17cc0:	00e42a23          	sw	a4,20(s0)
   17cc4:	02050793          	addi	a5,a0,32
   17cc8:	08090863          	beqz	s2,17d58 <__d2b+0x110>
   17ccc:	bcd90913          	addi	s2,s2,-1075
   17cd0:	00f90933          	add	s2,s2,a5
   17cd4:	03500493          	li	s1,53
   17cd8:	012a2023          	sw	s2,0(s4)
   17cdc:	40f48533          	sub	a0,s1,a5
   17ce0:	00a9a023          	sw	a0,0(s3)
   17ce4:	02c12083          	lw	ra,44(sp)
   17ce8:	00040513          	mv	a0,s0
   17cec:	02812403          	lw	s0,40(sp)
   17cf0:	02412483          	lw	s1,36(sp)
   17cf4:	02012903          	lw	s2,32(sp)
   17cf8:	01c12983          	lw	s3,28(sp)
   17cfc:	01812a03          	lw	s4,24(sp)
   17d00:	01412a83          	lw	s5,20(sp)
   17d04:	03010113          	addi	sp,sp,48
   17d08:	00008067          	ret
   17d0c:	00810513          	addi	a0,sp,8
   17d10:	01512423          	sw	s5,8(sp)
   17d14:	c54ff0ef          	jal	17168 <__lo0bits>
   17d18:	00c12703          	lw	a4,12(sp)
   17d1c:	00050793          	mv	a5,a0
   17d20:	04050e63          	beqz	a0,17d7c <__d2b+0x134>
   17d24:	00812603          	lw	a2,8(sp)
   17d28:	02000693          	li	a3,32
   17d2c:	40a686b3          	sub	a3,a3,a0
   17d30:	00d716b3          	sll	a3,a4,a3
   17d34:	00a75733          	srl	a4,a4,a0
   17d38:	00c6e6b3          	or	a3,a3,a2
   17d3c:	00e12623          	sw	a4,12(sp)
   17d40:	00e034b3          	snez	s1,a4
   17d44:	00148493          	addi	s1,s1,1
   17d48:	00d42a23          	sw	a3,20(s0)
   17d4c:	00e42c23          	sw	a4,24(s0)
   17d50:	00942823          	sw	s1,16(s0)
   17d54:	f6091ce3          	bnez	s2,17ccc <__d2b+0x84>
   17d58:	00249713          	slli	a4,s1,0x2
   17d5c:	00e40733          	add	a4,s0,a4
   17d60:	01072503          	lw	a0,16(a4)
   17d64:	bce78793          	addi	a5,a5,-1074 # 3feffbce <_end+0x3fee296a>
   17d68:	00fa2023          	sw	a5,0(s4)
   17d6c:	b84ff0ef          	jal	170f0 <__hi0bits>
   17d70:	00549493          	slli	s1,s1,0x5
   17d74:	40a48533          	sub	a0,s1,a0
   17d78:	f69ff06f          	j	17ce0 <__d2b+0x98>
   17d7c:	00812683          	lw	a3,8(sp)
   17d80:	fc1ff06f          	j	17d40 <__d2b+0xf8>
   17d84:	000196b7          	lui	a3,0x19
   17d88:	00019537          	lui	a0,0x19
   17d8c:	76468693          	addi	a3,a3,1892 # 19764 <_getpid_r+0x648>
   17d90:	00000613          	li	a2,0
   17d94:	30f00593          	li	a1,783
   17d98:	77850513          	addi	a0,a0,1912 # 19778 <_getpid_r+0x65c>
   17d9c:	3f1000ef          	jal	1898c <__assert_func>

00017da0 <__ratio>:
   17da0:	fd010113          	addi	sp,sp,-48
   17da4:	03212023          	sw	s2,32(sp)
   17da8:	00058913          	mv	s2,a1
   17dac:	00810593          	addi	a1,sp,8
   17db0:	02112623          	sw	ra,44(sp)
   17db4:	02812423          	sw	s0,40(sp)
   17db8:	02912223          	sw	s1,36(sp)
   17dbc:	01312e23          	sw	s3,28(sp)
   17dc0:	00050993          	mv	s3,a0
   17dc4:	d69ff0ef          	jal	17b2c <__b2d>
   17dc8:	00050493          	mv	s1,a0
   17dcc:	00058413          	mv	s0,a1
   17dd0:	00090513          	mv	a0,s2
   17dd4:	00c10593          	addi	a1,sp,12
   17dd8:	d55ff0ef          	jal	17b2c <__b2d>
   17ddc:	01092703          	lw	a4,16(s2)
   17de0:	0109a783          	lw	a5,16(s3)
   17de4:	00c12683          	lw	a3,12(sp)
   17de8:	40e787b3          	sub	a5,a5,a4
   17dec:	00812703          	lw	a4,8(sp)
   17df0:	00579793          	slli	a5,a5,0x5
   17df4:	40d70733          	sub	a4,a4,a3
   17df8:	00e787b3          	add	a5,a5,a4
   17dfc:	00050713          	mv	a4,a0
   17e00:	02f05e63          	blez	a5,17e3c <__ratio+0x9c>
   17e04:	01479793          	slli	a5,a5,0x14
   17e08:	00878433          	add	s0,a5,s0
   17e0c:	00058693          	mv	a3,a1
   17e10:	00048513          	mv	a0,s1
   17e14:	00040593          	mv	a1,s0
   17e18:	00070613          	mv	a2,a4
   17e1c:	864f10ef          	jal	8e80 <__divdf3>
   17e20:	02c12083          	lw	ra,44(sp)
   17e24:	02812403          	lw	s0,40(sp)
   17e28:	02412483          	lw	s1,36(sp)
   17e2c:	02012903          	lw	s2,32(sp)
   17e30:	01c12983          	lw	s3,28(sp)
   17e34:	03010113          	addi	sp,sp,48
   17e38:	00008067          	ret
   17e3c:	01479793          	slli	a5,a5,0x14
   17e40:	40f585b3          	sub	a1,a1,a5
   17e44:	fc9ff06f          	j	17e0c <__ratio+0x6c>

00017e48 <_mprec_log10>:
   17e48:	ff010113          	addi	sp,sp,-16
   17e4c:	01212023          	sw	s2,0(sp)
   17e50:	00112623          	sw	ra,12(sp)
   17e54:	01700793          	li	a5,23
   17e58:	00050913          	mv	s2,a0
   17e5c:	04a7da63          	bge	a5,a0,17eb0 <_mprec_log10+0x68>
   17e60:	8301a783          	lw	a5,-2000(gp) # 1a6e8 <__global_locale+0x1a0>
   17e64:	8341a583          	lw	a1,-1996(gp) # 1a6ec <__global_locale+0x1a4>
   17e68:	00812423          	sw	s0,8(sp)
   17e6c:	00912223          	sw	s1,4(sp)
   17e70:	8381a403          	lw	s0,-1992(gp) # 1a6f0 <__global_locale+0x1a8>
   17e74:	83c1a483          	lw	s1,-1988(gp) # 1a6f4 <__global_locale+0x1ac>
   17e78:	00078513          	mv	a0,a5
   17e7c:	00040613          	mv	a2,s0
   17e80:	00048693          	mv	a3,s1
   17e84:	91df10ef          	jal	97a0 <__muldf3>
   17e88:	fff90913          	addi	s2,s2,-1
   17e8c:	00050793          	mv	a5,a0
   17e90:	fe0914e3          	bnez	s2,17e78 <_mprec_log10+0x30>
   17e94:	00812403          	lw	s0,8(sp)
   17e98:	00c12083          	lw	ra,12(sp)
   17e9c:	00412483          	lw	s1,4(sp)
   17ea0:	00012903          	lw	s2,0(sp)
   17ea4:	00078513          	mv	a0,a5
   17ea8:	01010113          	addi	sp,sp,16
   17eac:	00008067          	ret
   17eb0:	0001a737          	lui	a4,0x1a
   17eb4:	00351913          	slli	s2,a0,0x3
   17eb8:	c2870713          	addi	a4,a4,-984 # 19c28 <__mprec_tens>
   17ebc:	01270733          	add	a4,a4,s2
   17ec0:	00072783          	lw	a5,0(a4)
   17ec4:	00c12083          	lw	ra,12(sp)
   17ec8:	00472583          	lw	a1,4(a4)
   17ecc:	00012903          	lw	s2,0(sp)
   17ed0:	00078513          	mv	a0,a5
   17ed4:	01010113          	addi	sp,sp,16
   17ed8:	00008067          	ret

00017edc <__copybits>:
   17edc:	01062683          	lw	a3,16(a2)
   17ee0:	fff58593          	addi	a1,a1,-1
   17ee4:	4055d593          	srai	a1,a1,0x5
   17ee8:	00158593          	addi	a1,a1,1
   17eec:	01460793          	addi	a5,a2,20
   17ef0:	00269693          	slli	a3,a3,0x2
   17ef4:	00259593          	slli	a1,a1,0x2
   17ef8:	00d786b3          	add	a3,a5,a3
   17efc:	00b505b3          	add	a1,a0,a1
   17f00:	02d7f863          	bgeu	a5,a3,17f30 <__copybits+0x54>
   17f04:	00050713          	mv	a4,a0
   17f08:	0007a803          	lw	a6,0(a5)
   17f0c:	00478793          	addi	a5,a5,4
   17f10:	00470713          	addi	a4,a4,4
   17f14:	ff072e23          	sw	a6,-4(a4)
   17f18:	fed7e8e3          	bltu	a5,a3,17f08 <__copybits+0x2c>
   17f1c:	40c687b3          	sub	a5,a3,a2
   17f20:	feb78793          	addi	a5,a5,-21
   17f24:	ffc7f793          	andi	a5,a5,-4
   17f28:	00478793          	addi	a5,a5,4
   17f2c:	00f50533          	add	a0,a0,a5
   17f30:	00b57863          	bgeu	a0,a1,17f40 <__copybits+0x64>
   17f34:	00450513          	addi	a0,a0,4
   17f38:	fe052e23          	sw	zero,-4(a0)
   17f3c:	feb56ce3          	bltu	a0,a1,17f34 <__copybits+0x58>
   17f40:	00008067          	ret

00017f44 <__any_on>:
   17f44:	01052703          	lw	a4,16(a0)
   17f48:	4055d613          	srai	a2,a1,0x5
   17f4c:	01450693          	addi	a3,a0,20
   17f50:	02c75263          	bge	a4,a2,17f74 <__any_on+0x30>
   17f54:	00271713          	slli	a4,a4,0x2
   17f58:	00e687b3          	add	a5,a3,a4
   17f5c:	04f6f263          	bgeu	a3,a5,17fa0 <__any_on+0x5c>
   17f60:	ffc7a703          	lw	a4,-4(a5)
   17f64:	ffc78793          	addi	a5,a5,-4
   17f68:	fe070ae3          	beqz	a4,17f5c <__any_on+0x18>
   17f6c:	00100513          	li	a0,1
   17f70:	00008067          	ret
   17f74:	00261793          	slli	a5,a2,0x2
   17f78:	00f687b3          	add	a5,a3,a5
   17f7c:	fee650e3          	bge	a2,a4,17f5c <__any_on+0x18>
   17f80:	01f5f593          	andi	a1,a1,31
   17f84:	fc058ce3          	beqz	a1,17f5c <__any_on+0x18>
   17f88:	0007a603          	lw	a2,0(a5)
   17f8c:	00100513          	li	a0,1
   17f90:	00b65733          	srl	a4,a2,a1
   17f94:	00b71733          	sll	a4,a4,a1
   17f98:	fce602e3          	beq	a2,a4,17f5c <__any_on+0x18>
   17f9c:	00008067          	ret
   17fa0:	00000513          	li	a0,0
   17fa4:	00008067          	ret

00017fa8 <_realloc_r>:
   17fa8:	fd010113          	addi	sp,sp,-48
   17fac:	02912223          	sw	s1,36(sp)
   17fb0:	02112623          	sw	ra,44(sp)
   17fb4:	00060493          	mv	s1,a2
   17fb8:	1e058863          	beqz	a1,181a8 <_realloc_r+0x200>
   17fbc:	02812423          	sw	s0,40(sp)
   17fc0:	03212023          	sw	s2,32(sp)
   17fc4:	00058413          	mv	s0,a1
   17fc8:	01312e23          	sw	s3,28(sp)
   17fcc:	01512a23          	sw	s5,20(sp)
   17fd0:	01412c23          	sw	s4,24(sp)
   17fd4:	00050913          	mv	s2,a0
   17fd8:	b6cf60ef          	jal	e344 <__malloc_lock>
   17fdc:	ffc42703          	lw	a4,-4(s0)
   17fe0:	00b48793          	addi	a5,s1,11
   17fe4:	01600693          	li	a3,22
   17fe8:	ff840a93          	addi	s5,s0,-8
   17fec:	ffc77993          	andi	s3,a4,-4
   17ff0:	10f6f263          	bgeu	a3,a5,180f4 <_realloc_r+0x14c>
   17ff4:	ff87fa13          	andi	s4,a5,-8
   17ff8:	1007c263          	bltz	a5,180fc <_realloc_r+0x154>
   17ffc:	109a6063          	bltu	s4,s1,180fc <_realloc_r+0x154>
   18000:	1349d263          	bge	s3,s4,18124 <_realloc_r+0x17c>
   18004:	0001a7b7          	lui	a5,0x1a
   18008:	01812423          	sw	s8,8(sp)
   1800c:	01078c13          	addi	s8,a5,16 # 1a010 <__malloc_av_>
   18010:	008c2603          	lw	a2,8(s8)
   18014:	013a86b3          	add	a3,s5,s3
   18018:	0046a783          	lw	a5,4(a3)
   1801c:	1cd60863          	beq	a2,a3,181ec <_realloc_r+0x244>
   18020:	ffe7f613          	andi	a2,a5,-2
   18024:	00c68633          	add	a2,a3,a2
   18028:	00462603          	lw	a2,4(a2)
   1802c:	00167613          	andi	a2,a2,1
   18030:	14061a63          	bnez	a2,18184 <_realloc_r+0x1dc>
   18034:	ffc7f793          	andi	a5,a5,-4
   18038:	00f98633          	add	a2,s3,a5
   1803c:	0d465863          	bge	a2,s4,1810c <_realloc_r+0x164>
   18040:	00177713          	andi	a4,a4,1
   18044:	02071c63          	bnez	a4,1807c <_realloc_r+0xd4>
   18048:	01712623          	sw	s7,12(sp)
   1804c:	ff842b83          	lw	s7,-8(s0)
   18050:	01612823          	sw	s6,16(sp)
   18054:	417a8bb3          	sub	s7,s5,s7
   18058:	004ba703          	lw	a4,4(s7)
   1805c:	ffc77713          	andi	a4,a4,-4
   18060:	00e787b3          	add	a5,a5,a4
   18064:	01378b33          	add	s6,a5,s3
   18068:	334b5c63          	bge	s6,s4,183a0 <_realloc_r+0x3f8>
   1806c:	00e98b33          	add	s6,s3,a4
   18070:	294b5863          	bge	s6,s4,18300 <_realloc_r+0x358>
   18074:	01012b03          	lw	s6,16(sp)
   18078:	00c12b83          	lw	s7,12(sp)
   1807c:	00048593          	mv	a1,s1
   18080:	00090513          	mv	a0,s2
   18084:	afdf50ef          	jal	db80 <_malloc_r>
   18088:	00050493          	mv	s1,a0
   1808c:	40050863          	beqz	a0,1849c <_realloc_r+0x4f4>
   18090:	ffc42783          	lw	a5,-4(s0)
   18094:	ff850713          	addi	a4,a0,-8
   18098:	ffe7f793          	andi	a5,a5,-2
   1809c:	00fa87b3          	add	a5,s5,a5
   180a0:	24e78663          	beq	a5,a4,182ec <_realloc_r+0x344>
   180a4:	ffc98613          	addi	a2,s3,-4
   180a8:	02400793          	li	a5,36
   180ac:	2ec7e463          	bltu	a5,a2,18394 <_realloc_r+0x3ec>
   180b0:	01300713          	li	a4,19
   180b4:	20c76a63          	bltu	a4,a2,182c8 <_realloc_r+0x320>
   180b8:	00050793          	mv	a5,a0
   180bc:	00040713          	mv	a4,s0
   180c0:	00072683          	lw	a3,0(a4)
   180c4:	00d7a023          	sw	a3,0(a5)
   180c8:	00472683          	lw	a3,4(a4)
   180cc:	00d7a223          	sw	a3,4(a5)
   180d0:	00872703          	lw	a4,8(a4)
   180d4:	00e7a423          	sw	a4,8(a5)
   180d8:	00040593          	mv	a1,s0
   180dc:	00090513          	mv	a0,s2
   180e0:	808f70ef          	jal	f0e8 <_free_r>
   180e4:	00090513          	mv	a0,s2
   180e8:	a60f60ef          	jal	e348 <__malloc_unlock>
   180ec:	00812c03          	lw	s8,8(sp)
   180f0:	06c0006f          	j	1815c <_realloc_r+0x1b4>
   180f4:	01000a13          	li	s4,16
   180f8:	f09a74e3          	bgeu	s4,s1,18000 <_realloc_r+0x58>
   180fc:	00c00793          	li	a5,12
   18100:	00f92023          	sw	a5,0(s2)
   18104:	00000493          	li	s1,0
   18108:	0540006f          	j	1815c <_realloc_r+0x1b4>
   1810c:	00c6a783          	lw	a5,12(a3)
   18110:	0086a703          	lw	a4,8(a3)
   18114:	00812c03          	lw	s8,8(sp)
   18118:	00060993          	mv	s3,a2
   1811c:	00f72623          	sw	a5,12(a4)
   18120:	00e7a423          	sw	a4,8(a5)
   18124:	004aa783          	lw	a5,4(s5)
   18128:	414986b3          	sub	a3,s3,s4
   1812c:	00f00613          	li	a2,15
   18130:	0017f793          	andi	a5,a5,1
   18134:	013a8733          	add	a4,s5,s3
   18138:	08d66263          	bltu	a2,a3,181bc <_realloc_r+0x214>
   1813c:	0137e7b3          	or	a5,a5,s3
   18140:	00faa223          	sw	a5,4(s5)
   18144:	00472783          	lw	a5,4(a4)
   18148:	0017e793          	ori	a5,a5,1
   1814c:	00f72223          	sw	a5,4(a4)
   18150:	00090513          	mv	a0,s2
   18154:	9f4f60ef          	jal	e348 <__malloc_unlock>
   18158:	00040493          	mv	s1,s0
   1815c:	02812403          	lw	s0,40(sp)
   18160:	02c12083          	lw	ra,44(sp)
   18164:	02012903          	lw	s2,32(sp)
   18168:	01c12983          	lw	s3,28(sp)
   1816c:	01812a03          	lw	s4,24(sp)
   18170:	01412a83          	lw	s5,20(sp)
   18174:	00048513          	mv	a0,s1
   18178:	02412483          	lw	s1,36(sp)
   1817c:	03010113          	addi	sp,sp,48
   18180:	00008067          	ret
   18184:	00177713          	andi	a4,a4,1
   18188:	ee071ae3          	bnez	a4,1807c <_realloc_r+0xd4>
   1818c:	01712623          	sw	s7,12(sp)
   18190:	ff842b83          	lw	s7,-8(s0)
   18194:	01612823          	sw	s6,16(sp)
   18198:	417a8bb3          	sub	s7,s5,s7
   1819c:	004ba703          	lw	a4,4(s7)
   181a0:	ffc77713          	andi	a4,a4,-4
   181a4:	ec9ff06f          	j	1806c <_realloc_r+0xc4>
   181a8:	02c12083          	lw	ra,44(sp)
   181ac:	02412483          	lw	s1,36(sp)
   181b0:	00060593          	mv	a1,a2
   181b4:	03010113          	addi	sp,sp,48
   181b8:	9c9f506f          	j	db80 <_malloc_r>
   181bc:	0147e7b3          	or	a5,a5,s4
   181c0:	00faa223          	sw	a5,4(s5)
   181c4:	014a85b3          	add	a1,s5,s4
   181c8:	0016e693          	ori	a3,a3,1
   181cc:	00d5a223          	sw	a3,4(a1)
   181d0:	00472783          	lw	a5,4(a4)
   181d4:	00858593          	addi	a1,a1,8
   181d8:	00090513          	mv	a0,s2
   181dc:	0017e793          	ori	a5,a5,1
   181e0:	00f72223          	sw	a5,4(a4)
   181e4:	f05f60ef          	jal	f0e8 <_free_r>
   181e8:	f69ff06f          	j	18150 <_realloc_r+0x1a8>
   181ec:	ffc7f793          	andi	a5,a5,-4
   181f0:	013786b3          	add	a3,a5,s3
   181f4:	010a0613          	addi	a2,s4,16
   181f8:	26c6d063          	bge	a3,a2,18458 <_realloc_r+0x4b0>
   181fc:	00177713          	andi	a4,a4,1
   18200:	e6071ee3          	bnez	a4,1807c <_realloc_r+0xd4>
   18204:	01712623          	sw	s7,12(sp)
   18208:	ff842b83          	lw	s7,-8(s0)
   1820c:	01612823          	sw	s6,16(sp)
   18210:	417a8bb3          	sub	s7,s5,s7
   18214:	004ba703          	lw	a4,4(s7)
   18218:	ffc77713          	andi	a4,a4,-4
   1821c:	00e787b3          	add	a5,a5,a4
   18220:	01378b33          	add	s6,a5,s3
   18224:	e4cb44e3          	blt	s6,a2,1806c <_realloc_r+0xc4>
   18228:	00cba783          	lw	a5,12(s7)
   1822c:	008ba703          	lw	a4,8(s7)
   18230:	ffc98613          	addi	a2,s3,-4
   18234:	02400693          	li	a3,36
   18238:	00f72623          	sw	a5,12(a4)
   1823c:	00e7a423          	sw	a4,8(a5)
   18240:	008b8493          	addi	s1,s7,8
   18244:	28c6e463          	bltu	a3,a2,184cc <_realloc_r+0x524>
   18248:	01300713          	li	a4,19
   1824c:	00048793          	mv	a5,s1
   18250:	02c77263          	bgeu	a4,a2,18274 <_realloc_r+0x2cc>
   18254:	00042703          	lw	a4,0(s0)
   18258:	01b00793          	li	a5,27
   1825c:	00eba423          	sw	a4,8(s7)
   18260:	00442703          	lw	a4,4(s0)
   18264:	00eba623          	sw	a4,12(s7)
   18268:	26c7ea63          	bltu	a5,a2,184dc <_realloc_r+0x534>
   1826c:	00840413          	addi	s0,s0,8
   18270:	010b8793          	addi	a5,s7,16
   18274:	00042703          	lw	a4,0(s0)
   18278:	00e7a023          	sw	a4,0(a5)
   1827c:	00442703          	lw	a4,4(s0)
   18280:	00e7a223          	sw	a4,4(a5)
   18284:	00842703          	lw	a4,8(s0)
   18288:	00e7a423          	sw	a4,8(a5)
   1828c:	014b8733          	add	a4,s7,s4
   18290:	414b0b33          	sub	s6,s6,s4
   18294:	00ec2423          	sw	a4,8(s8)
   18298:	001b6793          	ori	a5,s6,1
   1829c:	00f72223          	sw	a5,4(a4)
   182a0:	004ba783          	lw	a5,4(s7)
   182a4:	00090513          	mv	a0,s2
   182a8:	0017f793          	andi	a5,a5,1
   182ac:	0147e7b3          	or	a5,a5,s4
   182b0:	00fba223          	sw	a5,4(s7)
   182b4:	894f60ef          	jal	e348 <__malloc_unlock>
   182b8:	01012b03          	lw	s6,16(sp)
   182bc:	00c12b83          	lw	s7,12(sp)
   182c0:	00812c03          	lw	s8,8(sp)
   182c4:	e99ff06f          	j	1815c <_realloc_r+0x1b4>
   182c8:	00042683          	lw	a3,0(s0)
   182cc:	01b00713          	li	a4,27
   182d0:	00d52023          	sw	a3,0(a0)
   182d4:	00442683          	lw	a3,4(s0)
   182d8:	00d52223          	sw	a3,4(a0)
   182dc:	14c76e63          	bltu	a4,a2,18438 <_realloc_r+0x490>
   182e0:	00840713          	addi	a4,s0,8
   182e4:	00850793          	addi	a5,a0,8
   182e8:	dd9ff06f          	j	180c0 <_realloc_r+0x118>
   182ec:	ffc52783          	lw	a5,-4(a0)
   182f0:	00812c03          	lw	s8,8(sp)
   182f4:	ffc7f793          	andi	a5,a5,-4
   182f8:	00f989b3          	add	s3,s3,a5
   182fc:	e29ff06f          	j	18124 <_realloc_r+0x17c>
   18300:	00cba783          	lw	a5,12(s7)
   18304:	008ba703          	lw	a4,8(s7)
   18308:	ffc98613          	addi	a2,s3,-4
   1830c:	02400693          	li	a3,36
   18310:	00f72623          	sw	a5,12(a4)
   18314:	00e7a423          	sw	a4,8(a5)
   18318:	008b8493          	addi	s1,s7,8
   1831c:	10c6e663          	bltu	a3,a2,18428 <_realloc_r+0x480>
   18320:	01300713          	li	a4,19
   18324:	00048793          	mv	a5,s1
   18328:	02c77c63          	bgeu	a4,a2,18360 <_realloc_r+0x3b8>
   1832c:	00042703          	lw	a4,0(s0)
   18330:	01b00793          	li	a5,27
   18334:	00eba423          	sw	a4,8(s7)
   18338:	00442703          	lw	a4,4(s0)
   1833c:	00eba623          	sw	a4,12(s7)
   18340:	14c7f863          	bgeu	a5,a2,18490 <_realloc_r+0x4e8>
   18344:	00842783          	lw	a5,8(s0)
   18348:	00fba823          	sw	a5,16(s7)
   1834c:	00c42783          	lw	a5,12(s0)
   18350:	00fbaa23          	sw	a5,20(s7)
   18354:	0ad60c63          	beq	a2,a3,1840c <_realloc_r+0x464>
   18358:	01040413          	addi	s0,s0,16
   1835c:	018b8793          	addi	a5,s7,24
   18360:	00042703          	lw	a4,0(s0)
   18364:	00e7a023          	sw	a4,0(a5)
   18368:	00442703          	lw	a4,4(s0)
   1836c:	00e7a223          	sw	a4,4(a5)
   18370:	00842703          	lw	a4,8(s0)
   18374:	00e7a423          	sw	a4,8(a5)
   18378:	000b0993          	mv	s3,s6
   1837c:	000b8a93          	mv	s5,s7
   18380:	01012b03          	lw	s6,16(sp)
   18384:	00c12b83          	lw	s7,12(sp)
   18388:	00812c03          	lw	s8,8(sp)
   1838c:	00048413          	mv	s0,s1
   18390:	d95ff06f          	j	18124 <_realloc_r+0x17c>
   18394:	00040593          	mv	a1,s0
   18398:	914fc0ef          	jal	144ac <memmove>
   1839c:	d3dff06f          	j	180d8 <_realloc_r+0x130>
   183a0:	00c6a783          	lw	a5,12(a3)
   183a4:	0086a703          	lw	a4,8(a3)
   183a8:	ffc98613          	addi	a2,s3,-4
   183ac:	02400693          	li	a3,36
   183b0:	00f72623          	sw	a5,12(a4)
   183b4:	00e7a423          	sw	a4,8(a5)
   183b8:	008ba703          	lw	a4,8(s7)
   183bc:	00cba783          	lw	a5,12(s7)
   183c0:	008b8493          	addi	s1,s7,8
   183c4:	00f72623          	sw	a5,12(a4)
   183c8:	00e7a423          	sw	a4,8(a5)
   183cc:	04c6ee63          	bltu	a3,a2,18428 <_realloc_r+0x480>
   183d0:	01300713          	li	a4,19
   183d4:	00048793          	mv	a5,s1
   183d8:	f8c774e3          	bgeu	a4,a2,18360 <_realloc_r+0x3b8>
   183dc:	00042703          	lw	a4,0(s0)
   183e0:	01b00793          	li	a5,27
   183e4:	00eba423          	sw	a4,8(s7)
   183e8:	00442703          	lw	a4,4(s0)
   183ec:	00eba623          	sw	a4,12(s7)
   183f0:	0ac7f063          	bgeu	a5,a2,18490 <_realloc_r+0x4e8>
   183f4:	00842703          	lw	a4,8(s0)
   183f8:	02400793          	li	a5,36
   183fc:	00eba823          	sw	a4,16(s7)
   18400:	00c42703          	lw	a4,12(s0)
   18404:	00ebaa23          	sw	a4,20(s7)
   18408:	f4f618e3          	bne	a2,a5,18358 <_realloc_r+0x3b0>
   1840c:	01042703          	lw	a4,16(s0)
   18410:	020b8793          	addi	a5,s7,32
   18414:	01840413          	addi	s0,s0,24
   18418:	00ebac23          	sw	a4,24(s7)
   1841c:	ffc42703          	lw	a4,-4(s0)
   18420:	00ebae23          	sw	a4,28(s7)
   18424:	f3dff06f          	j	18360 <_realloc_r+0x3b8>
   18428:	00040593          	mv	a1,s0
   1842c:	00048513          	mv	a0,s1
   18430:	87cfc0ef          	jal	144ac <memmove>
   18434:	f45ff06f          	j	18378 <_realloc_r+0x3d0>
   18438:	00842703          	lw	a4,8(s0)
   1843c:	00e52423          	sw	a4,8(a0)
   18440:	00c42703          	lw	a4,12(s0)
   18444:	00e52623          	sw	a4,12(a0)
   18448:	06f60463          	beq	a2,a5,184b0 <_realloc_r+0x508>
   1844c:	01040713          	addi	a4,s0,16
   18450:	01050793          	addi	a5,a0,16
   18454:	c6dff06f          	j	180c0 <_realloc_r+0x118>
   18458:	014a8ab3          	add	s5,s5,s4
   1845c:	414686b3          	sub	a3,a3,s4
   18460:	015c2423          	sw	s5,8(s8)
   18464:	0016e793          	ori	a5,a3,1
   18468:	00faa223          	sw	a5,4(s5)
   1846c:	ffc42783          	lw	a5,-4(s0)
   18470:	00090513          	mv	a0,s2
   18474:	00040493          	mv	s1,s0
   18478:	0017f793          	andi	a5,a5,1
   1847c:	0147e7b3          	or	a5,a5,s4
   18480:	fef42e23          	sw	a5,-4(s0)
   18484:	ec5f50ef          	jal	e348 <__malloc_unlock>
   18488:	00812c03          	lw	s8,8(sp)
   1848c:	cd1ff06f          	j	1815c <_realloc_r+0x1b4>
   18490:	00840413          	addi	s0,s0,8
   18494:	010b8793          	addi	a5,s7,16
   18498:	ec9ff06f          	j	18360 <_realloc_r+0x3b8>
   1849c:	00090513          	mv	a0,s2
   184a0:	ea9f50ef          	jal	e348 <__malloc_unlock>
   184a4:	00000493          	li	s1,0
   184a8:	00812c03          	lw	s8,8(sp)
   184ac:	cb1ff06f          	j	1815c <_realloc_r+0x1b4>
   184b0:	01042683          	lw	a3,16(s0)
   184b4:	01840713          	addi	a4,s0,24
   184b8:	01850793          	addi	a5,a0,24
   184bc:	00d52823          	sw	a3,16(a0)
   184c0:	01442683          	lw	a3,20(s0)
   184c4:	00d52a23          	sw	a3,20(a0)
   184c8:	bf9ff06f          	j	180c0 <_realloc_r+0x118>
   184cc:	00040593          	mv	a1,s0
   184d0:	00048513          	mv	a0,s1
   184d4:	fd9fb0ef          	jal	144ac <memmove>
   184d8:	db5ff06f          	j	1828c <_realloc_r+0x2e4>
   184dc:	00842783          	lw	a5,8(s0)
   184e0:	00fba823          	sw	a5,16(s7)
   184e4:	00c42783          	lw	a5,12(s0)
   184e8:	00fbaa23          	sw	a5,20(s7)
   184ec:	00d60863          	beq	a2,a3,184fc <_realloc_r+0x554>
   184f0:	01040413          	addi	s0,s0,16
   184f4:	018b8793          	addi	a5,s7,24
   184f8:	d7dff06f          	j	18274 <_realloc_r+0x2cc>
   184fc:	01042703          	lw	a4,16(s0)
   18500:	020b8793          	addi	a5,s7,32
   18504:	01840413          	addi	s0,s0,24
   18508:	00ebac23          	sw	a4,24(s7)
   1850c:	ffc42703          	lw	a4,-4(s0)
   18510:	00ebae23          	sw	a4,28(s7)
   18514:	d61ff06f          	j	18274 <_realloc_r+0x2cc>

00018518 <_wctomb_r>:
   18518:	0001a7b7          	lui	a5,0x1a
   1851c:	6287a783          	lw	a5,1576(a5) # 1a628 <__global_locale+0xe0>
   18520:	00078067          	jr	a5

00018524 <__ascii_wctomb>:
   18524:	02058463          	beqz	a1,1854c <__ascii_wctomb+0x28>
   18528:	0ff00793          	li	a5,255
   1852c:	00c7e863          	bltu	a5,a2,1853c <__ascii_wctomb+0x18>
   18530:	00c58023          	sb	a2,0(a1)
   18534:	00100513          	li	a0,1
   18538:	00008067          	ret
   1853c:	08a00793          	li	a5,138
   18540:	00f52023          	sw	a5,0(a0)
   18544:	fff00513          	li	a0,-1
   18548:	00008067          	ret
   1854c:	00000513          	li	a0,0
   18550:	00008067          	ret

00018554 <_wcrtomb_r>:
   18554:	fe010113          	addi	sp,sp,-32
   18558:	00812c23          	sw	s0,24(sp)
   1855c:	00912a23          	sw	s1,20(sp)
   18560:	0001a7b7          	lui	a5,0x1a
   18564:	00112e23          	sw	ra,28(sp)
   18568:	6287a783          	lw	a5,1576(a5) # 1a628 <__global_locale+0xe0>
   1856c:	00050413          	mv	s0,a0
   18570:	00068493          	mv	s1,a3
   18574:	02058263          	beqz	a1,18598 <_wcrtomb_r+0x44>
   18578:	000780e7          	jalr	a5
   1857c:	fff00793          	li	a5,-1
   18580:	02f50663          	beq	a0,a5,185ac <_wcrtomb_r+0x58>
   18584:	01c12083          	lw	ra,28(sp)
   18588:	01812403          	lw	s0,24(sp)
   1858c:	01412483          	lw	s1,20(sp)
   18590:	02010113          	addi	sp,sp,32
   18594:	00008067          	ret
   18598:	00000613          	li	a2,0
   1859c:	00410593          	addi	a1,sp,4
   185a0:	000780e7          	jalr	a5
   185a4:	fff00793          	li	a5,-1
   185a8:	fcf51ee3          	bne	a0,a5,18584 <_wcrtomb_r+0x30>
   185ac:	0004a023          	sw	zero,0(s1)
   185b0:	08a00793          	li	a5,138
   185b4:	01c12083          	lw	ra,28(sp)
   185b8:	00f42023          	sw	a5,0(s0)
   185bc:	01812403          	lw	s0,24(sp)
   185c0:	01412483          	lw	s1,20(sp)
   185c4:	02010113          	addi	sp,sp,32
   185c8:	00008067          	ret

000185cc <wcrtomb>:
   185cc:	fe010113          	addi	sp,sp,-32
   185d0:	00812c23          	sw	s0,24(sp)
   185d4:	00912a23          	sw	s1,20(sp)
   185d8:	00112e23          	sw	ra,28(sp)
   185dc:	86c1a483          	lw	s1,-1940(gp) # 1a724 <_impure_ptr>
   185e0:	0001a7b7          	lui	a5,0x1a
   185e4:	6287a783          	lw	a5,1576(a5) # 1a628 <__global_locale+0xe0>
   185e8:	00060413          	mv	s0,a2
   185ec:	02050a63          	beqz	a0,18620 <wcrtomb+0x54>
   185f0:	00058613          	mv	a2,a1
   185f4:	00040693          	mv	a3,s0
   185f8:	00050593          	mv	a1,a0
   185fc:	00048513          	mv	a0,s1
   18600:	000780e7          	jalr	a5
   18604:	fff00793          	li	a5,-1
   18608:	02f50a63          	beq	a0,a5,1863c <wcrtomb+0x70>
   1860c:	01c12083          	lw	ra,28(sp)
   18610:	01812403          	lw	s0,24(sp)
   18614:	01412483          	lw	s1,20(sp)
   18618:	02010113          	addi	sp,sp,32
   1861c:	00008067          	ret
   18620:	00060693          	mv	a3,a2
   18624:	00410593          	addi	a1,sp,4
   18628:	00000613          	li	a2,0
   1862c:	00048513          	mv	a0,s1
   18630:	000780e7          	jalr	a5
   18634:	fff00793          	li	a5,-1
   18638:	fcf51ae3          	bne	a0,a5,1860c <wcrtomb+0x40>
   1863c:	00042023          	sw	zero,0(s0)
   18640:	01c12083          	lw	ra,28(sp)
   18644:	01812403          	lw	s0,24(sp)
   18648:	08a00793          	li	a5,138
   1864c:	00f4a023          	sw	a5,0(s1)
   18650:	01412483          	lw	s1,20(sp)
   18654:	02010113          	addi	sp,sp,32
   18658:	00008067          	ret

0001865c <__smakebuf_r>:
   1865c:	00c59783          	lh	a5,12(a1)
   18660:	f8010113          	addi	sp,sp,-128
   18664:	06812c23          	sw	s0,120(sp)
   18668:	06112e23          	sw	ra,124(sp)
   1866c:	0027f713          	andi	a4,a5,2
   18670:	00058413          	mv	s0,a1
   18674:	02070463          	beqz	a4,1869c <__smakebuf_r+0x40>
   18678:	04358793          	addi	a5,a1,67
   1867c:	00f5a023          	sw	a5,0(a1)
   18680:	00f5a823          	sw	a5,16(a1)
   18684:	00100793          	li	a5,1
   18688:	00f5aa23          	sw	a5,20(a1)
   1868c:	07c12083          	lw	ra,124(sp)
   18690:	07812403          	lw	s0,120(sp)
   18694:	08010113          	addi	sp,sp,128
   18698:	00008067          	ret
   1869c:	00e59583          	lh	a1,14(a1)
   186a0:	06912a23          	sw	s1,116(sp)
   186a4:	07212823          	sw	s2,112(sp)
   186a8:	07312623          	sw	s3,108(sp)
   186ac:	07412423          	sw	s4,104(sp)
   186b0:	00050493          	mv	s1,a0
   186b4:	0805c663          	bltz	a1,18740 <__smakebuf_r+0xe4>
   186b8:	00810613          	addi	a2,sp,8
   186bc:	210000ef          	jal	188cc <_fstat_r>
   186c0:	06054e63          	bltz	a0,1873c <__smakebuf_r+0xe0>
   186c4:	00c12783          	lw	a5,12(sp)
   186c8:	0000f937          	lui	s2,0xf
   186cc:	000019b7          	lui	s3,0x1
   186d0:	00f97933          	and	s2,s2,a5
   186d4:	ffffe7b7          	lui	a5,0xffffe
   186d8:	00f90933          	add	s2,s2,a5
   186dc:	00193913          	seqz	s2,s2
   186e0:	40000a13          	li	s4,1024
   186e4:	80098993          	addi	s3,s3,-2048 # 800 <_start-0x7800>
   186e8:	000a0593          	mv	a1,s4
   186ec:	00048513          	mv	a0,s1
   186f0:	c90f50ef          	jal	db80 <_malloc_r>
   186f4:	00c41783          	lh	a5,12(s0)
   186f8:	06050863          	beqz	a0,18768 <__smakebuf_r+0x10c>
   186fc:	0807e793          	ori	a5,a5,128
   18700:	00a42023          	sw	a0,0(s0)
   18704:	00a42823          	sw	a0,16(s0)
   18708:	00f41623          	sh	a5,12(s0)
   1870c:	01442a23          	sw	s4,20(s0)
   18710:	0a091063          	bnez	s2,187b0 <__smakebuf_r+0x154>
   18714:	0137e7b3          	or	a5,a5,s3
   18718:	07c12083          	lw	ra,124(sp)
   1871c:	00f41623          	sh	a5,12(s0)
   18720:	07812403          	lw	s0,120(sp)
   18724:	07412483          	lw	s1,116(sp)
   18728:	07012903          	lw	s2,112(sp)
   1872c:	06c12983          	lw	s3,108(sp)
   18730:	06812a03          	lw	s4,104(sp)
   18734:	08010113          	addi	sp,sp,128
   18738:	00008067          	ret
   1873c:	00c41783          	lh	a5,12(s0)
   18740:	0807f793          	andi	a5,a5,128
   18744:	00000913          	li	s2,0
   18748:	04078e63          	beqz	a5,187a4 <__smakebuf_r+0x148>
   1874c:	04000a13          	li	s4,64
   18750:	000a0593          	mv	a1,s4
   18754:	00048513          	mv	a0,s1
   18758:	c28f50ef          	jal	db80 <_malloc_r>
   1875c:	00c41783          	lh	a5,12(s0)
   18760:	00000993          	li	s3,0
   18764:	f8051ce3          	bnez	a0,186fc <__smakebuf_r+0xa0>
   18768:	2007f713          	andi	a4,a5,512
   1876c:	04071e63          	bnez	a4,187c8 <__smakebuf_r+0x16c>
   18770:	ffc7f793          	andi	a5,a5,-4
   18774:	0027e793          	ori	a5,a5,2
   18778:	04340713          	addi	a4,s0,67
   1877c:	00f41623          	sh	a5,12(s0)
   18780:	00100793          	li	a5,1
   18784:	07412483          	lw	s1,116(sp)
   18788:	07012903          	lw	s2,112(sp)
   1878c:	06c12983          	lw	s3,108(sp)
   18790:	06812a03          	lw	s4,104(sp)
   18794:	00e42023          	sw	a4,0(s0)
   18798:	00e42823          	sw	a4,16(s0)
   1879c:	00f42a23          	sw	a5,20(s0)
   187a0:	eedff06f          	j	1868c <__smakebuf_r+0x30>
   187a4:	40000a13          	li	s4,1024
   187a8:	00000993          	li	s3,0
   187ac:	f3dff06f          	j	186e8 <__smakebuf_r+0x8c>
   187b0:	00e41583          	lh	a1,14(s0)
   187b4:	00048513          	mv	a0,s1
   187b8:	178000ef          	jal	18930 <_isatty_r>
   187bc:	02051063          	bnez	a0,187dc <__smakebuf_r+0x180>
   187c0:	00c41783          	lh	a5,12(s0)
   187c4:	f51ff06f          	j	18714 <__smakebuf_r+0xb8>
   187c8:	07412483          	lw	s1,116(sp)
   187cc:	07012903          	lw	s2,112(sp)
   187d0:	06c12983          	lw	s3,108(sp)
   187d4:	06812a03          	lw	s4,104(sp)
   187d8:	eb5ff06f          	j	1868c <__smakebuf_r+0x30>
   187dc:	00c45783          	lhu	a5,12(s0)
   187e0:	ffc7f793          	andi	a5,a5,-4
   187e4:	0017e793          	ori	a5,a5,1
   187e8:	01079793          	slli	a5,a5,0x10
   187ec:	4107d793          	srai	a5,a5,0x10
   187f0:	f25ff06f          	j	18714 <__smakebuf_r+0xb8>

000187f4 <__swhatbuf_r>:
   187f4:	f9010113          	addi	sp,sp,-112
   187f8:	06812423          	sw	s0,104(sp)
   187fc:	00058413          	mv	s0,a1
   18800:	00e59583          	lh	a1,14(a1)
   18804:	06912223          	sw	s1,100(sp)
   18808:	07212023          	sw	s2,96(sp)
   1880c:	06112623          	sw	ra,108(sp)
   18810:	00060493          	mv	s1,a2
   18814:	00068913          	mv	s2,a3
   18818:	0405ca63          	bltz	a1,1886c <__swhatbuf_r+0x78>
   1881c:	00810613          	addi	a2,sp,8
   18820:	0ac000ef          	jal	188cc <_fstat_r>
   18824:	04054463          	bltz	a0,1886c <__swhatbuf_r+0x78>
   18828:	00c12703          	lw	a4,12(sp)
   1882c:	0000f7b7          	lui	a5,0xf
   18830:	06c12083          	lw	ra,108(sp)
   18834:	00e7f7b3          	and	a5,a5,a4
   18838:	ffffe737          	lui	a4,0xffffe
   1883c:	00e787b3          	add	a5,a5,a4
   18840:	06812403          	lw	s0,104(sp)
   18844:	0017b793          	seqz	a5,a5
   18848:	00f92023          	sw	a5,0(s2) # f000 <_malloc_trim_r+0x58>
   1884c:	40000713          	li	a4,1024
   18850:	00e4a023          	sw	a4,0(s1)
   18854:	00001537          	lui	a0,0x1
   18858:	06412483          	lw	s1,100(sp)
   1885c:	06012903          	lw	s2,96(sp)
   18860:	80050513          	addi	a0,a0,-2048 # 800 <_start-0x7800>
   18864:	07010113          	addi	sp,sp,112
   18868:	00008067          	ret
   1886c:	00c45783          	lhu	a5,12(s0)
   18870:	0807f793          	andi	a5,a5,128
   18874:	02078863          	beqz	a5,188a4 <__swhatbuf_r+0xb0>
   18878:	06c12083          	lw	ra,108(sp)
   1887c:	06812403          	lw	s0,104(sp)
   18880:	00000793          	li	a5,0
   18884:	00f92023          	sw	a5,0(s2)
   18888:	04000713          	li	a4,64
   1888c:	00e4a023          	sw	a4,0(s1)
   18890:	06012903          	lw	s2,96(sp)
   18894:	06412483          	lw	s1,100(sp)
   18898:	00000513          	li	a0,0
   1889c:	07010113          	addi	sp,sp,112
   188a0:	00008067          	ret
   188a4:	06c12083          	lw	ra,108(sp)
   188a8:	06812403          	lw	s0,104(sp)
   188ac:	00f92023          	sw	a5,0(s2)
   188b0:	40000713          	li	a4,1024
   188b4:	00e4a023          	sw	a4,0(s1)
   188b8:	06012903          	lw	s2,96(sp)
   188bc:	06412483          	lw	s1,100(sp)
   188c0:	00000513          	li	a0,0
   188c4:	07010113          	addi	sp,sp,112
   188c8:	00008067          	ret

000188cc <_fstat_r>:
   188cc:	ff010113          	addi	sp,sp,-16
   188d0:	00058713          	mv	a4,a1
   188d4:	00812423          	sw	s0,8(sp)
   188d8:	00912223          	sw	s1,4(sp)
   188dc:	00050413          	mv	s0,a0
   188e0:	00060593          	mv	a1,a2
   188e4:	00070513          	mv	a0,a4
   188e8:	00112623          	sw	ra,12(sp)
   188ec:	8a01ae23          	sw	zero,-1860(gp) # 1a774 <errno>
   188f0:	b55ef0ef          	jal	8444 <_fstat>
   188f4:	fff00793          	li	a5,-1
   188f8:	00f50c63          	beq	a0,a5,18910 <_fstat_r+0x44>
   188fc:	00c12083          	lw	ra,12(sp)
   18900:	00812403          	lw	s0,8(sp)
   18904:	00412483          	lw	s1,4(sp)
   18908:	01010113          	addi	sp,sp,16
   1890c:	00008067          	ret
   18910:	8bc1a783          	lw	a5,-1860(gp) # 1a774 <errno>
   18914:	fe0784e3          	beqz	a5,188fc <_fstat_r+0x30>
   18918:	00c12083          	lw	ra,12(sp)
   1891c:	00f42023          	sw	a5,0(s0)
   18920:	00812403          	lw	s0,8(sp)
   18924:	00412483          	lw	s1,4(sp)
   18928:	01010113          	addi	sp,sp,16
   1892c:	00008067          	ret

00018930 <_isatty_r>:
   18930:	ff010113          	addi	sp,sp,-16
   18934:	00812423          	sw	s0,8(sp)
   18938:	00912223          	sw	s1,4(sp)
   1893c:	00050413          	mv	s0,a0
   18940:	00058513          	mv	a0,a1
   18944:	00112623          	sw	ra,12(sp)
   18948:	8a01ae23          	sw	zero,-1860(gp) # 1a774 <errno>
   1894c:	a9def0ef          	jal	83e8 <_access>
   18950:	fff00793          	li	a5,-1
   18954:	00f50c63          	beq	a0,a5,1896c <_isatty_r+0x3c>
   18958:	00c12083          	lw	ra,12(sp)
   1895c:	00812403          	lw	s0,8(sp)
   18960:	00412483          	lw	s1,4(sp)
   18964:	01010113          	addi	sp,sp,16
   18968:	00008067          	ret
   1896c:	8bc1a783          	lw	a5,-1860(gp) # 1a774 <errno>
   18970:	fe0784e3          	beqz	a5,18958 <_isatty_r+0x28>
   18974:	00c12083          	lw	ra,12(sp)
   18978:	00f42023          	sw	a5,0(s0)
   1897c:	00812403          	lw	s0,8(sp)
   18980:	00412483          	lw	s1,4(sp)
   18984:	01010113          	addi	sp,sp,16
   18988:	00008067          	ret

0001898c <__assert_func>:
   1898c:	86c1a703          	lw	a4,-1940(gp) # 1a724 <_impure_ptr>
   18990:	ff010113          	addi	sp,sp,-16
   18994:	00068793          	mv	a5,a3
   18998:	00060813          	mv	a6,a2
   1899c:	00112623          	sw	ra,12(sp)
   189a0:	00c72883          	lw	a7,12(a4) # ffffe00c <_end+0xfffe0da8>
   189a4:	00050693          	mv	a3,a0
   189a8:	00058713          	mv	a4,a1
   189ac:	00078613          	mv	a2,a5
   189b0:	02080063          	beqz	a6,189d0 <__assert_func+0x44>
   189b4:	000197b7          	lui	a5,0x19
   189b8:	7c878793          	addi	a5,a5,1992 # 197c8 <_getpid_r+0x6ac>
   189bc:	000195b7          	lui	a1,0x19
   189c0:	7d858593          	addi	a1,a1,2008 # 197d8 <_getpid_r+0x6bc>
   189c4:	00088513          	mv	a0,a7
   189c8:	14c000ef          	jal	18b14 <fiprintf>
   189cc:	194000ef          	jal	18b60 <abort>
   189d0:	00019837          	lui	a6,0x19
   189d4:	2e880793          	addi	a5,a6,744 # 192e8 <_getpid_r+0x1cc>
   189d8:	2e880813          	addi	a6,a6,744
   189dc:	fe1ff06f          	j	189bc <__assert_func+0x30>

000189e0 <__assert>:
   189e0:	ff010113          	addi	sp,sp,-16
   189e4:	00060693          	mv	a3,a2
   189e8:	00000613          	li	a2,0
   189ec:	00112623          	sw	ra,12(sp)
   189f0:	f9dff0ef          	jal	1898c <__assert_func>

000189f4 <_calloc_r>:
   189f4:	02c5b7b3          	mulhu	a5,a1,a2
   189f8:	ff010113          	addi	sp,sp,-16
   189fc:	00112623          	sw	ra,12(sp)
   18a00:	00812423          	sw	s0,8(sp)
   18a04:	02c585b3          	mul	a1,a1,a2
   18a08:	0a079063          	bnez	a5,18aa8 <_calloc_r+0xb4>
   18a0c:	974f50ef          	jal	db80 <_malloc_r>
   18a10:	00050413          	mv	s0,a0
   18a14:	0a050063          	beqz	a0,18ab4 <_calloc_r+0xc0>
   18a18:	ffc52603          	lw	a2,-4(a0)
   18a1c:	02400713          	li	a4,36
   18a20:	ffc67613          	andi	a2,a2,-4
   18a24:	ffc60613          	addi	a2,a2,-4
   18a28:	04c76863          	bltu	a4,a2,18a78 <_calloc_r+0x84>
   18a2c:	01300693          	li	a3,19
   18a30:	00050793          	mv	a5,a0
   18a34:	02c6f263          	bgeu	a3,a2,18a58 <_calloc_r+0x64>
   18a38:	00052023          	sw	zero,0(a0)
   18a3c:	00052223          	sw	zero,4(a0)
   18a40:	01b00793          	li	a5,27
   18a44:	04c7f863          	bgeu	a5,a2,18a94 <_calloc_r+0xa0>
   18a48:	00052423          	sw	zero,8(a0)
   18a4c:	00052623          	sw	zero,12(a0)
   18a50:	01050793          	addi	a5,a0,16
   18a54:	06e60c63          	beq	a2,a4,18acc <_calloc_r+0xd8>
   18a58:	0007a023          	sw	zero,0(a5)
   18a5c:	0007a223          	sw	zero,4(a5)
   18a60:	0007a423          	sw	zero,8(a5)
   18a64:	00c12083          	lw	ra,12(sp)
   18a68:	00040513          	mv	a0,s0
   18a6c:	00812403          	lw	s0,8(sp)
   18a70:	01010113          	addi	sp,sp,16
   18a74:	00008067          	ret
   18a78:	00000593          	li	a1,0
   18a7c:	a19ef0ef          	jal	8494 <memset>
   18a80:	00c12083          	lw	ra,12(sp)
   18a84:	00040513          	mv	a0,s0
   18a88:	00812403          	lw	s0,8(sp)
   18a8c:	01010113          	addi	sp,sp,16
   18a90:	00008067          	ret
   18a94:	00850793          	addi	a5,a0,8
   18a98:	0007a023          	sw	zero,0(a5)
   18a9c:	0007a223          	sw	zero,4(a5)
   18aa0:	0007a423          	sw	zero,8(a5)
   18aa4:	fc1ff06f          	j	18a64 <_calloc_r+0x70>
   18aa8:	a88f60ef          	jal	ed30 <__errno>
   18aac:	00c00793          	li	a5,12
   18ab0:	00f52023          	sw	a5,0(a0)
   18ab4:	00000413          	li	s0,0
   18ab8:	00c12083          	lw	ra,12(sp)
   18abc:	00040513          	mv	a0,s0
   18ac0:	00812403          	lw	s0,8(sp)
   18ac4:	01010113          	addi	sp,sp,16
   18ac8:	00008067          	ret
   18acc:	00052823          	sw	zero,16(a0)
   18ad0:	01850793          	addi	a5,a0,24
   18ad4:	00052a23          	sw	zero,20(a0)
   18ad8:	f81ff06f          	j	18a58 <_calloc_r+0x64>

00018adc <_fiprintf_r>:
   18adc:	fc010113          	addi	sp,sp,-64
   18ae0:	02c10313          	addi	t1,sp,44
   18ae4:	02d12623          	sw	a3,44(sp)
   18ae8:	00030693          	mv	a3,t1
   18aec:	00112e23          	sw	ra,28(sp)
   18af0:	02e12823          	sw	a4,48(sp)
   18af4:	02f12a23          	sw	a5,52(sp)
   18af8:	03012c23          	sw	a6,56(sp)
   18afc:	03112e23          	sw	a7,60(sp)
   18b00:	00612623          	sw	t1,12(sp)
   18b04:	b8cf90ef          	jal	11e90 <_vfiprintf_r>
   18b08:	01c12083          	lw	ra,28(sp)
   18b0c:	04010113          	addi	sp,sp,64
   18b10:	00008067          	ret

00018b14 <fiprintf>:
   18b14:	00050e13          	mv	t3,a0
   18b18:	fc010113          	addi	sp,sp,-64
   18b1c:	86c1a503          	lw	a0,-1940(gp) # 1a724 <_impure_ptr>
   18b20:	02810313          	addi	t1,sp,40
   18b24:	02c12423          	sw	a2,40(sp)
   18b28:	02d12623          	sw	a3,44(sp)
   18b2c:	00058613          	mv	a2,a1
   18b30:	00030693          	mv	a3,t1
   18b34:	000e0593          	mv	a1,t3
   18b38:	00112e23          	sw	ra,28(sp)
   18b3c:	02e12823          	sw	a4,48(sp)
   18b40:	02f12a23          	sw	a5,52(sp)
   18b44:	03012c23          	sw	a6,56(sp)
   18b48:	03112e23          	sw	a7,60(sp)
   18b4c:	00612623          	sw	t1,12(sp)
   18b50:	b40f90ef          	jal	11e90 <_vfiprintf_r>
   18b54:	01c12083          	lw	ra,28(sp)
   18b58:	04010113          	addi	sp,sp,64
   18b5c:	00008067          	ret

00018b60 <abort>:
   18b60:	ff010113          	addi	sp,sp,-16
   18b64:	00600513          	li	a0,6
   18b68:	00112623          	sw	ra,12(sp)
   18b6c:	2a8000ef          	jal	18e14 <raise>
   18b70:	00100513          	li	a0,1
   18b74:	91def0ef          	jal	8490 <_exit>

00018b78 <_init_signal_r>:
   18b78:	11852783          	lw	a5,280(a0)
   18b7c:	00078663          	beqz	a5,18b88 <_init_signal_r+0x10>
   18b80:	00000513          	li	a0,0
   18b84:	00008067          	ret
   18b88:	ff010113          	addi	sp,sp,-16
   18b8c:	08000593          	li	a1,128
   18b90:	00812423          	sw	s0,8(sp)
   18b94:	00112623          	sw	ra,12(sp)
   18b98:	00050413          	mv	s0,a0
   18b9c:	fe5f40ef          	jal	db80 <_malloc_r>
   18ba0:	10a42c23          	sw	a0,280(s0)
   18ba4:	02050463          	beqz	a0,18bcc <_init_signal_r+0x54>
   18ba8:	08050793          	addi	a5,a0,128
   18bac:	00052023          	sw	zero,0(a0)
   18bb0:	00450513          	addi	a0,a0,4
   18bb4:	fef51ce3          	bne	a0,a5,18bac <_init_signal_r+0x34>
   18bb8:	00000513          	li	a0,0
   18bbc:	00c12083          	lw	ra,12(sp)
   18bc0:	00812403          	lw	s0,8(sp)
   18bc4:	01010113          	addi	sp,sp,16
   18bc8:	00008067          	ret
   18bcc:	fff00513          	li	a0,-1
   18bd0:	fedff06f          	j	18bbc <_init_signal_r+0x44>

00018bd4 <_signal_r>:
   18bd4:	fe010113          	addi	sp,sp,-32
   18bd8:	00912a23          	sw	s1,20(sp)
   18bdc:	00112e23          	sw	ra,28(sp)
   18be0:	01f00793          	li	a5,31
   18be4:	00050493          	mv	s1,a0
   18be8:	02b7ec63          	bltu	a5,a1,18c20 <_signal_r+0x4c>
   18bec:	11852783          	lw	a5,280(a0)
   18bf0:	00812c23          	sw	s0,24(sp)
   18bf4:	00058413          	mv	s0,a1
   18bf8:	02078c63          	beqz	a5,18c30 <_signal_r+0x5c>
   18bfc:	00241413          	slli	s0,s0,0x2
   18c00:	008787b3          	add	a5,a5,s0
   18c04:	01812403          	lw	s0,24(sp)
   18c08:	0007a503          	lw	a0,0(a5)
   18c0c:	00c7a023          	sw	a2,0(a5)
   18c10:	01c12083          	lw	ra,28(sp)
   18c14:	01412483          	lw	s1,20(sp)
   18c18:	02010113          	addi	sp,sp,32
   18c1c:	00008067          	ret
   18c20:	01600793          	li	a5,22
   18c24:	00f52023          	sw	a5,0(a0)
   18c28:	fff00513          	li	a0,-1
   18c2c:	fe5ff06f          	j	18c10 <_signal_r+0x3c>
   18c30:	08000593          	li	a1,128
   18c34:	00c12623          	sw	a2,12(sp)
   18c38:	f49f40ef          	jal	db80 <_malloc_r>
   18c3c:	10a4ac23          	sw	a0,280(s1)
   18c40:	00c12603          	lw	a2,12(sp)
   18c44:	00050793          	mv	a5,a0
   18c48:	00050713          	mv	a4,a0
   18c4c:	08050693          	addi	a3,a0,128
   18c50:	00050a63          	beqz	a0,18c64 <_signal_r+0x90>
   18c54:	00072023          	sw	zero,0(a4)
   18c58:	00470713          	addi	a4,a4,4
   18c5c:	fed71ce3          	bne	a4,a3,18c54 <_signal_r+0x80>
   18c60:	f9dff06f          	j	18bfc <_signal_r+0x28>
   18c64:	01812403          	lw	s0,24(sp)
   18c68:	fff00513          	li	a0,-1
   18c6c:	fa5ff06f          	j	18c10 <_signal_r+0x3c>

00018c70 <_raise_r>:
   18c70:	ff010113          	addi	sp,sp,-16
   18c74:	00912223          	sw	s1,4(sp)
   18c78:	00112623          	sw	ra,12(sp)
   18c7c:	01f00793          	li	a5,31
   18c80:	00050493          	mv	s1,a0
   18c84:	0ab7e063          	bltu	a5,a1,18d24 <_raise_r+0xb4>
   18c88:	11852783          	lw	a5,280(a0)
   18c8c:	00812423          	sw	s0,8(sp)
   18c90:	00058413          	mv	s0,a1
   18c94:	04078463          	beqz	a5,18cdc <_raise_r+0x6c>
   18c98:	00259713          	slli	a4,a1,0x2
   18c9c:	00e787b3          	add	a5,a5,a4
   18ca0:	0007a703          	lw	a4,0(a5)
   18ca4:	02070c63          	beqz	a4,18cdc <_raise_r+0x6c>
   18ca8:	00100693          	li	a3,1
   18cac:	00d70c63          	beq	a4,a3,18cc4 <_raise_r+0x54>
   18cb0:	fff00693          	li	a3,-1
   18cb4:	04d70863          	beq	a4,a3,18d04 <_raise_r+0x94>
   18cb8:	0007a023          	sw	zero,0(a5)
   18cbc:	00058513          	mv	a0,a1
   18cc0:	000700e7          	jalr	a4
   18cc4:	00812403          	lw	s0,8(sp)
   18cc8:	00000513          	li	a0,0
   18ccc:	00c12083          	lw	ra,12(sp)
   18cd0:	00412483          	lw	s1,4(sp)
   18cd4:	01010113          	addi	sp,sp,16
   18cd8:	00008067          	ret
   18cdc:	00048513          	mv	a0,s1
   18ce0:	43c000ef          	jal	1911c <_getpid_r>
   18ce4:	00040613          	mv	a2,s0
   18ce8:	00812403          	lw	s0,8(sp)
   18cec:	00c12083          	lw	ra,12(sp)
   18cf0:	00050593          	mv	a1,a0
   18cf4:	00048513          	mv	a0,s1
   18cf8:	00412483          	lw	s1,4(sp)
   18cfc:	01010113          	addi	sp,sp,16
   18d00:	3b80006f          	j	190b8 <_kill_r>
   18d04:	00812403          	lw	s0,8(sp)
   18d08:	00c12083          	lw	ra,12(sp)
   18d0c:	01600793          	li	a5,22
   18d10:	00f52023          	sw	a5,0(a0)
   18d14:	00412483          	lw	s1,4(sp)
   18d18:	00100513          	li	a0,1
   18d1c:	01010113          	addi	sp,sp,16
   18d20:	00008067          	ret
   18d24:	01600793          	li	a5,22
   18d28:	00f52023          	sw	a5,0(a0)
   18d2c:	fff00513          	li	a0,-1
   18d30:	f9dff06f          	j	18ccc <_raise_r+0x5c>

00018d34 <__sigtramp_r>:
   18d34:	01f00793          	li	a5,31
   18d38:	0cb7ea63          	bltu	a5,a1,18e0c <__sigtramp_r+0xd8>
   18d3c:	11852783          	lw	a5,280(a0)
   18d40:	ff010113          	addi	sp,sp,-16
   18d44:	00812423          	sw	s0,8(sp)
   18d48:	00912223          	sw	s1,4(sp)
   18d4c:	00112623          	sw	ra,12(sp)
   18d50:	00058413          	mv	s0,a1
   18d54:	00050493          	mv	s1,a0
   18d58:	08078063          	beqz	a5,18dd8 <__sigtramp_r+0xa4>
   18d5c:	00241713          	slli	a4,s0,0x2
   18d60:	00e787b3          	add	a5,a5,a4
   18d64:	0007a703          	lw	a4,0(a5)
   18d68:	02070c63          	beqz	a4,18da0 <__sigtramp_r+0x6c>
   18d6c:	fff00693          	li	a3,-1
   18d70:	06d70063          	beq	a4,a3,18dd0 <__sigtramp_r+0x9c>
   18d74:	00100693          	li	a3,1
   18d78:	04d70063          	beq	a4,a3,18db8 <__sigtramp_r+0x84>
   18d7c:	00040513          	mv	a0,s0
   18d80:	0007a023          	sw	zero,0(a5)
   18d84:	000700e7          	jalr	a4
   18d88:	00000513          	li	a0,0
   18d8c:	00c12083          	lw	ra,12(sp)
   18d90:	00812403          	lw	s0,8(sp)
   18d94:	00412483          	lw	s1,4(sp)
   18d98:	01010113          	addi	sp,sp,16
   18d9c:	00008067          	ret
   18da0:	00c12083          	lw	ra,12(sp)
   18da4:	00812403          	lw	s0,8(sp)
   18da8:	00412483          	lw	s1,4(sp)
   18dac:	00100513          	li	a0,1
   18db0:	01010113          	addi	sp,sp,16
   18db4:	00008067          	ret
   18db8:	00c12083          	lw	ra,12(sp)
   18dbc:	00812403          	lw	s0,8(sp)
   18dc0:	00412483          	lw	s1,4(sp)
   18dc4:	00300513          	li	a0,3
   18dc8:	01010113          	addi	sp,sp,16
   18dcc:	00008067          	ret
   18dd0:	00200513          	li	a0,2
   18dd4:	fb9ff06f          	j	18d8c <__sigtramp_r+0x58>
   18dd8:	08000593          	li	a1,128
   18ddc:	da5f40ef          	jal	db80 <_malloc_r>
   18de0:	10a4ac23          	sw	a0,280(s1)
   18de4:	00050793          	mv	a5,a0
   18de8:	00050e63          	beqz	a0,18e04 <__sigtramp_r+0xd0>
   18dec:	00050713          	mv	a4,a0
   18df0:	08050693          	addi	a3,a0,128
   18df4:	00072023          	sw	zero,0(a4)
   18df8:	00470713          	addi	a4,a4,4
   18dfc:	fed71ce3          	bne	a4,a3,18df4 <__sigtramp_r+0xc0>
   18e00:	f5dff06f          	j	18d5c <__sigtramp_r+0x28>
   18e04:	fff00513          	li	a0,-1
   18e08:	f85ff06f          	j	18d8c <__sigtramp_r+0x58>
   18e0c:	fff00513          	li	a0,-1
   18e10:	00008067          	ret

00018e14 <raise>:
   18e14:	ff010113          	addi	sp,sp,-16
   18e18:	00912223          	sw	s1,4(sp)
   18e1c:	00112623          	sw	ra,12(sp)
   18e20:	01f00793          	li	a5,31
   18e24:	86c1a483          	lw	s1,-1940(gp) # 1a724 <_impure_ptr>
   18e28:	08a7ee63          	bltu	a5,a0,18ec4 <raise+0xb0>
   18e2c:	1184a783          	lw	a5,280(s1)
   18e30:	00812423          	sw	s0,8(sp)
   18e34:	00050413          	mv	s0,a0
   18e38:	04078263          	beqz	a5,18e7c <raise+0x68>
   18e3c:	00251713          	slli	a4,a0,0x2
   18e40:	00e787b3          	add	a5,a5,a4
   18e44:	0007a703          	lw	a4,0(a5)
   18e48:	02070a63          	beqz	a4,18e7c <raise+0x68>
   18e4c:	00100693          	li	a3,1
   18e50:	00d70a63          	beq	a4,a3,18e64 <raise+0x50>
   18e54:	fff00693          	li	a3,-1
   18e58:	04d70663          	beq	a4,a3,18ea4 <raise+0x90>
   18e5c:	0007a023          	sw	zero,0(a5)
   18e60:	000700e7          	jalr	a4
   18e64:	00812403          	lw	s0,8(sp)
   18e68:	00000513          	li	a0,0
   18e6c:	00c12083          	lw	ra,12(sp)
   18e70:	00412483          	lw	s1,4(sp)
   18e74:	01010113          	addi	sp,sp,16
   18e78:	00008067          	ret
   18e7c:	00048513          	mv	a0,s1
   18e80:	29c000ef          	jal	1911c <_getpid_r>
   18e84:	00040613          	mv	a2,s0
   18e88:	00812403          	lw	s0,8(sp)
   18e8c:	00c12083          	lw	ra,12(sp)
   18e90:	00050593          	mv	a1,a0
   18e94:	00048513          	mv	a0,s1
   18e98:	00412483          	lw	s1,4(sp)
   18e9c:	01010113          	addi	sp,sp,16
   18ea0:	2180006f          	j	190b8 <_kill_r>
   18ea4:	00812403          	lw	s0,8(sp)
   18ea8:	00c12083          	lw	ra,12(sp)
   18eac:	01600793          	li	a5,22
   18eb0:	00f4a023          	sw	a5,0(s1)
   18eb4:	00100513          	li	a0,1
   18eb8:	00412483          	lw	s1,4(sp)
   18ebc:	01010113          	addi	sp,sp,16
   18ec0:	00008067          	ret
   18ec4:	01600793          	li	a5,22
   18ec8:	00f4a023          	sw	a5,0(s1)
   18ecc:	fff00513          	li	a0,-1
   18ed0:	f9dff06f          	j	18e6c <raise+0x58>

00018ed4 <signal>:
   18ed4:	ff010113          	addi	sp,sp,-16
   18ed8:	01212023          	sw	s2,0(sp)
   18edc:	00112623          	sw	ra,12(sp)
   18ee0:	01f00793          	li	a5,31
   18ee4:	86c1a903          	lw	s2,-1940(gp) # 1a724 <_impure_ptr>
   18ee8:	04a7e263          	bltu	a5,a0,18f2c <signal+0x58>
   18eec:	00812423          	sw	s0,8(sp)
   18ef0:	00050413          	mv	s0,a0
   18ef4:	11892503          	lw	a0,280(s2)
   18ef8:	00912223          	sw	s1,4(sp)
   18efc:	00058493          	mv	s1,a1
   18f00:	02050e63          	beqz	a0,18f3c <signal+0x68>
   18f04:	00241413          	slli	s0,s0,0x2
   18f08:	008507b3          	add	a5,a0,s0
   18f0c:	0007a503          	lw	a0,0(a5)
   18f10:	00812403          	lw	s0,8(sp)
   18f14:	0097a023          	sw	s1,0(a5)
   18f18:	00412483          	lw	s1,4(sp)
   18f1c:	00c12083          	lw	ra,12(sp)
   18f20:	00012903          	lw	s2,0(sp)
   18f24:	01010113          	addi	sp,sp,16
   18f28:	00008067          	ret
   18f2c:	01600793          	li	a5,22
   18f30:	00f92023          	sw	a5,0(s2)
   18f34:	fff00513          	li	a0,-1
   18f38:	fe5ff06f          	j	18f1c <signal+0x48>
   18f3c:	08000593          	li	a1,128
   18f40:	00090513          	mv	a0,s2
   18f44:	c3df40ef          	jal	db80 <_malloc_r>
   18f48:	10a92c23          	sw	a0,280(s2)
   18f4c:	00050793          	mv	a5,a0
   18f50:	08050713          	addi	a4,a0,128
   18f54:	00050a63          	beqz	a0,18f68 <signal+0x94>
   18f58:	0007a023          	sw	zero,0(a5)
   18f5c:	00478793          	addi	a5,a5,4
   18f60:	fef71ce3          	bne	a4,a5,18f58 <signal+0x84>
   18f64:	fa1ff06f          	j	18f04 <signal+0x30>
   18f68:	00812403          	lw	s0,8(sp)
   18f6c:	00412483          	lw	s1,4(sp)
   18f70:	fff00513          	li	a0,-1
   18f74:	fa9ff06f          	j	18f1c <signal+0x48>

00018f78 <_init_signal>:
   18f78:	ff010113          	addi	sp,sp,-16
   18f7c:	00812423          	sw	s0,8(sp)
   18f80:	86c1a403          	lw	s0,-1940(gp) # 1a724 <_impure_ptr>
   18f84:	00112623          	sw	ra,12(sp)
   18f88:	11842783          	lw	a5,280(s0)
   18f8c:	00078c63          	beqz	a5,18fa4 <_init_signal+0x2c>
   18f90:	00000513          	li	a0,0
   18f94:	00c12083          	lw	ra,12(sp)
   18f98:	00812403          	lw	s0,8(sp)
   18f9c:	01010113          	addi	sp,sp,16
   18fa0:	00008067          	ret
   18fa4:	08000593          	li	a1,128
   18fa8:	00040513          	mv	a0,s0
   18fac:	bd5f40ef          	jal	db80 <_malloc_r>
   18fb0:	10a42c23          	sw	a0,280(s0)
   18fb4:	00050c63          	beqz	a0,18fcc <_init_signal+0x54>
   18fb8:	08050793          	addi	a5,a0,128
   18fbc:	00052023          	sw	zero,0(a0)
   18fc0:	00450513          	addi	a0,a0,4
   18fc4:	fef51ce3          	bne	a0,a5,18fbc <_init_signal+0x44>
   18fc8:	fc9ff06f          	j	18f90 <_init_signal+0x18>
   18fcc:	fff00513          	li	a0,-1
   18fd0:	fc5ff06f          	j	18f94 <_init_signal+0x1c>

00018fd4 <__sigtramp>:
   18fd4:	ff010113          	addi	sp,sp,-16
   18fd8:	00912223          	sw	s1,4(sp)
   18fdc:	00112623          	sw	ra,12(sp)
   18fe0:	01f00793          	li	a5,31
   18fe4:	86c1a483          	lw	s1,-1940(gp) # 1a724 <_impure_ptr>
   18fe8:	0ca7e463          	bltu	a5,a0,190b0 <__sigtramp+0xdc>
   18fec:	1184a783          	lw	a5,280(s1)
   18ff0:	00812423          	sw	s0,8(sp)
   18ff4:	00050413          	mv	s0,a0
   18ff8:	08078263          	beqz	a5,1907c <__sigtramp+0xa8>
   18ffc:	00241713          	slli	a4,s0,0x2
   19000:	00e787b3          	add	a5,a5,a4
   19004:	0007a703          	lw	a4,0(a5)
   19008:	02070c63          	beqz	a4,19040 <__sigtramp+0x6c>
   1900c:	fff00693          	li	a3,-1
   19010:	06d70063          	beq	a4,a3,19070 <__sigtramp+0x9c>
   19014:	00100693          	li	a3,1
   19018:	04d70063          	beq	a4,a3,19058 <__sigtramp+0x84>
   1901c:	00040513          	mv	a0,s0
   19020:	0007a023          	sw	zero,0(a5)
   19024:	000700e7          	jalr	a4
   19028:	00812403          	lw	s0,8(sp)
   1902c:	00000513          	li	a0,0
   19030:	00c12083          	lw	ra,12(sp)
   19034:	00412483          	lw	s1,4(sp)
   19038:	01010113          	addi	sp,sp,16
   1903c:	00008067          	ret
   19040:	00812403          	lw	s0,8(sp)
   19044:	00c12083          	lw	ra,12(sp)
   19048:	00412483          	lw	s1,4(sp)
   1904c:	00100513          	li	a0,1
   19050:	01010113          	addi	sp,sp,16
   19054:	00008067          	ret
   19058:	00812403          	lw	s0,8(sp)
   1905c:	00c12083          	lw	ra,12(sp)
   19060:	00412483          	lw	s1,4(sp)
   19064:	00300513          	li	a0,3
   19068:	01010113          	addi	sp,sp,16
   1906c:	00008067          	ret
   19070:	00812403          	lw	s0,8(sp)
   19074:	00200513          	li	a0,2
   19078:	fb9ff06f          	j	19030 <__sigtramp+0x5c>
   1907c:	08000593          	li	a1,128
   19080:	00048513          	mv	a0,s1
   19084:	afdf40ef          	jal	db80 <_malloc_r>
   19088:	10a4ac23          	sw	a0,280(s1)
   1908c:	00050793          	mv	a5,a0
   19090:	00050e63          	beqz	a0,190ac <__sigtramp+0xd8>
   19094:	00050713          	mv	a4,a0
   19098:	08050693          	addi	a3,a0,128
   1909c:	00072023          	sw	zero,0(a4)
   190a0:	00470713          	addi	a4,a4,4
   190a4:	fee69ce3          	bne	a3,a4,1909c <__sigtramp+0xc8>
   190a8:	f55ff06f          	j	18ffc <__sigtramp+0x28>
   190ac:	00812403          	lw	s0,8(sp)
   190b0:	fff00513          	li	a0,-1
   190b4:	f7dff06f          	j	19030 <__sigtramp+0x5c>

000190b8 <_kill_r>:
   190b8:	ff010113          	addi	sp,sp,-16
   190bc:	00058713          	mv	a4,a1
   190c0:	00812423          	sw	s0,8(sp)
   190c4:	00912223          	sw	s1,4(sp)
   190c8:	00050413          	mv	s0,a0
   190cc:	00060593          	mv	a1,a2
   190d0:	00070513          	mv	a0,a4
   190d4:	00112623          	sw	ra,12(sp)
   190d8:	8a01ae23          	sw	zero,-1860(gp) # 1a774 <errno>
   190dc:	b0cef0ef          	jal	83e8 <_access>
   190e0:	fff00793          	li	a5,-1
   190e4:	00f50c63          	beq	a0,a5,190fc <_kill_r+0x44>
   190e8:	00c12083          	lw	ra,12(sp)
   190ec:	00812403          	lw	s0,8(sp)
   190f0:	00412483          	lw	s1,4(sp)
   190f4:	01010113          	addi	sp,sp,16
   190f8:	00008067          	ret
   190fc:	8bc1a783          	lw	a5,-1860(gp) # 1a774 <errno>
   19100:	fe0784e3          	beqz	a5,190e8 <_kill_r+0x30>
   19104:	00c12083          	lw	ra,12(sp)
   19108:	00f42023          	sw	a5,0(s0)
   1910c:	00812403          	lw	s0,8(sp)
   19110:	00412483          	lw	s1,4(sp)
   19114:	01010113          	addi	sp,sp,16
   19118:	00008067          	ret

0001911c <_getpid_r>:
   1911c:	accef06f          	j	83e8 <_access>

Disassembly of section .rodata:

00019120 <zeroes.0-0x8ec>:
   19120:	4844                	.insn	2, 0x4844
   19122:	5952                	.insn	2, 0x5952
   19124:	4e4f5453          	.insn	4, 0x4e4f5453
   19128:	2045                	.insn	2, 0x2045
   1912a:	5250                	.insn	2, 0x5250
   1912c:	4152474f          	.insn	4, 0x4152474f
   19130:	2c4d                	.insn	2, 0x2c4d
   19132:	5320                	.insn	2, 0x5320
   19134:	20454d4f          	.insn	4, 0x20454d4f
   19138:	49525453          	.insn	4, 0x49525453
   1913c:	474e                	.insn	2, 0x474e
   1913e:	0000                	.insn	2, 0x
   19140:	6844                	.insn	2, 0x6844
   19142:	7972                	.insn	2, 0x7972
   19144:	6e6f7473          	.insn	4, 0x6e6f7473
   19148:	2065                	.insn	2, 0x2065
   1914a:	6542                	.insn	2, 0x6542
   1914c:	636e                	.insn	2, 0x636e
   1914e:	6d68                	.insn	2, 0x6d68
   19150:	7261                	.insn	2, 0x7261
   19152:	56202c6b          	.insn	4, 0x56202c6b
   19156:	7265                	.insn	2, 0x7265
   19158:	6e6f6973          	.insn	4, 0x6e6f6973
   1915c:	3220                	.insn	2, 0x3220
   1915e:	312e                	.insn	2, 0x312e
   19160:	2820                	.insn	2, 0x2820
   19162:	614c                	.insn	2, 0x614c
   19164:	676e                	.insn	2, 0x676e
   19166:	6175                	.insn	2, 0x6175
   19168:	203a6567          	.insn	4, 0x203a6567
   1916c:	00002943          	.insn	4, 0x2943
   19170:	7250                	.insn	2, 0x7250
   19172:	6172676f          	jal	a4,3ff88 <_end+0x22d24>
   19176:	206d                	.insn	2, 0x206d
   19178:	706d6f63          	bltu	s10,t1,19896 <_getpid_r+0x77a>
   1917c:	6c69                	.insn	2, 0x6c69
   1917e:	6465                	.insn	2, 0x6465
   19180:	7720                	.insn	2, 0x7720
   19182:	7469                	.insn	2, 0x7469
   19184:	2068                	.insn	2, 0x2068
   19186:	67657227          	.insn	4, 0x67657227
   1918a:	7369                	.insn	2, 0x7369
   1918c:	6574                	.insn	2, 0x6574
   1918e:	2772                	.insn	2, 0x2772
   19190:	6120                	.insn	2, 0x6120
   19192:	7474                	.insn	2, 0x7474
   19194:	6972                	.insn	2, 0x6972
   19196:	7562                	.insn	2, 0x7562
   19198:	6574                	.insn	2, 0x6574
   1919a:	0000                	.insn	2, 0x
   1919c:	7250                	.insn	2, 0x7250
   1919e:	6172676f          	jal	a4,3ffb4 <_end+0x22d50>
   191a2:	206d                	.insn	2, 0x206d
   191a4:	706d6f63          	bltu	s10,t1,198c2 <_getpid_r+0x7a6>
   191a8:	6c69                	.insn	2, 0x6c69
   191aa:	6465                	.insn	2, 0x6465
   191ac:	7720                	.insn	2, 0x7720
   191ae:	7469                	.insn	2, 0x7469
   191b0:	6f68                	.insn	2, 0x6f68
   191b2:	7475                	.insn	2, 0x7475
   191b4:	2720                	.insn	2, 0x2720
   191b6:	6572                	.insn	2, 0x6572
   191b8:	74736967          	.insn	4, 0x74736967
   191bc:	7265                	.insn	2, 0x7265
   191be:	74612027          	.insn	4, 0x74612027
   191c2:	7274                	.insn	2, 0x7274
   191c4:	6269                	.insn	2, 0x6269
   191c6:	7475                	.insn	2, 0x7475
   191c8:	0065                	.insn	2, 0x0065
   191ca:	0000                	.insn	2, 0x
   191cc:	6c50                	.insn	2, 0x6c50
   191ce:	6165                	.insn	2, 0x6165
   191d0:	67206573          	.insn	4, 0x67206573
   191d4:	7669                	.insn	2, 0x7669
   191d6:	2065                	.insn	2, 0x2065
   191d8:	6874                	.insn	2, 0x6874
   191da:	2065                	.insn	2, 0x2065
   191dc:	756e                	.insn	2, 0x756e
   191de:	626d                	.insn	2, 0x626d
   191e0:	7265                	.insn	2, 0x7265
   191e2:	6f20                	.insn	2, 0x6f20
   191e4:	2066                	.insn	2, 0x2066
   191e6:	7572                	.insn	2, 0x7572
   191e8:	736e                	.insn	2, 0x736e
   191ea:	7420                	.insn	2, 0x7420
   191ec:	7268                	.insn	2, 0x7268
   191ee:	6867756f          	jal	a0,90874 <_end+0x73610>
   191f2:	7420                	.insn	2, 0x7420
   191f4:	6568                	.insn	2, 0x6568
   191f6:	6220                	.insn	2, 0x6220
   191f8:	6e65                	.insn	2, 0x6e65
   191fa:	616d6863          	bltu	s10,s6,1980a <_getpid_r+0x6ee>
   191fe:	6b72                	.insn	2, 0x6b72
   19200:	203a                	.insn	2, 0x203a
   19202:	0000                	.insn	2, 0x
   19204:	7845                	.insn	2, 0x7845
   19206:	6365                	.insn	2, 0x6365
   19208:	7475                	.insn	2, 0x7475
   1920a:	6f69                	.insn	2, 0x6f69
   1920c:	206e                	.insn	2, 0x206e
   1920e:	72617473          	.insn	4, 0x72617473
   19212:	7374                	.insn	2, 0x7374
   19214:	202c                	.insn	2, 0x202c
   19216:	6425                	.insn	2, 0x6425
   19218:	7220                	.insn	2, 0x7220
   1921a:	6e75                	.insn	2, 0x6e75
   1921c:	68742073          	.insn	4, 0x68742073
   19220:	6f72                	.insn	2, 0x6f72
   19222:	6775                	.insn	2, 0x6775
   19224:	2068                	.insn	2, 0x2068
   19226:	6844                	.insn	2, 0x6844
   19228:	7972                	.insn	2, 0x7972
   1922a:	6e6f7473          	.insn	4, 0x6e6f7473
   1922e:	0a65                	.insn	2, 0x0a65
   19230:	0000                	.insn	2, 0x
   19232:	0000                	.insn	2, 0x
   19234:	7845                	.insn	2, 0x7845
   19236:	6365                	.insn	2, 0x6365
   19238:	7475                	.insn	2, 0x7475
   1923a:	6f69                	.insn	2, 0x6f69
   1923c:	206e                	.insn	2, 0x206e
   1923e:	6e65                	.insn	2, 0x6e65
   19240:	7364                	.insn	2, 0x7364
   19242:	0000                	.insn	2, 0x
   19244:	6946                	.insn	2, 0x6946
   19246:	616e                	.insn	2, 0x616e
   19248:	206c                	.insn	2, 0x206c
   1924a:	6176                	.insn	2, 0x6176
   1924c:	756c                	.insn	2, 0x756c
   1924e:	7365                	.insn	2, 0x7365
   19250:	6f20                	.insn	2, 0x6f20
   19252:	2066                	.insn	2, 0x2066
   19254:	6874                	.insn	2, 0x6874
   19256:	2065                	.insn	2, 0x2065
   19258:	6176                	.insn	2, 0x6176
   1925a:	6972                	.insn	2, 0x6972
   1925c:	6261                	.insn	2, 0x6261
   1925e:	656c                	.insn	2, 0x656c
   19260:	73752073          	.insn	4, 0x73752073
   19264:	6465                	.insn	2, 0x6465
   19266:	6920                	.insn	2, 0x6920
   19268:	206e                	.insn	2, 0x206e
   1926a:	6874                	.insn	2, 0x6874
   1926c:	2065                	.insn	2, 0x2065
   1926e:	6562                	.insn	2, 0x6562
   19270:	636e                	.insn	2, 0x636e
   19272:	6d68                	.insn	2, 0x6d68
   19274:	7261                	.insn	2, 0x7261
   19276:	00003a6b          	.insn	4, 0x3a6b
   1927a:	0000                	.insn	2, 0x
   1927c:	6e49                	.insn	2, 0x6e49
   1927e:	5f74                	.insn	2, 0x5f74
   19280:	626f6c47          	.insn	4, 0x626f6c47
   19284:	203a                	.insn	2, 0x203a
   19286:	2020                	.insn	2, 0x2020
   19288:	2020                	.insn	2, 0x2020
   1928a:	2020                	.insn	2, 0x2020
   1928c:	2020                	.insn	2, 0x2020
   1928e:	2020                	.insn	2, 0x2020
   19290:	2520                	.insn	2, 0x2520
   19292:	0a64                	.insn	2, 0x0a64
   19294:	0000                	.insn	2, 0x
   19296:	0000                	.insn	2, 0x
   19298:	2020                	.insn	2, 0x2020
   1929a:	2020                	.insn	2, 0x2020
   1929c:	2020                	.insn	2, 0x2020
   1929e:	2020                	.insn	2, 0x2020
   192a0:	756f6873          	.insn	4, 0x756f6873
   192a4:	646c                	.insn	2, 0x646c
   192a6:	6220                	.insn	2, 0x6220
   192a8:	3a65                	.insn	2, 0x3a65
   192aa:	2020                	.insn	2, 0x2020
   192ac:	2520                	.insn	2, 0x2520
   192ae:	0a64                	.insn	2, 0x0a64
   192b0:	0000                	.insn	2, 0x
   192b2:	0000                	.insn	2, 0x
   192b4:	6f42                	.insn	2, 0x6f42
   192b6:	475f6c6f          	jal	s8,10ff2a <_end+0xf2cc6>
   192ba:	6f6c                	.insn	2, 0x6f6c
   192bc:	3a62                	.insn	2, 0x3a62
   192be:	2020                	.insn	2, 0x2020
   192c0:	2020                	.insn	2, 0x2020
   192c2:	2020                	.insn	2, 0x2020
   192c4:	2020                	.insn	2, 0x2020
   192c6:	2020                	.insn	2, 0x2020
   192c8:	2520                	.insn	2, 0x2520
   192ca:	0a64                	.insn	2, 0x0a64
   192cc:	0000                	.insn	2, 0x
   192ce:	0000                	.insn	2, 0x
   192d0:	315f6843          	.insn	4, 0x315f6843
   192d4:	475f 6f6c 3a62      	.insn	6, 0x3a626f6c475f
   192da:	2020                	.insn	2, 0x2020
   192dc:	2020                	.insn	2, 0x2020
   192de:	2020                	.insn	2, 0x2020
   192e0:	2020                	.insn	2, 0x2020
   192e2:	2020                	.insn	2, 0x2020
   192e4:	2520                	.insn	2, 0x2520
   192e6:	00000a63          	beqz	zero,192fa <_getpid_r+0x1de>
   192ea:	0000                	.insn	2, 0x
   192ec:	2020                	.insn	2, 0x2020
   192ee:	2020                	.insn	2, 0x2020
   192f0:	2020                	.insn	2, 0x2020
   192f2:	2020                	.insn	2, 0x2020
   192f4:	756f6873          	.insn	4, 0x756f6873
   192f8:	646c                	.insn	2, 0x646c
   192fa:	6220                	.insn	2, 0x6220
   192fc:	3a65                	.insn	2, 0x3a65
   192fe:	2020                	.insn	2, 0x2020
   19300:	2520                	.insn	2, 0x2520
   19302:	00000a63          	beqz	zero,19316 <_getpid_r+0x1fa>
   19306:	0000                	.insn	2, 0x
   19308:	325f6843          	.insn	4, 0x325f6843
   1930c:	475f 6f6c 3a62      	.insn	6, 0x3a626f6c475f
   19312:	2020                	.insn	2, 0x2020
   19314:	2020                	.insn	2, 0x2020
   19316:	2020                	.insn	2, 0x2020
   19318:	2020                	.insn	2, 0x2020
   1931a:	2020                	.insn	2, 0x2020
   1931c:	2520                	.insn	2, 0x2520
   1931e:	00000a63          	beqz	zero,19332 <_getpid_r+0x216>
   19322:	0000                	.insn	2, 0x
   19324:	7241                	.insn	2, 0x7241
   19326:	5f72                	.insn	2, 0x5f72
   19328:	5f31                	.insn	2, 0x5f31
   1932a:	626f6c47          	.insn	4, 0x626f6c47
   1932e:	3a5d385b          	.insn	4, 0x3a5d385b
   19332:	2020                	.insn	2, 0x2020
   19334:	2020                	.insn	2, 0x2020
   19336:	2020                	.insn	2, 0x2020
   19338:	2520                	.insn	2, 0x2520
   1933a:	0a64                	.insn	2, 0x0a64
   1933c:	0000                	.insn	2, 0x
   1933e:	0000                	.insn	2, 0x
   19340:	7241                	.insn	2, 0x7241
   19342:	5f72                	.insn	2, 0x5f72
   19344:	5f32                	.insn	2, 0x5f32
   19346:	626f6c47          	.insn	4, 0x626f6c47
   1934a:	5b5d385b          	.insn	4, 0x5b5d385b
   1934e:	203a5d37          	lui	s10,0x203a5
   19352:	2020                	.insn	2, 0x2020
   19354:	2520                	.insn	2, 0x2520
   19356:	0a64                	.insn	2, 0x0a64
   19358:	0000                	.insn	2, 0x
   1935a:	0000                	.insn	2, 0x
   1935c:	2020                	.insn	2, 0x2020
   1935e:	2020                	.insn	2, 0x2020
   19360:	2020                	.insn	2, 0x2020
   19362:	2020                	.insn	2, 0x2020
   19364:	756f6873          	.insn	4, 0x756f6873
   19368:	646c                	.insn	2, 0x646c
   1936a:	6220                	.insn	2, 0x6220
   1936c:	3a65                	.insn	2, 0x3a65
   1936e:	2020                	.insn	2, 0x2020
   19370:	4e20                	.insn	2, 0x4e20
   19372:	6d75                	.insn	2, 0x6d75
   19374:	6562                	.insn	2, 0x6562
   19376:	5f72                	.insn	2, 0x5f72
   19378:	525f664f          	.insn	4, 0x525f664f
   1937c:	6e75                	.insn	2, 0x6e75
   1937e:	202b2073          	.insn	4, 0x202b2073
   19382:	3031                	.insn	2, 0x3031
   19384:	0000                	.insn	2, 0x
   19386:	0000                	.insn	2, 0x
   19388:	7450                	.insn	2, 0x7450
   1938a:	5f72                	.insn	2, 0x5f72
   1938c:	626f6c47          	.insn	4, 0x626f6c47
   19390:	3e2d                	.insn	2, 0x3e2d
   19392:	0000                	.insn	2, 0x
   19394:	2020                	.insn	2, 0x2020
   19396:	7450                	.insn	2, 0x7450
   19398:	5f72                	.insn	2, 0x5f72
   1939a:	706d6f43          	.insn	4, 0x706d6f43
   1939e:	203a                	.insn	2, 0x203a
   193a0:	2020                	.insn	2, 0x2020
   193a2:	2020                	.insn	2, 0x2020
   193a4:	2020                	.insn	2, 0x2020
   193a6:	2020                	.insn	2, 0x2020
   193a8:	2520                	.insn	2, 0x2520
   193aa:	0a64                	.insn	2, 0x0a64
   193ac:	0000                	.insn	2, 0x
   193ae:	0000                	.insn	2, 0x
   193b0:	2020                	.insn	2, 0x2020
   193b2:	2020                	.insn	2, 0x2020
   193b4:	2020                	.insn	2, 0x2020
   193b6:	2020                	.insn	2, 0x2020
   193b8:	756f6873          	.insn	4, 0x756f6873
   193bc:	646c                	.insn	2, 0x646c
   193be:	6220                	.insn	2, 0x6220
   193c0:	3a65                	.insn	2, 0x3a65
   193c2:	2020                	.insn	2, 0x2020
   193c4:	2820                	.insn	2, 0x2820
   193c6:	6d69                	.insn	2, 0x6d69
   193c8:	6c70                	.insn	2, 0x6c70
   193ca:	6d65                	.insn	2, 0x6d65
   193cc:	6e65                	.insn	2, 0x6e65
   193ce:	6174                	.insn	2, 0x6174
   193d0:	6974                	.insn	2, 0x6974
   193d2:	642d6e6f          	jal	t3,efa14 <_end+0xd27b0>
   193d6:	7065                	.insn	2, 0x7065
   193d8:	6e65                	.insn	2, 0x6e65
   193da:	6564                	.insn	2, 0x6564
   193dc:	746e                	.insn	2, 0x746e
   193de:	0029                	.insn	2, 0x0029
   193e0:	2020                	.insn	2, 0x2020
   193e2:	6944                	.insn	2, 0x6944
   193e4:	3a726373          	.insn	4, 0x3a726373
   193e8:	2020                	.insn	2, 0x2020
   193ea:	2020                	.insn	2, 0x2020
   193ec:	2020                	.insn	2, 0x2020
   193ee:	2020                	.insn	2, 0x2020
   193f0:	2020                	.insn	2, 0x2020
   193f2:	2020                	.insn	2, 0x2020
   193f4:	2520                	.insn	2, 0x2520
   193f6:	0a64                	.insn	2, 0x0a64
   193f8:	0000                	.insn	2, 0x
   193fa:	0000                	.insn	2, 0x
   193fc:	2020                	.insn	2, 0x2020
   193fe:	6e45                	.insn	2, 0x6e45
   19400:	6d75                	.insn	2, 0x6d75
   19402:	435f 6d6f 3a70      	.insn	6, 0x3a706d6f435f
   19408:	2020                	.insn	2, 0x2020
   1940a:	2020                	.insn	2, 0x2020
   1940c:	2020                	.insn	2, 0x2020
   1940e:	2020                	.insn	2, 0x2020
   19410:	2520                	.insn	2, 0x2520
   19412:	0a64                	.insn	2, 0x0a64
   19414:	0000                	.insn	2, 0x
   19416:	0000                	.insn	2, 0x
   19418:	2020                	.insn	2, 0x2020
   1941a:	6e49                	.insn	2, 0x6e49
   1941c:	5f74                	.insn	2, 0x5f74
   1941e:	706d6f43          	.insn	4, 0x706d6f43
   19422:	203a                	.insn	2, 0x203a
   19424:	2020                	.insn	2, 0x2020
   19426:	2020                	.insn	2, 0x2020
   19428:	2020                	.insn	2, 0x2020
   1942a:	2020                	.insn	2, 0x2020
   1942c:	2520                	.insn	2, 0x2520
   1942e:	0a64                	.insn	2, 0x0a64
   19430:	0000                	.insn	2, 0x
   19432:	0000                	.insn	2, 0x
   19434:	2020                	.insn	2, 0x2020
   19436:	5f727453          	.insn	4, 0x5f727453
   1943a:	706d6f43          	.insn	4, 0x706d6f43
   1943e:	203a                	.insn	2, 0x203a
   19440:	2020                	.insn	2, 0x2020
   19442:	2020                	.insn	2, 0x2020
   19444:	2020                	.insn	2, 0x2020
   19446:	2020                	.insn	2, 0x2020
   19448:	2520                	.insn	2, 0x2520
   1944a:	00000a73          	.insn	4, 0x0a73
   1944e:	0000                	.insn	2, 0x
   19450:	2020                	.insn	2, 0x2020
   19452:	2020                	.insn	2, 0x2020
   19454:	2020                	.insn	2, 0x2020
   19456:	2020                	.insn	2, 0x2020
   19458:	756f6873          	.insn	4, 0x756f6873
   1945c:	646c                	.insn	2, 0x646c
   1945e:	6220                	.insn	2, 0x6220
   19460:	3a65                	.insn	2, 0x3a65
   19462:	2020                	.insn	2, 0x2020
   19464:	4420                	.insn	2, 0x4420
   19466:	5248                	.insn	2, 0x5248
   19468:	5359                	.insn	2, 0x5359
   1946a:	4f54                	.insn	2, 0x4f54
   1946c:	454e                	.insn	2, 0x454e
   1946e:	5020                	.insn	2, 0x5020
   19470:	4f52                	.insn	2, 0x4f52
   19472:	4d415247          	.insn	4, 0x4d415247
   19476:	202c                	.insn	2, 0x202c
   19478:	454d4f53          	.insn	4, 0x454d4f53
   1947c:	5320                	.insn	2, 0x5320
   1947e:	5254                	.insn	2, 0x5254
   19480:	4e49                	.insn	2, 0x4e49
   19482:	654e0047          	.insn	4, 0x654e0047
   19486:	7478                	.insn	2, 0x7478
   19488:	505f 7274 475f      	.insn	6, 0x475f7274505f
   1948e:	6f6c                	.insn	2, 0x6f6c
   19490:	2d62                	.insn	2, 0x2d62
   19492:	003e                	.insn	2, 0x003e
   19494:	2020                	.insn	2, 0x2020
   19496:	2020                	.insn	2, 0x2020
   19498:	2020                	.insn	2, 0x2020
   1949a:	2020                	.insn	2, 0x2020
   1949c:	756f6873          	.insn	4, 0x756f6873
   194a0:	646c                	.insn	2, 0x646c
   194a2:	6220                	.insn	2, 0x6220
   194a4:	3a65                	.insn	2, 0x3a65
   194a6:	2020                	.insn	2, 0x2020
   194a8:	2820                	.insn	2, 0x2820
   194aa:	6d69                	.insn	2, 0x6d69
   194ac:	6c70                	.insn	2, 0x6c70
   194ae:	6d65                	.insn	2, 0x6d65
   194b0:	6e65                	.insn	2, 0x6e65
   194b2:	6174                	.insn	2, 0x6174
   194b4:	6974                	.insn	2, 0x6974
   194b6:	642d6e6f          	jal	t3,efaf8 <_end+0xd2894>
   194ba:	7065                	.insn	2, 0x7065
   194bc:	6e65                	.insn	2, 0x6e65
   194be:	6564                	.insn	2, 0x6564
   194c0:	746e                	.insn	2, 0x746e
   194c2:	2c29                	.insn	2, 0x2c29
   194c4:	7320                	.insn	2, 0x7320
   194c6:	6d61                	.insn	2, 0x6d61
   194c8:	2065                	.insn	2, 0x2065
   194ca:	7361                	.insn	2, 0x7361
   194cc:	6120                	.insn	2, 0x6120
   194ce:	6f62                	.insn	2, 0x6f62
   194d0:	6576                	.insn	2, 0x6576
   194d2:	0000                	.insn	2, 0x
   194d4:	6e49                	.insn	2, 0x6e49
   194d6:	5f74                	.insn	2, 0x5f74
   194d8:	5f31                	.insn	2, 0x5f31
   194da:	6f4c                	.insn	2, 0x6f4c
   194dc:	20203a63          	.insn	4, 0x20203a63
   194e0:	2020                	.insn	2, 0x2020
   194e2:	2020                	.insn	2, 0x2020
   194e4:	2020                	.insn	2, 0x2020
   194e6:	2020                	.insn	2, 0x2020
   194e8:	2520                	.insn	2, 0x2520
   194ea:	0a64                	.insn	2, 0x0a64
   194ec:	0000                	.insn	2, 0x
   194ee:	0000                	.insn	2, 0x
   194f0:	6e49                	.insn	2, 0x6e49
   194f2:	5f74                	.insn	2, 0x5f74
   194f4:	5f32                	.insn	2, 0x5f32
   194f6:	6f4c                	.insn	2, 0x6f4c
   194f8:	20203a63          	.insn	4, 0x20203a63
   194fc:	2020                	.insn	2, 0x2020
   194fe:	2020                	.insn	2, 0x2020
   19500:	2020                	.insn	2, 0x2020
   19502:	2020                	.insn	2, 0x2020
   19504:	2520                	.insn	2, 0x2520
   19506:	0a64                	.insn	2, 0x0a64
   19508:	0000                	.insn	2, 0x
   1950a:	0000                	.insn	2, 0x
   1950c:	6e49                	.insn	2, 0x6e49
   1950e:	5f74                	.insn	2, 0x5f74
   19510:	6f4c5f33          	.insn	4, 0x6f4c5f33
   19514:	20203a63          	.insn	4, 0x20203a63
   19518:	2020                	.insn	2, 0x2020
   1951a:	2020                	.insn	2, 0x2020
   1951c:	2020                	.insn	2, 0x2020
   1951e:	2020                	.insn	2, 0x2020
   19520:	2520                	.insn	2, 0x2520
   19522:	0a64                	.insn	2, 0x0a64
   19524:	0000                	.insn	2, 0x
   19526:	0000                	.insn	2, 0x
   19528:	6e45                	.insn	2, 0x6e45
   1952a:	6d75                	.insn	2, 0x6d75
   1952c:	4c5f 636f 203a      	.insn	6, 0x203a636f4c5f
   19532:	2020                	.insn	2, 0x2020
   19534:	2020                	.insn	2, 0x2020
   19536:	2020                	.insn	2, 0x2020
   19538:	2020                	.insn	2, 0x2020
   1953a:	2020                	.insn	2, 0x2020
   1953c:	2520                	.insn	2, 0x2520
   1953e:	0a64                	.insn	2, 0x0a64
   19540:	0000                	.insn	2, 0x
   19542:	0000                	.insn	2, 0x
   19544:	5f727453          	.insn	4, 0x5f727453
   19548:	5f31                	.insn	2, 0x5f31
   1954a:	6f4c                	.insn	2, 0x6f4c
   1954c:	20203a63          	.insn	4, 0x20203a63
   19550:	2020                	.insn	2, 0x2020
   19552:	2020                	.insn	2, 0x2020
   19554:	2020                	.insn	2, 0x2020
   19556:	2020                	.insn	2, 0x2020
   19558:	2520                	.insn	2, 0x2520
   1955a:	00000a73          	.insn	4, 0x0a73
   1955e:	0000                	.insn	2, 0x
   19560:	2020                	.insn	2, 0x2020
   19562:	2020                	.insn	2, 0x2020
   19564:	2020                	.insn	2, 0x2020
   19566:	2020                	.insn	2, 0x2020
   19568:	756f6873          	.insn	4, 0x756f6873
   1956c:	646c                	.insn	2, 0x646c
   1956e:	6220                	.insn	2, 0x6220
   19570:	3a65                	.insn	2, 0x3a65
   19572:	2020                	.insn	2, 0x2020
   19574:	4420                	.insn	2, 0x4420
   19576:	5248                	.insn	2, 0x5248
   19578:	5359                	.insn	2, 0x5359
   1957a:	4f54                	.insn	2, 0x4f54
   1957c:	454e                	.insn	2, 0x454e
   1957e:	5020                	.insn	2, 0x5020
   19580:	4f52                	.insn	2, 0x4f52
   19582:	4d415247          	.insn	4, 0x4d415247
   19586:	202c                	.insn	2, 0x202c
   19588:	2731                	.insn	2, 0x2731
   1958a:	53205453          	.insn	4, 0x53205453
   1958e:	5254                	.insn	2, 0x5254
   19590:	4e49                	.insn	2, 0x4e49
   19592:	74530047          	.insn	4, 0x74530047
   19596:	5f72                	.insn	2, 0x5f72
   19598:	5f32                	.insn	2, 0x5f32
   1959a:	6f4c                	.insn	2, 0x6f4c
   1959c:	20203a63          	.insn	4, 0x20203a63
   195a0:	2020                	.insn	2, 0x2020
   195a2:	2020                	.insn	2, 0x2020
   195a4:	2020                	.insn	2, 0x2020
   195a6:	2020                	.insn	2, 0x2020
   195a8:	2520                	.insn	2, 0x2520
   195aa:	00000a73          	.insn	4, 0x0a73
   195ae:	0000                	.insn	2, 0x
   195b0:	2020                	.insn	2, 0x2020
   195b2:	2020                	.insn	2, 0x2020
   195b4:	2020                	.insn	2, 0x2020
   195b6:	2020                	.insn	2, 0x2020
   195b8:	756f6873          	.insn	4, 0x756f6873
   195bc:	646c                	.insn	2, 0x646c
   195be:	6220                	.insn	2, 0x6220
   195c0:	3a65                	.insn	2, 0x3a65
   195c2:	2020                	.insn	2, 0x2020
   195c4:	4420                	.insn	2, 0x4420
   195c6:	5248                	.insn	2, 0x5248
   195c8:	5359                	.insn	2, 0x5359
   195ca:	4f54                	.insn	2, 0x4f54
   195cc:	454e                	.insn	2, 0x454e
   195ce:	5020                	.insn	2, 0x5020
   195d0:	4f52                	.insn	2, 0x4f52
   195d2:	4d415247          	.insn	4, 0x4d415247
   195d6:	202c                	.insn	2, 0x202c
   195d8:	2732                	.insn	2, 0x2732
   195da:	444e                	.insn	2, 0x444e
   195dc:	5320                	.insn	2, 0x5320
   195de:	5254                	.insn	2, 0x5254
   195e0:	4e49                	.insn	2, 0x4e49
   195e2:	754e0047          	.insn	4, 0x754e0047
   195e6:	626d                	.insn	2, 0x626d
   195e8:	7265                	.insn	2, 0x7265
   195ea:	4f5f 5f66 7552      	.insn	6, 0x75525f664f5f
   195f0:	736e                	.insn	2, 0x736e
   195f2:	203a                	.insn	2, 0x203a
   195f4:	6425                	.insn	2, 0x6425
   195f6:	000a                	.insn	2, 0x000a
   195f8:	7355                	.insn	2, 0x7355
   195fa:	7265                	.insn	2, 0x7265
   195fc:	545f 6d69 3a65      	.insn	6, 0x3a656d69545f
   19602:	2520                	.insn	2, 0x2520
   19604:	2064                	.insn	2, 0x2064
   19606:	6c637963          	bgeu	t1,t1,19cd8 <__mprec_tens+0xb0>
   1960a:	7365                	.insn	2, 0x7365
   1960c:	202c                	.insn	2, 0x202c
   1960e:	6425                	.insn	2, 0x6425
   19610:	6920                	.insn	2, 0x6920
   19612:	736e                	.insn	2, 0x736e
   19614:	0a6e                	.insn	2, 0x0a6e
   19616:	0000                	.insn	2, 0x
   19618:	6c637943          	.insn	4, 0x6c637943
   1961c:	7365                	.insn	2, 0x7365
   1961e:	505f 7265 495f      	.insn	6, 0x495f7265505f
   19624:	736e                	.insn	2, 0x736e
   19626:	7274                	.insn	2, 0x7274
   19628:	6375                	.insn	2, 0x6375
   1962a:	6974                	.insn	2, 0x6974
   1962c:	203a6e6f          	jal	t3,c002e <_end+0xa2dca>
   19630:	6425                	.insn	2, 0x6425
   19632:	252e                	.insn	2, 0x252e
   19634:	2564                	.insn	2, 0x2564
   19636:	2564                	.insn	2, 0x2564
   19638:	0a64                	.insn	2, 0x0a64
   1963a:	0000                	.insn	2, 0x
   1963c:	6844                	.insn	2, 0x6844
   1963e:	7972                	.insn	2, 0x7972
   19640:	6e6f7473          	.insn	4, 0x6e6f7473
   19644:	7365                	.insn	2, 0x7365
   19646:	505f 7265 535f      	.insn	6, 0x535f7265505f
   1964c:	6365                	.insn	2, 0x6365
   1964e:	5f646e6f          	jal	t3,5fc44 <_end+0x429e0>
   19652:	6550                	.insn	2, 0x6550
   19654:	5f72                	.insn	2, 0x5f72
   19656:	484d                	.insn	2, 0x484d
   19658:	3a7a                	.insn	2, 0x3a7a
   1965a:	2520                	.insn	2, 0x2520
   1965c:	0a64                	.insn	2, 0x0a64
   1965e:	0000                	.insn	2, 0x
   19660:	4d44                	.insn	2, 0x4d44
   19662:	5049                	.insn	2, 0x5049
   19664:	65505f53          	.insn	4, 0x65505f53
   19668:	5f72                	.insn	2, 0x5f72
   1966a:	484d                	.insn	2, 0x484d
   1966c:	3a7a                	.insn	2, 0x3a7a
   1966e:	2520                	.insn	2, 0x2520
   19670:	2e64                	.insn	2, 0x2e64
   19672:	6425                	.insn	2, 0x6425
   19674:	6425                	.insn	2, 0x6425
   19676:	6425                	.insn	2, 0x6425
   19678:	000a                	.insn	2, 0x000a
   1967a:	0000                	.insn	2, 0x
   1967c:	4844                	.insn	2, 0x4844
   1967e:	5952                	.insn	2, 0x5952
   19680:	4e4f5453          	.insn	4, 0x4e4f5453
   19684:	2045                	.insn	2, 0x2045
   19686:	5250                	.insn	2, 0x5250
   19688:	4152474f          	.insn	4, 0x4152474f
   1968c:	2c4d                	.insn	2, 0x2c4d
   1968e:	3120                	.insn	2, 0x3120
   19690:	20545327          	.insn	4, 0x20545327
   19694:	49525453          	.insn	4, 0x49525453
   19698:	474e                	.insn	2, 0x474e
   1969a:	0000                	.insn	2, 0x
   1969c:	4844                	.insn	2, 0x4844
   1969e:	5952                	.insn	2, 0x5952
   196a0:	4e4f5453          	.insn	4, 0x4e4f5453
   196a4:	2045                	.insn	2, 0x2045
   196a6:	5250                	.insn	2, 0x5250
   196a8:	4152474f          	.insn	4, 0x4152474f
   196ac:	2c4d                	.insn	2, 0x2c4d
   196ae:	3220                	.insn	2, 0x3220
   196b0:	20444e27          	.insn	4, 0x20444e27
   196b4:	49525453          	.insn	4, 0x49525453
   196b8:	474e                	.insn	2, 0x474e
   196ba:	0000                	.insn	2, 0x
   196bc:	4844                	.insn	2, 0x4844
   196be:	5952                	.insn	2, 0x5952
   196c0:	4e4f5453          	.insn	4, 0x4e4f5453
   196c4:	2045                	.insn	2, 0x2045
   196c6:	5250                	.insn	2, 0x5250
   196c8:	4152474f          	.insn	4, 0x4152474f
   196cc:	2c4d                	.insn	2, 0x2c4d
   196ce:	3320                	.insn	2, 0x3320
   196d0:	20445227          	.insn	4, 0x20445227
   196d4:	49525453          	.insn	4, 0x49525453
   196d8:	474e                	.insn	2, 0x474e
   196da:	0000                	.insn	2, 0x
   196dc:	6e55                	.insn	2, 0x6e55
   196de:	6d69                	.insn	2, 0x6d69
   196e0:	6c70                	.insn	2, 0x6c70
   196e2:	6d65                	.insn	2, 0x6d65
   196e4:	6e65                	.insn	2, 0x6e65
   196e6:	6574                	.insn	2, 0x6574
   196e8:	2064                	.insn	2, 0x2064
   196ea:	74737973          	.insn	4, 0x74737973
   196ee:	6d65                	.insn	2, 0x6d65
   196f0:	6320                	.insn	2, 0x6320
   196f2:	6c61                	.insn	2, 0x6c61
   196f4:	206c                	.insn	2, 0x206c
   196f6:	6c6c6163          	bltu	s8,t1,19db8 <_ctype_+0xc8>
   196fa:	6465                	.insn	2, 0x6465
   196fc:	0a21                	.insn	2, 0x0a21
   196fe:	0000                	.insn	2, 0x
   19700:	4e49                	.insn	2, 0x4e49
   19702:	0046                	.insn	2, 0x0046
   19704:	6e69                	.insn	2, 0x6e69
   19706:	0066                	.insn	2, 0x0066
   19708:	414e                	.insn	2, 0x414e
   1970a:	004e                	.insn	2, 0x004e
   1970c:	616e                	.insn	2, 0x616e
   1970e:	006e                	.insn	2, 0x006e
   19710:	3130                	.insn	2, 0x3130
   19712:	3332                	.insn	2, 0x3332
   19714:	3534                	.insn	2, 0x3534
   19716:	3736                	.insn	2, 0x3736
   19718:	3938                	.insn	2, 0x3938
   1971a:	6261                	.insn	2, 0x6261
   1971c:	66656463          	bltu	a0,t1,19d84 <_ctype_+0x94>
   19720:	0000                	.insn	2, 0x
   19722:	0000                	.insn	2, 0x
   19724:	3130                	.insn	2, 0x3130
   19726:	3332                	.insn	2, 0x3332
   19728:	3534                	.insn	2, 0x3534
   1972a:	3736                	.insn	2, 0x3736
   1972c:	3938                	.insn	2, 0x3938
   1972e:	4241                	.insn	2, 0x4241
   19730:	46454443          	.insn	4, 0x46454443
   19734:	0000                	.insn	2, 0x
   19736:	0000                	.insn	2, 0x
   19738:	6e28                	.insn	2, 0x6e28
   1973a:	6c75                	.insn	2, 0x6c75
   1973c:	296c                	.insn	2, 0x296c
   1973e:	0000                	.insn	2, 0x
   19740:	0030                	.insn	2, 0x0030
   19742:	0000                	.insn	2, 0x
   19744:	00000043          	.insn	4, 0x0043
   19748:	4f50                	.insn	2, 0x4f50
   1974a:	00584953          	.insn	4, 0x00584953
   1974e:	0000                	.insn	2, 0x
   19750:	002e                	.insn	2, 0x002e
   19752:	0000                	.insn	2, 0x
   19754:	6e49                	.insn	2, 0x6e49
   19756:	6966                	.insn	2, 0x6966
   19758:	696e                	.insn	2, 0x696e
   1975a:	7974                	.insn	2, 0x7974
   1975c:	0000                	.insn	2, 0x
   1975e:	0000                	.insn	2, 0x
   19760:	614e                	.insn	2, 0x614e
   19762:	004e                	.insn	2, 0x004e
   19764:	6142                	.insn	2, 0x6142
   19766:	6c6c                	.insn	2, 0x6c6c
   19768:	7320636f          	jal	t1,1fe9a <_end+0x2c36>
   1976c:	6375                	.insn	2, 0x6375
   1976e:	64656563          	bltu	a0,t1,19db8 <_ctype_+0xc8>
   19772:	6465                	.insn	2, 0x6465
   19774:	0000                	.insn	2, 0x
   19776:	0000                	.insn	2, 0x
   19778:	74706f2f          	.insn	4, 0x74706f2f
   1977c:	7369722f          	.insn	4, 0x7369722f
   19780:	32337663          	bgeu	t1,gp,19aac <blanks.1+0x90>
   19784:	6d69                	.insn	2, 0x6d69
   19786:	7369722f          	.insn	4, 0x7369722f
   1978a:	672d7663          	bgeu	s10,s2,19df6 <_ctype_+0x106>
   1978e:	756e                	.insn	2, 0x756e
   19790:	742d                	.insn	2, 0x742d
   19792:	636c6f6f          	jal	t5,dfdc8 <_end+0xc2b64>
   19796:	6168                	.insn	2, 0x6168
   19798:	6e69                	.insn	2, 0x6e69
   1979a:	6975622f          	.insn	4, 0x6975622f
   1979e:	646c                	.insn	2, 0x646c
   197a0:	2f2e2e2f          	.insn	4, 0x2f2e2e2f
   197a4:	656e                	.insn	2, 0x656e
   197a6:	62696c77          	.insn	4, 0x62696c77
   197aa:	77656e2f          	.insn	4, 0x77656e2f
   197ae:	696c                	.insn	2, 0x696c
   197b0:	2f62                	.insn	2, 0x2f62
   197b2:	696c                	.insn	2, 0x696c
   197b4:	6362                	.insn	2, 0x6362
   197b6:	6474732f          	.insn	4, 0x6474732f
   197ba:	696c                	.insn	2, 0x696c
   197bc:	2f62                	.insn	2, 0x2f62
   197be:	706d                	.insn	2, 0x706d
   197c0:	6572                	.insn	2, 0x6572
   197c2:	00632e63          	.insn	4, 0x00632e63
   197c6:	0000                	.insn	2, 0x
   197c8:	202c                	.insn	2, 0x202c
   197ca:	7566                	.insn	2, 0x7566
   197cc:	636e                	.insn	2, 0x636e
   197ce:	6974                	.insn	2, 0x6974
   197d0:	203a6e6f          	jal	t3,c01d2 <_end+0xa2f6e>
   197d4:	0000                	.insn	2, 0x
   197d6:	0000                	.insn	2, 0x
   197d8:	7361                	.insn	2, 0x7361
   197da:	74726573          	.insn	4, 0x74726573
   197de:	6f69                	.insn	2, 0x6f69
   197e0:	206e                	.insn	2, 0x206e
   197e2:	2522                	.insn	2, 0x2522
   197e4:	66202273          	.insn	4, 0x66202273
   197e8:	6961                	.insn	2, 0x6961
   197ea:	656c                	.insn	2, 0x656c
   197ec:	3a64                	.insn	2, 0x3a64
   197ee:	6620                	.insn	2, 0x6620
   197f0:	6c69                	.insn	2, 0x6c69
   197f2:	2065                	.insn	2, 0x2065
   197f4:	2522                	.insn	2, 0x2522
   197f6:	202c2273          	.insn	4, 0x202c2273
   197fa:	696c                	.insn	2, 0x696c
   197fc:	656e                	.insn	2, 0x656e
   197fe:	2520                	.insn	2, 0x2520
   19800:	2564                	.insn	2, 0x2564
   19802:	0a732573          	.insn	4, 0x0a732573
   19806:	0000                	.insn	2, 0x
   19808:	fe74                	.insn	2, 0xfe74
   1980a:	0000                	.insn	2, 0x
   1980c:	f5e0                	.insn	2, 0xf5e0
   1980e:	0000                	.insn	2, 0x
   19810:	f5e0                	.insn	2, 0xf5e0
   19812:	0000                	.insn	2, 0x
   19814:	fe68                	.insn	2, 0xfe68
   19816:	0000                	.insn	2, 0x
   19818:	f5e0                	.insn	2, 0xf5e0
   1981a:	0000                	.insn	2, 0x
   1981c:	f5e0                	.insn	2, 0xf5e0
   1981e:	0000                	.insn	2, 0x
   19820:	f5e0                	.insn	2, 0xf5e0
   19822:	0000                	.insn	2, 0x
   19824:	f7d0                	.insn	2, 0xf7d0
   19826:	0000                	.insn	2, 0x
   19828:	f5e0                	.insn	2, 0xf5e0
   1982a:	0000                	.insn	2, 0x
   1982c:	f5e0                	.insn	2, 0xf5e0
   1982e:	0000                	.insn	2, 0x
   19830:	fd60                	.insn	2, 0xfd60
   19832:	0000                	.insn	2, 0x
   19834:	fdb4                	.insn	2, 0xfdb4
   19836:	0000                	.insn	2, 0x
   19838:	f5e0                	.insn	2, 0xf5e0
   1983a:	0000                	.insn	2, 0x
   1983c:	fd78                	.insn	2, 0xfd78
   1983e:	0000                	.insn	2, 0x
   19840:	fe98                	.insn	2, 0xfe98
   19842:	0000                	.insn	2, 0x
   19844:	f5e0                	.insn	2, 0xf5e0
   19846:	0000                	.insn	2, 0x
   19848:	fe8c                	.insn	2, 0xfe8c
   1984a:	0000                	.insn	2, 0x
   1984c:	f5ac                	.insn	2, 0xf5ac
   1984e:	0000                	.insn	2, 0x
   19850:	f5ac                	.insn	2, 0xf5ac
   19852:	0000                	.insn	2, 0x
   19854:	f5ac                	.insn	2, 0xf5ac
   19856:	0000                	.insn	2, 0x
   19858:	f5ac                	.insn	2, 0xf5ac
   1985a:	0000                	.insn	2, 0x
   1985c:	f5ac                	.insn	2, 0xf5ac
   1985e:	0000                	.insn	2, 0x
   19860:	f5ac                	.insn	2, 0xf5ac
   19862:	0000                	.insn	2, 0x
   19864:	f5ac                	.insn	2, 0xf5ac
   19866:	0000                	.insn	2, 0x
   19868:	f5ac                	.insn	2, 0xf5ac
   1986a:	0000                	.insn	2, 0x
   1986c:	f5ac                	.insn	2, 0xf5ac
   1986e:	0000                	.insn	2, 0x
   19870:	f5e0                	.insn	2, 0xf5e0
   19872:	0000                	.insn	2, 0x
   19874:	f5e0                	.insn	2, 0xf5e0
   19876:	0000                	.insn	2, 0x
   19878:	f5e0                	.insn	2, 0xf5e0
   1987a:	0000                	.insn	2, 0x
   1987c:	f5e0                	.insn	2, 0xf5e0
   1987e:	0000                	.insn	2, 0x
   19880:	f5e0                	.insn	2, 0xf5e0
   19882:	0000                	.insn	2, 0x
   19884:	f5e0                	.insn	2, 0xf5e0
   19886:	0000                	.insn	2, 0x
   19888:	f5e0                	.insn	2, 0xf5e0
   1988a:	0000                	.insn	2, 0x
   1988c:	f938                	.insn	2, 0xf938
   1988e:	0000                	.insn	2, 0x
   19890:	f5e0                	.insn	2, 0xf5e0
   19892:	0000                	.insn	2, 0x
   19894:	fc9c                	.insn	2, 0xfc9c
   19896:	0000                	.insn	2, 0x
   19898:	f820                	.insn	2, 0xf820
   1989a:	0000                	.insn	2, 0x
   1989c:	f938                	.insn	2, 0xf938
   1989e:	0000                	.insn	2, 0x
   198a0:	f938                	.insn	2, 0xf938
   198a2:	0000                	.insn	2, 0x
   198a4:	f938                	.insn	2, 0xf938
   198a6:	0000                	.insn	2, 0x
   198a8:	f5e0                	.insn	2, 0xf5e0
   198aa:	0000                	.insn	2, 0x
   198ac:	f5e0                	.insn	2, 0xf5e0
   198ae:	0000                	.insn	2, 0x
   198b0:	f5e0                	.insn	2, 0xf5e0
   198b2:	0000                	.insn	2, 0x
   198b4:	f5e0                	.insn	2, 0xf5e0
   198b6:	0000                	.insn	2, 0x
   198b8:	fe5c                	.insn	2, 0xfe5c
   198ba:	0000                	.insn	2, 0x
   198bc:	f5e0                	.insn	2, 0xf5e0
   198be:	0000                	.insn	2, 0x
   198c0:	f5e0                	.insn	2, 0xf5e0
   198c2:	0000                	.insn	2, 0x
   198c4:	f8a0                	.insn	2, 0xf8a0
   198c6:	0000                	.insn	2, 0x
   198c8:	f5e0                	.insn	2, 0xf5e0
   198ca:	0000                	.insn	2, 0x
   198cc:	f5e0                	.insn	2, 0xf5e0
   198ce:	0000                	.insn	2, 0x
   198d0:	f5e0                	.insn	2, 0xf5e0
   198d2:	0000                	.insn	2, 0x
   198d4:	fcc4                	.insn	2, 0xfcc4
   198d6:	0000                	.insn	2, 0x
   198d8:	f5e0                	.insn	2, 0xf5e0
   198da:	0000                	.insn	2, 0x
   198dc:	fd84                	.insn	2, 0xfd84
   198de:	0000                	.insn	2, 0x
   198e0:	f5e0                	.insn	2, 0xf5e0
   198e2:	0000                	.insn	2, 0x
   198e4:	f5e0                	.insn	2, 0xf5e0
   198e6:	0000                	.insn	2, 0x
   198e8:	07c4                	.insn	2, 0x07c4
   198ea:	0001                	.insn	2, 0x0001
   198ec:	f5e0                	.insn	2, 0xf5e0
   198ee:	0000                	.insn	2, 0x
   198f0:	f5e0                	.insn	2, 0xf5e0
   198f2:	0000                	.insn	2, 0x
   198f4:	f5e0                	.insn	2, 0xf5e0
   198f6:	0000                	.insn	2, 0x
   198f8:	f5e0                	.insn	2, 0xf5e0
   198fa:	0000                	.insn	2, 0x
   198fc:	f5e0                	.insn	2, 0xf5e0
   198fe:	0000                	.insn	2, 0x
   19900:	f5e0                	.insn	2, 0xf5e0
   19902:	0000                	.insn	2, 0x
   19904:	f5e0                	.insn	2, 0xf5e0
   19906:	0000                	.insn	2, 0x
   19908:	f5e0                	.insn	2, 0xf5e0
   1990a:	0000                	.insn	2, 0x
   1990c:	f938                	.insn	2, 0xf938
   1990e:	0000                	.insn	2, 0x
   19910:	f5e0                	.insn	2, 0xf5e0
   19912:	0000                	.insn	2, 0x
   19914:	fc9c                	.insn	2, 0xfc9c
   19916:	0000                	.insn	2, 0x
   19918:	f824                	.insn	2, 0xf824
   1991a:	0000                	.insn	2, 0x
   1991c:	f938                	.insn	2, 0xf938
   1991e:	0000                	.insn	2, 0x
   19920:	f938                	.insn	2, 0xf938
   19922:	0000                	.insn	2, 0x
   19924:	f938                	.insn	2, 0xf938
   19926:	0000                	.insn	2, 0x
   19928:	fe48                	.insn	2, 0xfe48
   1992a:	0000                	.insn	2, 0x
   1992c:	f824                	.insn	2, 0xf824
   1992e:	0000                	.insn	2, 0x
   19930:	f814                	.insn	2, 0xf814
   19932:	0000                	.insn	2, 0x
   19934:	f5e0                	.insn	2, 0xf5e0
   19936:	0000                	.insn	2, 0x
   19938:	fe34                	.insn	2, 0xfe34
   1993a:	0000                	.insn	2, 0x
   1993c:	f5e0                	.insn	2, 0xf5e0
   1993e:	0000                	.insn	2, 0x
   19940:	fe00                	.insn	2, 0xfe00
   19942:	0000                	.insn	2, 0x
   19944:	f8a4                	.insn	2, 0xf8a4
   19946:	0000                	.insn	2, 0x
   19948:	fdc4                	.insn	2, 0xfdc4
   1994a:	0000                	.insn	2, 0x
   1994c:	f814                	.insn	2, 0xf814
   1994e:	0000                	.insn	2, 0x
   19950:	f5e0                	.insn	2, 0xf5e0
   19952:	0000                	.insn	2, 0x
   19954:	fcc4                	.insn	2, 0xfcc4
   19956:	0000                	.insn	2, 0x
   19958:	f80c                	.insn	2, 0xf80c
   1995a:	0000                	.insn	2, 0x
   1995c:	0820                	.insn	2, 0x0820
   1995e:	0001                	.insn	2, 0x0001
   19960:	f5e0                	.insn	2, 0xf5e0
   19962:	0000                	.insn	2, 0x
   19964:	f5e0                	.insn	2, 0xf5e0
   19966:	0000                	.insn	2, 0x
   19968:	0828                	.insn	2, 0x0828
   1996a:	0001                	.insn	2, 0x0001
   1996c:	f5e0                	.insn	2, 0xf5e0
   1996e:	0000                	.insn	2, 0x
   19970:	f80c                	.insn	2, 0xf80c
   19972:	0000                	.insn	2, 0x
   19974:	1450                	.insn	2, 0x1450
   19976:	0001                	.insn	2, 0x0001
   19978:	09ac                	.insn	2, 0x09ac
   1997a:	0001                	.insn	2, 0x0001
   1997c:	09ac                	.insn	2, 0x09ac
   1997e:	0001                	.insn	2, 0x0001
   19980:	09ac                	.insn	2, 0x09ac
   19982:	0001                	.insn	2, 0x0001
   19984:	13c4                	.insn	2, 0x13c4
   19986:	0001                	.insn	2, 0x0001
   19988:	1794                	.insn	2, 0x1794
   1998a:	0001                	.insn	2, 0x0001
   1998c:	09ac                	.insn	2, 0x09ac
   1998e:	0001                	.insn	2, 0x0001
   19990:	09ac                	.insn	2, 0x09ac
   19992:	0001                	.insn	2, 0x0001
   19994:	09ac                	.insn	2, 0x09ac
   19996:	0001                	.insn	2, 0x0001
   19998:	09ac                	.insn	2, 0x09ac
   1999a:	0001                	.insn	2, 0x0001
   1999c:	09ac                	.insn	2, 0x09ac
   1999e:	0001                	.insn	2, 0x0001
   199a0:	09ac                	.insn	2, 0x09ac
   199a2:	0001                	.insn	2, 0x0001
   199a4:	09ac                	.insn	2, 0x09ac
   199a6:	0001                	.insn	2, 0x0001
   199a8:	09ac                	.insn	2, 0x09ac
   199aa:	0001                	.insn	2, 0x0001
   199ac:	09ac                	.insn	2, 0x09ac
   199ae:	0001                	.insn	2, 0x0001
   199b0:	09ac                	.insn	2, 0x09ac
   199b2:	0001                	.insn	2, 0x0001
   199b4:	09ac                	.insn	2, 0x09ac
   199b6:	0001                	.insn	2, 0x0001
   199b8:	09ac                	.insn	2, 0x09ac
   199ba:	0001                	.insn	2, 0x0001
   199bc:	09ac                	.insn	2, 0x09ac
   199be:	0001                	.insn	2, 0x0001
   199c0:	09ac                	.insn	2, 0x09ac
   199c2:	0001                	.insn	2, 0x0001
   199c4:	09ac                	.insn	2, 0x09ac
   199c6:	0001                	.insn	2, 0x0001
   199c8:	09ac                	.insn	2, 0x09ac
   199ca:	0001                	.insn	2, 0x0001
   199cc:	09ac                	.insn	2, 0x09ac
   199ce:	0001                	.insn	2, 0x0001
   199d0:	09ac                	.insn	2, 0x09ac
   199d2:	0001                	.insn	2, 0x0001
   199d4:	09ac                	.insn	2, 0x09ac
   199d6:	0001                	.insn	2, 0x0001
   199d8:	09ac                	.insn	2, 0x09ac
   199da:	0001                	.insn	2, 0x0001
   199dc:	09ac                	.insn	2, 0x09ac
   199de:	0001                	.insn	2, 0x0001
   199e0:	09ac                	.insn	2, 0x09ac
   199e2:	0001                	.insn	2, 0x0001
   199e4:	09ac                	.insn	2, 0x09ac
   199e6:	0001                	.insn	2, 0x0001
   199e8:	09ac                	.insn	2, 0x09ac
   199ea:	0001                	.insn	2, 0x0001
   199ec:	09ac                	.insn	2, 0x09ac
   199ee:	0001                	.insn	2, 0x0001
   199f0:	09ac                	.insn	2, 0x09ac
   199f2:	0001                	.insn	2, 0x0001
   199f4:	1450                	.insn	2, 0x1450
   199f6:	0001                	.insn	2, 0x0001
   199f8:	09ac                	.insn	2, 0x09ac
   199fa:	0001                	.insn	2, 0x0001
   199fc:	09ac                	.insn	2, 0x09ac
   199fe:	0001                	.insn	2, 0x0001
   19a00:	09ac                	.insn	2, 0x09ac
   19a02:	0001                	.insn	2, 0x0001
   19a04:	13c4                	.insn	2, 0x13c4
   19a06:	0001                	.insn	2, 0x0001
   19a08:	1794                	.insn	2, 0x1794
   19a0a:	0001                	.insn	2, 0x0001

00019a0c <zeroes.0>:
   19a0c:	3030                	.insn	2, 0x3030
   19a0e:	3030                	.insn	2, 0x3030
   19a10:	3030                	.insn	2, 0x3030
   19a12:	3030                	.insn	2, 0x3030
   19a14:	3030                	.insn	2, 0x3030
   19a16:	3030                	.insn	2, 0x3030
   19a18:	3030                	.insn	2, 0x3030
   19a1a:	3030                	.insn	2, 0x3030

00019a1c <blanks.1>:
   19a1c:	2020                	.insn	2, 0x2020
   19a1e:	2020                	.insn	2, 0x2020
   19a20:	2020                	.insn	2, 0x2020
   19a22:	2020                	.insn	2, 0x2020
   19a24:	2020                	.insn	2, 0x2020
   19a26:	2020                	.insn	2, 0x2020
   19a28:	2020                	.insn	2, 0x2020
   19a2a:	2020                	.insn	2, 0x2020
   19a2c:	264c                	.insn	2, 0x264c
   19a2e:	0001                	.insn	2, 0x0001
   19a30:	2134                	.insn	2, 0x2134
   19a32:	0001                	.insn	2, 0x0001
   19a34:	2134                	.insn	2, 0x2134
   19a36:	0001                	.insn	2, 0x0001
   19a38:	2640                	.insn	2, 0x2640
   19a3a:	0001                	.insn	2, 0x0001
   19a3c:	2134                	.insn	2, 0x2134
   19a3e:	0001                	.insn	2, 0x0001
   19a40:	2134                	.insn	2, 0x2134
   19a42:	0001                	.insn	2, 0x0001
   19a44:	2134                	.insn	2, 0x2134
   19a46:	0001                	.insn	2, 0x0001
   19a48:	25e4                	.insn	2, 0x25e4
   19a4a:	0001                	.insn	2, 0x0001
   19a4c:	2134                	.insn	2, 0x2134
   19a4e:	0001                	.insn	2, 0x0001
   19a50:	2134                	.insn	2, 0x2134
   19a52:	0001                	.insn	2, 0x0001
   19a54:	22c8                	.insn	2, 0x22c8
   19a56:	0001                	.insn	2, 0x0001
   19a58:	2578                	.insn	2, 0x2578
   19a5a:	0001                	.insn	2, 0x0001
   19a5c:	2134                	.insn	2, 0x2134
   19a5e:	0001                	.insn	2, 0x0001
   19a60:	256c                	.insn	2, 0x256c
   19a62:	0001                	.insn	2, 0x0001
   19a64:	2594                	.insn	2, 0x2594
   19a66:	0001                	.insn	2, 0x0001
   19a68:	2134                	.insn	2, 0x2134
   19a6a:	0001                	.insn	2, 0x0001
   19a6c:	2588                	.insn	2, 0x2588
   19a6e:	0001                	.insn	2, 0x0001
   19a70:	2100                	.insn	2, 0x2100
   19a72:	0001                	.insn	2, 0x0001
   19a74:	2100                	.insn	2, 0x2100
   19a76:	0001                	.insn	2, 0x0001
   19a78:	2100                	.insn	2, 0x2100
   19a7a:	0001                	.insn	2, 0x0001
   19a7c:	2100                	.insn	2, 0x2100
   19a7e:	0001                	.insn	2, 0x0001
   19a80:	2100                	.insn	2, 0x2100
   19a82:	0001                	.insn	2, 0x0001
   19a84:	2100                	.insn	2, 0x2100
   19a86:	0001                	.insn	2, 0x0001
   19a88:	2100                	.insn	2, 0x2100
   19a8a:	0001                	.insn	2, 0x0001
   19a8c:	2100                	.insn	2, 0x2100
   19a8e:	0001                	.insn	2, 0x0001
   19a90:	2100                	.insn	2, 0x2100
   19a92:	0001                	.insn	2, 0x0001
   19a94:	2134                	.insn	2, 0x2134
   19a96:	0001                	.insn	2, 0x0001
   19a98:	2134                	.insn	2, 0x2134
   19a9a:	0001                	.insn	2, 0x0001
   19a9c:	2134                	.insn	2, 0x2134
   19a9e:	0001                	.insn	2, 0x0001
   19aa0:	2134                	.insn	2, 0x2134
   19aa2:	0001                	.insn	2, 0x0001
   19aa4:	2134                	.insn	2, 0x2134
   19aa6:	0001                	.insn	2, 0x0001
   19aa8:	2134                	.insn	2, 0x2134
   19aaa:	0001                	.insn	2, 0x0001
   19aac:	2134                	.insn	2, 0x2134
   19aae:	0001                	.insn	2, 0x0001
   19ab0:	2134                	.insn	2, 0x2134
   19ab2:	0001                	.insn	2, 0x0001
   19ab4:	2134                	.insn	2, 0x2134
   19ab6:	0001                	.insn	2, 0x0001
   19ab8:	2534                	.insn	2, 0x2534
   19aba:	0001                	.insn	2, 0x0001
   19abc:	22e8                	.insn	2, 0x22e8
   19abe:	0001                	.insn	2, 0x0001
   19ac0:	2134                	.insn	2, 0x2134
   19ac2:	0001                	.insn	2, 0x0001
   19ac4:	2134                	.insn	2, 0x2134
   19ac6:	0001                	.insn	2, 0x0001
   19ac8:	2134                	.insn	2, 0x2134
   19aca:	0001                	.insn	2, 0x0001
   19acc:	2134                	.insn	2, 0x2134
   19ace:	0001                	.insn	2, 0x0001
   19ad0:	2134                	.insn	2, 0x2134
   19ad2:	0001                	.insn	2, 0x0001
   19ad4:	2134                	.insn	2, 0x2134
   19ad6:	0001                	.insn	2, 0x0001
   19ad8:	2134                	.insn	2, 0x2134
   19ada:	0001                	.insn	2, 0x0001
   19adc:	2134                	.insn	2, 0x2134
   19ade:	0001                	.insn	2, 0x0001
   19ae0:	2134                	.insn	2, 0x2134
   19ae2:	0001                	.insn	2, 0x0001
   19ae4:	2134                	.insn	2, 0x2134
   19ae6:	0001                	.insn	2, 0x0001
   19ae8:	2664                	.insn	2, 0x2664
   19aea:	0001                	.insn	2, 0x0001
   19aec:	2134                	.insn	2, 0x2134
   19aee:	0001                	.insn	2, 0x0001
   19af0:	2134                	.insn	2, 0x2134
   19af2:	0001                	.insn	2, 0x0001
   19af4:	2134                	.insn	2, 0x2134
   19af6:	0001                	.insn	2, 0x0001
   19af8:	24dc                	.insn	2, 0x24dc
   19afa:	0001                	.insn	2, 0x0001
   19afc:	2134                	.insn	2, 0x2134
   19afe:	0001                	.insn	2, 0x0001
   19b00:	26f4                	.insn	2, 0x26f4
   19b02:	0001                	.insn	2, 0x0001
   19b04:	2134                	.insn	2, 0x2134
   19b06:	0001                	.insn	2, 0x0001
   19b08:	2134                	.insn	2, 0x2134
   19b0a:	0001                	.insn	2, 0x0001
   19b0c:	2ee0                	.insn	2, 0x2ee0
   19b0e:	0001                	.insn	2, 0x0001
   19b10:	2134                	.insn	2, 0x2134
   19b12:	0001                	.insn	2, 0x0001
   19b14:	2134                	.insn	2, 0x2134
   19b16:	0001                	.insn	2, 0x0001
   19b18:	2134                	.insn	2, 0x2134
   19b1a:	0001                	.insn	2, 0x0001
   19b1c:	2134                	.insn	2, 0x2134
   19b1e:	0001                	.insn	2, 0x0001
   19b20:	2134                	.insn	2, 0x2134
   19b22:	0001                	.insn	2, 0x0001
   19b24:	2134                	.insn	2, 0x2134
   19b26:	0001                	.insn	2, 0x0001
   19b28:	2134                	.insn	2, 0x2134
   19b2a:	0001                	.insn	2, 0x0001
   19b2c:	2134                	.insn	2, 0x2134
   19b2e:	0001                	.insn	2, 0x0001
   19b30:	2134                	.insn	2, 0x2134
   19b32:	0001                	.insn	2, 0x0001
   19b34:	2134                	.insn	2, 0x2134
   19b36:	0001                	.insn	2, 0x0001
   19b38:	2534                	.insn	2, 0x2534
   19b3a:	0001                	.insn	2, 0x0001
   19b3c:	22ec                	.insn	2, 0x22ec
   19b3e:	0001                	.insn	2, 0x0001
   19b40:	2134                	.insn	2, 0x2134
   19b42:	0001                	.insn	2, 0x0001
   19b44:	2134                	.insn	2, 0x2134
   19b46:	0001                	.insn	2, 0x0001
   19b48:	2134                	.insn	2, 0x2134
   19b4a:	0001                	.insn	2, 0x0001
   19b4c:	26e0                	.insn	2, 0x26e0
   19b4e:	0001                	.insn	2, 0x0001
   19b50:	22ec                	.insn	2, 0x22ec
   19b52:	0001                	.insn	2, 0x0001
   19b54:	22dc                	.insn	2, 0x22dc
   19b56:	0001                	.insn	2, 0x0001
   19b58:	2134                	.insn	2, 0x2134
   19b5a:	0001                	.insn	2, 0x0001
   19b5c:	26cc                	.insn	2, 0x26cc
   19b5e:	0001                	.insn	2, 0x0001
   19b60:	2134                	.insn	2, 0x2134
   19b62:	0001                	.insn	2, 0x0001
   19b64:	27f8                	.insn	2, 0x27f8
   19b66:	0001                	.insn	2, 0x0001
   19b68:	2ed8                	.insn	2, 0x2ed8
   19b6a:	0001                	.insn	2, 0x0001
   19b6c:	27ac                	.insn	2, 0x27ac
   19b6e:	0001                	.insn	2, 0x0001
   19b70:	22dc                	.insn	2, 0x22dc
   19b72:	0001                	.insn	2, 0x0001
   19b74:	2134                	.insn	2, 0x2134
   19b76:	0001                	.insn	2, 0x0001
   19b78:	24dc                	.insn	2, 0x24dc
   19b7a:	0001                	.insn	2, 0x0001
   19b7c:	22d4                	.insn	2, 0x22d4
   19b7e:	0001                	.insn	2, 0x0001
   19b80:	2ed0                	.insn	2, 0x2ed0
   19b82:	0001                	.insn	2, 0x0001
   19b84:	2134                	.insn	2, 0x2134
   19b86:	0001                	.insn	2, 0x0001
   19b88:	2134                	.insn	2, 0x2134
   19b8a:	0001                	.insn	2, 0x0001
   19b8c:	2f30                	.insn	2, 0x2f30
   19b8e:	0001                	.insn	2, 0x0001
   19b90:	2134                	.insn	2, 0x2134
   19b92:	0001                	.insn	2, 0x0001
   19b94:	22d4                	.insn	2, 0x22d4
   19b96:	0001                	.insn	2, 0x0001

00019b98 <zeroes.0>:
   19b98:	3030                	.insn	2, 0x3030
   19b9a:	3030                	.insn	2, 0x3030
   19b9c:	3030                	.insn	2, 0x3030
   19b9e:	3030                	.insn	2, 0x3030
   19ba0:	3030                	.insn	2, 0x3030
   19ba2:	3030                	.insn	2, 0x3030
   19ba4:	3030                	.insn	2, 0x3030
   19ba6:	3030                	.insn	2, 0x3030

00019ba8 <blanks.1>:
   19ba8:	2020                	.insn	2, 0x2020
   19baa:	2020                	.insn	2, 0x2020
   19bac:	2020                	.insn	2, 0x2020
   19bae:	2020                	.insn	2, 0x2020
   19bb0:	2020                	.insn	2, 0x2020
   19bb2:	2020                	.insn	2, 0x2020
   19bb4:	2020                	.insn	2, 0x2020
   19bb6:	2020                	.insn	2, 0x2020
   19bb8:	0071                	.insn	2, 0x0071
   19bba:	0000                	.insn	2, 0x
   19bbc:	bf92                	.insn	2, 0xbf92
   19bbe:	ffff                	.insn	2, 0xffff
   19bc0:	00003f8f          	.insn	4, 0x3f8f
   19bc4:	0001                	.insn	2, 0x0001
   19bc6:	0000                	.insn	2, 0x
   19bc8:	0000                	.insn	2, 0x
	...

00019bcc <p05.0>:
   19bcc:	0005                	.insn	2, 0x0005
   19bce:	0000                	.insn	2, 0x
   19bd0:	0019                	.insn	2, 0x0019
   19bd2:	0000                	.insn	2, 0x
   19bd4:	007d                	.insn	2, 0x007d
	...

00019bd8 <__mprec_tinytens>:
   19bd8:	89bc                	.insn	2, 0x89bc
   19bda:	97d8                	.insn	2, 0x97d8
   19bdc:	d2b2                	.insn	2, 0xd2b2
   19bde:	3c9c                	.insn	2, 0x3c9c
   19be0:	d5a8a733          	.insn	4, 0xd5a8a733
   19be4:	3949f623          	.insn	4, 0x3949f623
   19be8:	a73d                	.insn	2, 0xa73d
   19bea:	44f4                	.insn	2, 0x44f4
   19bec:	0ffd                	.insn	2, 0x0ffd
   19bee:	32a5                	.insn	2, 0x32a5
   19bf0:	979d                	.insn	2, 0x979d
   19bf2:	cf8c                	.insn	2, 0xcf8c
   19bf4:	ba08                	.insn	2, 0xba08
   19bf6:	6f43255b          	.insn	4, 0x6f43255b
   19bfa:	64ac                	.insn	2, 0x64ac
   19bfc:	0628                	.insn	2, 0x0628
   19bfe:	0ac8                	.insn	2, 0x0ac8

00019c00 <__mprec_bigtens>:
   19c00:	8000                	.insn	2, 0x8000
   19c02:	37e0                	.insn	2, 0x37e0
   19c04:	c379                	.insn	2, 0xc379
   19c06:	4341                	.insn	2, 0x4341
   19c08:	b5056e17          	auipc	t3,0xb5056
   19c0c:	b8b5                	.insn	2, 0xb8b5
   19c0e:	f9f54693          	xori	a3,a0,-97
   19c12:	4f03e93f 1d324d38 	.insn	8, 0x1d324d384f03e93f
   19c1a:	f930                	.insn	2, 0xf930
   19c1c:	7748                	.insn	2, 0x7748
   19c1e:	5a82                	.insn	2, 0x5a82
   19c20:	bf3c                	.insn	2, 0xbf3c
   19c22:	4fdd7f73          	.insn	4, 0x4fdd7f73
   19c26:	7515                	.insn	2, 0x7515

00019c28 <__mprec_tens>:
   19c28:	0000                	.insn	2, 0x
   19c2a:	0000                	.insn	2, 0x
   19c2c:	0000                	.insn	2, 0x
   19c2e:	3ff0                	.insn	2, 0x3ff0
   19c30:	0000                	.insn	2, 0x
   19c32:	0000                	.insn	2, 0x
   19c34:	0000                	.insn	2, 0x
   19c36:	4024                	.insn	2, 0x4024
   19c38:	0000                	.insn	2, 0x
   19c3a:	0000                	.insn	2, 0x
   19c3c:	0000                	.insn	2, 0x
   19c3e:	4059                	.insn	2, 0x4059
   19c40:	0000                	.insn	2, 0x
   19c42:	0000                	.insn	2, 0x
   19c44:	4000                	.insn	2, 0x4000
   19c46:	0000408f          	.insn	4, 0x408f
   19c4a:	0000                	.insn	2, 0x
   19c4c:	8800                	.insn	2, 0x8800
   19c4e:	000040c3          	.insn	4, 0x40c3
   19c52:	0000                	.insn	2, 0x
   19c54:	6a00                	.insn	2, 0x6a00
   19c56:	40f8                	.insn	2, 0x40f8
   19c58:	0000                	.insn	2, 0x
   19c5a:	0000                	.insn	2, 0x
   19c5c:	8480                	.insn	2, 0x8480
   19c5e:	412e                	.insn	2, 0x412e
   19c60:	0000                	.insn	2, 0x
   19c62:	0000                	.insn	2, 0x
   19c64:	12d0                	.insn	2, 0x12d0
   19c66:	00004163          	bltz	zero,19c68 <__mprec_tens+0x40>
   19c6a:	0000                	.insn	2, 0x
   19c6c:	d784                	.insn	2, 0xd784
   19c6e:	00004197          	auipc	gp,0x4
   19c72:	0000                	.insn	2, 0x
   19c74:	cd65                	.insn	2, 0xcd65
   19c76:	41cd                	.insn	2, 0x41cd
   19c78:	0000                	.insn	2, 0x
   19c7a:	2000                	.insn	2, 0x2000
   19c7c:	a05f 4202 0000      	.insn	6, 0x4202a05f
   19c82:	e800                	.insn	2, 0xe800
   19c84:	4876                	.insn	2, 0x4876
   19c86:	00004237          	lui	tp,0x4
   19c8a:	a200                	.insn	2, 0xa200
   19c8c:	1a94                	.insn	2, 0x1a94
   19c8e:	426d                	.insn	2, 0x426d
   19c90:	0000                	.insn	2, 0x
   19c92:	e540                	.insn	2, 0xe540
   19c94:	309c                	.insn	2, 0x309c
   19c96:	42a2                	.insn	2, 0x42a2
   19c98:	0000                	.insn	2, 0x
   19c9a:	1e90                	.insn	2, 0x1e90
   19c9c:	bcc4                	.insn	2, 0xbcc4
   19c9e:	42d6                	.insn	2, 0x42d6
   19ca0:	0000                	.insn	2, 0x
   19ca2:	2634                	.insn	2, 0x2634
   19ca4:	6bf5                	.insn	2, 0x6bf5
   19ca6:	430c                	.insn	2, 0x430c
   19ca8:	8000                	.insn	2, 0x8000
   19caa:	37e0                	.insn	2, 0x37e0
   19cac:	c379                	.insn	2, 0xc379
   19cae:	4341                	.insn	2, 0x4341
   19cb0:	a000                	.insn	2, 0xa000
   19cb2:	85d8                	.insn	2, 0x85d8
   19cb4:	43763457          	.insn	4, 0x43763457
   19cb8:	c800                	.insn	2, 0xc800
   19cba:	674e                	.insn	2, 0x674e
   19cbc:	c16d                	.insn	2, 0xc16d
   19cbe:	3d0043ab          	.insn	4, 0x3d0043ab
   19cc2:	6091                	.insn	2, 0x6091
   19cc4:	58e4                	.insn	2, 0x58e4
   19cc6:	43e1                	.insn	2, 0x43e1
   19cc8:	8c40                	.insn	2, 0x8c40
   19cca:	78b5                	.insn	2, 0x78b5
   19ccc:	af1d                	.insn	2, 0xaf1d
   19cce:	4415                	.insn	2, 0x4415
   19cd0:	ef50                	.insn	2, 0xef50
   19cd2:	d6e2                	.insn	2, 0xd6e2
   19cd4:	1ae4                	.insn	2, 0x1ae4
   19cd6:	d592444b          	.insn	4, 0xd592444b
   19cda:	064d                	.insn	2, 0x064d
   19cdc:	4480f0cf          	.insn	4, 0x4480f0cf
   19ce0:	4af6                	.insn	2, 0x4af6
   19ce2:	c7e1                	.insn	2, 0xc7e1
   19ce4:	2d02                	.insn	2, 0x2d02
   19ce6:	44b5                	.insn	2, 0x44b5
   19ce8:	9db4                	.insn	2, 0x9db4
   19cea:	79d9                	.insn	2, 0x79d9
   19cec:	44ea7843          	.insn	4, 0x44ea7843

00019cf0 <_ctype_>:
   19cf0:	2000                	.insn	2, 0x2000
   19cf2:	2020                	.insn	2, 0x2020
   19cf4:	2020                	.insn	2, 0x2020
   19cf6:	2020                	.insn	2, 0x2020
   19cf8:	2020                	.insn	2, 0x2020
   19cfa:	2828                	.insn	2, 0x2828
   19cfc:	2828                	.insn	2, 0x2828
   19cfe:	2028                	.insn	2, 0x2028
   19d00:	2020                	.insn	2, 0x2020
   19d02:	2020                	.insn	2, 0x2020
   19d04:	2020                	.insn	2, 0x2020
   19d06:	2020                	.insn	2, 0x2020
   19d08:	2020                	.insn	2, 0x2020
   19d0a:	2020                	.insn	2, 0x2020
   19d0c:	2020                	.insn	2, 0x2020
   19d0e:	2020                	.insn	2, 0x2020
   19d10:	8820                	.insn	2, 0x8820
   19d12:	1010                	.insn	2, 0x1010
   19d14:	1010                	.insn	2, 0x1010
   19d16:	1010                	.insn	2, 0x1010
   19d18:	1010                	.insn	2, 0x1010
   19d1a:	1010                	.insn	2, 0x1010
   19d1c:	1010                	.insn	2, 0x1010
   19d1e:	1010                	.insn	2, 0x1010
   19d20:	0410                	.insn	2, 0x0410
   19d22:	0404                	.insn	2, 0x0404
   19d24:	0404                	.insn	2, 0x0404
   19d26:	0404                	.insn	2, 0x0404
   19d28:	0404                	.insn	2, 0x0404
   19d2a:	1004                	.insn	2, 0x1004
   19d2c:	1010                	.insn	2, 0x1010
   19d2e:	1010                	.insn	2, 0x1010
   19d30:	1010                	.insn	2, 0x1010
   19d32:	4141                	.insn	2, 0x4141
   19d34:	4141                	.insn	2, 0x4141
   19d36:	4141                	.insn	2, 0x4141
   19d38:	0101                	.insn	2, 0x0101
   19d3a:	0101                	.insn	2, 0x0101
   19d3c:	0101                	.insn	2, 0x0101
   19d3e:	0101                	.insn	2, 0x0101
   19d40:	0101                	.insn	2, 0x0101
   19d42:	0101                	.insn	2, 0x0101
   19d44:	0101                	.insn	2, 0x0101
   19d46:	0101                	.insn	2, 0x0101
   19d48:	0101                	.insn	2, 0x0101
   19d4a:	0101                	.insn	2, 0x0101
   19d4c:	1010                	.insn	2, 0x1010
   19d4e:	1010                	.insn	2, 0x1010
   19d50:	1010                	.insn	2, 0x1010
   19d52:	4242                	.insn	2, 0x4242
   19d54:	4242                	.insn	2, 0x4242
   19d56:	4242                	.insn	2, 0x4242
   19d58:	0202                	.insn	2, 0x0202
   19d5a:	0202                	.insn	2, 0x0202
   19d5c:	0202                	.insn	2, 0x0202
   19d5e:	0202                	.insn	2, 0x0202
   19d60:	0202                	.insn	2, 0x0202
   19d62:	0202                	.insn	2, 0x0202
   19d64:	0202                	.insn	2, 0x0202
   19d66:	0202                	.insn	2, 0x0202
   19d68:	0202                	.insn	2, 0x0202
   19d6a:	0202                	.insn	2, 0x0202
   19d6c:	1010                	.insn	2, 0x1010
   19d6e:	1010                	.insn	2, 0x1010
   19d70:	0020                	.insn	2, 0x0020
	...
   19df2:	0000                	.insn	2, 0x
   19df4:	9444                	.insn	2, 0x9444
   19df6:	0000                	.insn	2, 0x
   19df8:	9534                	.insn	2, 0x9534
   19dfa:	0000                	.insn	2, 0x
   19dfc:	9454                	.insn	2, 0x9454
   19dfe:	0000                	.insn	2, 0x
   19e00:	9534                	.insn	2, 0x9534
   19e02:	0000                	.insn	2, 0x
   19e04:	945c                	.insn	2, 0x945c
   19e06:	0000                	.insn	2, 0x
   19e08:	9534                	.insn	2, 0x9534
   19e0a:	0000                	.insn	2, 0x
   19e0c:	9454                	.insn	2, 0x9454
   19e0e:	0000                	.insn	2, 0x
   19e10:	9444                	.insn	2, 0x9444
   19e12:	0000                	.insn	2, 0x
   19e14:	9444                	.insn	2, 0x9444
   19e16:	0000                	.insn	2, 0x
   19e18:	945c                	.insn	2, 0x945c
   19e1a:	0000                	.insn	2, 0x
   19e1c:	9454                	.insn	2, 0x9454
   19e1e:	0000                	.insn	2, 0x
   19e20:	941c                	.insn	2, 0x941c
   19e22:	0000                	.insn	2, 0x
   19e24:	941c                	.insn	2, 0x941c
   19e26:	0000                	.insn	2, 0x
   19e28:	941c                	.insn	2, 0x941c
   19e2a:	0000                	.insn	2, 0x
   19e2c:	945c                	.insn	2, 0x945c
	...

00019e30 <__clz_tab>:
   19e30:	0100                	.insn	2, 0x0100
   19e32:	0202                	.insn	2, 0x0202
   19e34:	03030303          	lb	t1,48(t1)
   19e38:	0404                	.insn	2, 0x0404
   19e3a:	0404                	.insn	2, 0x0404
   19e3c:	0404                	.insn	2, 0x0404
   19e3e:	0404                	.insn	2, 0x0404
   19e40:	0505                	.insn	2, 0x0505
   19e42:	0505                	.insn	2, 0x0505
   19e44:	0505                	.insn	2, 0x0505
   19e46:	0505                	.insn	2, 0x0505
   19e48:	0505                	.insn	2, 0x0505
   19e4a:	0505                	.insn	2, 0x0505
   19e4c:	0505                	.insn	2, 0x0505
   19e4e:	0505                	.insn	2, 0x0505
   19e50:	0606                	.insn	2, 0x0606
   19e52:	0606                	.insn	2, 0x0606
   19e54:	0606                	.insn	2, 0x0606
   19e56:	0606                	.insn	2, 0x0606
   19e58:	0606                	.insn	2, 0x0606
   19e5a:	0606                	.insn	2, 0x0606
   19e5c:	0606                	.insn	2, 0x0606
   19e5e:	0606                	.insn	2, 0x0606
   19e60:	0606                	.insn	2, 0x0606
   19e62:	0606                	.insn	2, 0x0606
   19e64:	0606                	.insn	2, 0x0606
   19e66:	0606                	.insn	2, 0x0606
   19e68:	0606                	.insn	2, 0x0606
   19e6a:	0606                	.insn	2, 0x0606
   19e6c:	0606                	.insn	2, 0x0606
   19e6e:	0606                	.insn	2, 0x0606
   19e70:	07070707          	.insn	4, 0x07070707
   19e74:	07070707          	.insn	4, 0x07070707
   19e78:	07070707          	.insn	4, 0x07070707
   19e7c:	07070707          	.insn	4, 0x07070707
   19e80:	07070707          	.insn	4, 0x07070707
   19e84:	07070707          	.insn	4, 0x07070707
   19e88:	07070707          	.insn	4, 0x07070707
   19e8c:	07070707          	.insn	4, 0x07070707
   19e90:	07070707          	.insn	4, 0x07070707
   19e94:	07070707          	.insn	4, 0x07070707
   19e98:	07070707          	.insn	4, 0x07070707
   19e9c:	07070707          	.insn	4, 0x07070707
   19ea0:	07070707          	.insn	4, 0x07070707
   19ea4:	07070707          	.insn	4, 0x07070707
   19ea8:	07070707          	.insn	4, 0x07070707
   19eac:	07070707          	.insn	4, 0x07070707
   19eb0:	0808                	.insn	2, 0x0808
   19eb2:	0808                	.insn	2, 0x0808
   19eb4:	0808                	.insn	2, 0x0808
   19eb6:	0808                	.insn	2, 0x0808
   19eb8:	0808                	.insn	2, 0x0808
   19eba:	0808                	.insn	2, 0x0808
   19ebc:	0808                	.insn	2, 0x0808
   19ebe:	0808                	.insn	2, 0x0808
   19ec0:	0808                	.insn	2, 0x0808
   19ec2:	0808                	.insn	2, 0x0808
   19ec4:	0808                	.insn	2, 0x0808
   19ec6:	0808                	.insn	2, 0x0808
   19ec8:	0808                	.insn	2, 0x0808
   19eca:	0808                	.insn	2, 0x0808
   19ecc:	0808                	.insn	2, 0x0808
   19ece:	0808                	.insn	2, 0x0808
   19ed0:	0808                	.insn	2, 0x0808
   19ed2:	0808                	.insn	2, 0x0808
   19ed4:	0808                	.insn	2, 0x0808
   19ed6:	0808                	.insn	2, 0x0808
   19ed8:	0808                	.insn	2, 0x0808
   19eda:	0808                	.insn	2, 0x0808
   19edc:	0808                	.insn	2, 0x0808
   19ede:	0808                	.insn	2, 0x0808
   19ee0:	0808                	.insn	2, 0x0808
   19ee2:	0808                	.insn	2, 0x0808
   19ee4:	0808                	.insn	2, 0x0808
   19ee6:	0808                	.insn	2, 0x0808
   19ee8:	0808                	.insn	2, 0x0808
   19eea:	0808                	.insn	2, 0x0808
   19eec:	0808                	.insn	2, 0x0808
   19eee:	0808                	.insn	2, 0x0808
   19ef0:	0808                	.insn	2, 0x0808
   19ef2:	0808                	.insn	2, 0x0808
   19ef4:	0808                	.insn	2, 0x0808
   19ef6:	0808                	.insn	2, 0x0808
   19ef8:	0808                	.insn	2, 0x0808
   19efa:	0808                	.insn	2, 0x0808
   19efc:	0808                	.insn	2, 0x0808
   19efe:	0808                	.insn	2, 0x0808
   19f00:	0808                	.insn	2, 0x0808
   19f02:	0808                	.insn	2, 0x0808
   19f04:	0808                	.insn	2, 0x0808
   19f06:	0808                	.insn	2, 0x0808
   19f08:	0808                	.insn	2, 0x0808
   19f0a:	0808                	.insn	2, 0x0808
   19f0c:	0808                	.insn	2, 0x0808
   19f0e:	0808                	.insn	2, 0x0808
   19f10:	0808                	.insn	2, 0x0808
   19f12:	0808                	.insn	2, 0x0808
   19f14:	0808                	.insn	2, 0x0808
   19f16:	0808                	.insn	2, 0x0808
   19f18:	0808                	.insn	2, 0x0808
   19f1a:	0808                	.insn	2, 0x0808
   19f1c:	0808                	.insn	2, 0x0808
   19f1e:	0808                	.insn	2, 0x0808
   19f20:	0808                	.insn	2, 0x0808
   19f22:	0808                	.insn	2, 0x0808
   19f24:	0808                	.insn	2, 0x0808
   19f26:	0808                	.insn	2, 0x0808
   19f28:	0808                	.insn	2, 0x0808
   19f2a:	0808                	.insn	2, 0x0808
   19f2c:	0808                	.insn	2, 0x0808
   19f2e:	0808                	.insn	2, 0x0808

Disassembly of section .eh_frame:

0001a000 <__EH_FRAME_BEGIN__>:
   1a000:	0000                	.insn	2, 0x
	...

Disassembly of section .init_array:

0001a004 <__init_array_start>:
   1a004:	db50                	.insn	2, 0xdb50
	...

0001a008 <__frame_dummy_init_array_entry>:
   1a008:	8094                	.insn	2, 0x8094
	...

Disassembly of section .fini_array:

0001a00c <__do_global_dtors_aux_fini_array_entry>:
   1a00c:	8050                	.insn	2, 0x8050
	...

Disassembly of section .data:

0001a010 <__malloc_av_>:
	...
   1a018:	a010                	.insn	2, 0xa010
   1a01a:	0001                	.insn	2, 0x0001
   1a01c:	a010                	.insn	2, 0xa010
   1a01e:	0001                	.insn	2, 0x0001
   1a020:	a018                	.insn	2, 0xa018
   1a022:	0001                	.insn	2, 0x0001
   1a024:	a018                	.insn	2, 0xa018
   1a026:	0001                	.insn	2, 0x0001
   1a028:	a020                	.insn	2, 0xa020
   1a02a:	0001                	.insn	2, 0x0001
   1a02c:	a020                	.insn	2, 0xa020
   1a02e:	0001                	.insn	2, 0x0001
   1a030:	a028                	.insn	2, 0xa028
   1a032:	0001                	.insn	2, 0x0001
   1a034:	a028                	.insn	2, 0xa028
   1a036:	0001                	.insn	2, 0x0001
   1a038:	a030                	.insn	2, 0xa030
   1a03a:	0001                	.insn	2, 0x0001
   1a03c:	a030                	.insn	2, 0xa030
   1a03e:	0001                	.insn	2, 0x0001
   1a040:	a038                	.insn	2, 0xa038
   1a042:	0001                	.insn	2, 0x0001
   1a044:	a038                	.insn	2, 0xa038
   1a046:	0001                	.insn	2, 0x0001
   1a048:	a040                	.insn	2, 0xa040
   1a04a:	0001                	.insn	2, 0x0001
   1a04c:	a040                	.insn	2, 0xa040
   1a04e:	0001                	.insn	2, 0x0001
   1a050:	a048                	.insn	2, 0xa048
   1a052:	0001                	.insn	2, 0x0001
   1a054:	a048                	.insn	2, 0xa048
   1a056:	0001                	.insn	2, 0x0001
   1a058:	a050                	.insn	2, 0xa050
   1a05a:	0001                	.insn	2, 0x0001
   1a05c:	a050                	.insn	2, 0xa050
   1a05e:	0001                	.insn	2, 0x0001
   1a060:	a058                	.insn	2, 0xa058
   1a062:	0001                	.insn	2, 0x0001
   1a064:	a058                	.insn	2, 0xa058
   1a066:	0001                	.insn	2, 0x0001
   1a068:	a060                	.insn	2, 0xa060
   1a06a:	0001                	.insn	2, 0x0001
   1a06c:	a060                	.insn	2, 0xa060
   1a06e:	0001                	.insn	2, 0x0001
   1a070:	a068                	.insn	2, 0xa068
   1a072:	0001                	.insn	2, 0x0001
   1a074:	a068                	.insn	2, 0xa068
   1a076:	0001                	.insn	2, 0x0001
   1a078:	a070                	.insn	2, 0xa070
   1a07a:	0001                	.insn	2, 0x0001
   1a07c:	a070                	.insn	2, 0xa070
   1a07e:	0001                	.insn	2, 0x0001
   1a080:	a078                	.insn	2, 0xa078
   1a082:	0001                	.insn	2, 0x0001
   1a084:	a078                	.insn	2, 0xa078
   1a086:	0001                	.insn	2, 0x0001
   1a088:	a080                	.insn	2, 0xa080
   1a08a:	0001                	.insn	2, 0x0001
   1a08c:	a080                	.insn	2, 0xa080
   1a08e:	0001                	.insn	2, 0x0001
   1a090:	a088                	.insn	2, 0xa088
   1a092:	0001                	.insn	2, 0x0001
   1a094:	a088                	.insn	2, 0xa088
   1a096:	0001                	.insn	2, 0x0001
   1a098:	a090                	.insn	2, 0xa090
   1a09a:	0001                	.insn	2, 0x0001
   1a09c:	a090                	.insn	2, 0xa090
   1a09e:	0001                	.insn	2, 0x0001
   1a0a0:	a098                	.insn	2, 0xa098
   1a0a2:	0001                	.insn	2, 0x0001
   1a0a4:	a098                	.insn	2, 0xa098
   1a0a6:	0001                	.insn	2, 0x0001
   1a0a8:	a0a0                	.insn	2, 0xa0a0
   1a0aa:	0001                	.insn	2, 0x0001
   1a0ac:	a0a0                	.insn	2, 0xa0a0
   1a0ae:	0001                	.insn	2, 0x0001
   1a0b0:	a0a8                	.insn	2, 0xa0a8
   1a0b2:	0001                	.insn	2, 0x0001
   1a0b4:	a0a8                	.insn	2, 0xa0a8
   1a0b6:	0001                	.insn	2, 0x0001
   1a0b8:	a0b0                	.insn	2, 0xa0b0
   1a0ba:	0001                	.insn	2, 0x0001
   1a0bc:	a0b0                	.insn	2, 0xa0b0
   1a0be:	0001                	.insn	2, 0x0001
   1a0c0:	a0b8                	.insn	2, 0xa0b8
   1a0c2:	0001                	.insn	2, 0x0001
   1a0c4:	a0b8                	.insn	2, 0xa0b8
   1a0c6:	0001                	.insn	2, 0x0001
   1a0c8:	a0c0                	.insn	2, 0xa0c0
   1a0ca:	0001                	.insn	2, 0x0001
   1a0cc:	a0c0                	.insn	2, 0xa0c0
   1a0ce:	0001                	.insn	2, 0x0001
   1a0d0:	a0c8                	.insn	2, 0xa0c8
   1a0d2:	0001                	.insn	2, 0x0001
   1a0d4:	a0c8                	.insn	2, 0xa0c8
   1a0d6:	0001                	.insn	2, 0x0001
   1a0d8:	a0d0                	.insn	2, 0xa0d0
   1a0da:	0001                	.insn	2, 0x0001
   1a0dc:	a0d0                	.insn	2, 0xa0d0
   1a0de:	0001                	.insn	2, 0x0001
   1a0e0:	a0d8                	.insn	2, 0xa0d8
   1a0e2:	0001                	.insn	2, 0x0001
   1a0e4:	a0d8                	.insn	2, 0xa0d8
   1a0e6:	0001                	.insn	2, 0x0001
   1a0e8:	a0e0                	.insn	2, 0xa0e0
   1a0ea:	0001                	.insn	2, 0x0001
   1a0ec:	a0e0                	.insn	2, 0xa0e0
   1a0ee:	0001                	.insn	2, 0x0001
   1a0f0:	a0e8                	.insn	2, 0xa0e8
   1a0f2:	0001                	.insn	2, 0x0001
   1a0f4:	a0e8                	.insn	2, 0xa0e8
   1a0f6:	0001                	.insn	2, 0x0001
   1a0f8:	a0f0                	.insn	2, 0xa0f0
   1a0fa:	0001                	.insn	2, 0x0001
   1a0fc:	a0f0                	.insn	2, 0xa0f0
   1a0fe:	0001                	.insn	2, 0x0001
   1a100:	a0f8                	.insn	2, 0xa0f8
   1a102:	0001                	.insn	2, 0x0001
   1a104:	a0f8                	.insn	2, 0xa0f8
   1a106:	0001                	.insn	2, 0x0001
   1a108:	a100                	.insn	2, 0xa100
   1a10a:	0001                	.insn	2, 0x0001
   1a10c:	a100                	.insn	2, 0xa100
   1a10e:	0001                	.insn	2, 0x0001
   1a110:	a108                	.insn	2, 0xa108
   1a112:	0001                	.insn	2, 0x0001
   1a114:	a108                	.insn	2, 0xa108
   1a116:	0001                	.insn	2, 0x0001
   1a118:	a110                	.insn	2, 0xa110
   1a11a:	0001                	.insn	2, 0x0001
   1a11c:	a110                	.insn	2, 0xa110
   1a11e:	0001                	.insn	2, 0x0001
   1a120:	a118                	.insn	2, 0xa118
   1a122:	0001                	.insn	2, 0x0001
   1a124:	a118                	.insn	2, 0xa118
   1a126:	0001                	.insn	2, 0x0001
   1a128:	a120                	.insn	2, 0xa120
   1a12a:	0001                	.insn	2, 0x0001
   1a12c:	a120                	.insn	2, 0xa120
   1a12e:	0001                	.insn	2, 0x0001
   1a130:	a128                	.insn	2, 0xa128
   1a132:	0001                	.insn	2, 0x0001
   1a134:	a128                	.insn	2, 0xa128
   1a136:	0001                	.insn	2, 0x0001
   1a138:	a130                	.insn	2, 0xa130
   1a13a:	0001                	.insn	2, 0x0001
   1a13c:	a130                	.insn	2, 0xa130
   1a13e:	0001                	.insn	2, 0x0001
   1a140:	a138                	.insn	2, 0xa138
   1a142:	0001                	.insn	2, 0x0001
   1a144:	a138                	.insn	2, 0xa138
   1a146:	0001                	.insn	2, 0x0001
   1a148:	a140                	.insn	2, 0xa140
   1a14a:	0001                	.insn	2, 0x0001
   1a14c:	a140                	.insn	2, 0xa140
   1a14e:	0001                	.insn	2, 0x0001
   1a150:	a148                	.insn	2, 0xa148
   1a152:	0001                	.insn	2, 0x0001
   1a154:	a148                	.insn	2, 0xa148
   1a156:	0001                	.insn	2, 0x0001
   1a158:	a150                	.insn	2, 0xa150
   1a15a:	0001                	.insn	2, 0x0001
   1a15c:	a150                	.insn	2, 0xa150
   1a15e:	0001                	.insn	2, 0x0001
   1a160:	a158                	.insn	2, 0xa158
   1a162:	0001                	.insn	2, 0x0001
   1a164:	a158                	.insn	2, 0xa158
   1a166:	0001                	.insn	2, 0x0001
   1a168:	a160                	.insn	2, 0xa160
   1a16a:	0001                	.insn	2, 0x0001
   1a16c:	a160                	.insn	2, 0xa160
   1a16e:	0001                	.insn	2, 0x0001
   1a170:	a168                	.insn	2, 0xa168
   1a172:	0001                	.insn	2, 0x0001
   1a174:	a168                	.insn	2, 0xa168
   1a176:	0001                	.insn	2, 0x0001
   1a178:	a170                	.insn	2, 0xa170
   1a17a:	0001                	.insn	2, 0x0001
   1a17c:	a170                	.insn	2, 0xa170
   1a17e:	0001                	.insn	2, 0x0001
   1a180:	a178                	.insn	2, 0xa178
   1a182:	0001                	.insn	2, 0x0001
   1a184:	a178                	.insn	2, 0xa178
   1a186:	0001                	.insn	2, 0x0001
   1a188:	a180                	.insn	2, 0xa180
   1a18a:	0001                	.insn	2, 0x0001
   1a18c:	a180                	.insn	2, 0xa180
   1a18e:	0001                	.insn	2, 0x0001
   1a190:	a188                	.insn	2, 0xa188
   1a192:	0001                	.insn	2, 0x0001
   1a194:	a188                	.insn	2, 0xa188
   1a196:	0001                	.insn	2, 0x0001
   1a198:	a190                	.insn	2, 0xa190
   1a19a:	0001                	.insn	2, 0x0001
   1a19c:	a190                	.insn	2, 0xa190
   1a19e:	0001                	.insn	2, 0x0001
   1a1a0:	a198                	.insn	2, 0xa198
   1a1a2:	0001                	.insn	2, 0x0001
   1a1a4:	a198                	.insn	2, 0xa198
   1a1a6:	0001                	.insn	2, 0x0001
   1a1a8:	a1a0                	.insn	2, 0xa1a0
   1a1aa:	0001                	.insn	2, 0x0001
   1a1ac:	a1a0                	.insn	2, 0xa1a0
   1a1ae:	0001                	.insn	2, 0x0001
   1a1b0:	a1a8                	.insn	2, 0xa1a8
   1a1b2:	0001                	.insn	2, 0x0001
   1a1b4:	a1a8                	.insn	2, 0xa1a8
   1a1b6:	0001                	.insn	2, 0x0001
   1a1b8:	a1b0                	.insn	2, 0xa1b0
   1a1ba:	0001                	.insn	2, 0x0001
   1a1bc:	a1b0                	.insn	2, 0xa1b0
   1a1be:	0001                	.insn	2, 0x0001
   1a1c0:	a1b8                	.insn	2, 0xa1b8
   1a1c2:	0001                	.insn	2, 0x0001
   1a1c4:	a1b8                	.insn	2, 0xa1b8
   1a1c6:	0001                	.insn	2, 0x0001
   1a1c8:	a1c0                	.insn	2, 0xa1c0
   1a1ca:	0001                	.insn	2, 0x0001
   1a1cc:	a1c0                	.insn	2, 0xa1c0
   1a1ce:	0001                	.insn	2, 0x0001
   1a1d0:	a1c8                	.insn	2, 0xa1c8
   1a1d2:	0001                	.insn	2, 0x0001
   1a1d4:	a1c8                	.insn	2, 0xa1c8
   1a1d6:	0001                	.insn	2, 0x0001
   1a1d8:	a1d0                	.insn	2, 0xa1d0
   1a1da:	0001                	.insn	2, 0x0001
   1a1dc:	a1d0                	.insn	2, 0xa1d0
   1a1de:	0001                	.insn	2, 0x0001
   1a1e0:	a1d8                	.insn	2, 0xa1d8
   1a1e2:	0001                	.insn	2, 0x0001
   1a1e4:	a1d8                	.insn	2, 0xa1d8
   1a1e6:	0001                	.insn	2, 0x0001
   1a1e8:	a1e0                	.insn	2, 0xa1e0
   1a1ea:	0001                	.insn	2, 0x0001
   1a1ec:	a1e0                	.insn	2, 0xa1e0
   1a1ee:	0001                	.insn	2, 0x0001
   1a1f0:	a1e8                	.insn	2, 0xa1e8
   1a1f2:	0001                	.insn	2, 0x0001
   1a1f4:	a1e8                	.insn	2, 0xa1e8
   1a1f6:	0001                	.insn	2, 0x0001
   1a1f8:	a1f0                	.insn	2, 0xa1f0
   1a1fa:	0001                	.insn	2, 0x0001
   1a1fc:	a1f0                	.insn	2, 0xa1f0
   1a1fe:	0001                	.insn	2, 0x0001
   1a200:	a1f8                	.insn	2, 0xa1f8
   1a202:	0001                	.insn	2, 0x0001
   1a204:	a1f8                	.insn	2, 0xa1f8
   1a206:	0001                	.insn	2, 0x0001
   1a208:	a200                	.insn	2, 0xa200
   1a20a:	0001                	.insn	2, 0x0001
   1a20c:	a200                	.insn	2, 0xa200
   1a20e:	0001                	.insn	2, 0x0001
   1a210:	a208                	.insn	2, 0xa208
   1a212:	0001                	.insn	2, 0x0001
   1a214:	a208                	.insn	2, 0xa208
   1a216:	0001                	.insn	2, 0x0001
   1a218:	a210                	.insn	2, 0xa210
   1a21a:	0001                	.insn	2, 0x0001
   1a21c:	a210                	.insn	2, 0xa210
   1a21e:	0001                	.insn	2, 0x0001
   1a220:	a218                	.insn	2, 0xa218
   1a222:	0001                	.insn	2, 0x0001
   1a224:	a218                	.insn	2, 0xa218
   1a226:	0001                	.insn	2, 0x0001
   1a228:	a220                	.insn	2, 0xa220
   1a22a:	0001                	.insn	2, 0x0001
   1a22c:	a220                	.insn	2, 0xa220
   1a22e:	0001                	.insn	2, 0x0001
   1a230:	a228                	.insn	2, 0xa228
   1a232:	0001                	.insn	2, 0x0001
   1a234:	a228                	.insn	2, 0xa228
   1a236:	0001                	.insn	2, 0x0001
   1a238:	a230                	.insn	2, 0xa230
   1a23a:	0001                	.insn	2, 0x0001
   1a23c:	a230                	.insn	2, 0xa230
   1a23e:	0001                	.insn	2, 0x0001
   1a240:	a238                	.insn	2, 0xa238
   1a242:	0001                	.insn	2, 0x0001
   1a244:	a238                	.insn	2, 0xa238
   1a246:	0001                	.insn	2, 0x0001
   1a248:	a240                	.insn	2, 0xa240
   1a24a:	0001                	.insn	2, 0x0001
   1a24c:	a240                	.insn	2, 0xa240
   1a24e:	0001                	.insn	2, 0x0001
   1a250:	a248                	.insn	2, 0xa248
   1a252:	0001                	.insn	2, 0x0001
   1a254:	a248                	.insn	2, 0xa248
   1a256:	0001                	.insn	2, 0x0001
   1a258:	a250                	.insn	2, 0xa250
   1a25a:	0001                	.insn	2, 0x0001
   1a25c:	a250                	.insn	2, 0xa250
   1a25e:	0001                	.insn	2, 0x0001
   1a260:	a258                	.insn	2, 0xa258
   1a262:	0001                	.insn	2, 0x0001
   1a264:	a258                	.insn	2, 0xa258
   1a266:	0001                	.insn	2, 0x0001
   1a268:	a260                	.insn	2, 0xa260
   1a26a:	0001                	.insn	2, 0x0001
   1a26c:	a260                	.insn	2, 0xa260
   1a26e:	0001                	.insn	2, 0x0001
   1a270:	a268                	.insn	2, 0xa268
   1a272:	0001                	.insn	2, 0x0001
   1a274:	a268                	.insn	2, 0xa268
   1a276:	0001                	.insn	2, 0x0001
   1a278:	a270                	.insn	2, 0xa270
   1a27a:	0001                	.insn	2, 0x0001
   1a27c:	a270                	.insn	2, 0xa270
   1a27e:	0001                	.insn	2, 0x0001
   1a280:	a278                	.insn	2, 0xa278
   1a282:	0001                	.insn	2, 0x0001
   1a284:	a278                	.insn	2, 0xa278
   1a286:	0001                	.insn	2, 0x0001
   1a288:	a280                	.insn	2, 0xa280
   1a28a:	0001                	.insn	2, 0x0001
   1a28c:	a280                	.insn	2, 0xa280
   1a28e:	0001                	.insn	2, 0x0001
   1a290:	a288                	.insn	2, 0xa288
   1a292:	0001                	.insn	2, 0x0001
   1a294:	a288                	.insn	2, 0xa288
   1a296:	0001                	.insn	2, 0x0001
   1a298:	a290                	.insn	2, 0xa290
   1a29a:	0001                	.insn	2, 0x0001
   1a29c:	a290                	.insn	2, 0xa290
   1a29e:	0001                	.insn	2, 0x0001
   1a2a0:	a298                	.insn	2, 0xa298
   1a2a2:	0001                	.insn	2, 0x0001
   1a2a4:	a298                	.insn	2, 0xa298
   1a2a6:	0001                	.insn	2, 0x0001
   1a2a8:	a2a0                	.insn	2, 0xa2a0
   1a2aa:	0001                	.insn	2, 0x0001
   1a2ac:	a2a0                	.insn	2, 0xa2a0
   1a2ae:	0001                	.insn	2, 0x0001
   1a2b0:	a2a8                	.insn	2, 0xa2a8
   1a2b2:	0001                	.insn	2, 0x0001
   1a2b4:	a2a8                	.insn	2, 0xa2a8
   1a2b6:	0001                	.insn	2, 0x0001
   1a2b8:	a2b0                	.insn	2, 0xa2b0
   1a2ba:	0001                	.insn	2, 0x0001
   1a2bc:	a2b0                	.insn	2, 0xa2b0
   1a2be:	0001                	.insn	2, 0x0001
   1a2c0:	a2b8                	.insn	2, 0xa2b8
   1a2c2:	0001                	.insn	2, 0x0001
   1a2c4:	a2b8                	.insn	2, 0xa2b8
   1a2c6:	0001                	.insn	2, 0x0001
   1a2c8:	a2c0                	.insn	2, 0xa2c0
   1a2ca:	0001                	.insn	2, 0x0001
   1a2cc:	a2c0                	.insn	2, 0xa2c0
   1a2ce:	0001                	.insn	2, 0x0001
   1a2d0:	a2c8                	.insn	2, 0xa2c8
   1a2d2:	0001                	.insn	2, 0x0001
   1a2d4:	a2c8                	.insn	2, 0xa2c8
   1a2d6:	0001                	.insn	2, 0x0001
   1a2d8:	a2d0                	.insn	2, 0xa2d0
   1a2da:	0001                	.insn	2, 0x0001
   1a2dc:	a2d0                	.insn	2, 0xa2d0
   1a2de:	0001                	.insn	2, 0x0001
   1a2e0:	a2d8                	.insn	2, 0xa2d8
   1a2e2:	0001                	.insn	2, 0x0001
   1a2e4:	a2d8                	.insn	2, 0xa2d8
   1a2e6:	0001                	.insn	2, 0x0001
   1a2e8:	a2e0                	.insn	2, 0xa2e0
   1a2ea:	0001                	.insn	2, 0x0001
   1a2ec:	a2e0                	.insn	2, 0xa2e0
   1a2ee:	0001                	.insn	2, 0x0001
   1a2f0:	a2e8                	.insn	2, 0xa2e8
   1a2f2:	0001                	.insn	2, 0x0001
   1a2f4:	a2e8                	.insn	2, 0xa2e8
   1a2f6:	0001                	.insn	2, 0x0001
   1a2f8:	a2f0                	.insn	2, 0xa2f0
   1a2fa:	0001                	.insn	2, 0x0001
   1a2fc:	a2f0                	.insn	2, 0xa2f0
   1a2fe:	0001                	.insn	2, 0x0001
   1a300:	a2f8                	.insn	2, 0xa2f8
   1a302:	0001                	.insn	2, 0x0001
   1a304:	a2f8                	.insn	2, 0xa2f8
   1a306:	0001                	.insn	2, 0x0001
   1a308:	a300                	.insn	2, 0xa300
   1a30a:	0001                	.insn	2, 0x0001
   1a30c:	a300                	.insn	2, 0xa300
   1a30e:	0001                	.insn	2, 0x0001
   1a310:	a308                	.insn	2, 0xa308
   1a312:	0001                	.insn	2, 0x0001
   1a314:	a308                	.insn	2, 0xa308
   1a316:	0001                	.insn	2, 0x0001
   1a318:	a310                	.insn	2, 0xa310
   1a31a:	0001                	.insn	2, 0x0001
   1a31c:	a310                	.insn	2, 0xa310
   1a31e:	0001                	.insn	2, 0x0001
   1a320:	a318                	.insn	2, 0xa318
   1a322:	0001                	.insn	2, 0x0001
   1a324:	a318                	.insn	2, 0xa318
   1a326:	0001                	.insn	2, 0x0001
   1a328:	a320                	.insn	2, 0xa320
   1a32a:	0001                	.insn	2, 0x0001
   1a32c:	a320                	.insn	2, 0xa320
   1a32e:	0001                	.insn	2, 0x0001
   1a330:	a328                	.insn	2, 0xa328
   1a332:	0001                	.insn	2, 0x0001
   1a334:	a328                	.insn	2, 0xa328
   1a336:	0001                	.insn	2, 0x0001
   1a338:	a330                	.insn	2, 0xa330
   1a33a:	0001                	.insn	2, 0x0001
   1a33c:	a330                	.insn	2, 0xa330
   1a33e:	0001                	.insn	2, 0x0001
   1a340:	a338                	.insn	2, 0xa338
   1a342:	0001                	.insn	2, 0x0001
   1a344:	a338                	.insn	2, 0xa338
   1a346:	0001                	.insn	2, 0x0001
   1a348:	a340                	.insn	2, 0xa340
   1a34a:	0001                	.insn	2, 0x0001
   1a34c:	a340                	.insn	2, 0xa340
   1a34e:	0001                	.insn	2, 0x0001
   1a350:	a348                	.insn	2, 0xa348
   1a352:	0001                	.insn	2, 0x0001
   1a354:	a348                	.insn	2, 0xa348
   1a356:	0001                	.insn	2, 0x0001
   1a358:	a350                	.insn	2, 0xa350
   1a35a:	0001                	.insn	2, 0x0001
   1a35c:	a350                	.insn	2, 0xa350
   1a35e:	0001                	.insn	2, 0x0001
   1a360:	a358                	.insn	2, 0xa358
   1a362:	0001                	.insn	2, 0x0001
   1a364:	a358                	.insn	2, 0xa358
   1a366:	0001                	.insn	2, 0x0001
   1a368:	a360                	.insn	2, 0xa360
   1a36a:	0001                	.insn	2, 0x0001
   1a36c:	a360                	.insn	2, 0xa360
   1a36e:	0001                	.insn	2, 0x0001
   1a370:	a368                	.insn	2, 0xa368
   1a372:	0001                	.insn	2, 0x0001
   1a374:	a368                	.insn	2, 0xa368
   1a376:	0001                	.insn	2, 0x0001
   1a378:	a370                	.insn	2, 0xa370
   1a37a:	0001                	.insn	2, 0x0001
   1a37c:	a370                	.insn	2, 0xa370
   1a37e:	0001                	.insn	2, 0x0001
   1a380:	a378                	.insn	2, 0xa378
   1a382:	0001                	.insn	2, 0x0001
   1a384:	a378                	.insn	2, 0xa378
   1a386:	0001                	.insn	2, 0x0001
   1a388:	a380                	.insn	2, 0xa380
   1a38a:	0001                	.insn	2, 0x0001
   1a38c:	a380                	.insn	2, 0xa380
   1a38e:	0001                	.insn	2, 0x0001
   1a390:	a388                	.insn	2, 0xa388
   1a392:	0001                	.insn	2, 0x0001
   1a394:	a388                	.insn	2, 0xa388
   1a396:	0001                	.insn	2, 0x0001
   1a398:	a390                	.insn	2, 0xa390
   1a39a:	0001                	.insn	2, 0x0001
   1a39c:	a390                	.insn	2, 0xa390
   1a39e:	0001                	.insn	2, 0x0001
   1a3a0:	a398                	.insn	2, 0xa398
   1a3a2:	0001                	.insn	2, 0x0001
   1a3a4:	a398                	.insn	2, 0xa398
   1a3a6:	0001                	.insn	2, 0x0001
   1a3a8:	a3a0                	.insn	2, 0xa3a0
   1a3aa:	0001                	.insn	2, 0x0001
   1a3ac:	a3a0                	.insn	2, 0xa3a0
   1a3ae:	0001                	.insn	2, 0x0001
   1a3b0:	a3a8                	.insn	2, 0xa3a8
   1a3b2:	0001                	.insn	2, 0x0001
   1a3b4:	a3a8                	.insn	2, 0xa3a8
   1a3b6:	0001                	.insn	2, 0x0001
   1a3b8:	a3b0                	.insn	2, 0xa3b0
   1a3ba:	0001                	.insn	2, 0x0001
   1a3bc:	a3b0                	.insn	2, 0xa3b0
   1a3be:	0001                	.insn	2, 0x0001
   1a3c0:	a3b8                	.insn	2, 0xa3b8
   1a3c2:	0001                	.insn	2, 0x0001
   1a3c4:	a3b8                	.insn	2, 0xa3b8
   1a3c6:	0001                	.insn	2, 0x0001
   1a3c8:	a3c0                	.insn	2, 0xa3c0
   1a3ca:	0001                	.insn	2, 0x0001
   1a3cc:	a3c0                	.insn	2, 0xa3c0
   1a3ce:	0001                	.insn	2, 0x0001
   1a3d0:	a3c8                	.insn	2, 0xa3c8
   1a3d2:	0001                	.insn	2, 0x0001
   1a3d4:	a3c8                	.insn	2, 0xa3c8
   1a3d6:	0001                	.insn	2, 0x0001
   1a3d8:	a3d0                	.insn	2, 0xa3d0
   1a3da:	0001                	.insn	2, 0x0001
   1a3dc:	a3d0                	.insn	2, 0xa3d0
   1a3de:	0001                	.insn	2, 0x0001
   1a3e0:	a3d8                	.insn	2, 0xa3d8
   1a3e2:	0001                	.insn	2, 0x0001
   1a3e4:	a3d8                	.insn	2, 0xa3d8
   1a3e6:	0001                	.insn	2, 0x0001
   1a3e8:	a3e0                	.insn	2, 0xa3e0
   1a3ea:	0001                	.insn	2, 0x0001
   1a3ec:	a3e0                	.insn	2, 0xa3e0
   1a3ee:	0001                	.insn	2, 0x0001
   1a3f0:	a3e8                	.insn	2, 0xa3e8
   1a3f2:	0001                	.insn	2, 0x0001
   1a3f4:	a3e8                	.insn	2, 0xa3e8
   1a3f6:	0001                	.insn	2, 0x0001
   1a3f8:	a3f0                	.insn	2, 0xa3f0
   1a3fa:	0001                	.insn	2, 0x0001
   1a3fc:	a3f0                	.insn	2, 0xa3f0
   1a3fe:	0001                	.insn	2, 0x0001
   1a400:	a3f8                	.insn	2, 0xa3f8
   1a402:	0001                	.insn	2, 0x0001
   1a404:	a3f8                	.insn	2, 0xa3f8
   1a406:	0001                	.insn	2, 0x0001
   1a408:	a400                	.insn	2, 0xa400
   1a40a:	0001                	.insn	2, 0x0001
   1a40c:	a400                	.insn	2, 0xa400
   1a40e:	0001                	.insn	2, 0x0001
   1a410:	a408                	.insn	2, 0xa408
   1a412:	0001                	.insn	2, 0x0001
   1a414:	a408                	.insn	2, 0xa408
   1a416:	0001                	.insn	2, 0x0001

0001a418 <__sglue>:
   1a418:	0000                	.insn	2, 0x
   1a41a:	0000                	.insn	2, 0x
   1a41c:	00000003          	lb	zero,0(zero) # 0 <_start-0x8000>
   1a420:	cf9c                	.insn	2, 0xcf9c
   1a422:	0001                	.insn	2, 0x0001
   1a424:	0000                	.insn	2, 0x
	...

0001a428 <_impure_data>:
   1a428:	0000                	.insn	2, 0x
   1a42a:	0000                	.insn	2, 0x
   1a42c:	cf9c                	.insn	2, 0xcf9c
   1a42e:	0001                	.insn	2, 0x0001
   1a430:	d004                	.insn	2, 0xd004
   1a432:	0001                	.insn	2, 0x0001
   1a434:	d06c                	.insn	2, 0xd06c
   1a436:	0001                	.insn	2, 0x0001
	...
   1a4c0:	0001                	.insn	2, 0x0001
   1a4c2:	0000                	.insn	2, 0x
   1a4c4:	0000                	.insn	2, 0x
   1a4c6:	0000                	.insn	2, 0x
   1a4c8:	330e                	.insn	2, 0x330e
   1a4ca:	abcd                	.insn	2, 0xabcd
   1a4cc:	1234                	.insn	2, 0x1234
   1a4ce:	e66d                	.insn	2, 0xe66d
   1a4d0:	deec                	.insn	2, 0xdeec
   1a4d2:	0005                	.insn	2, 0x0005
   1a4d4:	0000000b          	.insn	4, 0x000b
	...

0001a548 <__global_locale>:
   1a548:	00000043          	.insn	4, 0x0043
	...
   1a568:	00000043          	.insn	4, 0x0043
	...
   1a588:	00000043          	.insn	4, 0x0043
	...
   1a5a8:	00000043          	.insn	4, 0x0043
	...
   1a5c8:	00000043          	.insn	4, 0x0043
	...
   1a5e8:	00000043          	.insn	4, 0x0043
	...
   1a608:	00000043          	.insn	4, 0x0043
	...
   1a628:	8524                	.insn	2, 0x8524
   1a62a:	0001                	.insn	2, 0x0001
   1a62c:	6d2c                	.insn	2, 0x6d2c
   1a62e:	0001                	.insn	2, 0x0001
   1a630:	0000                	.insn	2, 0x
   1a632:	0000                	.insn	2, 0x
   1a634:	9cf0                	.insn	2, 0x9cf0
   1a636:	0001                	.insn	2, 0x0001
   1a638:	9750                	.insn	2, 0x9750
   1a63a:	0001                	.insn	2, 0x0001
   1a63c:	92e8                	.insn	2, 0x92e8
   1a63e:	0001                	.insn	2, 0x0001
   1a640:	92e8                	.insn	2, 0x92e8
   1a642:	0001                	.insn	2, 0x0001
   1a644:	92e8                	.insn	2, 0x92e8
   1a646:	0001                	.insn	2, 0x0001
   1a648:	92e8                	.insn	2, 0x92e8
   1a64a:	0001                	.insn	2, 0x0001
   1a64c:	92e8                	.insn	2, 0x92e8
   1a64e:	0001                	.insn	2, 0x0001
   1a650:	92e8                	.insn	2, 0x92e8
   1a652:	0001                	.insn	2, 0x0001
   1a654:	92e8                	.insn	2, 0x92e8
   1a656:	0001                	.insn	2, 0x0001
   1a658:	92e8                	.insn	2, 0x92e8
   1a65a:	0001                	.insn	2, 0x0001
   1a65c:	92e8                	.insn	2, 0x92e8
   1a65e:	0001                	.insn	2, 0x0001
   1a660:	ffff                	.insn	2, 0xffff
   1a662:	ffff                	.insn	2, 0xffff
   1a664:	ffff                	.insn	2, 0xffff
   1a666:	ffff                	.insn	2, 0xffff
   1a668:	ffff                	.insn	2, 0xffff
   1a66a:	ffff                	.insn	2, 0xffff
   1a66c:	ffff                	.insn	2, 0xffff
   1a66e:	0000                	.insn	2, 0x
   1a670:	0001                	.insn	2, 0x0001
   1a672:	5341                	.insn	2, 0x5341
   1a674:	00494943          	.insn	4, 0x00494943
	...
   1a690:	0000                	.insn	2, 0x
   1a692:	5341                	.insn	2, 0x5341
   1a694:	00494943          	.insn	4, 0x00494943
	...

Disassembly of section .sdata:

0001a6b8 <__dso_handle-0x60>:
   1a6b8:	0000                	.insn	2, 0x
   1a6ba:	0000                	.insn	2, 0x
   1a6bc:	0000                	.insn	2, 0x
   1a6be:	3ff8                	.insn	2, 0x3ff8
   1a6c0:	4361                	.insn	2, 0x4361
   1a6c2:	87a7636f          	jal	t1,fff9073c <_end+0xfff734d8>
   1a6c6:	3fd2                	.insn	2, 0x3fd2
   1a6c8:	8b60c8b3          	.insn	4, 0x8b60c8b3
   1a6cc:	8a28                	.insn	2, 0x8a28
   1a6ce:	3fc6                	.insn	2, 0x3fc6
   1a6d0:	509f79fb          	.insn	4, 0x509f79fb
   1a6d4:	3fd34413          	xori	s0,t1,1021
   1a6d8:	fa04                	.insn	2, 0xfa04
   1a6da:	9d7d                	.insn	2, 0x9d7d
   1a6dc:	2d16                	.insn	2, 0x2d16
   1a6de:	3c94                	.insn	2, 0x3c94
   1a6e0:	5a32                	.insn	2, 0x5a32
   1a6e2:	44135547          	.insn	4, 0x44135547
   1a6e6:	00003fd3          	.insn	4, 0x3fd3
   1a6ea:	0000                	.insn	2, 0x
   1a6ec:	0000                	.insn	2, 0x
   1a6ee:	3ff0                	.insn	2, 0x3ff0
   1a6f0:	0000                	.insn	2, 0x
   1a6f2:	0000                	.insn	2, 0x
   1a6f4:	0000                	.insn	2, 0x
   1a6f6:	4024                	.insn	2, 0x4024
   1a6f8:	0000                	.insn	2, 0x
   1a6fa:	0000                	.insn	2, 0x
   1a6fc:	0000                	.insn	2, 0x
   1a6fe:	4008                	.insn	2, 0x4008
   1a700:	0000                	.insn	2, 0x
   1a702:	0000                	.insn	2, 0x
   1a704:	0000                	.insn	2, 0x
   1a706:	401c                	.insn	2, 0x401c
   1a708:	0000                	.insn	2, 0x
   1a70a:	0000                	.insn	2, 0x
   1a70c:	0000                	.insn	2, 0x
   1a70e:	4014                	.insn	2, 0x4014
   1a710:	0000                	.insn	2, 0x
   1a712:	0000                	.insn	2, 0x
   1a714:	0000                	.insn	2, 0x
   1a716:	3fe0                	.insn	2, 0x3fe0

0001a718 <__dso_handle>:
   1a718:	0000                	.insn	2, 0x
	...

0001a71c <__malloc_sbrk_base>:
   1a71c:	ffff                	.insn	2, 0xffff
   1a71e:	ffff                	.insn	2, 0xffff

0001a720 <__malloc_trim_threshold>:
   1a720:	0000                	.insn	2, 0x
   1a722:	0002                	.insn	2, 0x0002

0001a724 <_impure_ptr>:
   1a724:	a428                	.insn	2, 0xa428
   1a726:	0001                	.insn	2, 0x0001

Disassembly of section .comment:

00000000 <.comment>:
   0:	3a434347          	.insn	4, 0x3a434347
   4:	2820                	.insn	2, 0x2820
   6:	39386367          	.insn	4, 0x39386367
   a:	6431                	.insn	2, 0x6431
   c:	6438                	.insn	2, 0x6438
   e:	65333263          	.insn	4, 0x65333263
  12:	2029                	.insn	2, 0x2029
  14:	3331                	.insn	2, 0x3331
  16:	322e                	.insn	2, 0x322e
  18:	302e                	.insn	2, 0x302e
  1a:	4700                	.insn	2, 0x4700
  1c:	203a4343          	.insn	4, 0x203a4343
  20:	4728                	.insn	2, 0x4728
  22:	554e                	.insn	2, 0x554e
  24:	2029                	.insn	2, 0x2029
  26:	3331                	.insn	2, 0x3331
  28:	322e                	.insn	2, 0x322e
  2a:	302e                	.insn	2, 0x302e
	...

Disassembly of section .riscv.attributes:

00000000 <.riscv.attributes>:
   0:	2941                	.insn	2, 0x2941
   2:	0000                	.insn	2, 0x
   4:	7200                	.insn	2, 0x7200
   6:	7369                	.insn	2, 0x7369
   8:	01007663          	bgeu	zero,a6,14 <_start-0x7fec>
   c:	001f 0000 1004      	.insn	6, 0x10040000001f
  12:	7205                	.insn	2, 0x7205
  14:	3376                	.insn	2, 0x3376
  16:	6932                	.insn	2, 0x6932
  18:	7032                	.insn	2, 0x7032
  1a:	5f31                	.insn	2, 0x5f31
  1c:	326d                	.insn	2, 0x326d
  1e:	3070                	.insn	2, 0x3070
  20:	7a5f 6d6d 6c75      	.insn	6, 0x6c756d6d7a5f
  26:	7031                	.insn	2, 0x7031
  28:	0030                	.insn	2, 0x0030
