
dhry.elf:     file format elf32-littleriscv


Disassembly of section .text:

00000000 <_start>:
       0:	00013197          	auipc	gp,0x13
       4:	eb818193          	addi	gp,gp,-328 # 12eb8 <__global_pointer$>
       8:	87018513          	addi	a0,gp,-1936 # 12728 <Dhrystones_Per_Second>
       c:	00015617          	auipc	a2,0x15
      10:	25860613          	addi	a2,a2,600 # 15264 <_end>
      14:	40a60633          	sub	a2,a2,a0
      18:	00000593          	li	a1,0
      1c:	478000ef          	jal	494 <memset>
      20:	00007517          	auipc	a0,0x7
      24:	f8050513          	addi	a0,a0,-128 # 6fa0 <atexit>
      28:	00050863          	beqz	a0,38 <_start+0x38>
      2c:	0000c517          	auipc	a0,0xc
      30:	43050513          	addi	a0,a0,1072 # c45c <__libc_fini_array>
      34:	76d060ef          	jal	6fa0 <atexit>
      38:	50d060ef          	jal	6d44 <__libc_init_array>
      3c:	00012503          	lw	a0,0(sp)
      40:	00410593          	addi	a1,sp,4
      44:	00000613          	li	a2,0
      48:	334050ef          	jal	537c <main>
      4c:	3040506f          	j	5350 <exit>

00000050 <__do_global_dtors_aux>:
      50:	ff010113          	addi	sp,sp,-16
      54:	00812423          	sw	s0,8(sp)
      58:	8c81c783          	lbu	a5,-1848(gp) # 12780 <completed.1>
      5c:	00112623          	sw	ra,12(sp)
      60:	02079263          	bnez	a5,84 <__do_global_dtors_aux+0x34>
      64:	00000793          	li	a5,0
      68:	00078a63          	beqz	a5,7c <__do_global_dtors_aux+0x2c>
      6c:	00012537          	lui	a0,0x12
      70:	00050513          	mv	a0,a0
      74:	00000097          	auipc	ra,0x0
      78:	000000e7          	jalr	zero # 0 <_start>
      7c:	00100793          	li	a5,1
      80:	8cf18423          	sb	a5,-1848(gp) # 12780 <completed.1>
      84:	00c12083          	lw	ra,12(sp)
      88:	00812403          	lw	s0,8(sp)
      8c:	01010113          	addi	sp,sp,16
      90:	00008067          	ret

00000094 <frame_dummy>:
      94:	00000793          	li	a5,0
      98:	00078c63          	beqz	a5,b0 <frame_dummy+0x1c>
      9c:	00012537          	lui	a0,0x12
      a0:	8cc18593          	addi	a1,gp,-1844 # 12784 <object.0>
      a4:	00050513          	mv	a0,a0
      a8:	00000317          	auipc	t1,0x0
      ac:	00000067          	jr	zero # 0 <_start>
      b0:	00008067          	ret

000000b4 <Proc_1>:
      b4:	ff010113          	addi	sp,sp,-16
      b8:	01212023          	sw	s2,0(sp)
      bc:	8a41a783          	lw	a5,-1884(gp) # 1275c <Ptr_Glob>
      c0:	00812423          	sw	s0,8(sp)
      c4:	00052403          	lw	s0,0(a0) # 12000 <__EH_FRAME_BEGIN__>
      c8:	0007a703          	lw	a4,0(a5)
      cc:	0047af83          	lw	t6,4(a5)
      d0:	0087af03          	lw	t5,8(a5)
      d4:	0107ae83          	lw	t4,16(a5)
      d8:	0147ae03          	lw	t3,20(a5)
      dc:	0187a303          	lw	t1,24(a5)
      e0:	01c7a883          	lw	a7,28(a5)
      e4:	0207a803          	lw	a6,32(a5)
      e8:	02c7a603          	lw	a2,44(a5)
      ec:	0287a583          	lw	a1,40(a5)
      f0:	00112623          	sw	ra,12(sp)
      f4:	00912223          	sw	s1,4(sp)
      f8:	00050493          	mv	s1,a0
      fc:	0247a503          	lw	a0,36(a5)
     100:	00e42023          	sw	a4,0(s0)
     104:	0004a683          	lw	a3,0(s1)
     108:	00500713          	li	a4,5
     10c:	01f42223          	sw	t6,4(s0)
     110:	01e42423          	sw	t5,8(s0)
     114:	01d42823          	sw	t4,16(s0)
     118:	01c42a23          	sw	t3,20(s0)
     11c:	00642c23          	sw	t1,24(s0)
     120:	01142e23          	sw	a7,28(s0)
     124:	03042023          	sw	a6,32(s0)
     128:	02a42223          	sw	a0,36(s0)
     12c:	02c42623          	sw	a2,44(s0)
     130:	02b42423          	sw	a1,40(s0)
     134:	00e4a623          	sw	a4,12(s1)
     138:	00d42023          	sw	a3,0(s0)
     13c:	0007a783          	lw	a5,0(a5)
     140:	89c1a583          	lw	a1,-1892(gp) # 12754 <Int_Glob>
     144:	00f42023          	sw	a5,0(s0)
     148:	8a41a603          	lw	a2,-1884(gp) # 1275c <Ptr_Glob>
     14c:	00e42623          	sw	a4,12(s0)
     150:	00a00513          	li	a0,10
     154:	00c60613          	addi	a2,a2,12
     158:	19c000ef          	jal	2f4 <Proc_7>
     15c:	00442783          	lw	a5,4(s0)
     160:	08078063          	beqz	a5,1e0 <Proc_1+0x12c>
     164:	0004a783          	lw	a5,0(s1)
     168:	00c12083          	lw	ra,12(sp)
     16c:	00812403          	lw	s0,8(sp)
     170:	0007af83          	lw	t6,0(a5)
     174:	0047af03          	lw	t5,4(a5)
     178:	0087ae83          	lw	t4,8(a5)
     17c:	00c7ae03          	lw	t3,12(a5)
     180:	0107a303          	lw	t1,16(a5)
     184:	0147a883          	lw	a7,20(a5)
     188:	0187a803          	lw	a6,24(a5)
     18c:	01c7a583          	lw	a1,28(a5)
     190:	0207a603          	lw	a2,32(a5)
     194:	0247a683          	lw	a3,36(a5)
     198:	0287a703          	lw	a4,40(a5)
     19c:	02c7a783          	lw	a5,44(a5)
     1a0:	01f4a023          	sw	t6,0(s1)
     1a4:	01e4a223          	sw	t5,4(s1)
     1a8:	01d4a423          	sw	t4,8(s1)
     1ac:	01c4a623          	sw	t3,12(s1)
     1b0:	0064a823          	sw	t1,16(s1)
     1b4:	0114aa23          	sw	a7,20(s1)
     1b8:	0104ac23          	sw	a6,24(s1)
     1bc:	00b4ae23          	sw	a1,28(s1)
     1c0:	02c4a023          	sw	a2,32(s1)
     1c4:	02d4a223          	sw	a3,36(s1)
     1c8:	02e4a423          	sw	a4,40(s1)
     1cc:	02f4a623          	sw	a5,44(s1)
     1d0:	00012903          	lw	s2,0(sp)
     1d4:	00412483          	lw	s1,4(sp)
     1d8:	01010113          	addi	sp,sp,16
     1dc:	00008067          	ret
     1e0:	0084a503          	lw	a0,8(s1)
     1e4:	00600793          	li	a5,6
     1e8:	00f42623          	sw	a5,12(s0)
     1ec:	00840593          	addi	a1,s0,8
     1f0:	0b4000ef          	jal	2a4 <Proc_6>
     1f4:	8a41a783          	lw	a5,-1884(gp) # 1275c <Ptr_Glob>
     1f8:	00c42503          	lw	a0,12(s0)
     1fc:	00c40613          	addi	a2,s0,12
     200:	0007a783          	lw	a5,0(a5)
     204:	00c12083          	lw	ra,12(sp)
     208:	00412483          	lw	s1,4(sp)
     20c:	00f42023          	sw	a5,0(s0)
     210:	00812403          	lw	s0,8(sp)
     214:	00012903          	lw	s2,0(sp)
     218:	00a00593          	li	a1,10
     21c:	01010113          	addi	sp,sp,16
     220:	0d40006f          	j	2f4 <Proc_7>

00000224 <Proc_2>:
     224:	8951c703          	lbu	a4,-1899(gp) # 1274d <Ch_1_Glob>
     228:	04100793          	li	a5,65
     22c:	00f70463          	beq	a4,a5,234 <Proc_2+0x10>
     230:	00008067          	ret
     234:	00052783          	lw	a5,0(a0)
     238:	89c1a703          	lw	a4,-1892(gp) # 12754 <Int_Glob>
     23c:	00978793          	addi	a5,a5,9
     240:	40e787b3          	sub	a5,a5,a4
     244:	00f52023          	sw	a5,0(a0)
     248:	00008067          	ret

0000024c <Proc_3>:
     24c:	8a41a603          	lw	a2,-1884(gp) # 1275c <Ptr_Glob>
     250:	00060863          	beqz	a2,260 <Proc_3+0x14>
     254:	00062703          	lw	a4,0(a2)
     258:	00e52023          	sw	a4,0(a0)
     25c:	8a41a603          	lw	a2,-1884(gp) # 1275c <Ptr_Glob>
     260:	89c1a583          	lw	a1,-1892(gp) # 12754 <Int_Glob>
     264:	00c60613          	addi	a2,a2,12
     268:	00a00513          	li	a0,10
     26c:	0880006f          	j	2f4 <Proc_7>

00000270 <Proc_4>:
     270:	8951c783          	lbu	a5,-1899(gp) # 1274d <Ch_1_Glob>
     274:	8981a683          	lw	a3,-1896(gp) # 12750 <Bool_Glob>
     278:	fbf78793          	addi	a5,a5,-65
     27c:	0017b793          	seqz	a5,a5
     280:	00d7e7b3          	or	a5,a5,a3
     284:	88f1ac23          	sw	a5,-1896(gp) # 12750 <Bool_Glob>
     288:	04200713          	li	a4,66
     28c:	88e18a23          	sb	a4,-1900(gp) # 1274c <Ch_2_Glob>
     290:	00008067          	ret

00000294 <Proc_5>:
     294:	04100713          	li	a4,65
     298:	88e18aa3          	sb	a4,-1899(gp) # 1274d <Ch_1_Glob>
     29c:	8801ac23          	sw	zero,-1896(gp) # 12750 <Bool_Glob>
     2a0:	00008067          	ret

000002a4 <Proc_6>:
     2a4:	00200793          	li	a5,2
     2a8:	02f50c63          	beq	a0,a5,2e0 <Proc_6+0x3c>
     2ac:	00300713          	li	a4,3
     2b0:	00e5a023          	sw	a4,0(a1)
     2b4:	00100713          	li	a4,1
     2b8:	00e50a63          	beq	a0,a4,2cc <Proc_6+0x28>
     2bc:	00400713          	li	a4,4
     2c0:	02e50663          	beq	a0,a4,2ec <Proc_6+0x48>
     2c4:	00050a63          	beqz	a0,2d8 <Proc_6+0x34>
     2c8:	00008067          	ret
     2cc:	89c1a703          	lw	a4,-1892(gp) # 12754 <Int_Glob>
     2d0:	06400793          	li	a5,100
     2d4:	fee7dae3          	bge	a5,a4,2c8 <Proc_6+0x24>
     2d8:	0005a023          	sw	zero,0(a1)
     2dc:	00008067          	ret
     2e0:	00100793          	li	a5,1
     2e4:	00f5a023          	sw	a5,0(a1)
     2e8:	00008067          	ret
     2ec:	00f5a023          	sw	a5,0(a1)
     2f0:	00008067          	ret

000002f4 <Proc_7>:
     2f4:	00250513          	addi	a0,a0,2
     2f8:	00b505b3          	add	a1,a0,a1
     2fc:	00b62023          	sw	a1,0(a2)
     300:	00008067          	ret

00000304 <Proc_8>:
     304:	00560713          	addi	a4,a2,5
     308:	0c800813          	li	a6,200
     30c:	03070833          	mul	a6,a4,a6
     310:	00261613          	slli	a2,a2,0x2
     314:	00271793          	slli	a5,a4,0x2
     318:	00f50533          	add	a0,a0,a5
     31c:	00d52023          	sw	a3,0(a0)
     320:	06e52c23          	sw	a4,120(a0)
     324:	00d52223          	sw	a3,4(a0)
     328:	00c807b3          	add	a5,a6,a2
     32c:	00f587b3          	add	a5,a1,a5
     330:	0107a683          	lw	a3,16(a5)
     334:	00e7aa23          	sw	a4,20(a5)
     338:	00e7ac23          	sw	a4,24(a5)
     33c:	00168713          	addi	a4,a3,1
     340:	00e7a823          	sw	a4,16(a5)
     344:	00052703          	lw	a4,0(a0)
     348:	010585b3          	add	a1,a1,a6
     34c:	00c585b3          	add	a1,a1,a2
     350:	000017b7          	lui	a5,0x1
     354:	00b787b3          	add	a5,a5,a1
     358:	fae7aa23          	sw	a4,-76(a5) # fb4 <__divdf3+0x134>
     35c:	00500713          	li	a4,5
     360:	88e1ae23          	sw	a4,-1892(gp) # 12754 <Int_Glob>
     364:	00008067          	ret

00000368 <Func_1>:
     368:	0ff57513          	zext.b	a0,a0
     36c:	0ff5f593          	zext.b	a1,a1
     370:	00b50663          	beq	a0,a1,37c <Func_1+0x14>
     374:	00000513          	li	a0,0
     378:	00008067          	ret
     37c:	88a18aa3          	sb	a0,-1899(gp) # 1274d <Ch_1_Glob>
     380:	00100513          	li	a0,1
     384:	00008067          	ret

00000388 <Func_2>:
     388:	ff010113          	addi	sp,sp,-16
     38c:	00112623          	sw	ra,12(sp)
     390:	00254703          	lbu	a4,2(a0)
     394:	0035c783          	lbu	a5,3(a1)
     398:	02e78663          	beq	a5,a4,3c4 <Func_2+0x3c>
     39c:	1d4000ef          	jal	570 <strcmp>
     3a0:	00000793          	li	a5,0
     3a4:	00a05863          	blez	a0,3b4 <Func_2+0x2c>
     3a8:	00a00713          	li	a4,10
     3ac:	88e1ae23          	sw	a4,-1892(gp) # 12754 <Int_Glob>
     3b0:	00100793          	li	a5,1
     3b4:	00c12083          	lw	ra,12(sp)
     3b8:	00078513          	mv	a0,a5
     3bc:	01010113          	addi	sp,sp,16
     3c0:	00008067          	ret
     3c4:	88f18aa3          	sb	a5,-1899(gp) # 1274d <Ch_1_Glob>
     3c8:	fd1ff06f          	j	398 <Func_2+0x10>

000003cc <Func_3>:
     3cc:	ffe50513          	addi	a0,a0,-2
     3d0:	00153513          	seqz	a0,a0
     3d4:	00008067          	ret

000003d8 <time>:
     3d8:	c0002573          	rdcycle	a0
     3dc:	00008067          	ret

000003e0 <insn>:
     3e0:	c0202573          	rdinstret	a0
     3e4:	00008067          	ret

000003e8 <_access>:
     3e8:	0040006f          	j	3ec <unimplemented_syscall>

000003ec <unimplemented_syscall>:
     3ec:	000117b7          	lui	a5,0x11
     3f0:	6ec78793          	addi	a5,a5,1772 # 116ec <_getpid_r+0x5c4>
     3f4:	05500713          	li	a4,85
     3f8:	100006b7          	lui	a3,0x10000
     3fc:	00178793          	addi	a5,a5,1
     400:	00e6a023          	sw	a4,0(a3) # 10000000 <_end+0xffead9c>
     404:	0007c703          	lbu	a4,0(a5)
     408:	fe071ae3          	bnez	a4,3fc <unimplemented_syscall+0x10>
     40c:	00100073          	ebreak

00000410 <_read>:
     410:	00000513          	li	a0,0
     414:	00008067          	ret

00000418 <_write>:
     418:	00c58733          	add	a4,a1,a2
     41c:	00060513          	mv	a0,a2
     420:	00e58c63          	beq	a1,a4,438 <_write+0x20>
     424:	100006b7          	lui	a3,0x10000
     428:	0005c783          	lbu	a5,0(a1)
     42c:	00158593          	addi	a1,a1,1
     430:	00f6a023          	sw	a5,0(a3) # 10000000 <_end+0xffead9c>
     434:	feb71ae3          	bne	a4,a1,428 <_write+0x10>
     438:	00008067          	ret

0000043c <_close>:
     43c:	00000513          	li	a0,0
     440:	00008067          	ret

00000444 <_fstat>:
     444:	ff010113          	addi	sp,sp,-16
     448:	00112623          	sw	ra,12(sp)
     44c:	0f1060ef          	jal	6d3c <__errno>
     450:	00c12083          	lw	ra,12(sp)
     454:	00200793          	li	a5,2
     458:	00f52023          	sw	a5,0(a0)
     45c:	fff00513          	li	a0,-1
     460:	01010113          	addi	sp,sp,16
     464:	00008067          	ret

00000468 <_sbrk>:
     468:	8a81a703          	lw	a4,-1880(gp) # 12760 <heap_end.0>
     46c:	00050793          	mv	a5,a0
     470:	00070513          	mv	a0,a4
     474:	00071863          	bnez	a4,484 <_sbrk+0x1c>
     478:	00015537          	lui	a0,0x15
     47c:	26450713          	addi	a4,a0,612 # 15264 <_end>
     480:	26450513          	addi	a0,a0,612
     484:	00e787b3          	add	a5,a5,a4
     488:	8af1a423          	sw	a5,-1880(gp) # 12760 <heap_end.0>
     48c:	00008067          	ret

00000490 <_exit>:
     490:	00100073          	ebreak

00000494 <memset>:
     494:	00f00313          	li	t1,15
     498:	00050713          	mv	a4,a0
     49c:	02c37e63          	bgeu	t1,a2,4d8 <memset+0x44>
     4a0:	00f77793          	andi	a5,a4,15
     4a4:	0a079063          	bnez	a5,544 <memset+0xb0>
     4a8:	08059263          	bnez	a1,52c <memset+0x98>
     4ac:	ff067693          	andi	a3,a2,-16
     4b0:	00f67613          	andi	a2,a2,15
     4b4:	00e686b3          	add	a3,a3,a4
     4b8:	00b72023          	sw	a1,0(a4)
     4bc:	00b72223          	sw	a1,4(a4)
     4c0:	00b72423          	sw	a1,8(a4)
     4c4:	00b72623          	sw	a1,12(a4)
     4c8:	01070713          	addi	a4,a4,16
     4cc:	fed766e3          	bltu	a4,a3,4b8 <memset+0x24>
     4d0:	00061463          	bnez	a2,4d8 <memset+0x44>
     4d4:	00008067          	ret
     4d8:	40c306b3          	sub	a3,t1,a2
     4dc:	00269693          	slli	a3,a3,0x2
     4e0:	00000297          	auipc	t0,0x0
     4e4:	005686b3          	add	a3,a3,t0
     4e8:	00c68067          	jr	12(a3)
     4ec:	00b70723          	sb	a1,14(a4)
     4f0:	00b706a3          	sb	a1,13(a4)
     4f4:	00b70623          	sb	a1,12(a4)
     4f8:	00b705a3          	sb	a1,11(a4)
     4fc:	00b70523          	sb	a1,10(a4)
     500:	00b704a3          	sb	a1,9(a4)
     504:	00b70423          	sb	a1,8(a4)
     508:	00b703a3          	sb	a1,7(a4)
     50c:	00b70323          	sb	a1,6(a4)
     510:	00b702a3          	sb	a1,5(a4)
     514:	00b70223          	sb	a1,4(a4)
     518:	00b701a3          	sb	a1,3(a4)
     51c:	00b70123          	sb	a1,2(a4)
     520:	00b700a3          	sb	a1,1(a4)
     524:	00b70023          	sb	a1,0(a4)
     528:	00008067          	ret
     52c:	0ff5f593          	zext.b	a1,a1
     530:	00859693          	slli	a3,a1,0x8
     534:	00d5e5b3          	or	a1,a1,a3
     538:	01059693          	slli	a3,a1,0x10
     53c:	00d5e5b3          	or	a1,a1,a3
     540:	f6dff06f          	j	4ac <memset+0x18>
     544:	00279693          	slli	a3,a5,0x2
     548:	00000297          	auipc	t0,0x0
     54c:	005686b3          	add	a3,a3,t0
     550:	00008293          	mv	t0,ra
     554:	fa0680e7          	jalr	-96(a3)
     558:	00028093          	mv	ra,t0
     55c:	ff078793          	addi	a5,a5,-16
     560:	40f70733          	sub	a4,a4,a5
     564:	00f60633          	add	a2,a2,a5
     568:	f6c378e3          	bgeu	t1,a2,4d8 <memset+0x44>
     56c:	f3dff06f          	j	4a8 <memset+0x14>

00000570 <strcmp>:
     570:	00b56733          	or	a4,a0,a1
     574:	fff00393          	li	t2,-1
     578:	00377713          	andi	a4,a4,3
     57c:	10071063          	bnez	a4,67c <strcmp+0x10c>
     580:	7f7f87b7          	lui	a5,0x7f7f8
     584:	f7f78793          	addi	a5,a5,-129 # 7f7f7f7f <_end+0x7f7e2d1b>
     588:	00052603          	lw	a2,0(a0)
     58c:	0005a683          	lw	a3,0(a1)
     590:	00f672b3          	and	t0,a2,a5
     594:	00f66333          	or	t1,a2,a5
     598:	00f282b3          	add	t0,t0,a5
     59c:	0062e2b3          	or	t0,t0,t1
     5a0:	10729263          	bne	t0,t2,6a4 <strcmp+0x134>
     5a4:	08d61663          	bne	a2,a3,630 <strcmp+0xc0>
     5a8:	00452603          	lw	a2,4(a0)
     5ac:	0045a683          	lw	a3,4(a1)
     5b0:	00f672b3          	and	t0,a2,a5
     5b4:	00f66333          	or	t1,a2,a5
     5b8:	00f282b3          	add	t0,t0,a5
     5bc:	0062e2b3          	or	t0,t0,t1
     5c0:	0c729e63          	bne	t0,t2,69c <strcmp+0x12c>
     5c4:	06d61663          	bne	a2,a3,630 <strcmp+0xc0>
     5c8:	00852603          	lw	a2,8(a0)
     5cc:	0085a683          	lw	a3,8(a1)
     5d0:	00f672b3          	and	t0,a2,a5
     5d4:	00f66333          	or	t1,a2,a5
     5d8:	00f282b3          	add	t0,t0,a5
     5dc:	0062e2b3          	or	t0,t0,t1
     5e0:	0c729863          	bne	t0,t2,6b0 <strcmp+0x140>
     5e4:	04d61663          	bne	a2,a3,630 <strcmp+0xc0>
     5e8:	00c52603          	lw	a2,12(a0)
     5ec:	00c5a683          	lw	a3,12(a1)
     5f0:	00f672b3          	and	t0,a2,a5
     5f4:	00f66333          	or	t1,a2,a5
     5f8:	00f282b3          	add	t0,t0,a5
     5fc:	0062e2b3          	or	t0,t0,t1
     600:	0c729263          	bne	t0,t2,6c4 <strcmp+0x154>
     604:	02d61663          	bne	a2,a3,630 <strcmp+0xc0>
     608:	01052603          	lw	a2,16(a0)
     60c:	0105a683          	lw	a3,16(a1)
     610:	00f672b3          	and	t0,a2,a5
     614:	00f66333          	or	t1,a2,a5
     618:	00f282b3          	add	t0,t0,a5
     61c:	0062e2b3          	or	t0,t0,t1
     620:	0a729c63          	bne	t0,t2,6d8 <strcmp+0x168>
     624:	01450513          	addi	a0,a0,20
     628:	01458593          	addi	a1,a1,20
     62c:	f4d60ee3          	beq	a2,a3,588 <strcmp+0x18>
     630:	01061713          	slli	a4,a2,0x10
     634:	01069793          	slli	a5,a3,0x10
     638:	00f71e63          	bne	a4,a5,654 <strcmp+0xe4>
     63c:	01065713          	srli	a4,a2,0x10
     640:	0106d793          	srli	a5,a3,0x10
     644:	40f70533          	sub	a0,a4,a5
     648:	0ff57593          	zext.b	a1,a0
     64c:	02059063          	bnez	a1,66c <strcmp+0xfc>
     650:	00008067          	ret
     654:	01075713          	srli	a4,a4,0x10
     658:	0107d793          	srli	a5,a5,0x10
     65c:	40f70533          	sub	a0,a4,a5
     660:	0ff57593          	zext.b	a1,a0
     664:	00059463          	bnez	a1,66c <strcmp+0xfc>
     668:	00008067          	ret
     66c:	0ff77713          	zext.b	a4,a4
     670:	0ff7f793          	zext.b	a5,a5
     674:	40f70533          	sub	a0,a4,a5
     678:	00008067          	ret
     67c:	00054603          	lbu	a2,0(a0)
     680:	0005c683          	lbu	a3,0(a1)
     684:	00150513          	addi	a0,a0,1
     688:	00158593          	addi	a1,a1,1
     68c:	00d61463          	bne	a2,a3,694 <strcmp+0x124>
     690:	fe0616e3          	bnez	a2,67c <strcmp+0x10c>
     694:	40d60533          	sub	a0,a2,a3
     698:	00008067          	ret
     69c:	00450513          	addi	a0,a0,4
     6a0:	00458593          	addi	a1,a1,4
     6a4:	fcd61ce3          	bne	a2,a3,67c <strcmp+0x10c>
     6a8:	00000513          	li	a0,0
     6ac:	00008067          	ret
     6b0:	00850513          	addi	a0,a0,8
     6b4:	00858593          	addi	a1,a1,8
     6b8:	fcd612e3          	bne	a2,a3,67c <strcmp+0x10c>
     6bc:	00000513          	li	a0,0
     6c0:	00008067          	ret
     6c4:	00c50513          	addi	a0,a0,12
     6c8:	00c58593          	addi	a1,a1,12
     6cc:	fad618e3          	bne	a2,a3,67c <strcmp+0x10c>
     6d0:	00000513          	li	a0,0
     6d4:	00008067          	ret
     6d8:	01050513          	addi	a0,a0,16
     6dc:	01058593          	addi	a1,a1,16
     6e0:	f8d61ee3          	bne	a2,a3,67c <strcmp+0x10c>
     6e4:	00000513          	li	a0,0
     6e8:	00008067          	ret

000006ec <__adddf3>:
     6ec:	00100837          	lui	a6,0x100
     6f0:	fff80813          	addi	a6,a6,-1 # fffff <_end+0xead9b>
     6f4:	fe010113          	addi	sp,sp,-32
     6f8:	00b878b3          	and	a7,a6,a1
     6fc:	0145d713          	srli	a4,a1,0x14
     700:	01d55793          	srli	a5,a0,0x1d
     704:	00d87833          	and	a6,a6,a3
     708:	00912a23          	sw	s1,20(sp)
     70c:	7ff77493          	andi	s1,a4,2047
     710:	00389713          	slli	a4,a7,0x3
     714:	0146d893          	srli	a7,a3,0x14
     718:	00381813          	slli	a6,a6,0x3
     71c:	01212823          	sw	s2,16(sp)
     720:	00e7e7b3          	or	a5,a5,a4
     724:	7ff8f893          	andi	a7,a7,2047
     728:	01d65713          	srli	a4,a2,0x1d
     72c:	00112e23          	sw	ra,28(sp)
     730:	00812c23          	sw	s0,24(sp)
     734:	01312623          	sw	s3,12(sp)
     738:	01f5d913          	srli	s2,a1,0x1f
     73c:	01f6d693          	srli	a3,a3,0x1f
     740:	01076733          	or	a4,a4,a6
     744:	00351513          	slli	a0,a0,0x3
     748:	00361613          	slli	a2,a2,0x3
     74c:	41148833          	sub	a6,s1,a7
     750:	2ad91a63          	bne	s2,a3,a04 <__adddf3+0x318>
     754:	11005c63          	blez	a6,86c <__adddf3+0x180>
     758:	04089063          	bnez	a7,798 <__adddf3+0xac>
     75c:	00c766b3          	or	a3,a4,a2
     760:	66068063          	beqz	a3,dc0 <__adddf3+0x6d4>
     764:	fff80593          	addi	a1,a6,-1
     768:	02059063          	bnez	a1,788 <__adddf3+0x9c>
     76c:	00c50633          	add	a2,a0,a2
     770:	00a636b3          	sltu	a3,a2,a0
     774:	00e78733          	add	a4,a5,a4
     778:	00060513          	mv	a0,a2
     77c:	00d707b3          	add	a5,a4,a3
     780:	00100493          	li	s1,1
     784:	06c0006f          	j	7f0 <__adddf3+0x104>
     788:	7ff00693          	li	a3,2047
     78c:	02d81063          	bne	a6,a3,7ac <__adddf3+0xc0>
     790:	7ff00493          	li	s1,2047
     794:	1f80006f          	j	98c <__adddf3+0x2a0>
     798:	7ff00693          	li	a3,2047
     79c:	1ed48863          	beq	s1,a3,98c <__adddf3+0x2a0>
     7a0:	008006b7          	lui	a3,0x800
     7a4:	00d76733          	or	a4,a4,a3
     7a8:	00080593          	mv	a1,a6
     7ac:	03800693          	li	a3,56
     7b0:	0ab6c863          	blt	a3,a1,860 <__adddf3+0x174>
     7b4:	01f00693          	li	a3,31
     7b8:	06b6ca63          	blt	a3,a1,82c <__adddf3+0x140>
     7bc:	02000813          	li	a6,32
     7c0:	40b80833          	sub	a6,a6,a1
     7c4:	010716b3          	sll	a3,a4,a6
     7c8:	00b658b3          	srl	a7,a2,a1
     7cc:	01061833          	sll	a6,a2,a6
     7d0:	0116e6b3          	or	a3,a3,a7
     7d4:	01003833          	snez	a6,a6
     7d8:	0106e6b3          	or	a3,a3,a6
     7dc:	00b755b3          	srl	a1,a4,a1
     7e0:	00a68533          	add	a0,a3,a0
     7e4:	00f585b3          	add	a1,a1,a5
     7e8:	00d536b3          	sltu	a3,a0,a3
     7ec:	00d587b3          	add	a5,a1,a3
     7f0:	00879713          	slli	a4,a5,0x8
     7f4:	18075c63          	bgez	a4,98c <__adddf3+0x2a0>
     7f8:	00148493          	addi	s1,s1,1
     7fc:	7ff00713          	li	a4,2047
     800:	5ae48a63          	beq	s1,a4,db4 <__adddf3+0x6c8>
     804:	ff800737          	lui	a4,0xff800
     808:	fff70713          	addi	a4,a4,-1 # ff7fffff <_end+0xff7ead9b>
     80c:	00e7f733          	and	a4,a5,a4
     810:	00155793          	srli	a5,a0,0x1
     814:	00157513          	andi	a0,a0,1
     818:	00a7e7b3          	or	a5,a5,a0
     81c:	01f71513          	slli	a0,a4,0x1f
     820:	00f56533          	or	a0,a0,a5
     824:	00175793          	srli	a5,a4,0x1
     828:	1640006f          	j	98c <__adddf3+0x2a0>
     82c:	fe058693          	addi	a3,a1,-32
     830:	02000893          	li	a7,32
     834:	00d756b3          	srl	a3,a4,a3
     838:	00000813          	li	a6,0
     83c:	01158863          	beq	a1,a7,84c <__adddf3+0x160>
     840:	04000813          	li	a6,64
     844:	40b80833          	sub	a6,a6,a1
     848:	01071833          	sll	a6,a4,a6
     84c:	00c86833          	or	a6,a6,a2
     850:	01003833          	snez	a6,a6
     854:	0106e6b3          	or	a3,a3,a6
     858:	00000593          	li	a1,0
     85c:	f85ff06f          	j	7e0 <__adddf3+0xf4>
     860:	00c766b3          	or	a3,a4,a2
     864:	00d036b3          	snez	a3,a3
     868:	ff1ff06f          	j	858 <__adddf3+0x16c>
     86c:	0c080a63          	beqz	a6,940 <__adddf3+0x254>
     870:	409886b3          	sub	a3,a7,s1
     874:	02049463          	bnez	s1,89c <__adddf3+0x1b0>
     878:	00a7e5b3          	or	a1,a5,a0
     87c:	50058e63          	beqz	a1,d98 <__adddf3+0x6ac>
     880:	fff68593          	addi	a1,a3,-1 # 7fffff <_end+0x7ead9b>
     884:	ee0584e3          	beqz	a1,76c <__adddf3+0x80>
     888:	7ff00813          	li	a6,2047
     88c:	03069263          	bne	a3,a6,8b0 <__adddf3+0x1c4>
     890:	00070793          	mv	a5,a4
     894:	00060513          	mv	a0,a2
     898:	ef9ff06f          	j	790 <__adddf3+0xa4>
     89c:	7ff00593          	li	a1,2047
     8a0:	feb888e3          	beq	a7,a1,890 <__adddf3+0x1a4>
     8a4:	008005b7          	lui	a1,0x800
     8a8:	00b7e7b3          	or	a5,a5,a1
     8ac:	00068593          	mv	a1,a3
     8b0:	03800693          	li	a3,56
     8b4:	08b6c063          	blt	a3,a1,934 <__adddf3+0x248>
     8b8:	01f00693          	li	a3,31
     8bc:	04b6c263          	blt	a3,a1,900 <__adddf3+0x214>
     8c0:	02000813          	li	a6,32
     8c4:	40b80833          	sub	a6,a6,a1
     8c8:	010796b3          	sll	a3,a5,a6
     8cc:	00b55333          	srl	t1,a0,a1
     8d0:	01051833          	sll	a6,a0,a6
     8d4:	0066e6b3          	or	a3,a3,t1
     8d8:	01003833          	snez	a6,a6
     8dc:	0106e6b3          	or	a3,a3,a6
     8e0:	00b7d5b3          	srl	a1,a5,a1
     8e4:	00c68633          	add	a2,a3,a2
     8e8:	00e585b3          	add	a1,a1,a4
     8ec:	00d636b3          	sltu	a3,a2,a3
     8f0:	00060513          	mv	a0,a2
     8f4:	00d587b3          	add	a5,a1,a3
     8f8:	00088493          	mv	s1,a7
     8fc:	ef5ff06f          	j	7f0 <__adddf3+0x104>
     900:	fe058693          	addi	a3,a1,-32 # 7fffe0 <_end+0x7ead7c>
     904:	02000313          	li	t1,32
     908:	00d7d6b3          	srl	a3,a5,a3
     90c:	00000813          	li	a6,0
     910:	00658863          	beq	a1,t1,920 <__adddf3+0x234>
     914:	04000813          	li	a6,64
     918:	40b80833          	sub	a6,a6,a1
     91c:	01079833          	sll	a6,a5,a6
     920:	00a86833          	or	a6,a6,a0
     924:	01003833          	snez	a6,a6
     928:	0106e6b3          	or	a3,a3,a6
     92c:	00000593          	li	a1,0
     930:	fb5ff06f          	j	8e4 <__adddf3+0x1f8>
     934:	00a7e6b3          	or	a3,a5,a0
     938:	00d036b3          	snez	a3,a3
     93c:	ff1ff06f          	j	92c <__adddf3+0x240>
     940:	00148693          	addi	a3,s1,1
     944:	7fe6f593          	andi	a1,a3,2046
     948:	08059663          	bnez	a1,9d4 <__adddf3+0x2e8>
     94c:	00a7e6b3          	or	a3,a5,a0
     950:	06049263          	bnez	s1,9b4 <__adddf3+0x2c8>
     954:	44068863          	beqz	a3,da4 <__adddf3+0x6b8>
     958:	00c766b3          	or	a3,a4,a2
     95c:	02068863          	beqz	a3,98c <__adddf3+0x2a0>
     960:	00c50633          	add	a2,a0,a2
     964:	00a636b3          	sltu	a3,a2,a0
     968:	00e78733          	add	a4,a5,a4
     96c:	00d707b3          	add	a5,a4,a3
     970:	00879713          	slli	a4,a5,0x8
     974:	00060513          	mv	a0,a2
     978:	00075a63          	bgez	a4,98c <__adddf3+0x2a0>
     97c:	ff800737          	lui	a4,0xff800
     980:	fff70713          	addi	a4,a4,-1 # ff7fffff <_end+0xff7ead9b>
     984:	00e7f7b3          	and	a5,a5,a4
     988:	00100493          	li	s1,1
     98c:	00757713          	andi	a4,a0,7
     990:	44070863          	beqz	a4,de0 <__adddf3+0x6f4>
     994:	00f57713          	andi	a4,a0,15
     998:	00400693          	li	a3,4
     99c:	44d70263          	beq	a4,a3,de0 <__adddf3+0x6f4>
     9a0:	00450713          	addi	a4,a0,4
     9a4:	00a736b3          	sltu	a3,a4,a0
     9a8:	00d787b3          	add	a5,a5,a3
     9ac:	00070513          	mv	a0,a4
     9b0:	4300006f          	j	de0 <__adddf3+0x6f4>
     9b4:	ec068ee3          	beqz	a3,890 <__adddf3+0x1a4>
     9b8:	00c76633          	or	a2,a4,a2
     9bc:	dc060ae3          	beqz	a2,790 <__adddf3+0xa4>
     9c0:	00000913          	li	s2,0
     9c4:	004007b7          	lui	a5,0x400
     9c8:	00000513          	li	a0,0
     9cc:	7ff00493          	li	s1,2047
     9d0:	4100006f          	j	de0 <__adddf3+0x6f4>
     9d4:	7ff00593          	li	a1,2047
     9d8:	3cb68c63          	beq	a3,a1,db0 <__adddf3+0x6c4>
     9dc:	00c50633          	add	a2,a0,a2
     9e0:	00a63533          	sltu	a0,a2,a0
     9e4:	00e78733          	add	a4,a5,a4
     9e8:	00a70733          	add	a4,a4,a0
     9ec:	01f71513          	slli	a0,a4,0x1f
     9f0:	00165613          	srli	a2,a2,0x1
     9f4:	00c56533          	or	a0,a0,a2
     9f8:	00175793          	srli	a5,a4,0x1
     9fc:	00068493          	mv	s1,a3
     a00:	f8dff06f          	j	98c <__adddf3+0x2a0>
     a04:	0f005c63          	blez	a6,afc <__adddf3+0x410>
     a08:	08089e63          	bnez	a7,aa4 <__adddf3+0x3b8>
     a0c:	00c766b3          	or	a3,a4,a2
     a10:	3a068863          	beqz	a3,dc0 <__adddf3+0x6d4>
     a14:	fff80693          	addi	a3,a6,-1
     a18:	02069063          	bnez	a3,a38 <__adddf3+0x34c>
     a1c:	40c50633          	sub	a2,a0,a2
     a20:	00c536b3          	sltu	a3,a0,a2
     a24:	40e78733          	sub	a4,a5,a4
     a28:	00060513          	mv	a0,a2
     a2c:	40d707b3          	sub	a5,a4,a3
     a30:	00100493          	li	s1,1
     a34:	0540006f          	j	a88 <__adddf3+0x39c>
     a38:	7ff00593          	li	a1,2047
     a3c:	d4b80ae3          	beq	a6,a1,790 <__adddf3+0xa4>
     a40:	03800593          	li	a1,56
     a44:	0ad5c663          	blt	a1,a3,af0 <__adddf3+0x404>
     a48:	01f00593          	li	a1,31
     a4c:	06d5c863          	blt	a1,a3,abc <__adddf3+0x3d0>
     a50:	02000813          	li	a6,32
     a54:	40d80833          	sub	a6,a6,a3
     a58:	00d658b3          	srl	a7,a2,a3
     a5c:	010715b3          	sll	a1,a4,a6
     a60:	01061833          	sll	a6,a2,a6
     a64:	0115e5b3          	or	a1,a1,a7
     a68:	01003833          	snez	a6,a6
     a6c:	0105e633          	or	a2,a1,a6
     a70:	00d756b3          	srl	a3,a4,a3
     a74:	40c50633          	sub	a2,a0,a2
     a78:	00c53733          	sltu	a4,a0,a2
     a7c:	40d786b3          	sub	a3,a5,a3
     a80:	00060513          	mv	a0,a2
     a84:	40e687b3          	sub	a5,a3,a4
     a88:	00879713          	slli	a4,a5,0x8
     a8c:	f00750e3          	bgez	a4,98c <__adddf3+0x2a0>
     a90:	00800437          	lui	s0,0x800
     a94:	fff40413          	addi	s0,s0,-1 # 7fffff <_end+0x7ead9b>
     a98:	0087f433          	and	s0,a5,s0
     a9c:	00050993          	mv	s3,a0
     aa0:	2100006f          	j	cb0 <__adddf3+0x5c4>
     aa4:	7ff00693          	li	a3,2047
     aa8:	eed482e3          	beq	s1,a3,98c <__adddf3+0x2a0>
     aac:	008006b7          	lui	a3,0x800
     ab0:	00d76733          	or	a4,a4,a3
     ab4:	00080693          	mv	a3,a6
     ab8:	f89ff06f          	j	a40 <__adddf3+0x354>
     abc:	fe068593          	addi	a1,a3,-32 # 7fffe0 <_end+0x7ead7c>
     ac0:	02000893          	li	a7,32
     ac4:	00b755b3          	srl	a1,a4,a1
     ac8:	00000813          	li	a6,0
     acc:	01168863          	beq	a3,a7,adc <__adddf3+0x3f0>
     ad0:	04000813          	li	a6,64
     ad4:	40d80833          	sub	a6,a6,a3
     ad8:	01071833          	sll	a6,a4,a6
     adc:	00c86833          	or	a6,a6,a2
     ae0:	01003833          	snez	a6,a6
     ae4:	0105e633          	or	a2,a1,a6
     ae8:	00000693          	li	a3,0
     aec:	f89ff06f          	j	a74 <__adddf3+0x388>
     af0:	00c76633          	or	a2,a4,a2
     af4:	00c03633          	snez	a2,a2
     af8:	ff1ff06f          	j	ae8 <__adddf3+0x3fc>
     afc:	0e080863          	beqz	a6,bec <__adddf3+0x500>
     b00:	40988833          	sub	a6,a7,s1
     b04:	04049263          	bnez	s1,b48 <__adddf3+0x45c>
     b08:	00a7e5b3          	or	a1,a5,a0
     b0c:	2a058e63          	beqz	a1,dc8 <__adddf3+0x6dc>
     b10:	fff80593          	addi	a1,a6,-1
     b14:	00059e63          	bnez	a1,b30 <__adddf3+0x444>
     b18:	40a60533          	sub	a0,a2,a0
     b1c:	40f70733          	sub	a4,a4,a5
     b20:	00a63633          	sltu	a2,a2,a0
     b24:	40c707b3          	sub	a5,a4,a2
     b28:	00068913          	mv	s2,a3
     b2c:	f05ff06f          	j	a30 <__adddf3+0x344>
     b30:	7ff00313          	li	t1,2047
     b34:	02681463          	bne	a6,t1,b5c <__adddf3+0x470>
     b38:	00070793          	mv	a5,a4
     b3c:	00060513          	mv	a0,a2
     b40:	7ff00493          	li	s1,2047
     b44:	0d00006f          	j	c14 <__adddf3+0x528>
     b48:	7ff00593          	li	a1,2047
     b4c:	feb886e3          	beq	a7,a1,b38 <__adddf3+0x44c>
     b50:	008005b7          	lui	a1,0x800
     b54:	00b7e7b3          	or	a5,a5,a1
     b58:	00080593          	mv	a1,a6
     b5c:	03800813          	li	a6,56
     b60:	08b84063          	blt	a6,a1,be0 <__adddf3+0x4f4>
     b64:	01f00813          	li	a6,31
     b68:	04b84263          	blt	a6,a1,bac <__adddf3+0x4c0>
     b6c:	02000313          	li	t1,32
     b70:	40b30333          	sub	t1,t1,a1
     b74:	00b55e33          	srl	t3,a0,a1
     b78:	00679833          	sll	a6,a5,t1
     b7c:	00651333          	sll	t1,a0,t1
     b80:	01c86833          	or	a6,a6,t3
     b84:	00603333          	snez	t1,t1
     b88:	00686533          	or	a0,a6,t1
     b8c:	00b7d5b3          	srl	a1,a5,a1
     b90:	40a60533          	sub	a0,a2,a0
     b94:	40b705b3          	sub	a1,a4,a1
     b98:	00a63633          	sltu	a2,a2,a0
     b9c:	40c587b3          	sub	a5,a1,a2
     ba0:	00088493          	mv	s1,a7
     ba4:	00068913          	mv	s2,a3
     ba8:	ee1ff06f          	j	a88 <__adddf3+0x39c>
     bac:	fe058813          	addi	a6,a1,-32 # 7fffe0 <_end+0x7ead7c>
     bb0:	02000e13          	li	t3,32
     bb4:	0107d833          	srl	a6,a5,a6
     bb8:	00000313          	li	t1,0
     bbc:	01c58863          	beq	a1,t3,bcc <__adddf3+0x4e0>
     bc0:	04000313          	li	t1,64
     bc4:	40b30333          	sub	t1,t1,a1
     bc8:	00679333          	sll	t1,a5,t1
     bcc:	00a36333          	or	t1,t1,a0
     bd0:	00603333          	snez	t1,t1
     bd4:	00686533          	or	a0,a6,t1
     bd8:	00000593          	li	a1,0
     bdc:	fb5ff06f          	j	b90 <__adddf3+0x4a4>
     be0:	00a7e533          	or	a0,a5,a0
     be4:	00a03533          	snez	a0,a0
     be8:	ff1ff06f          	j	bd8 <__adddf3+0x4ec>
     bec:	00148593          	addi	a1,s1,1
     bf0:	7fe5f593          	andi	a1,a1,2046
     bf4:	08059663          	bnez	a1,c80 <__adddf3+0x594>
     bf8:	00a7e833          	or	a6,a5,a0
     bfc:	00c765b3          	or	a1,a4,a2
     c00:	06049063          	bnez	s1,c60 <__adddf3+0x574>
     c04:	00081c63          	bnez	a6,c1c <__adddf3+0x530>
     c08:	10058e63          	beqz	a1,d24 <__adddf3+0x638>
     c0c:	00070793          	mv	a5,a4
     c10:	00060513          	mv	a0,a2
     c14:	00068913          	mv	s2,a3
     c18:	d75ff06f          	j	98c <__adddf3+0x2a0>
     c1c:	d60588e3          	beqz	a1,98c <__adddf3+0x2a0>
     c20:	40c50833          	sub	a6,a0,a2
     c24:	010538b3          	sltu	a7,a0,a6
     c28:	40e785b3          	sub	a1,a5,a4
     c2c:	411585b3          	sub	a1,a1,a7
     c30:	00859893          	slli	a7,a1,0x8
     c34:	0008dc63          	bgez	a7,c4c <__adddf3+0x560>
     c38:	40a60533          	sub	a0,a2,a0
     c3c:	40f70733          	sub	a4,a4,a5
     c40:	00a63633          	sltu	a2,a2,a0
     c44:	40c707b3          	sub	a5,a4,a2
     c48:	fcdff06f          	j	c14 <__adddf3+0x528>
     c4c:	00b86533          	or	a0,a6,a1
     c50:	18050463          	beqz	a0,dd8 <__adddf3+0x6ec>
     c54:	00058793          	mv	a5,a1
     c58:	00080513          	mv	a0,a6
     c5c:	d31ff06f          	j	98c <__adddf3+0x2a0>
     c60:	00081c63          	bnez	a6,c78 <__adddf3+0x58c>
     c64:	d4058ee3          	beqz	a1,9c0 <__adddf3+0x2d4>
     c68:	00070793          	mv	a5,a4
     c6c:	00060513          	mv	a0,a2
     c70:	00068913          	mv	s2,a3
     c74:	b1dff06f          	j	790 <__adddf3+0xa4>
     c78:	b0058ce3          	beqz	a1,790 <__adddf3+0xa4>
     c7c:	d45ff06f          	j	9c0 <__adddf3+0x2d4>
     c80:	40c505b3          	sub	a1,a0,a2
     c84:	00b53833          	sltu	a6,a0,a1
     c88:	40e78433          	sub	s0,a5,a4
     c8c:	41040433          	sub	s0,s0,a6
     c90:	00841813          	slli	a6,s0,0x8
     c94:	00058993          	mv	s3,a1
     c98:	08085063          	bgez	a6,d18 <__adddf3+0x62c>
     c9c:	40a609b3          	sub	s3,a2,a0
     ca0:	40f70433          	sub	s0,a4,a5
     ca4:	01363633          	sltu	a2,a2,s3
     ca8:	40c40433          	sub	s0,s0,a2
     cac:	00068913          	mv	s2,a3
     cb0:	06040e63          	beqz	s0,d2c <__adddf3+0x640>
     cb4:	00040513          	mv	a0,s0
     cb8:	64c040ef          	jal	5304 <__clzsi2>
     cbc:	ff850693          	addi	a3,a0,-8
     cc0:	02000793          	li	a5,32
     cc4:	40d787b3          	sub	a5,a5,a3
     cc8:	00d41433          	sll	s0,s0,a3
     ccc:	00f9d7b3          	srl	a5,s3,a5
     cd0:	0087e7b3          	or	a5,a5,s0
     cd4:	00d99433          	sll	s0,s3,a3
     cd8:	0a96c463          	blt	a3,s1,d80 <__adddf3+0x694>
     cdc:	409686b3          	sub	a3,a3,s1
     ce0:	00168613          	addi	a2,a3,1
     ce4:	01f00713          	li	a4,31
     ce8:	06c74263          	blt	a4,a2,d4c <__adddf3+0x660>
     cec:	02000713          	li	a4,32
     cf0:	40c70733          	sub	a4,a4,a2
     cf4:	00e79533          	sll	a0,a5,a4
     cf8:	00c456b3          	srl	a3,s0,a2
     cfc:	00e41733          	sll	a4,s0,a4
     d00:	00d56533          	or	a0,a0,a3
     d04:	00e03733          	snez	a4,a4
     d08:	00e56533          	or	a0,a0,a4
     d0c:	00c7d7b3          	srl	a5,a5,a2
     d10:	00000493          	li	s1,0
     d14:	c79ff06f          	j	98c <__adddf3+0x2a0>
     d18:	0085e5b3          	or	a1,a1,s0
     d1c:	f8059ae3          	bnez	a1,cb0 <__adddf3+0x5c4>
     d20:	00000493          	li	s1,0
     d24:	00000913          	li	s2,0
     d28:	08c0006f          	j	db4 <__adddf3+0x6c8>
     d2c:	00098513          	mv	a0,s3
     d30:	5d4040ef          	jal	5304 <__clzsi2>
     d34:	01850693          	addi	a3,a0,24
     d38:	01f00793          	li	a5,31
     d3c:	f8d7d2e3          	bge	a5,a3,cc0 <__adddf3+0x5d4>
     d40:	ff850793          	addi	a5,a0,-8
     d44:	00f997b3          	sll	a5,s3,a5
     d48:	f91ff06f          	j	cd8 <__adddf3+0x5ec>
     d4c:	fe168693          	addi	a3,a3,-31
     d50:	00d7d533          	srl	a0,a5,a3
     d54:	02000693          	li	a3,32
     d58:	00000713          	li	a4,0
     d5c:	00d60863          	beq	a2,a3,d6c <__adddf3+0x680>
     d60:	04000713          	li	a4,64
     d64:	40c70733          	sub	a4,a4,a2
     d68:	00e79733          	sll	a4,a5,a4
     d6c:	00e46733          	or	a4,s0,a4
     d70:	00e03733          	snez	a4,a4
     d74:	00e56533          	or	a0,a0,a4
     d78:	00000793          	li	a5,0
     d7c:	f95ff06f          	j	d10 <__adddf3+0x624>
     d80:	ff800737          	lui	a4,0xff800
     d84:	fff70713          	addi	a4,a4,-1 # ff7fffff <_end+0xff7ead9b>
     d88:	40d484b3          	sub	s1,s1,a3
     d8c:	00e7f7b3          	and	a5,a5,a4
     d90:	00040513          	mv	a0,s0
     d94:	bf9ff06f          	j	98c <__adddf3+0x2a0>
     d98:	00070793          	mv	a5,a4
     d9c:	00060513          	mv	a0,a2
     da0:	c5dff06f          	j	9fc <__adddf3+0x310>
     da4:	00070793          	mv	a5,a4
     da8:	00060513          	mv	a0,a2
     dac:	be1ff06f          	j	98c <__adddf3+0x2a0>
     db0:	7ff00493          	li	s1,2047
     db4:	00000793          	li	a5,0
     db8:	00000513          	li	a0,0
     dbc:	0240006f          	j	de0 <__adddf3+0x6f4>
     dc0:	00080493          	mv	s1,a6
     dc4:	bc9ff06f          	j	98c <__adddf3+0x2a0>
     dc8:	00070793          	mv	a5,a4
     dcc:	00060513          	mv	a0,a2
     dd0:	00080493          	mv	s1,a6
     dd4:	e41ff06f          	j	c14 <__adddf3+0x528>
     dd8:	00000793          	li	a5,0
     ddc:	00000913          	li	s2,0
     de0:	00879713          	slli	a4,a5,0x8
     de4:	00075e63          	bgez	a4,e00 <__adddf3+0x714>
     de8:	00148493          	addi	s1,s1,1
     dec:	7ff00713          	li	a4,2047
     df0:	08e48263          	beq	s1,a4,e74 <__adddf3+0x788>
     df4:	ff800737          	lui	a4,0xff800
     df8:	fff70713          	addi	a4,a4,-1 # ff7fffff <_end+0xff7ead9b>
     dfc:	00e7f7b3          	and	a5,a5,a4
     e00:	01d79693          	slli	a3,a5,0x1d
     e04:	00355513          	srli	a0,a0,0x3
     e08:	7ff00713          	li	a4,2047
     e0c:	00a6e6b3          	or	a3,a3,a0
     e10:	0037d793          	srli	a5,a5,0x3
     e14:	00e49e63          	bne	s1,a4,e30 <__adddf3+0x744>
     e18:	00f6e6b3          	or	a3,a3,a5
     e1c:	00000793          	li	a5,0
     e20:	00068863          	beqz	a3,e30 <__adddf3+0x744>
     e24:	000807b7          	lui	a5,0x80
     e28:	00000693          	li	a3,0
     e2c:	00000913          	li	s2,0
     e30:	01449713          	slli	a4,s1,0x14
     e34:	7ff00637          	lui	a2,0x7ff00
     e38:	00c79793          	slli	a5,a5,0xc
     e3c:	00c77733          	and	a4,a4,a2
     e40:	01c12083          	lw	ra,28(sp)
     e44:	01812403          	lw	s0,24(sp)
     e48:	00c7d793          	srli	a5,a5,0xc
     e4c:	00f767b3          	or	a5,a4,a5
     e50:	01f91713          	slli	a4,s2,0x1f
     e54:	00e7e633          	or	a2,a5,a4
     e58:	01412483          	lw	s1,20(sp)
     e5c:	01012903          	lw	s2,16(sp)
     e60:	00c12983          	lw	s3,12(sp)
     e64:	00068513          	mv	a0,a3
     e68:	00060593          	mv	a1,a2
     e6c:	02010113          	addi	sp,sp,32
     e70:	00008067          	ret
     e74:	00000793          	li	a5,0
     e78:	00000513          	li	a0,0
     e7c:	f85ff06f          	j	e00 <__adddf3+0x714>

00000e80 <__divdf3>:
     e80:	fd010113          	addi	sp,sp,-48
     e84:	0145d813          	srli	a6,a1,0x14
     e88:	02912223          	sw	s1,36(sp)
     e8c:	03212023          	sw	s2,32(sp)
     e90:	01312e23          	sw	s3,28(sp)
     e94:	01612823          	sw	s6,16(sp)
     e98:	01712623          	sw	s7,12(sp)
     e9c:	00c59493          	slli	s1,a1,0xc
     ea0:	02112623          	sw	ra,44(sp)
     ea4:	02812423          	sw	s0,40(sp)
     ea8:	01412c23          	sw	s4,24(sp)
     eac:	01512a23          	sw	s5,20(sp)
     eb0:	7ff87813          	andi	a6,a6,2047
     eb4:	00050b13          	mv	s6,a0
     eb8:	00060b93          	mv	s7,a2
     ebc:	00068913          	mv	s2,a3
     ec0:	00c4d493          	srli	s1,s1,0xc
     ec4:	01f5d993          	srli	s3,a1,0x1f
     ec8:	0a080063          	beqz	a6,f68 <__divdf3+0xe8>
     ecc:	7ff00793          	li	a5,2047
     ed0:	10f80063          	beq	a6,a5,fd0 <__divdf3+0x150>
     ed4:	01d55a13          	srli	s4,a0,0x1d
     ed8:	00349493          	slli	s1,s1,0x3
     edc:	009a6a33          	or	s4,s4,s1
     ee0:	008007b7          	lui	a5,0x800
     ee4:	00fa6a33          	or	s4,s4,a5
     ee8:	00351413          	slli	s0,a0,0x3
     eec:	c0180a93          	addi	s5,a6,-1023
     ef0:	00000b13          	li	s6,0
     ef4:	01495713          	srli	a4,s2,0x14
     ef8:	00c91493          	slli	s1,s2,0xc
     efc:	7ff77713          	andi	a4,a4,2047
     f00:	00c4d493          	srli	s1,s1,0xc
     f04:	01f95913          	srli	s2,s2,0x1f
     f08:	10070263          	beqz	a4,100c <__divdf3+0x18c>
     f0c:	7ff00793          	li	a5,2047
     f10:	16f70663          	beq	a4,a5,107c <__divdf3+0x1fc>
     f14:	00349493          	slli	s1,s1,0x3
     f18:	01dbd793          	srli	a5,s7,0x1d
     f1c:	0097e7b3          	or	a5,a5,s1
     f20:	008004b7          	lui	s1,0x800
     f24:	0097e4b3          	or	s1,a5,s1
     f28:	003b9f13          	slli	t5,s7,0x3
     f2c:	c0170713          	addi	a4,a4,-1023
     f30:	00000793          	li	a5,0
     f34:	40ea8833          	sub	a6,s5,a4
     f38:	002b1713          	slli	a4,s6,0x2
     f3c:	00f76733          	or	a4,a4,a5
     f40:	fff70713          	addi	a4,a4,-1
     f44:	00e00693          	li	a3,14
     f48:	0129c633          	xor	a2,s3,s2
     f4c:	16e6e463          	bltu	a3,a4,10b4 <__divdf3+0x234>
     f50:	000126b7          	lui	a3,0x12
     f54:	00271713          	slli	a4,a4,0x2
     f58:	e0468693          	addi	a3,a3,-508 # 11e04 <_ctype_+0x104>
     f5c:	00d70733          	add	a4,a4,a3
     f60:	00072703          	lw	a4,0(a4)
     f64:	00070067          	jr	a4
     f68:	00a4ea33          	or	s4,s1,a0
     f6c:	060a0e63          	beqz	s4,fe8 <__divdf3+0x168>
     f70:	02048e63          	beqz	s1,fac <__divdf3+0x12c>
     f74:	00048513          	mv	a0,s1
     f78:	38c040ef          	jal	5304 <__clzsi2>
     f7c:	ff550793          	addi	a5,a0,-11
     f80:	01d00a13          	li	s4,29
     f84:	ff850713          	addi	a4,a0,-8
     f88:	40fa0a33          	sub	s4,s4,a5
     f8c:	00e494b3          	sll	s1,s1,a4
     f90:	014b5a33          	srl	s4,s6,s4
     f94:	009a6a33          	or	s4,s4,s1
     f98:	00eb14b3          	sll	s1,s6,a4
     f9c:	c0d00813          	li	a6,-1011
     fa0:	40a80ab3          	sub	s5,a6,a0
     fa4:	00048413          	mv	s0,s1
     fa8:	f49ff06f          	j	ef0 <__divdf3+0x70>
     fac:	358040ef          	jal	5304 <__clzsi2>
     fb0:	00050a13          	mv	s4,a0
     fb4:	015a0793          	addi	a5,s4,21
     fb8:	01c00713          	li	a4,28
     fbc:	02050513          	addi	a0,a0,32
     fc0:	fcf750e3          	bge	a4,a5,f80 <__divdf3+0x100>
     fc4:	ff8a0a13          	addi	s4,s4,-8
     fc8:	014b1a33          	sll	s4,s6,s4
     fcc:	fd1ff06f          	j	f9c <__divdf3+0x11c>
     fd0:	00a4ea33          	or	s4,s1,a0
     fd4:	020a1263          	bnez	s4,ff8 <__divdf3+0x178>
     fd8:	00000413          	li	s0,0
     fdc:	7ff00a93          	li	s5,2047
     fe0:	00200b13          	li	s6,2
     fe4:	f11ff06f          	j	ef4 <__divdf3+0x74>
     fe8:	00000413          	li	s0,0
     fec:	00000a93          	li	s5,0
     ff0:	00100b13          	li	s6,1
     ff4:	f01ff06f          	j	ef4 <__divdf3+0x74>
     ff8:	00050413          	mv	s0,a0
     ffc:	00048a13          	mv	s4,s1
    1000:	7ff00a93          	li	s5,2047
    1004:	00300b13          	li	s6,3
    1008:	eedff06f          	j	ef4 <__divdf3+0x74>
    100c:	0174ef33          	or	t5,s1,s7
    1010:	080f0263          	beqz	t5,1094 <__divdf3+0x214>
    1014:	04048063          	beqz	s1,1054 <__divdf3+0x1d4>
    1018:	00048513          	mv	a0,s1
    101c:	2e8040ef          	jal	5304 <__clzsi2>
    1020:	ff550713          	addi	a4,a0,-11
    1024:	01d00793          	li	a5,29
    1028:	ff850693          	addi	a3,a0,-8
    102c:	40e787b3          	sub	a5,a5,a4
    1030:	00d494b3          	sll	s1,s1,a3
    1034:	00fbd7b3          	srl	a5,s7,a5
    1038:	0097e7b3          	or	a5,a5,s1
    103c:	00db94b3          	sll	s1,s7,a3
    1040:	c0d00713          	li	a4,-1011
    1044:	00048f13          	mv	t5,s1
    1048:	40a70733          	sub	a4,a4,a0
    104c:	00078493          	mv	s1,a5
    1050:	ee1ff06f          	j	f30 <__divdf3+0xb0>
    1054:	000b8513          	mv	a0,s7
    1058:	2ac040ef          	jal	5304 <__clzsi2>
    105c:	00050793          	mv	a5,a0
    1060:	01578713          	addi	a4,a5,21 # 800015 <_end+0x7eadb1>
    1064:	01c00693          	li	a3,28
    1068:	02050513          	addi	a0,a0,32
    106c:	fae6dce3          	bge	a3,a4,1024 <__divdf3+0x1a4>
    1070:	ff878793          	addi	a5,a5,-8
    1074:	00fb97b3          	sll	a5,s7,a5
    1078:	fc9ff06f          	j	1040 <__divdf3+0x1c0>
    107c:	0174ef33          	or	t5,s1,s7
    1080:	020f1263          	bnez	t5,10a4 <__divdf3+0x224>
    1084:	00000493          	li	s1,0
    1088:	7ff00713          	li	a4,2047
    108c:	00200793          	li	a5,2
    1090:	ea5ff06f          	j	f34 <__divdf3+0xb4>
    1094:	00000493          	li	s1,0
    1098:	00000713          	li	a4,0
    109c:	00100793          	li	a5,1
    10a0:	e95ff06f          	j	f34 <__divdf3+0xb4>
    10a4:	000b8f13          	mv	t5,s7
    10a8:	7ff00713          	li	a4,2047
    10ac:	00300793          	li	a5,3
    10b0:	e85ff06f          	j	f34 <__divdf3+0xb4>
    10b4:	0144e663          	bltu	s1,s4,10c0 <__divdf3+0x240>
    10b8:	349a1c63          	bne	s4,s1,1410 <__divdf3+0x590>
    10bc:	35e46a63          	bltu	s0,t5,1410 <__divdf3+0x590>
    10c0:	01fa1693          	slli	a3,s4,0x1f
    10c4:	00145793          	srli	a5,s0,0x1
    10c8:	01f41713          	slli	a4,s0,0x1f
    10cc:	001a5a13          	srli	s4,s4,0x1
    10d0:	00f6e433          	or	s0,a3,a5
    10d4:	00849893          	slli	a7,s1,0x8
    10d8:	018f5593          	srli	a1,t5,0x18
    10dc:	0115e5b3          	or	a1,a1,a7
    10e0:	0108d893          	srli	a7,a7,0x10
    10e4:	031a5eb3          	divu	t4,s4,a7
    10e8:	01059313          	slli	t1,a1,0x10
    10ec:	01035313          	srli	t1,t1,0x10
    10f0:	01045793          	srli	a5,s0,0x10
    10f4:	008f1513          	slli	a0,t5,0x8
    10f8:	031a7a33          	remu	s4,s4,a7
    10fc:	000e8693          	mv	a3,t4
    1100:	03d30e33          	mul	t3,t1,t4
    1104:	010a1a13          	slli	s4,s4,0x10
    1108:	0147e7b3          	or	a5,a5,s4
    110c:	01c7fe63          	bgeu	a5,t3,1128 <__divdf3+0x2a8>
    1110:	00f587b3          	add	a5,a1,a5
    1114:	fffe8693          	addi	a3,t4,-1
    1118:	00b7e863          	bltu	a5,a1,1128 <__divdf3+0x2a8>
    111c:	01c7f663          	bgeu	a5,t3,1128 <__divdf3+0x2a8>
    1120:	ffee8693          	addi	a3,t4,-2
    1124:	00b787b3          	add	a5,a5,a1
    1128:	41c787b3          	sub	a5,a5,t3
    112c:	0317df33          	divu	t5,a5,a7
    1130:	01041413          	slli	s0,s0,0x10
    1134:	01045413          	srli	s0,s0,0x10
    1138:	0317f7b3          	remu	a5,a5,a7
    113c:	000f0e13          	mv	t3,t5
    1140:	03e30eb3          	mul	t4,t1,t5
    1144:	01079793          	slli	a5,a5,0x10
    1148:	00f467b3          	or	a5,s0,a5
    114c:	01d7fe63          	bgeu	a5,t4,1168 <__divdf3+0x2e8>
    1150:	00f587b3          	add	a5,a1,a5
    1154:	ffff0e13          	addi	t3,t5,-1
    1158:	00b7e863          	bltu	a5,a1,1168 <__divdf3+0x2e8>
    115c:	01d7f663          	bgeu	a5,t4,1168 <__divdf3+0x2e8>
    1160:	ffef0e13          	addi	t3,t5,-2
    1164:	00b787b3          	add	a5,a5,a1
    1168:	01069693          	slli	a3,a3,0x10
    116c:	00010437          	lui	s0,0x10
    1170:	01c6e2b3          	or	t0,a3,t3
    1174:	fff40e13          	addi	t3,s0,-1 # ffff <_realloc_r+0x4b>
    1178:	01c2f6b3          	and	a3,t0,t3
    117c:	0102df93          	srli	t6,t0,0x10
    1180:	01c57e33          	and	t3,a0,t3
    1184:	41d787b3          	sub	a5,a5,t4
    1188:	01055e93          	srli	t4,a0,0x10
    118c:	02de03b3          	mul	t2,t3,a3
    1190:	03cf84b3          	mul	s1,t6,t3
    1194:	02de86b3          	mul	a3,t4,a3
    1198:	00968f33          	add	t5,a3,s1
    119c:	0103d693          	srli	a3,t2,0x10
    11a0:	01e686b3          	add	a3,a3,t5
    11a4:	03df8fb3          	mul	t6,t6,t4
    11a8:	0096f463          	bgeu	a3,s1,11b0 <__divdf3+0x330>
    11ac:	008f8fb3          	add	t6,t6,s0
    11b0:	0106df13          	srli	t5,a3,0x10
    11b4:	01ff0f33          	add	t5,t5,t6
    11b8:	00010fb7          	lui	t6,0x10
    11bc:	ffff8f93          	addi	t6,t6,-1 # ffff <_realloc_r+0x4b>
    11c0:	01f6f6b3          	and	a3,a3,t6
    11c4:	01069693          	slli	a3,a3,0x10
    11c8:	01f3f3b3          	and	t2,t2,t6
    11cc:	007686b3          	add	a3,a3,t2
    11d0:	01e7e863          	bltu	a5,t5,11e0 <__divdf3+0x360>
    11d4:	00028493          	mv	s1,t0
    11d8:	05e79863          	bne	a5,t5,1228 <__divdf3+0x3a8>
    11dc:	04d77663          	bgeu	a4,a3,1228 <__divdf3+0x3a8>
    11e0:	00a70fb3          	add	t6,a4,a0
    11e4:	00efb3b3          	sltu	t2,t6,a4
    11e8:	00b38433          	add	s0,t2,a1
    11ec:	008787b3          	add	a5,a5,s0
    11f0:	fff28493          	addi	s1,t0,-1 # 547 <memset+0xb3>
    11f4:	000f8713          	mv	a4,t6
    11f8:	00f5e663          	bltu	a1,a5,1204 <__divdf3+0x384>
    11fc:	02f59663          	bne	a1,a5,1228 <__divdf3+0x3a8>
    1200:	02039463          	bnez	t2,1228 <__divdf3+0x3a8>
    1204:	01e7e663          	bltu	a5,t5,1210 <__divdf3+0x390>
    1208:	02ff1063          	bne	t5,a5,1228 <__divdf3+0x3a8>
    120c:	00dffe63          	bgeu	t6,a3,1228 <__divdf3+0x3a8>
    1210:	01f50fb3          	add	t6,a0,t6
    1214:	000f8713          	mv	a4,t6
    1218:	00afbfb3          	sltu	t6,t6,a0
    121c:	00bf8fb3          	add	t6,t6,a1
    1220:	ffe28493          	addi	s1,t0,-2
    1224:	01f787b3          	add	a5,a5,t6
    1228:	40d706b3          	sub	a3,a4,a3
    122c:	41e787b3          	sub	a5,a5,t5
    1230:	00d73733          	sltu	a4,a4,a3
    1234:	40e787b3          	sub	a5,a5,a4
    1238:	fff00f13          	li	t5,-1
    123c:	12f58663          	beq	a1,a5,1368 <__divdf3+0x4e8>
    1240:	0317dfb3          	divu	t6,a5,a7
    1244:	0106d713          	srli	a4,a3,0x10
    1248:	0317f7b3          	remu	a5,a5,a7
    124c:	03f30f33          	mul	t5,t1,t6
    1250:	01079793          	slli	a5,a5,0x10
    1254:	00f767b3          	or	a5,a4,a5
    1258:	000f8713          	mv	a4,t6
    125c:	01e7fe63          	bgeu	a5,t5,1278 <__divdf3+0x3f8>
    1260:	00f587b3          	add	a5,a1,a5
    1264:	ffff8713          	addi	a4,t6,-1
    1268:	00b7e863          	bltu	a5,a1,1278 <__divdf3+0x3f8>
    126c:	01e7f663          	bgeu	a5,t5,1278 <__divdf3+0x3f8>
    1270:	ffef8713          	addi	a4,t6,-2
    1274:	00b787b3          	add	a5,a5,a1
    1278:	41e787b3          	sub	a5,a5,t5
    127c:	0317df33          	divu	t5,a5,a7
    1280:	01069693          	slli	a3,a3,0x10
    1284:	0106d693          	srli	a3,a3,0x10
    1288:	0317f7b3          	remu	a5,a5,a7
    128c:	000f0893          	mv	a7,t5
    1290:	03e30333          	mul	t1,t1,t5
    1294:	01079793          	slli	a5,a5,0x10
    1298:	00f6e7b3          	or	a5,a3,a5
    129c:	0067fe63          	bgeu	a5,t1,12b8 <__divdf3+0x438>
    12a0:	00f587b3          	add	a5,a1,a5
    12a4:	ffff0893          	addi	a7,t5,-1
    12a8:	00b7e863          	bltu	a5,a1,12b8 <__divdf3+0x438>
    12ac:	0067f663          	bgeu	a5,t1,12b8 <__divdf3+0x438>
    12b0:	ffef0893          	addi	a7,t5,-2
    12b4:	00b787b3          	add	a5,a5,a1
    12b8:	01071693          	slli	a3,a4,0x10
    12bc:	0116e6b3          	or	a3,a3,a7
    12c0:	01069713          	slli	a4,a3,0x10
    12c4:	01075713          	srli	a4,a4,0x10
    12c8:	406787b3          	sub	a5,a5,t1
    12cc:	0106d313          	srli	t1,a3,0x10
    12d0:	03c70f33          	mul	t5,a4,t3
    12d4:	03c30e33          	mul	t3,t1,t3
    12d8:	026e8333          	mul	t1,t4,t1
    12dc:	02ee8eb3          	mul	t4,t4,a4
    12e0:	010f5713          	srli	a4,t5,0x10
    12e4:	01ce8eb3          	add	t4,t4,t3
    12e8:	01d70733          	add	a4,a4,t4
    12ec:	01c77663          	bgeu	a4,t3,12f8 <__divdf3+0x478>
    12f0:	000108b7          	lui	a7,0x10
    12f4:	01130333          	add	t1,t1,a7
    12f8:	01075893          	srli	a7,a4,0x10
    12fc:	006888b3          	add	a7,a7,t1
    1300:	00010337          	lui	t1,0x10
    1304:	fff30313          	addi	t1,t1,-1 # ffff <_realloc_r+0x4b>
    1308:	00677733          	and	a4,a4,t1
    130c:	01071713          	slli	a4,a4,0x10
    1310:	006f7f33          	and	t5,t5,t1
    1314:	01e70733          	add	a4,a4,t5
    1318:	0117e863          	bltu	a5,a7,1328 <__divdf3+0x4a8>
    131c:	23179c63          	bne	a5,a7,1554 <__divdf3+0x6d4>
    1320:	00068f13          	mv	t5,a3
    1324:	04070263          	beqz	a4,1368 <__divdf3+0x4e8>
    1328:	00f587b3          	add	a5,a1,a5
    132c:	fff68f13          	addi	t5,a3,-1
    1330:	00078313          	mv	t1,a5
    1334:	02b7e463          	bltu	a5,a1,135c <__divdf3+0x4dc>
    1338:	0117e663          	bltu	a5,a7,1344 <__divdf3+0x4c4>
    133c:	21179a63          	bne	a5,a7,1550 <__divdf3+0x6d0>
    1340:	02e57063          	bgeu	a0,a4,1360 <__divdf3+0x4e0>
    1344:	ffe68f13          	addi	t5,a3,-2
    1348:	00151693          	slli	a3,a0,0x1
    134c:	00a6b333          	sltu	t1,a3,a0
    1350:	00b30333          	add	t1,t1,a1
    1354:	00678333          	add	t1,a5,t1
    1358:	00068513          	mv	a0,a3
    135c:	01131463          	bne	t1,a7,1364 <__divdf3+0x4e4>
    1360:	00a70463          	beq	a4,a0,1368 <__divdf3+0x4e8>
    1364:	001f6f13          	ori	t5,t5,1
    1368:	3ff80713          	addi	a4,a6,1023
    136c:	10e05263          	blez	a4,1470 <__divdf3+0x5f0>
    1370:	007f7793          	andi	a5,t5,7
    1374:	02078063          	beqz	a5,1394 <__divdf3+0x514>
    1378:	00ff7793          	andi	a5,t5,15
    137c:	00400693          	li	a3,4
    1380:	00d78a63          	beq	a5,a3,1394 <__divdf3+0x514>
    1384:	004f0793          	addi	a5,t5,4
    1388:	01e7b6b3          	sltu	a3,a5,t5
    138c:	00d484b3          	add	s1,s1,a3
    1390:	00078f13          	mv	t5,a5
    1394:	00749793          	slli	a5,s1,0x7
    1398:	0007da63          	bgez	a5,13ac <__divdf3+0x52c>
    139c:	ff0007b7          	lui	a5,0xff000
    13a0:	fff78793          	addi	a5,a5,-1 # feffffff <_end+0xfefead9b>
    13a4:	00f4f4b3          	and	s1,s1,a5
    13a8:	40080713          	addi	a4,a6,1024
    13ac:	7fe00793          	li	a5,2046
    13b0:	08e7ca63          	blt	a5,a4,1444 <__divdf3+0x5c4>
    13b4:	003f5f13          	srli	t5,t5,0x3
    13b8:	01d49793          	slli	a5,s1,0x1d
    13bc:	01e7ef33          	or	t5,a5,t5
    13c0:	0034d513          	srli	a0,s1,0x3
    13c4:	00c51513          	slli	a0,a0,0xc
    13c8:	02c12083          	lw	ra,44(sp)
    13cc:	02812403          	lw	s0,40(sp)
    13d0:	00c55513          	srli	a0,a0,0xc
    13d4:	01471713          	slli	a4,a4,0x14
    13d8:	00a76733          	or	a4,a4,a0
    13dc:	01f61613          	slli	a2,a2,0x1f
    13e0:	00c767b3          	or	a5,a4,a2
    13e4:	02412483          	lw	s1,36(sp)
    13e8:	02012903          	lw	s2,32(sp)
    13ec:	01c12983          	lw	s3,28(sp)
    13f0:	01812a03          	lw	s4,24(sp)
    13f4:	01412a83          	lw	s5,20(sp)
    13f8:	01012b03          	lw	s6,16(sp)
    13fc:	00c12b83          	lw	s7,12(sp)
    1400:	000f0513          	mv	a0,t5
    1404:	00078593          	mv	a1,a5
    1408:	03010113          	addi	sp,sp,48
    140c:	00008067          	ret
    1410:	fff80813          	addi	a6,a6,-1
    1414:	00000713          	li	a4,0
    1418:	cbdff06f          	j	10d4 <__divdf3+0x254>
    141c:	00098613          	mv	a2,s3
    1420:	000a0493          	mv	s1,s4
    1424:	00040f13          	mv	t5,s0
    1428:	000b0793          	mv	a5,s6
    142c:	00300713          	li	a4,3
    1430:	0ee78863          	beq	a5,a4,1520 <__divdf3+0x6a0>
    1434:	00100713          	li	a4,1
    1438:	0ee78e63          	beq	a5,a4,1534 <__divdf3+0x6b4>
    143c:	00200713          	li	a4,2
    1440:	f2e794e3          	bne	a5,a4,1368 <__divdf3+0x4e8>
    1444:	00000513          	li	a0,0
    1448:	00000f13          	li	t5,0
    144c:	7ff00713          	li	a4,2047
    1450:	f75ff06f          	j	13c4 <__divdf3+0x544>
    1454:	00090613          	mv	a2,s2
    1458:	fd5ff06f          	j	142c <__divdf3+0x5ac>
    145c:	000804b7          	lui	s1,0x80
    1460:	00000f13          	li	t5,0
    1464:	00000613          	li	a2,0
    1468:	00300793          	li	a5,3
    146c:	fc1ff06f          	j	142c <__divdf3+0x5ac>
    1470:	00100513          	li	a0,1
    1474:	40e50533          	sub	a0,a0,a4
    1478:	03800793          	li	a5,56
    147c:	0aa7cc63          	blt	a5,a0,1534 <__divdf3+0x6b4>
    1480:	01f00793          	li	a5,31
    1484:	06a7c463          	blt	a5,a0,14ec <__divdf3+0x66c>
    1488:	41e80813          	addi	a6,a6,1054
    148c:	010497b3          	sll	a5,s1,a6
    1490:	00af5733          	srl	a4,t5,a0
    1494:	010f1833          	sll	a6,t5,a6
    1498:	00e7e7b3          	or	a5,a5,a4
    149c:	01003833          	snez	a6,a6
    14a0:	0107e7b3          	or	a5,a5,a6
    14a4:	00a4d533          	srl	a0,s1,a0
    14a8:	0077f713          	andi	a4,a5,7
    14ac:	02070063          	beqz	a4,14cc <__divdf3+0x64c>
    14b0:	00f7f713          	andi	a4,a5,15
    14b4:	00400693          	li	a3,4
    14b8:	00d70a63          	beq	a4,a3,14cc <__divdf3+0x64c>
    14bc:	00478713          	addi	a4,a5,4
    14c0:	00f736b3          	sltu	a3,a4,a5
    14c4:	00d50533          	add	a0,a0,a3
    14c8:	00070793          	mv	a5,a4
    14cc:	00851713          	slli	a4,a0,0x8
    14d0:	06074863          	bltz	a4,1540 <__divdf3+0x6c0>
    14d4:	01d51f13          	slli	t5,a0,0x1d
    14d8:	0037d793          	srli	a5,a5,0x3
    14dc:	00ff6f33          	or	t5,t5,a5
    14e0:	00355513          	srli	a0,a0,0x3
    14e4:	00000713          	li	a4,0
    14e8:	eddff06f          	j	13c4 <__divdf3+0x544>
    14ec:	fe100793          	li	a5,-31
    14f0:	40e787b3          	sub	a5,a5,a4
    14f4:	02000693          	li	a3,32
    14f8:	00f4d7b3          	srl	a5,s1,a5
    14fc:	00000713          	li	a4,0
    1500:	00d50663          	beq	a0,a3,150c <__divdf3+0x68c>
    1504:	43e80713          	addi	a4,a6,1086
    1508:	00e49733          	sll	a4,s1,a4
    150c:	01e76733          	or	a4,a4,t5
    1510:	00e03733          	snez	a4,a4
    1514:	00e7e7b3          	or	a5,a5,a4
    1518:	00000513          	li	a0,0
    151c:	f8dff06f          	j	14a8 <__divdf3+0x628>
    1520:	00080537          	lui	a0,0x80
    1524:	00000f13          	li	t5,0
    1528:	7ff00713          	li	a4,2047
    152c:	00000613          	li	a2,0
    1530:	e95ff06f          	j	13c4 <__divdf3+0x544>
    1534:	00000513          	li	a0,0
    1538:	00000f13          	li	t5,0
    153c:	fa9ff06f          	j	14e4 <__divdf3+0x664>
    1540:	00000513          	li	a0,0
    1544:	00000f13          	li	t5,0
    1548:	00100713          	li	a4,1
    154c:	e79ff06f          	j	13c4 <__divdf3+0x544>
    1550:	000f0693          	mv	a3,t5
    1554:	00068f13          	mv	t5,a3
    1558:	e0dff06f          	j	1364 <__divdf3+0x4e4>

0000155c <__eqdf2>:
    155c:	0145d713          	srli	a4,a1,0x14
    1560:	001007b7          	lui	a5,0x100
    1564:	fff78793          	addi	a5,a5,-1 # fffff <_end+0xead9b>
    1568:	0146d813          	srli	a6,a3,0x14
    156c:	00050313          	mv	t1,a0
    1570:	00050e93          	mv	t4,a0
    1574:	7ff77713          	andi	a4,a4,2047
    1578:	7ff00513          	li	a0,2047
    157c:	00b7f8b3          	and	a7,a5,a1
    1580:	00060f13          	mv	t5,a2
    1584:	00d7f7b3          	and	a5,a5,a3
    1588:	01f5d593          	srli	a1,a1,0x1f
    158c:	7ff87813          	andi	a6,a6,2047
    1590:	01f6d693          	srli	a3,a3,0x1f
    1594:	00a71c63          	bne	a4,a0,15ac <__eqdf2+0x50>
    1598:	0068ee33          	or	t3,a7,t1
    159c:	00100513          	li	a0,1
    15a0:	000e1463          	bnez	t3,15a8 <__eqdf2+0x4c>
    15a4:	00e80663          	beq	a6,a4,15b0 <__eqdf2+0x54>
    15a8:	00008067          	ret
    15ac:	00a81863          	bne	a6,a0,15bc <__eqdf2+0x60>
    15b0:	00c7e633          	or	a2,a5,a2
    15b4:	00100513          	li	a0,1
    15b8:	fe0618e3          	bnez	a2,15a8 <__eqdf2+0x4c>
    15bc:	00100513          	li	a0,1
    15c0:	ff0714e3          	bne	a4,a6,15a8 <__eqdf2+0x4c>
    15c4:	fef892e3          	bne	a7,a5,15a8 <__eqdf2+0x4c>
    15c8:	ffee90e3          	bne	t4,t5,15a8 <__eqdf2+0x4c>
    15cc:	00d58a63          	beq	a1,a3,15e0 <__eqdf2+0x84>
    15d0:	fc071ce3          	bnez	a4,15a8 <__eqdf2+0x4c>
    15d4:	0068e8b3          	or	a7,a7,t1
    15d8:	01103533          	snez	a0,a7
    15dc:	00008067          	ret
    15e0:	00000513          	li	a0,0
    15e4:	00008067          	ret

000015e8 <__gedf2>:
    15e8:	0146d793          	srli	a5,a3,0x14
    15ec:	0145d893          	srli	a7,a1,0x14
    15f0:	00100737          	lui	a4,0x100
    15f4:	fff70713          	addi	a4,a4,-1 # fffff <_end+0xead9b>
    15f8:	00050813          	mv	a6,a0
    15fc:	00050e13          	mv	t3,a0
    1600:	7ff8f893          	andi	a7,a7,2047
    1604:	7ff7f513          	andi	a0,a5,2047
    1608:	7ff00793          	li	a5,2047
    160c:	00b77333          	and	t1,a4,a1
    1610:	00060e93          	mv	t4,a2
    1614:	00d77733          	and	a4,a4,a3
    1618:	01f5d593          	srli	a1,a1,0x1f
    161c:	01f6d693          	srli	a3,a3,0x1f
    1620:	00f89663          	bne	a7,a5,162c <__gedf2+0x44>
    1624:	010367b3          	or	a5,t1,a6
    1628:	06079c63          	bnez	a5,16a0 <__gedf2+0xb8>
    162c:	7ff00793          	li	a5,2047
    1630:	00f51663          	bne	a0,a5,163c <__gedf2+0x54>
    1634:	00c767b3          	or	a5,a4,a2
    1638:	06079463          	bnez	a5,16a0 <__gedf2+0xb8>
    163c:	00000793          	li	a5,0
    1640:	00089663          	bnez	a7,164c <__gedf2+0x64>
    1644:	01036833          	or	a6,t1,a6
    1648:	00183793          	seqz	a5,a6
    164c:	04051e63          	bnez	a0,16a8 <__gedf2+0xc0>
    1650:	00c76633          	or	a2,a4,a2
    1654:	00078c63          	beqz	a5,166c <__gedf2+0x84>
    1658:	02060063          	beqz	a2,1678 <__gedf2+0x90>
    165c:	00100513          	li	a0,1
    1660:	00069c63          	bnez	a3,1678 <__gedf2+0x90>
    1664:	fff00513          	li	a0,-1
    1668:	00008067          	ret
    166c:	04061063          	bnez	a2,16ac <__gedf2+0xc4>
    1670:	fff00513          	li	a0,-1
    1674:	04058463          	beqz	a1,16bc <__gedf2+0xd4>
    1678:	00008067          	ret
    167c:	fea8c0e3          	blt	a7,a0,165c <__gedf2+0x74>
    1680:	fe6768e3          	bltu	a4,t1,1670 <__gedf2+0x88>
    1684:	00e31863          	bne	t1,a4,1694 <__gedf2+0xac>
    1688:	ffcee4e3          	bltu	t4,t3,1670 <__gedf2+0x88>
    168c:	00000513          	li	a0,0
    1690:	ffde74e3          	bgeu	t3,t4,1678 <__gedf2+0x90>
    1694:	00100513          	li	a0,1
    1698:	fe0590e3          	bnez	a1,1678 <__gedf2+0x90>
    169c:	fc9ff06f          	j	1664 <__gedf2+0x7c>
    16a0:	ffe00513          	li	a0,-2
    16a4:	00008067          	ret
    16a8:	fa079ae3          	bnez	a5,165c <__gedf2+0x74>
    16ac:	fcb692e3          	bne	a3,a1,1670 <__gedf2+0x88>
    16b0:	fd1556e3          	bge	a0,a7,167c <__gedf2+0x94>
    16b4:	fff00513          	li	a0,-1
    16b8:	fc0690e3          	bnez	a3,1678 <__gedf2+0x90>
    16bc:	00100513          	li	a0,1
    16c0:	00008067          	ret

000016c4 <__ledf2>:
    16c4:	0146d793          	srli	a5,a3,0x14
    16c8:	0145d893          	srli	a7,a1,0x14
    16cc:	00100737          	lui	a4,0x100
    16d0:	fff70713          	addi	a4,a4,-1 # fffff <_end+0xead9b>
    16d4:	00050813          	mv	a6,a0
    16d8:	00050e13          	mv	t3,a0
    16dc:	7ff8f893          	andi	a7,a7,2047
    16e0:	7ff7f513          	andi	a0,a5,2047
    16e4:	7ff00793          	li	a5,2047
    16e8:	00b77333          	and	t1,a4,a1
    16ec:	00060e93          	mv	t4,a2
    16f0:	00d77733          	and	a4,a4,a3
    16f4:	01f5d593          	srli	a1,a1,0x1f
    16f8:	01f6d693          	srli	a3,a3,0x1f
    16fc:	00f89663          	bne	a7,a5,1708 <__ledf2+0x44>
    1700:	010367b3          	or	a5,t1,a6
    1704:	06079c63          	bnez	a5,177c <__ledf2+0xb8>
    1708:	7ff00793          	li	a5,2047
    170c:	00f51663          	bne	a0,a5,1718 <__ledf2+0x54>
    1710:	00c767b3          	or	a5,a4,a2
    1714:	06079463          	bnez	a5,177c <__ledf2+0xb8>
    1718:	00000793          	li	a5,0
    171c:	00089663          	bnez	a7,1728 <__ledf2+0x64>
    1720:	01036833          	or	a6,t1,a6
    1724:	00183793          	seqz	a5,a6
    1728:	04051e63          	bnez	a0,1784 <__ledf2+0xc0>
    172c:	00c76633          	or	a2,a4,a2
    1730:	00078c63          	beqz	a5,1748 <__ledf2+0x84>
    1734:	02060063          	beqz	a2,1754 <__ledf2+0x90>
    1738:	00100513          	li	a0,1
    173c:	00069c63          	bnez	a3,1754 <__ledf2+0x90>
    1740:	fff00513          	li	a0,-1
    1744:	00008067          	ret
    1748:	04061063          	bnez	a2,1788 <__ledf2+0xc4>
    174c:	fff00513          	li	a0,-1
    1750:	04058463          	beqz	a1,1798 <__ledf2+0xd4>
    1754:	00008067          	ret
    1758:	fea8c0e3          	blt	a7,a0,1738 <__ledf2+0x74>
    175c:	fe6768e3          	bltu	a4,t1,174c <__ledf2+0x88>
    1760:	00e31863          	bne	t1,a4,1770 <__ledf2+0xac>
    1764:	ffcee4e3          	bltu	t4,t3,174c <__ledf2+0x88>
    1768:	00000513          	li	a0,0
    176c:	ffde74e3          	bgeu	t3,t4,1754 <__ledf2+0x90>
    1770:	00100513          	li	a0,1
    1774:	fe0590e3          	bnez	a1,1754 <__ledf2+0x90>
    1778:	fc9ff06f          	j	1740 <__ledf2+0x7c>
    177c:	00200513          	li	a0,2
    1780:	00008067          	ret
    1784:	fa079ae3          	bnez	a5,1738 <__ledf2+0x74>
    1788:	fcb692e3          	bne	a3,a1,174c <__ledf2+0x88>
    178c:	fd1556e3          	bge	a0,a7,1758 <__ledf2+0x94>
    1790:	fff00513          	li	a0,-1
    1794:	fc0690e3          	bnez	a3,1754 <__ledf2+0x90>
    1798:	00100513          	li	a0,1
    179c:	00008067          	ret

000017a0 <__muldf3>:
    17a0:	fd010113          	addi	sp,sp,-48
    17a4:	01512a23          	sw	s5,20(sp)
    17a8:	0145da93          	srli	s5,a1,0x14
    17ac:	02812423          	sw	s0,40(sp)
    17b0:	02912223          	sw	s1,36(sp)
    17b4:	01312e23          	sw	s3,28(sp)
    17b8:	01412c23          	sw	s4,24(sp)
    17bc:	01612823          	sw	s6,16(sp)
    17c0:	00c59493          	slli	s1,a1,0xc
    17c4:	02112623          	sw	ra,44(sp)
    17c8:	03212023          	sw	s2,32(sp)
    17cc:	01712623          	sw	s7,12(sp)
    17d0:	7ffafa93          	andi	s5,s5,2047
    17d4:	00050413          	mv	s0,a0
    17d8:	00060b13          	mv	s6,a2
    17dc:	00068993          	mv	s3,a3
    17e0:	00c4d493          	srli	s1,s1,0xc
    17e4:	01f5da13          	srli	s4,a1,0x1f
    17e8:	240a8e63          	beqz	s5,1a44 <__muldf3+0x2a4>
    17ec:	7ff00793          	li	a5,2047
    17f0:	2cfa8063          	beq	s5,a5,1ab0 <__muldf3+0x310>
    17f4:	00349493          	slli	s1,s1,0x3
    17f8:	01d55793          	srli	a5,a0,0x1d
    17fc:	0097e7b3          	or	a5,a5,s1
    1800:	008004b7          	lui	s1,0x800
    1804:	0097e4b3          	or	s1,a5,s1
    1808:	00351913          	slli	s2,a0,0x3
    180c:	c01a8a93          	addi	s5,s5,-1023
    1810:	00000b93          	li	s7,0
    1814:	0149d713          	srli	a4,s3,0x14
    1818:	00c99413          	slli	s0,s3,0xc
    181c:	7ff77713          	andi	a4,a4,2047
    1820:	00c45413          	srli	s0,s0,0xc
    1824:	01f9d993          	srli	s3,s3,0x1f
    1828:	2c070063          	beqz	a4,1ae8 <__muldf3+0x348>
    182c:	7ff00793          	li	a5,2047
    1830:	32f70463          	beq	a4,a5,1b58 <__muldf3+0x3b8>
    1834:	00341413          	slli	s0,s0,0x3
    1838:	01db5793          	srli	a5,s6,0x1d
    183c:	0087e7b3          	or	a5,a5,s0
    1840:	00800437          	lui	s0,0x800
    1844:	0087e433          	or	s0,a5,s0
    1848:	c0170693          	addi	a3,a4,-1023
    184c:	003b1793          	slli	a5,s6,0x3
    1850:	00000713          	li	a4,0
    1854:	00da8ab3          	add	s5,s5,a3
    1858:	002b9693          	slli	a3,s7,0x2
    185c:	00e6e6b3          	or	a3,a3,a4
    1860:	00a00613          	li	a2,10
    1864:	001a8513          	addi	a0,s5,1
    1868:	40d64663          	blt	a2,a3,1c74 <__muldf3+0x4d4>
    186c:	00200613          	li	a2,2
    1870:	013a45b3          	xor	a1,s4,s3
    1874:	30d64e63          	blt	a2,a3,1b90 <__muldf3+0x3f0>
    1878:	fff68693          	addi	a3,a3,-1
    187c:	00100613          	li	a2,1
    1880:	32d67a63          	bgeu	a2,a3,1bb4 <__muldf3+0x414>
    1884:	00010337          	lui	t1,0x10
    1888:	fff30e13          	addi	t3,t1,-1 # ffff <_realloc_r+0x4b>
    188c:	01095713          	srli	a4,s2,0x10
    1890:	0107d893          	srli	a7,a5,0x10
    1894:	01c97933          	and	s2,s2,t3
    1898:	01c7ff33          	and	t5,a5,t3
    189c:	03e907b3          	mul	a5,s2,t5
    18a0:	03e70eb3          	mul	t4,a4,t5
    18a4:	0107d813          	srli	a6,a5,0x10
    18a8:	03288633          	mul	a2,a7,s2
    18ac:	01d60633          	add	a2,a2,t4
    18b0:	00c80833          	add	a6,a6,a2
    18b4:	031706b3          	mul	a3,a4,a7
    18b8:	01d87463          	bgeu	a6,t4,18c0 <__muldf3+0x120>
    18bc:	006686b3          	add	a3,a3,t1
    18c0:	01085293          	srli	t0,a6,0x10
    18c4:	01c87833          	and	a6,a6,t3
    18c8:	01c7f7b3          	and	a5,a5,t3
    18cc:	01045613          	srli	a2,s0,0x10
    18d0:	01c47e33          	and	t3,s0,t3
    18d4:	01081813          	slli	a6,a6,0x10
    18d8:	00f80833          	add	a6,a6,a5
    18dc:	03c90eb3          	mul	t4,s2,t3
    18e0:	03c707b3          	mul	a5,a4,t3
    18e4:	03260933          	mul	s2,a2,s2
    18e8:	02c70333          	mul	t1,a4,a2
    18ec:	00f90933          	add	s2,s2,a5
    18f0:	010ed713          	srli	a4,t4,0x10
    18f4:	01270733          	add	a4,a4,s2
    18f8:	00f77663          	bgeu	a4,a5,1904 <__muldf3+0x164>
    18fc:	000107b7          	lui	a5,0x10
    1900:	00f30333          	add	t1,t1,a5
    1904:	00010437          	lui	s0,0x10
    1908:	01075793          	srli	a5,a4,0x10
    190c:	fff40f93          	addi	t6,s0,-1 # ffff <_realloc_r+0x4b>
    1910:	00678333          	add	t1,a5,t1
    1914:	01f777b3          	and	a5,a4,t6
    1918:	01fefeb3          	and	t4,t4,t6
    191c:	01079793          	slli	a5,a5,0x10
    1920:	01f4ffb3          	and	t6,s1,t6
    1924:	01d787b3          	add	a5,a5,t4
    1928:	0104de93          	srli	t4,s1,0x10
    192c:	03ff03b3          	mul	t2,t5,t6
    1930:	00f282b3          	add	t0,t0,a5
    1934:	03ee8f33          	mul	t5,t4,t5
    1938:	0103d713          	srli	a4,t2,0x10
    193c:	03d884b3          	mul	s1,a7,t4
    1940:	03f888b3          	mul	a7,a7,t6
    1944:	01e888b3          	add	a7,a7,t5
    1948:	01170733          	add	a4,a4,a7
    194c:	01e77463          	bgeu	a4,t5,1954 <__muldf3+0x1b4>
    1950:	008484b3          	add	s1,s1,s0
    1954:	01075f13          	srli	t5,a4,0x10
    1958:	009f0f33          	add	t5,t5,s1
    195c:	000104b7          	lui	s1,0x10
    1960:	fff48413          	addi	s0,s1,-1 # ffff <_realloc_r+0x4b>
    1964:	00877733          	and	a4,a4,s0
    1968:	0083f3b3          	and	t2,t2,s0
    196c:	01071713          	slli	a4,a4,0x10
    1970:	007708b3          	add	a7,a4,t2
    1974:	03fe03b3          	mul	t2,t3,t6
    1978:	03ce8e33          	mul	t3,t4,t3
    197c:	03d60eb3          	mul	t4,a2,t4
    1980:	03f60633          	mul	a2,a2,t6
    1984:	0103df93          	srli	t6,t2,0x10
    1988:	01c60633          	add	a2,a2,t3
    198c:	00cf8fb3          	add	t6,t6,a2
    1990:	01cff463          	bgeu	t6,t3,1998 <__muldf3+0x1f8>
    1994:	009e8eb3          	add	t4,t4,s1
    1998:	008ff733          	and	a4,t6,s0
    199c:	0083f3b3          	and	t2,t2,s0
    19a0:	01071713          	slli	a4,a4,0x10
    19a4:	005686b3          	add	a3,a3,t0
    19a8:	00770733          	add	a4,a4,t2
    19ac:	00670333          	add	t1,a4,t1
    19b0:	00f6b7b3          	sltu	a5,a3,a5
    19b4:	00f307b3          	add	a5,t1,a5
    19b8:	00e33633          	sltu	a2,t1,a4
    19bc:	011688b3          	add	a7,a3,a7
    19c0:	0067b333          	sltu	t1,a5,t1
    19c4:	00666633          	or	a2,a2,t1
    19c8:	00d8b6b3          	sltu	a3,a7,a3
    19cc:	01e78333          	add	t1,a5,t5
    19d0:	00d306b3          	add	a3,t1,a3
    19d4:	00f33733          	sltu	a4,t1,a5
    19d8:	010fdf93          	srli	t6,t6,0x10
    19dc:	0066b333          	sltu	t1,a3,t1
    19e0:	00989793          	slli	a5,a7,0x9
    19e4:	01f60633          	add	a2,a2,t6
    19e8:	00676733          	or	a4,a4,t1
    19ec:	00c70733          	add	a4,a4,a2
    19f0:	0107e7b3          	or	a5,a5,a6
    19f4:	01d70733          	add	a4,a4,t4
    19f8:	00f037b3          	snez	a5,a5
    19fc:	0178d893          	srli	a7,a7,0x17
    1a00:	00971713          	slli	a4,a4,0x9
    1a04:	0176d413          	srli	s0,a3,0x17
    1a08:	0117e7b3          	or	a5,a5,a7
    1a0c:	00969693          	slli	a3,a3,0x9
    1a10:	00d7e7b3          	or	a5,a5,a3
    1a14:	00771693          	slli	a3,a4,0x7
    1a18:	00876433          	or	s0,a4,s0
    1a1c:	0206d063          	bgez	a3,1a3c <__muldf3+0x29c>
    1a20:	0017d713          	srli	a4,a5,0x1
    1a24:	0017f793          	andi	a5,a5,1
    1a28:	00f76733          	or	a4,a4,a5
    1a2c:	01f41793          	slli	a5,s0,0x1f
    1a30:	00f767b3          	or	a5,a4,a5
    1a34:	00145413          	srli	s0,s0,0x1
    1a38:	00050a93          	mv	s5,a0
    1a3c:	000a8513          	mv	a0,s5
    1a40:	18c0006f          	j	1bcc <__muldf3+0x42c>
    1a44:	00a4e933          	or	s2,s1,a0
    1a48:	08090063          	beqz	s2,1ac8 <__muldf3+0x328>
    1a4c:	04048063          	beqz	s1,1a8c <__muldf3+0x2ec>
    1a50:	00048513          	mv	a0,s1
    1a54:	0b1030ef          	jal	5304 <__clzsi2>
    1a58:	ff550713          	addi	a4,a0,-11 # 7fff5 <_end+0x6ad91>
    1a5c:	01d00793          	li	a5,29
    1a60:	ff850693          	addi	a3,a0,-8
    1a64:	40e787b3          	sub	a5,a5,a4
    1a68:	00d494b3          	sll	s1,s1,a3
    1a6c:	00f457b3          	srl	a5,s0,a5
    1a70:	0097e7b3          	or	a5,a5,s1
    1a74:	00d414b3          	sll	s1,s0,a3
    1a78:	c0d00a93          	li	s5,-1011
    1a7c:	00048913          	mv	s2,s1
    1a80:	40aa8ab3          	sub	s5,s5,a0
    1a84:	00078493          	mv	s1,a5
    1a88:	d89ff06f          	j	1810 <__muldf3+0x70>
    1a8c:	079030ef          	jal	5304 <__clzsi2>
    1a90:	00050793          	mv	a5,a0
    1a94:	01578713          	addi	a4,a5,21 # 10015 <_realloc_r+0x61>
    1a98:	01c00693          	li	a3,28
    1a9c:	02050513          	addi	a0,a0,32
    1aa0:	fae6dee3          	bge	a3,a4,1a5c <__muldf3+0x2bc>
    1aa4:	ff878793          	addi	a5,a5,-8
    1aa8:	00f417b3          	sll	a5,s0,a5
    1aac:	fcdff06f          	j	1a78 <__muldf3+0x2d8>
    1ab0:	00a4e933          	or	s2,s1,a0
    1ab4:	02091263          	bnez	s2,1ad8 <__muldf3+0x338>
    1ab8:	00000493          	li	s1,0
    1abc:	7ff00a93          	li	s5,2047
    1ac0:	00200b93          	li	s7,2
    1ac4:	d51ff06f          	j	1814 <__muldf3+0x74>
    1ac8:	00000493          	li	s1,0
    1acc:	00000a93          	li	s5,0
    1ad0:	00100b93          	li	s7,1
    1ad4:	d41ff06f          	j	1814 <__muldf3+0x74>
    1ad8:	00050913          	mv	s2,a0
    1adc:	7ff00a93          	li	s5,2047
    1ae0:	00300b93          	li	s7,3
    1ae4:	d31ff06f          	j	1814 <__muldf3+0x74>
    1ae8:	016467b3          	or	a5,s0,s6
    1aec:	08078263          	beqz	a5,1b70 <__muldf3+0x3d0>
    1af0:	04040063          	beqz	s0,1b30 <__muldf3+0x390>
    1af4:	00040513          	mv	a0,s0
    1af8:	00d030ef          	jal	5304 <__clzsi2>
    1afc:	ff550693          	addi	a3,a0,-11
    1b00:	01d00713          	li	a4,29
    1b04:	ff850793          	addi	a5,a0,-8
    1b08:	40d70733          	sub	a4,a4,a3
    1b0c:	00f41433          	sll	s0,s0,a5
    1b10:	00eb5733          	srl	a4,s6,a4
    1b14:	00876733          	or	a4,a4,s0
    1b18:	00fb1433          	sll	s0,s6,a5
    1b1c:	c0d00693          	li	a3,-1011
    1b20:	00040793          	mv	a5,s0
    1b24:	40a686b3          	sub	a3,a3,a0
    1b28:	00070413          	mv	s0,a4
    1b2c:	d25ff06f          	j	1850 <__muldf3+0xb0>
    1b30:	000b0513          	mv	a0,s6
    1b34:	7d0030ef          	jal	5304 <__clzsi2>
    1b38:	00050793          	mv	a5,a0
    1b3c:	01578693          	addi	a3,a5,21
    1b40:	01c00713          	li	a4,28
    1b44:	02050513          	addi	a0,a0,32
    1b48:	fad75ce3          	bge	a4,a3,1b00 <__muldf3+0x360>
    1b4c:	ff878793          	addi	a5,a5,-8
    1b50:	00fb1733          	sll	a4,s6,a5
    1b54:	fc9ff06f          	j	1b1c <__muldf3+0x37c>
    1b58:	016467b3          	or	a5,s0,s6
    1b5c:	02079263          	bnez	a5,1b80 <__muldf3+0x3e0>
    1b60:	00000413          	li	s0,0
    1b64:	7ff00693          	li	a3,2047
    1b68:	00200713          	li	a4,2
    1b6c:	ce9ff06f          	j	1854 <__muldf3+0xb4>
    1b70:	00000413          	li	s0,0
    1b74:	00000693          	li	a3,0
    1b78:	00100713          	li	a4,1
    1b7c:	cd9ff06f          	j	1854 <__muldf3+0xb4>
    1b80:	000b0793          	mv	a5,s6
    1b84:	7ff00693          	li	a3,2047
    1b88:	00300713          	li	a4,3
    1b8c:	cc9ff06f          	j	1854 <__muldf3+0xb4>
    1b90:	00100613          	li	a2,1
    1b94:	00d61633          	sll	a2,a2,a3
    1b98:	53067693          	andi	a3,a2,1328
    1b9c:	0e069663          	bnez	a3,1c88 <__muldf3+0x4e8>
    1ba0:	24067813          	andi	a6,a2,576
    1ba4:	1a081a63          	bnez	a6,1d58 <__muldf3+0x5b8>
    1ba8:	08867613          	andi	a2,a2,136
    1bac:	cc060ce3          	beqz	a2,1884 <__muldf3+0xe4>
    1bb0:	00098593          	mv	a1,s3
    1bb4:	00200693          	li	a3,2
    1bb8:	18d70863          	beq	a4,a3,1d48 <__muldf3+0x5a8>
    1bbc:	00300693          	li	a3,3
    1bc0:	1ad70463          	beq	a4,a3,1d68 <__muldf3+0x5c8>
    1bc4:	00100693          	li	a3,1
    1bc8:	1ad70663          	beq	a4,a3,1d74 <__muldf3+0x5d4>
    1bcc:	3ff50613          	addi	a2,a0,1023
    1bd0:	0cc05463          	blez	a2,1c98 <__muldf3+0x4f8>
    1bd4:	0077f713          	andi	a4,a5,7
    1bd8:	02070063          	beqz	a4,1bf8 <__muldf3+0x458>
    1bdc:	00f7f713          	andi	a4,a5,15
    1be0:	00400693          	li	a3,4
    1be4:	00d70a63          	beq	a4,a3,1bf8 <__muldf3+0x458>
    1be8:	00478713          	addi	a4,a5,4
    1bec:	00f736b3          	sltu	a3,a4,a5
    1bf0:	00d40433          	add	s0,s0,a3
    1bf4:	00070793          	mv	a5,a4
    1bf8:	00741713          	slli	a4,s0,0x7
    1bfc:	00075a63          	bgez	a4,1c10 <__muldf3+0x470>
    1c00:	ff000737          	lui	a4,0xff000
    1c04:	fff70713          	addi	a4,a4,-1 # feffffff <_end+0xfefead9b>
    1c08:	00e47433          	and	s0,s0,a4
    1c0c:	40050613          	addi	a2,a0,1024
    1c10:	7fe00713          	li	a4,2046
    1c14:	12c74a63          	blt	a4,a2,1d48 <__muldf3+0x5a8>
    1c18:	0037d793          	srli	a5,a5,0x3
    1c1c:	01d41693          	slli	a3,s0,0x1d
    1c20:	00f6e6b3          	or	a3,a3,a5
    1c24:	00345713          	srli	a4,s0,0x3
    1c28:	00c71713          	slli	a4,a4,0xc
    1c2c:	02c12083          	lw	ra,44(sp)
    1c30:	02812403          	lw	s0,40(sp)
    1c34:	01461613          	slli	a2,a2,0x14
    1c38:	00c75713          	srli	a4,a4,0xc
    1c3c:	01f59593          	slli	a1,a1,0x1f
    1c40:	00e66633          	or	a2,a2,a4
    1c44:	00b667b3          	or	a5,a2,a1
    1c48:	02412483          	lw	s1,36(sp)
    1c4c:	02012903          	lw	s2,32(sp)
    1c50:	01c12983          	lw	s3,28(sp)
    1c54:	01812a03          	lw	s4,24(sp)
    1c58:	01412a83          	lw	s5,20(sp)
    1c5c:	01012b03          	lw	s6,16(sp)
    1c60:	00c12b83          	lw	s7,12(sp)
    1c64:	00068513          	mv	a0,a3
    1c68:	00078593          	mv	a1,a5
    1c6c:	03010113          	addi	sp,sp,48
    1c70:	00008067          	ret
    1c74:	00f00613          	li	a2,15
    1c78:	0ec68863          	beq	a3,a2,1d68 <__muldf3+0x5c8>
    1c7c:	00b00613          	li	a2,11
    1c80:	000a0593          	mv	a1,s4
    1c84:	f2c686e3          	beq	a3,a2,1bb0 <__muldf3+0x410>
    1c88:	00048413          	mv	s0,s1
    1c8c:	00090793          	mv	a5,s2
    1c90:	000b8713          	mv	a4,s7
    1c94:	f21ff06f          	j	1bb4 <__muldf3+0x414>
    1c98:	00100713          	li	a4,1
    1c9c:	40c70733          	sub	a4,a4,a2
    1ca0:	03800693          	li	a3,56
    1ca4:	0ce6c863          	blt	a3,a4,1d74 <__muldf3+0x5d4>
    1ca8:	01f00693          	li	a3,31
    1cac:	06e6c463          	blt	a3,a4,1d14 <__muldf3+0x574>
    1cb0:	41e50513          	addi	a0,a0,1054
    1cb4:	00e7d633          	srl	a2,a5,a4
    1cb8:	00a416b3          	sll	a3,s0,a0
    1cbc:	00a79533          	sll	a0,a5,a0
    1cc0:	00c6e6b3          	or	a3,a3,a2
    1cc4:	00a03533          	snez	a0,a0
    1cc8:	00a6e7b3          	or	a5,a3,a0
    1ccc:	00e45733          	srl	a4,s0,a4
    1cd0:	0077f693          	andi	a3,a5,7
    1cd4:	02068063          	beqz	a3,1cf4 <__muldf3+0x554>
    1cd8:	00f7f693          	andi	a3,a5,15
    1cdc:	00400613          	li	a2,4
    1ce0:	00c68a63          	beq	a3,a2,1cf4 <__muldf3+0x554>
    1ce4:	00478693          	addi	a3,a5,4
    1ce8:	00f6b633          	sltu	a2,a3,a5
    1cec:	00c70733          	add	a4,a4,a2
    1cf0:	00068793          	mv	a5,a3
    1cf4:	00871693          	slli	a3,a4,0x8
    1cf8:	0806c463          	bltz	a3,1d80 <__muldf3+0x5e0>
    1cfc:	01d71693          	slli	a3,a4,0x1d
    1d00:	0037d793          	srli	a5,a5,0x3
    1d04:	00f6e6b3          	or	a3,a3,a5
    1d08:	00375713          	srli	a4,a4,0x3
    1d0c:	00000613          	li	a2,0
    1d10:	f19ff06f          	j	1c28 <__muldf3+0x488>
    1d14:	fe100693          	li	a3,-31
    1d18:	40c686b3          	sub	a3,a3,a2
    1d1c:	02000813          	li	a6,32
    1d20:	00d456b3          	srl	a3,s0,a3
    1d24:	00000613          	li	a2,0
    1d28:	01070663          	beq	a4,a6,1d34 <__muldf3+0x594>
    1d2c:	43e50613          	addi	a2,a0,1086
    1d30:	00c41633          	sll	a2,s0,a2
    1d34:	00f66633          	or	a2,a2,a5
    1d38:	00c03633          	snez	a2,a2
    1d3c:	00c6e7b3          	or	a5,a3,a2
    1d40:	00000713          	li	a4,0
    1d44:	f8dff06f          	j	1cd0 <__muldf3+0x530>
    1d48:	00000713          	li	a4,0
    1d4c:	00000693          	li	a3,0
    1d50:	7ff00613          	li	a2,2047
    1d54:	ed5ff06f          	j	1c28 <__muldf3+0x488>
    1d58:	00080737          	lui	a4,0x80
    1d5c:	7ff00613          	li	a2,2047
    1d60:	00000593          	li	a1,0
    1d64:	ec5ff06f          	j	1c28 <__muldf3+0x488>
    1d68:	00080737          	lui	a4,0x80
    1d6c:	00000693          	li	a3,0
    1d70:	fedff06f          	j	1d5c <__muldf3+0x5bc>
    1d74:	00000713          	li	a4,0
    1d78:	00000693          	li	a3,0
    1d7c:	f91ff06f          	j	1d0c <__muldf3+0x56c>
    1d80:	00000713          	li	a4,0
    1d84:	00000693          	li	a3,0
    1d88:	00100613          	li	a2,1
    1d8c:	e9dff06f          	j	1c28 <__muldf3+0x488>

00001d90 <__subdf3>:
    1d90:	00100837          	lui	a6,0x100
    1d94:	fff80813          	addi	a6,a6,-1 # fffff <_end+0xead9b>
    1d98:	fe010113          	addi	sp,sp,-32
    1d9c:	00b878b3          	and	a7,a6,a1
    1da0:	0145d713          	srli	a4,a1,0x14
    1da4:	01d55793          	srli	a5,a0,0x1d
    1da8:	00d87833          	and	a6,a6,a3
    1dac:	01212823          	sw	s2,16(sp)
    1db0:	7ff77913          	andi	s2,a4,2047
    1db4:	00389713          	slli	a4,a7,0x3
    1db8:	0146d893          	srli	a7,a3,0x14
    1dbc:	00912a23          	sw	s1,20(sp)
    1dc0:	00e7e7b3          	or	a5,a5,a4
    1dc4:	01f5d493          	srli	s1,a1,0x1f
    1dc8:	01d65713          	srli	a4,a2,0x1d
    1dcc:	00381813          	slli	a6,a6,0x3
    1dd0:	00112e23          	sw	ra,28(sp)
    1dd4:	00812c23          	sw	s0,24(sp)
    1dd8:	01312623          	sw	s3,12(sp)
    1ddc:	7ff8f893          	andi	a7,a7,2047
    1de0:	7ff00593          	li	a1,2047
    1de4:	00351513          	slli	a0,a0,0x3
    1de8:	01f6d693          	srli	a3,a3,0x1f
    1dec:	01076733          	or	a4,a4,a6
    1df0:	00361613          	slli	a2,a2,0x3
    1df4:	00b89663          	bne	a7,a1,1e00 <__subdf3+0x70>
    1df8:	00c765b3          	or	a1,a4,a2
    1dfc:	00059463          	bnez	a1,1e04 <__subdf3+0x74>
    1e00:	0016c693          	xori	a3,a3,1
    1e04:	41190833          	sub	a6,s2,a7
    1e08:	2a969a63          	bne	a3,s1,20bc <__subdf3+0x32c>
    1e0c:	11005c63          	blez	a6,1f24 <__subdf3+0x194>
    1e10:	04089063          	bnez	a7,1e50 <__subdf3+0xc0>
    1e14:	00c766b3          	or	a3,a4,a2
    1e18:	66068063          	beqz	a3,2478 <__subdf3+0x6e8>
    1e1c:	fff80593          	addi	a1,a6,-1
    1e20:	02059063          	bnez	a1,1e40 <__subdf3+0xb0>
    1e24:	00c50633          	add	a2,a0,a2
    1e28:	00a636b3          	sltu	a3,a2,a0
    1e2c:	00e78733          	add	a4,a5,a4
    1e30:	00060513          	mv	a0,a2
    1e34:	00d707b3          	add	a5,a4,a3
    1e38:	00100913          	li	s2,1
    1e3c:	06c0006f          	j	1ea8 <__subdf3+0x118>
    1e40:	7ff00693          	li	a3,2047
    1e44:	02d81063          	bne	a6,a3,1e64 <__subdf3+0xd4>
    1e48:	7ff00913          	li	s2,2047
    1e4c:	1f80006f          	j	2044 <__subdf3+0x2b4>
    1e50:	7ff00693          	li	a3,2047
    1e54:	1ed90863          	beq	s2,a3,2044 <__subdf3+0x2b4>
    1e58:	008006b7          	lui	a3,0x800
    1e5c:	00d76733          	or	a4,a4,a3
    1e60:	00080593          	mv	a1,a6
    1e64:	03800693          	li	a3,56
    1e68:	0ab6c863          	blt	a3,a1,1f18 <__subdf3+0x188>
    1e6c:	01f00693          	li	a3,31
    1e70:	06b6ca63          	blt	a3,a1,1ee4 <__subdf3+0x154>
    1e74:	02000813          	li	a6,32
    1e78:	40b80833          	sub	a6,a6,a1
    1e7c:	010716b3          	sll	a3,a4,a6
    1e80:	00b658b3          	srl	a7,a2,a1
    1e84:	01061833          	sll	a6,a2,a6
    1e88:	0116e6b3          	or	a3,a3,a7
    1e8c:	01003833          	snez	a6,a6
    1e90:	0106e6b3          	or	a3,a3,a6
    1e94:	00b755b3          	srl	a1,a4,a1
    1e98:	00a68533          	add	a0,a3,a0
    1e9c:	00f585b3          	add	a1,a1,a5
    1ea0:	00d536b3          	sltu	a3,a0,a3
    1ea4:	00d587b3          	add	a5,a1,a3
    1ea8:	00879713          	slli	a4,a5,0x8
    1eac:	18075c63          	bgez	a4,2044 <__subdf3+0x2b4>
    1eb0:	00190913          	addi	s2,s2,1
    1eb4:	7ff00713          	li	a4,2047
    1eb8:	5ae90a63          	beq	s2,a4,246c <__subdf3+0x6dc>
    1ebc:	ff800737          	lui	a4,0xff800
    1ec0:	fff70713          	addi	a4,a4,-1 # ff7fffff <_end+0xff7ead9b>
    1ec4:	00e7f733          	and	a4,a5,a4
    1ec8:	00155793          	srli	a5,a0,0x1
    1ecc:	00157513          	andi	a0,a0,1
    1ed0:	00a7e7b3          	or	a5,a5,a0
    1ed4:	01f71513          	slli	a0,a4,0x1f
    1ed8:	00f56533          	or	a0,a0,a5
    1edc:	00175793          	srli	a5,a4,0x1
    1ee0:	1640006f          	j	2044 <__subdf3+0x2b4>
    1ee4:	fe058693          	addi	a3,a1,-32
    1ee8:	02000893          	li	a7,32
    1eec:	00d756b3          	srl	a3,a4,a3
    1ef0:	00000813          	li	a6,0
    1ef4:	01158863          	beq	a1,a7,1f04 <__subdf3+0x174>
    1ef8:	04000813          	li	a6,64
    1efc:	40b80833          	sub	a6,a6,a1
    1f00:	01071833          	sll	a6,a4,a6
    1f04:	00c86833          	or	a6,a6,a2
    1f08:	01003833          	snez	a6,a6
    1f0c:	0106e6b3          	or	a3,a3,a6
    1f10:	00000593          	li	a1,0
    1f14:	f85ff06f          	j	1e98 <__subdf3+0x108>
    1f18:	00c766b3          	or	a3,a4,a2
    1f1c:	00d036b3          	snez	a3,a3
    1f20:	ff1ff06f          	j	1f10 <__subdf3+0x180>
    1f24:	0c080a63          	beqz	a6,1ff8 <__subdf3+0x268>
    1f28:	412886b3          	sub	a3,a7,s2
    1f2c:	02091463          	bnez	s2,1f54 <__subdf3+0x1c4>
    1f30:	00a7e5b3          	or	a1,a5,a0
    1f34:	50058e63          	beqz	a1,2450 <__subdf3+0x6c0>
    1f38:	fff68593          	addi	a1,a3,-1 # 7fffff <_end+0x7ead9b>
    1f3c:	ee0584e3          	beqz	a1,1e24 <__subdf3+0x94>
    1f40:	7ff00813          	li	a6,2047
    1f44:	03069263          	bne	a3,a6,1f68 <__subdf3+0x1d8>
    1f48:	00070793          	mv	a5,a4
    1f4c:	00060513          	mv	a0,a2
    1f50:	ef9ff06f          	j	1e48 <__subdf3+0xb8>
    1f54:	7ff00593          	li	a1,2047
    1f58:	feb888e3          	beq	a7,a1,1f48 <__subdf3+0x1b8>
    1f5c:	008005b7          	lui	a1,0x800
    1f60:	00b7e7b3          	or	a5,a5,a1
    1f64:	00068593          	mv	a1,a3
    1f68:	03800693          	li	a3,56
    1f6c:	08b6c063          	blt	a3,a1,1fec <__subdf3+0x25c>
    1f70:	01f00693          	li	a3,31
    1f74:	04b6c263          	blt	a3,a1,1fb8 <__subdf3+0x228>
    1f78:	02000813          	li	a6,32
    1f7c:	40b80833          	sub	a6,a6,a1
    1f80:	010796b3          	sll	a3,a5,a6
    1f84:	00b55333          	srl	t1,a0,a1
    1f88:	01051833          	sll	a6,a0,a6
    1f8c:	0066e6b3          	or	a3,a3,t1
    1f90:	01003833          	snez	a6,a6
    1f94:	0106e6b3          	or	a3,a3,a6
    1f98:	00b7d5b3          	srl	a1,a5,a1
    1f9c:	00c68633          	add	a2,a3,a2
    1fa0:	00e585b3          	add	a1,a1,a4
    1fa4:	00d636b3          	sltu	a3,a2,a3
    1fa8:	00060513          	mv	a0,a2
    1fac:	00d587b3          	add	a5,a1,a3
    1fb0:	00088913          	mv	s2,a7
    1fb4:	ef5ff06f          	j	1ea8 <__subdf3+0x118>
    1fb8:	fe058693          	addi	a3,a1,-32 # 7fffe0 <_end+0x7ead7c>
    1fbc:	02000313          	li	t1,32
    1fc0:	00d7d6b3          	srl	a3,a5,a3
    1fc4:	00000813          	li	a6,0
    1fc8:	00658863          	beq	a1,t1,1fd8 <__subdf3+0x248>
    1fcc:	04000813          	li	a6,64
    1fd0:	40b80833          	sub	a6,a6,a1
    1fd4:	01079833          	sll	a6,a5,a6
    1fd8:	00a86833          	or	a6,a6,a0
    1fdc:	01003833          	snez	a6,a6
    1fe0:	0106e6b3          	or	a3,a3,a6
    1fe4:	00000593          	li	a1,0
    1fe8:	fb5ff06f          	j	1f9c <__subdf3+0x20c>
    1fec:	00a7e6b3          	or	a3,a5,a0
    1ff0:	00d036b3          	snez	a3,a3
    1ff4:	ff1ff06f          	j	1fe4 <__subdf3+0x254>
    1ff8:	00190693          	addi	a3,s2,1
    1ffc:	7fe6f593          	andi	a1,a3,2046
    2000:	08059663          	bnez	a1,208c <__subdf3+0x2fc>
    2004:	00a7e6b3          	or	a3,a5,a0
    2008:	06091263          	bnez	s2,206c <__subdf3+0x2dc>
    200c:	44068863          	beqz	a3,245c <__subdf3+0x6cc>
    2010:	00c766b3          	or	a3,a4,a2
    2014:	02068863          	beqz	a3,2044 <__subdf3+0x2b4>
    2018:	00c50633          	add	a2,a0,a2
    201c:	00a636b3          	sltu	a3,a2,a0
    2020:	00e78733          	add	a4,a5,a4
    2024:	00d707b3          	add	a5,a4,a3
    2028:	00879713          	slli	a4,a5,0x8
    202c:	00060513          	mv	a0,a2
    2030:	00075a63          	bgez	a4,2044 <__subdf3+0x2b4>
    2034:	ff800737          	lui	a4,0xff800
    2038:	fff70713          	addi	a4,a4,-1 # ff7fffff <_end+0xff7ead9b>
    203c:	00e7f7b3          	and	a5,a5,a4
    2040:	00100913          	li	s2,1
    2044:	00757713          	andi	a4,a0,7
    2048:	44070863          	beqz	a4,2498 <__subdf3+0x708>
    204c:	00f57713          	andi	a4,a0,15
    2050:	00400693          	li	a3,4
    2054:	44d70263          	beq	a4,a3,2498 <__subdf3+0x708>
    2058:	00450713          	addi	a4,a0,4
    205c:	00a736b3          	sltu	a3,a4,a0
    2060:	00d787b3          	add	a5,a5,a3
    2064:	00070513          	mv	a0,a4
    2068:	4300006f          	j	2498 <__subdf3+0x708>
    206c:	ec068ee3          	beqz	a3,1f48 <__subdf3+0x1b8>
    2070:	00c76633          	or	a2,a4,a2
    2074:	dc060ae3          	beqz	a2,1e48 <__subdf3+0xb8>
    2078:	00000493          	li	s1,0
    207c:	004007b7          	lui	a5,0x400
    2080:	00000513          	li	a0,0
    2084:	7ff00913          	li	s2,2047
    2088:	4100006f          	j	2498 <__subdf3+0x708>
    208c:	7ff00593          	li	a1,2047
    2090:	3cb68c63          	beq	a3,a1,2468 <__subdf3+0x6d8>
    2094:	00c50633          	add	a2,a0,a2
    2098:	00a63533          	sltu	a0,a2,a0
    209c:	00e78733          	add	a4,a5,a4
    20a0:	00a70733          	add	a4,a4,a0
    20a4:	01f71513          	slli	a0,a4,0x1f
    20a8:	00165613          	srli	a2,a2,0x1
    20ac:	00c56533          	or	a0,a0,a2
    20b0:	00175793          	srli	a5,a4,0x1
    20b4:	00068913          	mv	s2,a3
    20b8:	f8dff06f          	j	2044 <__subdf3+0x2b4>
    20bc:	0f005c63          	blez	a6,21b4 <__subdf3+0x424>
    20c0:	08089e63          	bnez	a7,215c <__subdf3+0x3cc>
    20c4:	00c766b3          	or	a3,a4,a2
    20c8:	3a068863          	beqz	a3,2478 <__subdf3+0x6e8>
    20cc:	fff80693          	addi	a3,a6,-1
    20d0:	02069063          	bnez	a3,20f0 <__subdf3+0x360>
    20d4:	40c50633          	sub	a2,a0,a2
    20d8:	00c536b3          	sltu	a3,a0,a2
    20dc:	40e78733          	sub	a4,a5,a4
    20e0:	00060513          	mv	a0,a2
    20e4:	40d707b3          	sub	a5,a4,a3
    20e8:	00100913          	li	s2,1
    20ec:	0540006f          	j	2140 <__subdf3+0x3b0>
    20f0:	7ff00593          	li	a1,2047
    20f4:	d4b80ae3          	beq	a6,a1,1e48 <__subdf3+0xb8>
    20f8:	03800593          	li	a1,56
    20fc:	0ad5c663          	blt	a1,a3,21a8 <__subdf3+0x418>
    2100:	01f00593          	li	a1,31
    2104:	06d5c863          	blt	a1,a3,2174 <__subdf3+0x3e4>
    2108:	02000813          	li	a6,32
    210c:	40d80833          	sub	a6,a6,a3
    2110:	00d658b3          	srl	a7,a2,a3
    2114:	010715b3          	sll	a1,a4,a6
    2118:	01061833          	sll	a6,a2,a6
    211c:	0115e5b3          	or	a1,a1,a7
    2120:	01003833          	snez	a6,a6
    2124:	0105e633          	or	a2,a1,a6
    2128:	00d756b3          	srl	a3,a4,a3
    212c:	40c50633          	sub	a2,a0,a2
    2130:	00c53733          	sltu	a4,a0,a2
    2134:	40d786b3          	sub	a3,a5,a3
    2138:	00060513          	mv	a0,a2
    213c:	40e687b3          	sub	a5,a3,a4
    2140:	00879713          	slli	a4,a5,0x8
    2144:	f00750e3          	bgez	a4,2044 <__subdf3+0x2b4>
    2148:	00800437          	lui	s0,0x800
    214c:	fff40413          	addi	s0,s0,-1 # 7fffff <_end+0x7ead9b>
    2150:	0087f433          	and	s0,a5,s0
    2154:	00050993          	mv	s3,a0
    2158:	2100006f          	j	2368 <__subdf3+0x5d8>
    215c:	7ff00693          	li	a3,2047
    2160:	eed902e3          	beq	s2,a3,2044 <__subdf3+0x2b4>
    2164:	008006b7          	lui	a3,0x800
    2168:	00d76733          	or	a4,a4,a3
    216c:	00080693          	mv	a3,a6
    2170:	f89ff06f          	j	20f8 <__subdf3+0x368>
    2174:	fe068593          	addi	a1,a3,-32 # 7fffe0 <_end+0x7ead7c>
    2178:	02000893          	li	a7,32
    217c:	00b755b3          	srl	a1,a4,a1
    2180:	00000813          	li	a6,0
    2184:	01168863          	beq	a3,a7,2194 <__subdf3+0x404>
    2188:	04000813          	li	a6,64
    218c:	40d80833          	sub	a6,a6,a3
    2190:	01071833          	sll	a6,a4,a6
    2194:	00c86833          	or	a6,a6,a2
    2198:	01003833          	snez	a6,a6
    219c:	0105e633          	or	a2,a1,a6
    21a0:	00000693          	li	a3,0
    21a4:	f89ff06f          	j	212c <__subdf3+0x39c>
    21a8:	00c76633          	or	a2,a4,a2
    21ac:	00c03633          	snez	a2,a2
    21b0:	ff1ff06f          	j	21a0 <__subdf3+0x410>
    21b4:	0e080863          	beqz	a6,22a4 <__subdf3+0x514>
    21b8:	41288833          	sub	a6,a7,s2
    21bc:	04091263          	bnez	s2,2200 <__subdf3+0x470>
    21c0:	00a7e5b3          	or	a1,a5,a0
    21c4:	2a058e63          	beqz	a1,2480 <__subdf3+0x6f0>
    21c8:	fff80593          	addi	a1,a6,-1
    21cc:	00059e63          	bnez	a1,21e8 <__subdf3+0x458>
    21d0:	40a60533          	sub	a0,a2,a0
    21d4:	40f70733          	sub	a4,a4,a5
    21d8:	00a63633          	sltu	a2,a2,a0
    21dc:	40c707b3          	sub	a5,a4,a2
    21e0:	00068493          	mv	s1,a3
    21e4:	f05ff06f          	j	20e8 <__subdf3+0x358>
    21e8:	7ff00313          	li	t1,2047
    21ec:	02681463          	bne	a6,t1,2214 <__subdf3+0x484>
    21f0:	00070793          	mv	a5,a4
    21f4:	00060513          	mv	a0,a2
    21f8:	7ff00913          	li	s2,2047
    21fc:	0d00006f          	j	22cc <__subdf3+0x53c>
    2200:	7ff00593          	li	a1,2047
    2204:	feb886e3          	beq	a7,a1,21f0 <__subdf3+0x460>
    2208:	008005b7          	lui	a1,0x800
    220c:	00b7e7b3          	or	a5,a5,a1
    2210:	00080593          	mv	a1,a6
    2214:	03800813          	li	a6,56
    2218:	08b84063          	blt	a6,a1,2298 <__subdf3+0x508>
    221c:	01f00813          	li	a6,31
    2220:	04b84263          	blt	a6,a1,2264 <__subdf3+0x4d4>
    2224:	02000313          	li	t1,32
    2228:	40b30333          	sub	t1,t1,a1
    222c:	00b55e33          	srl	t3,a0,a1
    2230:	00679833          	sll	a6,a5,t1
    2234:	00651333          	sll	t1,a0,t1
    2238:	01c86833          	or	a6,a6,t3
    223c:	00603333          	snez	t1,t1
    2240:	00686533          	or	a0,a6,t1
    2244:	00b7d5b3          	srl	a1,a5,a1
    2248:	40a60533          	sub	a0,a2,a0
    224c:	40b705b3          	sub	a1,a4,a1
    2250:	00a63633          	sltu	a2,a2,a0
    2254:	40c587b3          	sub	a5,a1,a2
    2258:	00088913          	mv	s2,a7
    225c:	00068493          	mv	s1,a3
    2260:	ee1ff06f          	j	2140 <__subdf3+0x3b0>
    2264:	fe058813          	addi	a6,a1,-32 # 7fffe0 <_end+0x7ead7c>
    2268:	02000e13          	li	t3,32
    226c:	0107d833          	srl	a6,a5,a6
    2270:	00000313          	li	t1,0
    2274:	01c58863          	beq	a1,t3,2284 <__subdf3+0x4f4>
    2278:	04000313          	li	t1,64
    227c:	40b30333          	sub	t1,t1,a1
    2280:	00679333          	sll	t1,a5,t1
    2284:	00a36333          	or	t1,t1,a0
    2288:	00603333          	snez	t1,t1
    228c:	00686533          	or	a0,a6,t1
    2290:	00000593          	li	a1,0
    2294:	fb5ff06f          	j	2248 <__subdf3+0x4b8>
    2298:	00a7e533          	or	a0,a5,a0
    229c:	00a03533          	snez	a0,a0
    22a0:	ff1ff06f          	j	2290 <__subdf3+0x500>
    22a4:	00190593          	addi	a1,s2,1
    22a8:	7fe5f593          	andi	a1,a1,2046
    22ac:	08059663          	bnez	a1,2338 <__subdf3+0x5a8>
    22b0:	00c765b3          	or	a1,a4,a2
    22b4:	00a7e833          	or	a6,a5,a0
    22b8:	06091063          	bnez	s2,2318 <__subdf3+0x588>
    22bc:	00081c63          	bnez	a6,22d4 <__subdf3+0x544>
    22c0:	10058e63          	beqz	a1,23dc <__subdf3+0x64c>
    22c4:	00070793          	mv	a5,a4
    22c8:	00060513          	mv	a0,a2
    22cc:	00068493          	mv	s1,a3
    22d0:	d75ff06f          	j	2044 <__subdf3+0x2b4>
    22d4:	d60588e3          	beqz	a1,2044 <__subdf3+0x2b4>
    22d8:	40c50833          	sub	a6,a0,a2
    22dc:	010538b3          	sltu	a7,a0,a6
    22e0:	40e785b3          	sub	a1,a5,a4
    22e4:	411585b3          	sub	a1,a1,a7
    22e8:	00859893          	slli	a7,a1,0x8
    22ec:	0008dc63          	bgez	a7,2304 <__subdf3+0x574>
    22f0:	40a60533          	sub	a0,a2,a0
    22f4:	40f70733          	sub	a4,a4,a5
    22f8:	00a63633          	sltu	a2,a2,a0
    22fc:	40c707b3          	sub	a5,a4,a2
    2300:	fcdff06f          	j	22cc <__subdf3+0x53c>
    2304:	00b86533          	or	a0,a6,a1
    2308:	18050463          	beqz	a0,2490 <__subdf3+0x700>
    230c:	00058793          	mv	a5,a1
    2310:	00080513          	mv	a0,a6
    2314:	d31ff06f          	j	2044 <__subdf3+0x2b4>
    2318:	00081c63          	bnez	a6,2330 <__subdf3+0x5a0>
    231c:	d4058ee3          	beqz	a1,2078 <__subdf3+0x2e8>
    2320:	00070793          	mv	a5,a4
    2324:	00060513          	mv	a0,a2
    2328:	00068493          	mv	s1,a3
    232c:	b1dff06f          	j	1e48 <__subdf3+0xb8>
    2330:	b0058ce3          	beqz	a1,1e48 <__subdf3+0xb8>
    2334:	d45ff06f          	j	2078 <__subdf3+0x2e8>
    2338:	40c505b3          	sub	a1,a0,a2
    233c:	00b53833          	sltu	a6,a0,a1
    2340:	40e78433          	sub	s0,a5,a4
    2344:	41040433          	sub	s0,s0,a6
    2348:	00841813          	slli	a6,s0,0x8
    234c:	00058993          	mv	s3,a1
    2350:	08085063          	bgez	a6,23d0 <__subdf3+0x640>
    2354:	40a609b3          	sub	s3,a2,a0
    2358:	40f70433          	sub	s0,a4,a5
    235c:	01363633          	sltu	a2,a2,s3
    2360:	40c40433          	sub	s0,s0,a2
    2364:	00068493          	mv	s1,a3
    2368:	06040e63          	beqz	s0,23e4 <__subdf3+0x654>
    236c:	00040513          	mv	a0,s0
    2370:	795020ef          	jal	5304 <__clzsi2>
    2374:	ff850693          	addi	a3,a0,-8
    2378:	02000793          	li	a5,32
    237c:	40d787b3          	sub	a5,a5,a3
    2380:	00d41433          	sll	s0,s0,a3
    2384:	00f9d7b3          	srl	a5,s3,a5
    2388:	0087e7b3          	or	a5,a5,s0
    238c:	00d99433          	sll	s0,s3,a3
    2390:	0b26c463          	blt	a3,s2,2438 <__subdf3+0x6a8>
    2394:	412686b3          	sub	a3,a3,s2
    2398:	00168613          	addi	a2,a3,1
    239c:	01f00713          	li	a4,31
    23a0:	06c74263          	blt	a4,a2,2404 <__subdf3+0x674>
    23a4:	02000713          	li	a4,32
    23a8:	40c70733          	sub	a4,a4,a2
    23ac:	00e79533          	sll	a0,a5,a4
    23b0:	00c456b3          	srl	a3,s0,a2
    23b4:	00e41733          	sll	a4,s0,a4
    23b8:	00d56533          	or	a0,a0,a3
    23bc:	00e03733          	snez	a4,a4
    23c0:	00e56533          	or	a0,a0,a4
    23c4:	00c7d7b3          	srl	a5,a5,a2
    23c8:	00000913          	li	s2,0
    23cc:	c79ff06f          	j	2044 <__subdf3+0x2b4>
    23d0:	0085e5b3          	or	a1,a1,s0
    23d4:	f8059ae3          	bnez	a1,2368 <__subdf3+0x5d8>
    23d8:	00000913          	li	s2,0
    23dc:	00000493          	li	s1,0
    23e0:	08c0006f          	j	246c <__subdf3+0x6dc>
    23e4:	00098513          	mv	a0,s3
    23e8:	71d020ef          	jal	5304 <__clzsi2>
    23ec:	01850693          	addi	a3,a0,24
    23f0:	01f00793          	li	a5,31
    23f4:	f8d7d2e3          	bge	a5,a3,2378 <__subdf3+0x5e8>
    23f8:	ff850793          	addi	a5,a0,-8
    23fc:	00f997b3          	sll	a5,s3,a5
    2400:	f91ff06f          	j	2390 <__subdf3+0x600>
    2404:	fe168693          	addi	a3,a3,-31
    2408:	00d7d533          	srl	a0,a5,a3
    240c:	02000693          	li	a3,32
    2410:	00000713          	li	a4,0
    2414:	00d60863          	beq	a2,a3,2424 <__subdf3+0x694>
    2418:	04000713          	li	a4,64
    241c:	40c70733          	sub	a4,a4,a2
    2420:	00e79733          	sll	a4,a5,a4
    2424:	00e46733          	or	a4,s0,a4
    2428:	00e03733          	snez	a4,a4
    242c:	00e56533          	or	a0,a0,a4
    2430:	00000793          	li	a5,0
    2434:	f95ff06f          	j	23c8 <__subdf3+0x638>
    2438:	ff800737          	lui	a4,0xff800
    243c:	fff70713          	addi	a4,a4,-1 # ff7fffff <_end+0xff7ead9b>
    2440:	40d90933          	sub	s2,s2,a3
    2444:	00e7f7b3          	and	a5,a5,a4
    2448:	00040513          	mv	a0,s0
    244c:	bf9ff06f          	j	2044 <__subdf3+0x2b4>
    2450:	00070793          	mv	a5,a4
    2454:	00060513          	mv	a0,a2
    2458:	c5dff06f          	j	20b4 <__subdf3+0x324>
    245c:	00070793          	mv	a5,a4
    2460:	00060513          	mv	a0,a2
    2464:	be1ff06f          	j	2044 <__subdf3+0x2b4>
    2468:	7ff00913          	li	s2,2047
    246c:	00000793          	li	a5,0
    2470:	00000513          	li	a0,0
    2474:	0240006f          	j	2498 <__subdf3+0x708>
    2478:	00080913          	mv	s2,a6
    247c:	bc9ff06f          	j	2044 <__subdf3+0x2b4>
    2480:	00070793          	mv	a5,a4
    2484:	00060513          	mv	a0,a2
    2488:	00080913          	mv	s2,a6
    248c:	e41ff06f          	j	22cc <__subdf3+0x53c>
    2490:	00000793          	li	a5,0
    2494:	00000493          	li	s1,0
    2498:	00879713          	slli	a4,a5,0x8
    249c:	00075e63          	bgez	a4,24b8 <__subdf3+0x728>
    24a0:	00190913          	addi	s2,s2,1
    24a4:	7ff00713          	li	a4,2047
    24a8:	08e90263          	beq	s2,a4,252c <__subdf3+0x79c>
    24ac:	ff800737          	lui	a4,0xff800
    24b0:	fff70713          	addi	a4,a4,-1 # ff7fffff <_end+0xff7ead9b>
    24b4:	00e7f7b3          	and	a5,a5,a4
    24b8:	01d79693          	slli	a3,a5,0x1d
    24bc:	00355513          	srli	a0,a0,0x3
    24c0:	7ff00713          	li	a4,2047
    24c4:	00a6e6b3          	or	a3,a3,a0
    24c8:	0037d793          	srli	a5,a5,0x3
    24cc:	00e91e63          	bne	s2,a4,24e8 <__subdf3+0x758>
    24d0:	00f6e6b3          	or	a3,a3,a5
    24d4:	00000793          	li	a5,0
    24d8:	00068863          	beqz	a3,24e8 <__subdf3+0x758>
    24dc:	000807b7          	lui	a5,0x80
    24e0:	00000693          	li	a3,0
    24e4:	00000493          	li	s1,0
    24e8:	01491713          	slli	a4,s2,0x14
    24ec:	7ff00637          	lui	a2,0x7ff00
    24f0:	00c79793          	slli	a5,a5,0xc
    24f4:	00c77733          	and	a4,a4,a2
    24f8:	01c12083          	lw	ra,28(sp)
    24fc:	01812403          	lw	s0,24(sp)
    2500:	00c7d793          	srli	a5,a5,0xc
    2504:	00f767b3          	or	a5,a4,a5
    2508:	01f49713          	slli	a4,s1,0x1f
    250c:	00e7e633          	or	a2,a5,a4
    2510:	01412483          	lw	s1,20(sp)
    2514:	01012903          	lw	s2,16(sp)
    2518:	00c12983          	lw	s3,12(sp)
    251c:	00068513          	mv	a0,a3
    2520:	00060593          	mv	a1,a2
    2524:	02010113          	addi	sp,sp,32
    2528:	00008067          	ret
    252c:	00000793          	li	a5,0
    2530:	00000513          	li	a0,0
    2534:	f85ff06f          	j	24b8 <__subdf3+0x728>

00002538 <__fixdfsi>:
    2538:	0145d713          	srli	a4,a1,0x14
    253c:	001006b7          	lui	a3,0x100
    2540:	fff68793          	addi	a5,a3,-1 # fffff <_end+0xead9b>
    2544:	7ff77713          	andi	a4,a4,2047
    2548:	3fe00613          	li	a2,1022
    254c:	00b7f7b3          	and	a5,a5,a1
    2550:	01f5d593          	srli	a1,a1,0x1f
    2554:	04e65e63          	bge	a2,a4,25b0 <__fixdfsi+0x78>
    2558:	41d00613          	li	a2,1053
    255c:	00e65a63          	bge	a2,a4,2570 <__fixdfsi+0x38>
    2560:	80000537          	lui	a0,0x80000
    2564:	fff50513          	addi	a0,a0,-1 # 7fffffff <_end+0x7ffead9b>
    2568:	00a58533          	add	a0,a1,a0
    256c:	00008067          	ret
    2570:	00d7e7b3          	or	a5,a5,a3
    2574:	43300693          	li	a3,1075
    2578:	40e686b3          	sub	a3,a3,a4
    257c:	01f00613          	li	a2,31
    2580:	02d64063          	blt	a2,a3,25a0 <__fixdfsi+0x68>
    2584:	bed70713          	addi	a4,a4,-1043
    2588:	00e797b3          	sll	a5,a5,a4
    258c:	00d55533          	srl	a0,a0,a3
    2590:	00a7e533          	or	a0,a5,a0
    2594:	02058063          	beqz	a1,25b4 <__fixdfsi+0x7c>
    2598:	40a00533          	neg	a0,a0
    259c:	00008067          	ret
    25a0:	41300693          	li	a3,1043
    25a4:	40e68733          	sub	a4,a3,a4
    25a8:	00e7d533          	srl	a0,a5,a4
    25ac:	fe9ff06f          	j	2594 <__fixdfsi+0x5c>
    25b0:	00000513          	li	a0,0
    25b4:	00008067          	ret

000025b8 <__floatsidf>:
    25b8:	ff010113          	addi	sp,sp,-16
    25bc:	00112623          	sw	ra,12(sp)
    25c0:	00812423          	sw	s0,8(sp)
    25c4:	00912223          	sw	s1,4(sp)
    25c8:	08050663          	beqz	a0,2654 <__floatsidf+0x9c>
    25cc:	41f55793          	srai	a5,a0,0x1f
    25d0:	00a7c433          	xor	s0,a5,a0
    25d4:	40f40433          	sub	s0,s0,a5
    25d8:	01f55493          	srli	s1,a0,0x1f
    25dc:	00040513          	mv	a0,s0
    25e0:	525020ef          	jal	5304 <__clzsi2>
    25e4:	41e00713          	li	a4,1054
    25e8:	00a00793          	li	a5,10
    25ec:	40a70733          	sub	a4,a4,a0
    25f0:	04a7c863          	blt	a5,a0,2640 <__floatsidf+0x88>
    25f4:	00b00793          	li	a5,11
    25f8:	40a787b3          	sub	a5,a5,a0
    25fc:	01550513          	addi	a0,a0,21
    2600:	00f457b3          	srl	a5,s0,a5
    2604:	00a41433          	sll	s0,s0,a0
    2608:	00048513          	mv	a0,s1
    260c:	00c79793          	slli	a5,a5,0xc
    2610:	00c7d793          	srli	a5,a5,0xc
    2614:	01471713          	slli	a4,a4,0x14
    2618:	01f51513          	slli	a0,a0,0x1f
    261c:	00f76733          	or	a4,a4,a5
    2620:	00c12083          	lw	ra,12(sp)
    2624:	00a767b3          	or	a5,a4,a0
    2628:	00040513          	mv	a0,s0
    262c:	00812403          	lw	s0,8(sp)
    2630:	00412483          	lw	s1,4(sp)
    2634:	00078593          	mv	a1,a5
    2638:	01010113          	addi	sp,sp,16
    263c:	00008067          	ret
    2640:	ff550513          	addi	a0,a0,-11
    2644:	00a417b3          	sll	a5,s0,a0
    2648:	00048513          	mv	a0,s1
    264c:	00000413          	li	s0,0
    2650:	fbdff06f          	j	260c <__floatsidf+0x54>
    2654:	00000713          	li	a4,0
    2658:	00000793          	li	a5,0
    265c:	ff1ff06f          	j	264c <__floatsidf+0x94>

00002660 <__eqtf2>:
    2660:	00c52783          	lw	a5,12(a0)
    2664:	0005af03          	lw	t5,0(a1)
    2668:	0045af83          	lw	t6,4(a1)
    266c:	0085a283          	lw	t0,8(a1)
    2670:	00c5a583          	lw	a1,12(a1)
    2674:	00008737          	lui	a4,0x8
    2678:	0107d693          	srli	a3,a5,0x10
    267c:	fff70713          	addi	a4,a4,-1 # 7fff <_vfprintf_r+0xc07>
    2680:	01079813          	slli	a6,a5,0x10
    2684:	01059e93          	slli	t4,a1,0x10
    2688:	01f7d613          	srli	a2,a5,0x1f
    268c:	00e6f6b3          	and	a3,a3,a4
    2690:	0105d793          	srli	a5,a1,0x10
    2694:	00052883          	lw	a7,0(a0)
    2698:	00452303          	lw	t1,4(a0)
    269c:	00852e03          	lw	t3,8(a0)
    26a0:	ff010113          	addi	sp,sp,-16
    26a4:	01085813          	srli	a6,a6,0x10
    26a8:	010ede93          	srli	t4,t4,0x10
    26ac:	00e7f7b3          	and	a5,a5,a4
    26b0:	01f5d593          	srli	a1,a1,0x1f
    26b4:	02e69063          	bne	a3,a4,26d4 <__eqtf2+0x74>
    26b8:	0068e733          	or	a4,a7,t1
    26bc:	01c76733          	or	a4,a4,t3
    26c0:	01076733          	or	a4,a4,a6
    26c4:	00100513          	li	a0,1
    26c8:	04071a63          	bnez	a4,271c <__eqtf2+0xbc>
    26cc:	04d79863          	bne	a5,a3,271c <__eqtf2+0xbc>
    26d0:	0080006f          	j	26d8 <__eqtf2+0x78>
    26d4:	00e79c63          	bne	a5,a4,26ec <__eqtf2+0x8c>
    26d8:	01ff6733          	or	a4,t5,t6
    26dc:	00576733          	or	a4,a4,t0
    26e0:	01d76733          	or	a4,a4,t4
    26e4:	00100513          	li	a0,1
    26e8:	02071a63          	bnez	a4,271c <__eqtf2+0xbc>
    26ec:	00100513          	li	a0,1
    26f0:	02d79663          	bne	a5,a3,271c <__eqtf2+0xbc>
    26f4:	03e89463          	bne	a7,t5,271c <__eqtf2+0xbc>
    26f8:	03f31263          	bne	t1,t6,271c <__eqtf2+0xbc>
    26fc:	025e1063          	bne	t3,t0,271c <__eqtf2+0xbc>
    2700:	01d81e63          	bne	a6,t4,271c <__eqtf2+0xbc>
    2704:	02b60063          	beq	a2,a1,2724 <__eqtf2+0xc4>
    2708:	00079a63          	bnez	a5,271c <__eqtf2+0xbc>
    270c:	0068e533          	or	a0,a7,t1
    2710:	01c56533          	or	a0,a0,t3
    2714:	01056533          	or	a0,a0,a6
    2718:	00a03533          	snez	a0,a0
    271c:	01010113          	addi	sp,sp,16
    2720:	00008067          	ret
    2724:	00000513          	li	a0,0
    2728:	ff5ff06f          	j	271c <__eqtf2+0xbc>

0000272c <__getf2>:
    272c:	00c52783          	lw	a5,12(a0)
    2730:	00c5a683          	lw	a3,12(a1)
    2734:	00008737          	lui	a4,0x8
    2738:	0107d613          	srli	a2,a5,0x10
    273c:	fff70713          	addi	a4,a4,-1 # 7fff <_vfprintf_r+0xc07>
    2740:	01079813          	slli	a6,a5,0x10
    2744:	01069293          	slli	t0,a3,0x10
    2748:	00052883          	lw	a7,0(a0)
    274c:	00452303          	lw	t1,4(a0)
    2750:	00852e03          	lw	t3,8(a0)
    2754:	00e67633          	and	a2,a2,a4
    2758:	0106d513          	srli	a0,a3,0x10
    275c:	0005ae83          	lw	t4,0(a1)
    2760:	0045af03          	lw	t5,4(a1)
    2764:	0085af83          	lw	t6,8(a1)
    2768:	ff010113          	addi	sp,sp,-16
    276c:	01085813          	srli	a6,a6,0x10
    2770:	01f7d793          	srli	a5,a5,0x1f
    2774:	0102d293          	srli	t0,t0,0x10
    2778:	00e57533          	and	a0,a0,a4
    277c:	01f6d693          	srli	a3,a3,0x1f
    2780:	00e61a63          	bne	a2,a4,2794 <__getf2+0x68>
    2784:	01136733          	or	a4,t1,a7
    2788:	01c76733          	or	a4,a4,t3
    278c:	01076733          	or	a4,a4,a6
    2790:	0a071463          	bnez	a4,2838 <__getf2+0x10c>
    2794:	00008737          	lui	a4,0x8
    2798:	fff70713          	addi	a4,a4,-1 # 7fff <_vfprintf_r+0xc07>
    279c:	00e51a63          	bne	a0,a4,27b0 <__getf2+0x84>
    27a0:	01eee733          	or	a4,t4,t5
    27a4:	01f76733          	or	a4,a4,t6
    27a8:	00576733          	or	a4,a4,t0
    27ac:	08071663          	bnez	a4,2838 <__getf2+0x10c>
    27b0:	00000713          	li	a4,0
    27b4:	00061a63          	bnez	a2,27c8 <__getf2+0x9c>
    27b8:	01136733          	or	a4,t1,a7
    27bc:	01c76733          	or	a4,a4,t3
    27c0:	01076733          	or	a4,a4,a6
    27c4:	00173713          	seqz	a4,a4
    27c8:	06051c63          	bnez	a0,2840 <__getf2+0x114>
    27cc:	01eee5b3          	or	a1,t4,t5
    27d0:	01f5e5b3          	or	a1,a1,t6
    27d4:	0055e5b3          	or	a1,a1,t0
    27d8:	00070c63          	beqz	a4,27f0 <__getf2+0xc4>
    27dc:	02058063          	beqz	a1,27fc <__getf2+0xd0>
    27e0:	00100513          	li	a0,1
    27e4:	00069c63          	bnez	a3,27fc <__getf2+0xd0>
    27e8:	fff00513          	li	a0,-1
    27ec:	0100006f          	j	27fc <__getf2+0xd0>
    27f0:	04059a63          	bnez	a1,2844 <__getf2+0x118>
    27f4:	fff00513          	li	a0,-1
    27f8:	04078e63          	beqz	a5,2854 <__getf2+0x128>
    27fc:	01010113          	addi	sp,sp,16
    2800:	00008067          	ret
    2804:	fca64ee3          	blt	a2,a0,27e0 <__getf2+0xb4>
    2808:	ff02e6e3          	bltu	t0,a6,27f4 <__getf2+0xc8>
    280c:	02581063          	bne	a6,t0,282c <__getf2+0x100>
    2810:	ffcfe2e3          	bltu	t6,t3,27f4 <__getf2+0xc8>
    2814:	01fe1c63          	bne	t3,t6,282c <__getf2+0x100>
    2818:	fc6f6ee3          	bltu	t5,t1,27f4 <__getf2+0xc8>
    281c:	01e31863          	bne	t1,t5,282c <__getf2+0x100>
    2820:	fd1eeae3          	bltu	t4,a7,27f4 <__getf2+0xc8>
    2824:	00000513          	li	a0,0
    2828:	fdd8fae3          	bgeu	a7,t4,27fc <__getf2+0xd0>
    282c:	00100513          	li	a0,1
    2830:	fc0796e3          	bnez	a5,27fc <__getf2+0xd0>
    2834:	fb5ff06f          	j	27e8 <__getf2+0xbc>
    2838:	ffe00513          	li	a0,-2
    283c:	fc1ff06f          	j	27fc <__getf2+0xd0>
    2840:	fa0710e3          	bnez	a4,27e0 <__getf2+0xb4>
    2844:	faf698e3          	bne	a3,a5,27f4 <__getf2+0xc8>
    2848:	fac55ee3          	bge	a0,a2,2804 <__getf2+0xd8>
    284c:	fff00513          	li	a0,-1
    2850:	fa0696e3          	bnez	a3,27fc <__getf2+0xd0>
    2854:	00100513          	li	a0,1
    2858:	fa5ff06f          	j	27fc <__getf2+0xd0>

0000285c <__letf2>:
    285c:	00c52783          	lw	a5,12(a0)
    2860:	00c5a683          	lw	a3,12(a1)
    2864:	00008737          	lui	a4,0x8
    2868:	0107d613          	srli	a2,a5,0x10
    286c:	fff70713          	addi	a4,a4,-1 # 7fff <_vfprintf_r+0xc07>
    2870:	01079813          	slli	a6,a5,0x10
    2874:	01069293          	slli	t0,a3,0x10
    2878:	00052883          	lw	a7,0(a0)
    287c:	00452303          	lw	t1,4(a0)
    2880:	00852e03          	lw	t3,8(a0)
    2884:	00e67633          	and	a2,a2,a4
    2888:	0106d513          	srli	a0,a3,0x10
    288c:	0005ae83          	lw	t4,0(a1)
    2890:	0045af03          	lw	t5,4(a1)
    2894:	0085af83          	lw	t6,8(a1)
    2898:	ff010113          	addi	sp,sp,-16
    289c:	01085813          	srli	a6,a6,0x10
    28a0:	01f7d793          	srli	a5,a5,0x1f
    28a4:	0102d293          	srli	t0,t0,0x10
    28a8:	00e57533          	and	a0,a0,a4
    28ac:	01f6d693          	srli	a3,a3,0x1f
    28b0:	00e61a63          	bne	a2,a4,28c4 <__letf2+0x68>
    28b4:	01136733          	or	a4,t1,a7
    28b8:	01c76733          	or	a4,a4,t3
    28bc:	01076733          	or	a4,a4,a6
    28c0:	0a071463          	bnez	a4,2968 <__letf2+0x10c>
    28c4:	00008737          	lui	a4,0x8
    28c8:	fff70713          	addi	a4,a4,-1 # 7fff <_vfprintf_r+0xc07>
    28cc:	00e51a63          	bne	a0,a4,28e0 <__letf2+0x84>
    28d0:	01eee733          	or	a4,t4,t5
    28d4:	01f76733          	or	a4,a4,t6
    28d8:	00576733          	or	a4,a4,t0
    28dc:	08071663          	bnez	a4,2968 <__letf2+0x10c>
    28e0:	00000713          	li	a4,0
    28e4:	00061a63          	bnez	a2,28f8 <__letf2+0x9c>
    28e8:	01136733          	or	a4,t1,a7
    28ec:	01c76733          	or	a4,a4,t3
    28f0:	01076733          	or	a4,a4,a6
    28f4:	00173713          	seqz	a4,a4
    28f8:	06051c63          	bnez	a0,2970 <__letf2+0x114>
    28fc:	01eee5b3          	or	a1,t4,t5
    2900:	01f5e5b3          	or	a1,a1,t6
    2904:	0055e5b3          	or	a1,a1,t0
    2908:	00070c63          	beqz	a4,2920 <__letf2+0xc4>
    290c:	02058063          	beqz	a1,292c <__letf2+0xd0>
    2910:	00100513          	li	a0,1
    2914:	00069c63          	bnez	a3,292c <__letf2+0xd0>
    2918:	fff00513          	li	a0,-1
    291c:	0100006f          	j	292c <__letf2+0xd0>
    2920:	04059a63          	bnez	a1,2974 <__letf2+0x118>
    2924:	fff00513          	li	a0,-1
    2928:	04078e63          	beqz	a5,2984 <__letf2+0x128>
    292c:	01010113          	addi	sp,sp,16
    2930:	00008067          	ret
    2934:	fca64ee3          	blt	a2,a0,2910 <__letf2+0xb4>
    2938:	ff02e6e3          	bltu	t0,a6,2924 <__letf2+0xc8>
    293c:	02581063          	bne	a6,t0,295c <__letf2+0x100>
    2940:	ffcfe2e3          	bltu	t6,t3,2924 <__letf2+0xc8>
    2944:	01fe1c63          	bne	t3,t6,295c <__letf2+0x100>
    2948:	fc6f6ee3          	bltu	t5,t1,2924 <__letf2+0xc8>
    294c:	01e31863          	bne	t1,t5,295c <__letf2+0x100>
    2950:	fd1eeae3          	bltu	t4,a7,2924 <__letf2+0xc8>
    2954:	00000513          	li	a0,0
    2958:	fdd8fae3          	bgeu	a7,t4,292c <__letf2+0xd0>
    295c:	00100513          	li	a0,1
    2960:	fc0796e3          	bnez	a5,292c <__letf2+0xd0>
    2964:	fb5ff06f          	j	2918 <__letf2+0xbc>
    2968:	00200513          	li	a0,2
    296c:	fc1ff06f          	j	292c <__letf2+0xd0>
    2970:	fa0710e3          	bnez	a4,2910 <__letf2+0xb4>
    2974:	faf698e3          	bne	a3,a5,2924 <__letf2+0xc8>
    2978:	fac55ee3          	bge	a0,a2,2934 <__letf2+0xd8>
    297c:	fff00513          	li	a0,-1
    2980:	fa0696e3          	bnez	a3,292c <__letf2+0xd0>
    2984:	00100513          	li	a0,1
    2988:	fa5ff06f          	j	292c <__letf2+0xd0>

0000298c <__multf3>:
    298c:	f5010113          	addi	sp,sp,-176
    2990:	09412c23          	sw	s4,152(sp)
    2994:	00c5aa03          	lw	s4,12(a1)
    2998:	0005a783          	lw	a5,0(a1)
    299c:	0085a683          	lw	a3,8(a1)
    29a0:	0a812423          	sw	s0,168(sp)
    29a4:	00050413          	mv	s0,a0
    29a8:	0045a503          	lw	a0,4(a1)
    29ac:	010a1713          	slli	a4,s4,0x10
    29b0:	0b212023          	sw	s2,160(sp)
    29b4:	09312e23          	sw	s3,156(sp)
    29b8:	00062903          	lw	s2,0(a2) # 7ff00000 <_end+0x7feead9c>
    29bc:	00c62983          	lw	s3,12(a2)
    29c0:	09512a23          	sw	s5,148(sp)
    29c4:	09612823          	sw	s6,144(sp)
    29c8:	00862a83          	lw	s5,8(a2)
    29cc:	00462b03          	lw	s6,4(a2)
    29d0:	00008637          	lui	a2,0x8
    29d4:	0a912223          	sw	s1,164(sp)
    29d8:	01075713          	srli	a4,a4,0x10
    29dc:	010a5493          	srli	s1,s4,0x10
    29e0:	fff60613          	addi	a2,a2,-1 # 7fff <_vfprintf_r+0xc07>
    29e4:	05412e23          	sw	s4,92(sp)
    29e8:	0a112623          	sw	ra,172(sp)
    29ec:	09712623          	sw	s7,140(sp)
    29f0:	09812423          	sw	s8,136(sp)
    29f4:	09912223          	sw	s9,132(sp)
    29f8:	09a12023          	sw	s10,128(sp)
    29fc:	07b12e23          	sw	s11,124(sp)
    2a00:	04f12823          	sw	a5,80(sp)
    2a04:	04a12a23          	sw	a0,84(sp)
    2a08:	04d12c23          	sw	a3,88(sp)
    2a0c:	02f12023          	sw	a5,32(sp)
    2a10:	02a12223          	sw	a0,36(sp)
    2a14:	02d12423          	sw	a3,40(sp)
    2a18:	02e12623          	sw	a4,44(sp)
    2a1c:	00c4f4b3          	and	s1,s1,a2
    2a20:	01fa5a13          	srli	s4,s4,0x1f
    2a24:	080482e3          	beqz	s1,32a8 <__multf3+0x91c>
    2a28:	1ac48ce3          	beq	s1,a2,33e0 <__multf3+0xa54>
    2a2c:	000106b7          	lui	a3,0x10
    2a30:	00d76733          	or	a4,a4,a3
    2a34:	02e12623          	sw	a4,44(sp)
    2a38:	02010593          	addi	a1,sp,32
    2a3c:	02c10713          	addi	a4,sp,44
    2a40:	00072683          	lw	a3,0(a4)
    2a44:	ffc72603          	lw	a2,-4(a4)
    2a48:	ffc70713          	addi	a4,a4,-4
    2a4c:	00369693          	slli	a3,a3,0x3
    2a50:	01d65613          	srli	a2,a2,0x1d
    2a54:	00c6e6b3          	or	a3,a3,a2
    2a58:	00d72223          	sw	a3,4(a4)
    2a5c:	fee592e3          	bne	a1,a4,2a40 <__multf3+0xb4>
    2a60:	00379793          	slli	a5,a5,0x3
    2a64:	02f12023          	sw	a5,32(sp)
    2a68:	ffffc7b7          	lui	a5,0xffffc
    2a6c:	00178793          	addi	a5,a5,1 # ffffc001 <_end+0xfffe6d9d>
    2a70:	00f484b3          	add	s1,s1,a5
    2a74:	00000b93          	li	s7,0
    2a78:	01099513          	slli	a0,s3,0x10
    2a7c:	00008737          	lui	a4,0x8
    2a80:	0109d793          	srli	a5,s3,0x10
    2a84:	01055513          	srli	a0,a0,0x10
    2a88:	fff70713          	addi	a4,a4,-1 # 7fff <_vfprintf_r+0xc07>
    2a8c:	05312e23          	sw	s3,92(sp)
    2a90:	05212823          	sw	s2,80(sp)
    2a94:	05612a23          	sw	s6,84(sp)
    2a98:	05512c23          	sw	s5,88(sp)
    2a9c:	03212823          	sw	s2,48(sp)
    2aa0:	03612a23          	sw	s6,52(sp)
    2aa4:	03512c23          	sw	s5,56(sp)
    2aa8:	02a12e23          	sw	a0,60(sp)
    2aac:	00e7f7b3          	and	a5,a5,a4
    2ab0:	01f9d993          	srli	s3,s3,0x1f
    2ab4:	14078ae3          	beqz	a5,3408 <__multf3+0xa7c>
    2ab8:	28e784e3          	beq	a5,a4,3540 <__multf3+0xbb4>
    2abc:	00010737          	lui	a4,0x10
    2ac0:	00e56533          	or	a0,a0,a4
    2ac4:	02a12e23          	sw	a0,60(sp)
    2ac8:	03010593          	addi	a1,sp,48
    2acc:	03c10713          	addi	a4,sp,60
    2ad0:	00072683          	lw	a3,0(a4) # 10000 <_realloc_r+0x4c>
    2ad4:	ffc72603          	lw	a2,-4(a4)
    2ad8:	ffc70713          	addi	a4,a4,-4
    2adc:	00369693          	slli	a3,a3,0x3
    2ae0:	01d65613          	srli	a2,a2,0x1d
    2ae4:	00c6e6b3          	or	a3,a3,a2
    2ae8:	00d72223          	sw	a3,4(a4)
    2aec:	fee592e3          	bne	a1,a4,2ad0 <__multf3+0x144>
    2af0:	ffffc737          	lui	a4,0xffffc
    2af4:	00391913          	slli	s2,s2,0x3
    2af8:	00170713          	addi	a4,a4,1 # ffffc001 <_end+0xfffe6d9d>
    2afc:	03212823          	sw	s2,48(sp)
    2b00:	00e787b3          	add	a5,a5,a4
    2b04:	00000693          	li	a3,0
    2b08:	009787b3          	add	a5,a5,s1
    2b0c:	00f12623          	sw	a5,12(sp)
    2b10:	00178793          	addi	a5,a5,1
    2b14:	00f12423          	sw	a5,8(sp)
    2b18:	002b9793          	slli	a5,s7,0x2
    2b1c:	00d7e7b3          	or	a5,a5,a3
    2b20:	00a00713          	li	a4,10
    2b24:	28f742e3          	blt	a4,a5,35a8 <__multf3+0xc1c>
    2b28:	013a4733          	xor	a4,s4,s3
    2b2c:	00e12223          	sw	a4,4(sp)
    2b30:	00200713          	li	a4,2
    2b34:	22f74ae3          	blt	a4,a5,3568 <__multf3+0xbdc>
    2b38:	fff78793          	addi	a5,a5,-1
    2b3c:	00100713          	li	a4,1
    2b40:	28f770e3          	bgeu	a4,a5,35c0 <__multf3+0xc34>
    2b44:	02012883          	lw	a7,32(sp)
    2b48:	03012f03          	lw	t5,48(sp)
    2b4c:	000105b7          	lui	a1,0x10
    2b50:	fff58713          	addi	a4,a1,-1 # ffff <_realloc_r+0x4b>
    2b54:	0108d913          	srli	s2,a7,0x10
    2b58:	010f5493          	srli	s1,t5,0x10
    2b5c:	00e8f8b3          	and	a7,a7,a4
    2b60:	00ef7f33          	and	t5,t5,a4
    2b64:	031f0633          	mul	a2,t5,a7
    2b68:	03e90533          	mul	a0,s2,t5
    2b6c:	01065793          	srli	a5,a2,0x10
    2b70:	031486b3          	mul	a3,s1,a7
    2b74:	00a686b3          	add	a3,a3,a0
    2b78:	00d787b3          	add	a5,a5,a3
    2b7c:	02990bb3          	mul	s7,s2,s1
    2b80:	00a7f463          	bgeu	a5,a0,2b88 <__multf3+0x1fc>
    2b84:	00bb8bb3          	add	s7,s7,a1
    2b88:	03412e83          	lw	t4,52(sp)
    2b8c:	0107d693          	srli	a3,a5,0x10
    2b90:	00e7f7b3          	and	a5,a5,a4
    2b94:	00e67633          	and	a2,a2,a4
    2b98:	01079793          	slli	a5,a5,0x10
    2b9c:	00c787b3          	add	a5,a5,a2
    2ba0:	010ed293          	srli	t0,t4,0x10
    2ba4:	00eefeb3          	and	t4,t4,a4
    2ba8:	03d90633          	mul	a2,s2,t4
    2bac:	00f12823          	sw	a5,16(sp)
    2bb0:	04f12823          	sw	a5,80(sp)
    2bb4:	03128733          	mul	a4,t0,a7
    2bb8:	031e87b3          	mul	a5,t4,a7
    2bbc:	00c70733          	add	a4,a4,a2
    2bc0:	0107d313          	srli	t1,a5,0x10
    2bc4:	00e30333          	add	t1,t1,a4
    2bc8:	02590b33          	mul	s6,s2,t0
    2bcc:	00c37663          	bgeu	t1,a2,2bd8 <__multf3+0x24c>
    2bd0:	00010737          	lui	a4,0x10
    2bd4:	00eb0b33          	add	s6,s6,a4
    2bd8:	02412803          	lw	a6,36(sp)
    2bdc:	00010737          	lui	a4,0x10
    2be0:	fff70613          	addi	a2,a4,-1 # ffff <_realloc_r+0x4b>
    2be4:	01035513          	srli	a0,t1,0x10
    2be8:	00c37333          	and	t1,t1,a2
    2bec:	00c7f7b3          	and	a5,a5,a2
    2bf0:	01085393          	srli	t2,a6,0x10
    2bf4:	01031313          	slli	t1,t1,0x10
    2bf8:	00c87833          	and	a6,a6,a2
    2bfc:	00f30333          	add	t1,t1,a5
    2c00:	03e38fb3          	mul	t6,t2,t5
    2c04:	006686b3          	add	a3,a3,t1
    2c08:	03e807b3          	mul	a5,a6,t5
    2c0c:	03048e33          	mul	t3,s1,a6
    2c10:	0107d613          	srli	a2,a5,0x10
    2c14:	01fe0e33          	add	t3,t3,t6
    2c18:	01c60633          	add	a2,a2,t3
    2c1c:	027485b3          	mul	a1,s1,t2
    2c20:	01f67463          	bgeu	a2,t6,2c28 <__multf3+0x29c>
    2c24:	00e585b3          	add	a1,a1,a4
    2c28:	01065a93          	srli	s5,a2,0x10
    2c2c:	00010737          	lui	a4,0x10
    2c30:	00ba8ab3          	add	s5,s5,a1
    2c34:	fff70593          	addi	a1,a4,-1 # ffff <_realloc_r+0x4b>
    2c38:	00b7f7b3          	and	a5,a5,a1
    2c3c:	00b67633          	and	a2,a2,a1
    2c40:	01061613          	slli	a2,a2,0x10
    2c44:	030e85b3          	mul	a1,t4,a6
    2c48:	00f60633          	add	a2,a2,a5
    2c4c:	03d38fb3          	mul	t6,t2,t4
    2c50:	0105d793          	srli	a5,a1,0x10
    2c54:	03028e33          	mul	t3,t0,a6
    2c58:	01fe0e33          	add	t3,t3,t6
    2c5c:	01c787b3          	add	a5,a5,t3
    2c60:	027289b3          	mul	s3,t0,t2
    2c64:	01f7f463          	bgeu	a5,t6,2c6c <__multf3+0x2e0>
    2c68:	00e989b3          	add	s3,s3,a4
    2c6c:	0107d713          	srli	a4,a5,0x10
    2c70:	01370733          	add	a4,a4,s3
    2c74:	00010a37          	lui	s4,0x10
    2c78:	00e12a23          	sw	a4,20(sp)
    2c7c:	fffa0713          	addi	a4,s4,-1 # ffff <_realloc_r+0x4b>
    2c80:	03812e03          	lw	t3,56(sp)
    2c84:	00e7f7b3          	and	a5,a5,a4
    2c88:	00e5f5b3          	and	a1,a1,a4
    2c8c:	01079793          	slli	a5,a5,0x10
    2c90:	00b787b3          	add	a5,a5,a1
    2c94:	00f12c23          	sw	a5,24(sp)
    2c98:	010e5793          	srli	a5,t3,0x10
    2c9c:	00ee7e33          	and	t3,t3,a4
    2ca0:	031e05b3          	mul	a1,t3,a7
    2ca4:	03c90c33          	mul	s8,s2,t3
    2ca8:	0105d713          	srli	a4,a1,0x10
    2cac:	031789b3          	mul	s3,a5,a7
    2cb0:	018989b3          	add	s3,s3,s8
    2cb4:	01370733          	add	a4,a4,s3
    2cb8:	02f90fb3          	mul	t6,s2,a5
    2cbc:	01877463          	bgeu	a4,s8,2cc4 <__multf3+0x338>
    2cc0:	014f8fb3          	add	t6,t6,s4
    2cc4:	01075993          	srli	s3,a4,0x10
    2cc8:	00010cb7          	lui	s9,0x10
    2ccc:	01f98fb3          	add	t6,s3,t6
    2cd0:	fffc8993          	addi	s3,s9,-1 # ffff <_realloc_r+0x4b>
    2cd4:	01377733          	and	a4,a4,s3
    2cd8:	0135f5b3          	and	a1,a1,s3
    2cdc:	01071713          	slli	a4,a4,0x10
    2ce0:	00b70733          	add	a4,a4,a1
    2ce4:	02812583          	lw	a1,40(sp)
    2ce8:	01f12e23          	sw	t6,28(sp)
    2cec:	0105df93          	srli	t6,a1,0x10
    2cf0:	0135f5b3          	and	a1,a1,s3
    2cf4:	03e58a33          	mul	s4,a1,t5
    2cf8:	03ef8d33          	mul	s10,t6,t5
    2cfc:	010a5d93          	srli	s11,s4,0x10
    2d00:	02b489b3          	mul	s3,s1,a1
    2d04:	01a989b3          	add	s3,s3,s10
    2d08:	013d89b3          	add	s3,s11,s3
    2d0c:	03f48c33          	mul	s8,s1,t6
    2d10:	01a9f463          	bgeu	s3,s10,2d18 <__multf3+0x38c>
    2d14:	019c0c33          	add	s8,s8,s9
    2d18:	00db86b3          	add	a3,s7,a3
    2d1c:	0066b333          	sltu	t1,a3,t1
    2d20:	0109dd13          	srli	s10,s3,0x10
    2d24:	00650533          	add	a0,a0,t1
    2d28:	00010cb7          	lui	s9,0x10
    2d2c:	01650533          	add	a0,a0,s6
    2d30:	018d0d33          	add	s10,s10,s8
    2d34:	00c68633          	add	a2,a3,a2
    2d38:	fffc8c13          	addi	s8,s9,-1 # ffff <_realloc_r+0x4b>
    2d3c:	01550ab3          	add	s5,a0,s5
    2d40:	0189f9b3          	and	s3,s3,s8
    2d44:	00d636b3          	sltu	a3,a2,a3
    2d48:	00da86b3          	add	a3,s5,a3
    2d4c:	01099993          	slli	s3,s3,0x10
    2d50:	018a7a33          	and	s4,s4,s8
    2d54:	01498a33          	add	s4,s3,s4
    2d58:	00aab9b3          	sltu	s3,s5,a0
    2d5c:	0156bab3          	sltu	s5,a3,s5
    2d60:	0159e9b3          	or	s3,s3,s5
    2d64:	00653533          	sltu	a0,a0,t1
    2d68:	00a98533          	add	a0,s3,a0
    2d6c:	01812303          	lw	t1,24(sp)
    2d70:	01412983          	lw	s3,20(sp)
    2d74:	04c12a23          	sw	a2,84(sp)
    2d78:	00668333          	add	t1,a3,t1
    2d7c:	01350ab3          	add	s5,a0,s3
    2d80:	01c12983          	lw	s3,28(sp)
    2d84:	00d336b3          	sltu	a3,t1,a3
    2d88:	00da86b3          	add	a3,s5,a3
    2d8c:	00e30733          	add	a4,t1,a4
    2d90:	01368b33          	add	s6,a3,s3
    2d94:	00673333          	sltu	t1,a4,t1
    2d98:	006b0333          	add	t1,s6,t1
    2d9c:	01470a33          	add	s4,a4,s4
    2da0:	01a30d33          	add	s10,t1,s10
    2da4:	00ea3733          	sltu	a4,s4,a4
    2da8:	00aab533          	sltu	a0,s5,a0
    2dac:	00ed0733          	add	a4,s10,a4
    2db0:	0156bab3          	sltu	s5,a3,s5
    2db4:	00db36b3          	sltu	a3,s6,a3
    2db8:	01633b33          	sltu	s6,t1,s6
    2dbc:	0166e6b3          	or	a3,a3,s6
    2dc0:	006d39b3          	sltu	s3,s10,t1
    2dc4:	01556ab3          	or	s5,a0,s5
    2dc8:	01a73d33          	sltu	s10,a4,s10
    2dcc:	00da8ab3          	add	s5,s5,a3
    2dd0:	01a9e9b3          	or	s3,s3,s10
    2dd4:	015989b3          	add	s3,s3,s5
    2dd8:	03c12a83          	lw	s5,60(sp)
    2ddc:	05412c23          	sw	s4,88(sp)
    2de0:	010adb13          	srli	s6,s5,0x10
    2de4:	018afab3          	and	s5,s5,s8
    2de8:	031a86b3          	mul	a3,s5,a7
    2dec:	03590533          	mul	a0,s2,s5
    2df0:	031b08b3          	mul	a7,s6,a7
    2df4:	00a88333          	add	t1,a7,a0
    2df8:	0106d893          	srli	a7,a3,0x10
    2dfc:	006888b3          	add	a7,a7,t1
    2e00:	03690933          	mul	s2,s2,s6
    2e04:	00a8f463          	bgeu	a7,a0,2e0c <__multf3+0x480>
    2e08:	01990933          	add	s2,s2,s9
    2e0c:	02c12b83          	lw	s7,44(sp)
    2e10:	0108d513          	srli	a0,a7,0x10
    2e14:	01250533          	add	a0,a0,s2
    2e18:	00010c37          	lui	s8,0x10
    2e1c:	00a12a23          	sw	a0,20(sp)
    2e20:	fffc0513          	addi	a0,s8,-1 # ffff <_realloc_r+0x4b>
    2e24:	010bd913          	srli	s2,s7,0x10
    2e28:	00abfbb3          	and	s7,s7,a0
    2e2c:	00a6f6b3          	and	a3,a3,a0
    2e30:	00a8f8b3          	and	a7,a7,a0
    2e34:	03248333          	mul	t1,s1,s2
    2e38:	01089893          	slli	a7,a7,0x10
    2e3c:	00d888b3          	add	a7,a7,a3
    2e40:	03eb8533          	mul	a0,s7,t5
    2e44:	037484b3          	mul	s1,s1,s7
    2e48:	01055693          	srli	a3,a0,0x10
    2e4c:	03e90f33          	mul	t5,s2,t5
    2e50:	01e484b3          	add	s1,s1,t5
    2e54:	009686b3          	add	a3,a3,s1
    2e58:	01e6f463          	bgeu	a3,t5,2e60 <__multf3+0x4d4>
    2e5c:	01830333          	add	t1,t1,s8
    2e60:	0106df13          	srli	t5,a3,0x10
    2e64:	006f0333          	add	t1,t5,t1
    2e68:	00010cb7          	lui	s9,0x10
    2e6c:	00612c23          	sw	t1,24(sp)
    2e70:	fffc8313          	addi	t1,s9,-1 # ffff <_realloc_r+0x4b>
    2e74:	00657533          	and	a0,a0,t1
    2e78:	0066f6b3          	and	a3,a3,t1
    2e7c:	03c38f33          	mul	t5,t2,t3
    2e80:	01069693          	slli	a3,a3,0x10
    2e84:	00a686b3          	add	a3,a3,a0
    2e88:	03c80333          	mul	t1,a6,t3
    2e8c:	030784b3          	mul	s1,a5,a6
    2e90:	01035513          	srli	a0,t1,0x10
    2e94:	01e484b3          	add	s1,s1,t5
    2e98:	00950533          	add	a0,a0,s1
    2e9c:	02f38c33          	mul	s8,t2,a5
    2ea0:	01e57463          	bgeu	a0,t5,2ea8 <__multf3+0x51c>
    2ea4:	019c0c33          	add	s8,s8,s9
    2ea8:	00010d37          	lui	s10,0x10
    2eac:	fffd0f13          	addi	t5,s10,-1 # ffff <_realloc_r+0x4b>
    2eb0:	01055493          	srli	s1,a0,0x10
    2eb4:	01e57533          	and	a0,a0,t5
    2eb8:	01e37333          	and	t1,t1,t5
    2ebc:	01051513          	slli	a0,a0,0x10
    2ec0:	018484b3          	add	s1,s1,s8
    2ec4:	02b28f33          	mul	t5,t0,a1
    2ec8:	00650533          	add	a0,a0,t1
    2ecc:	03df8c33          	mul	s8,t6,t4
    2ed0:	02be8333          	mul	t1,t4,a1
    2ed4:	018f0f33          	add	t5,t5,s8
    2ed8:	01035d93          	srli	s11,t1,0x10
    2edc:	01ed8f33          	add	t5,s11,t5
    2ee0:	03f28cb3          	mul	s9,t0,t6
    2ee4:	018f7463          	bgeu	t5,s8,2eec <__multf3+0x560>
    2ee8:	01ac8cb3          	add	s9,s9,s10
    2eec:	010f5c13          	srli	s8,t5,0x10
    2ef0:	019c0c33          	add	s8,s8,s9
    2ef4:	00010cb7          	lui	s9,0x10
    2ef8:	fffc8d13          	addi	s10,s9,-1 # ffff <_realloc_r+0x4b>
    2efc:	01af7f33          	and	t5,t5,s10
    2f00:	010f1f13          	slli	t5,t5,0x10
    2f04:	01a37333          	and	t1,t1,s10
    2f08:	006f0333          	add	t1,t5,t1
    2f0c:	01412f03          	lw	t5,20(sp)
    2f10:	011708b3          	add	a7,a4,a7
    2f14:	01812d03          	lw	s10,24(sp)
    2f18:	01e98f33          	add	t5,s3,t5
    2f1c:	00e8b733          	sltu	a4,a7,a4
    2f20:	00ef0733          	add	a4,t5,a4
    2f24:	00d886b3          	add	a3,a7,a3
    2f28:	01a70d33          	add	s10,a4,s10
    2f2c:	0116b8b3          	sltu	a7,a3,a7
    2f30:	011d08b3          	add	a7,s10,a7
    2f34:	00a68533          	add	a0,a3,a0
    2f38:	009884b3          	add	s1,a7,s1
    2f3c:	00d536b3          	sltu	a3,a0,a3
    2f40:	00d486b3          	add	a3,s1,a3
    2f44:	013f39b3          	sltu	s3,t5,s3
    2f48:	01e73f33          	sltu	t5,a4,t5
    2f4c:	00ed3733          	sltu	a4,s10,a4
    2f50:	01a8bd33          	sltu	s10,a7,s10
    2f54:	01e9ef33          	or	t5,s3,t5
    2f58:	0114b8b3          	sltu	a7,s1,a7
    2f5c:	01a76733          	or	a4,a4,s10
    2f60:	0096b4b3          	sltu	s1,a3,s1
    2f64:	01868c33          	add	s8,a3,s8
    2f68:	00ef0733          	add	a4,t5,a4
    2f6c:	0098e8b3          	or	a7,a7,s1
    2f70:	00e884b3          	add	s1,a7,a4
    2f74:	03cf8f33          	mul	t5,t6,t3
    2f78:	00dc38b3          	sltu	a7,s8,a3
    2f7c:	00650333          	add	t1,a0,t1
    2f80:	00a33533          	sltu	a0,t1,a0
    2f84:	00ac0533          	add	a0,s8,a0
    2f88:	01853c33          	sltu	s8,a0,s8
    2f8c:	0188e8b3          	or	a7,a7,s8
    2f90:	04612e23          	sw	t1,92(sp)
    2f94:	009888b3          	add	a7,a7,s1
    2f98:	02be06b3          	mul	a3,t3,a1
    2f9c:	02b789b3          	mul	s3,a5,a1
    2fa0:	0106d713          	srli	a4,a3,0x10
    2fa4:	01e989b3          	add	s3,s3,t5
    2fa8:	01370733          	add	a4,a4,s3
    2fac:	03f784b3          	mul	s1,a5,t6
    2fb0:	01e77463          	bgeu	a4,t5,2fb8 <__multf3+0x62c>
    2fb4:	019484b3          	add	s1,s1,s9
    2fb8:	01075f13          	srli	t5,a4,0x10
    2fbc:	009f0f33          	add	t5,t5,s1
    2fc0:	000104b7          	lui	s1,0x10
    2fc4:	fff48993          	addi	s3,s1,-1 # ffff <_realloc_r+0x4b>
    2fc8:	01377733          	and	a4,a4,s3
    2fcc:	0136f6b3          	and	a3,a3,s3
    2fd0:	01071713          	slli	a4,a4,0x10
    2fd4:	035389b3          	mul	s3,t2,s5
    2fd8:	00d70733          	add	a4,a4,a3
    2fdc:	030a86b3          	mul	a3,s5,a6
    2fe0:	030b0833          	mul	a6,s6,a6
    2fe4:	01380c33          	add	s8,a6,s3
    2fe8:	0106d813          	srli	a6,a3,0x10
    2fec:	01880833          	add	a6,a6,s8
    2ff0:	036383b3          	mul	t2,t2,s6
    2ff4:	01387463          	bgeu	a6,s3,2ffc <__multf3+0x670>
    2ff8:	009383b3          	add	t2,t2,s1
    2ffc:	01085493          	srli	s1,a6,0x10
    3000:	00010c37          	lui	s8,0x10
    3004:	007483b3          	add	t2,s1,t2
    3008:	fffc0493          	addi	s1,s8,-1 # ffff <_realloc_r+0x4b>
    300c:	0096f6b3          	and	a3,a3,s1
    3010:	00987833          	and	a6,a6,s1
    3014:	01081813          	slli	a6,a6,0x10
    3018:	03db89b3          	mul	s3,s7,t4
    301c:	00d80833          	add	a6,a6,a3
    3020:	03d90eb3          	mul	t4,s2,t4
    3024:	0109d693          	srli	a3,s3,0x10
    3028:	032284b3          	mul	s1,t0,s2
    302c:	037282b3          	mul	t0,t0,s7
    3030:	01d282b3          	add	t0,t0,t4
    3034:	005686b3          	add	a3,a3,t0
    3038:	01d6f463          	bgeu	a3,t4,3040 <__multf3+0x6b4>
    303c:	018484b3          	add	s1,s1,s8
    3040:	0106de93          	srli	t4,a3,0x10
    3044:	009e8eb3          	add	t4,t4,s1
    3048:	000104b7          	lui	s1,0x10
    304c:	fff48293          	addi	t0,s1,-1 # ffff <_realloc_r+0x4b>
    3050:	0056f6b3          	and	a3,a3,t0
    3054:	0059f9b3          	and	s3,s3,t0
    3058:	01069693          	slli	a3,a3,0x10
    305c:	02ba82b3          	mul	t0,s5,a1
    3060:	013686b3          	add	a3,a3,s3
    3064:	02bb05b3          	mul	a1,s6,a1
    3068:	035f89b3          	mul	s3,t6,s5
    306c:	01358c33          	add	s8,a1,s3
    3070:	0102d593          	srli	a1,t0,0x10
    3074:	018585b3          	add	a1,a1,s8
    3078:	036f8fb3          	mul	t6,t6,s6
    307c:	0135f463          	bgeu	a1,s3,3084 <__multf3+0x6f8>
    3080:	009f8fb3          	add	t6,t6,s1
    3084:	0105d493          	srli	s1,a1,0x10
    3088:	01f48fb3          	add	t6,s1,t6
    308c:	000104b7          	lui	s1,0x10
    3090:	fff48993          	addi	s3,s1,-1 # ffff <_realloc_r+0x4b>
    3094:	0135f5b3          	and	a1,a1,s3
    3098:	0132f2b3          	and	t0,t0,s3
    309c:	01059593          	slli	a1,a1,0x10
    30a0:	032789b3          	mul	s3,a5,s2
    30a4:	005585b3          	add	a1,a1,t0
    30a8:	037787b3          	mul	a5,a5,s7
    30ac:	03cb82b3          	mul	t0,s7,t3
    30b0:	03c90e33          	mul	t3,s2,t3
    30b4:	0102dc13          	srli	s8,t0,0x10
    30b8:	01c787b3          	add	a5,a5,t3
    30bc:	00fc07b3          	add	a5,s8,a5
    30c0:	01c7f463          	bgeu	a5,t3,30c8 <__multf3+0x73c>
    30c4:	009989b3          	add	s3,s3,s1
    30c8:	00e50733          	add	a4,a0,a4
    30cc:	01070833          	add	a6,a4,a6
    30d0:	01e88f33          	add	t5,a7,t5
    30d4:	00a73533          	sltu	a0,a4,a0
    30d8:	00af0533          	add	a0,t5,a0
    30dc:	00d806b3          	add	a3,a6,a3
    30e0:	007503b3          	add	t2,a0,t2
    30e4:	00e83733          	sltu	a4,a6,a4
    30e8:	06d12023          	sw	a3,96(sp)
    30ec:	0106b6b3          	sltu	a3,a3,a6
    30f0:	037a8833          	mul	a6,s5,s7
    30f4:	00e38733          	add	a4,t2,a4
    30f8:	01d70eb3          	add	t4,a4,t4
    30fc:	00de86b3          	add	a3,t4,a3
    3100:	0107de13          	srli	t3,a5,0x10
    3104:	011f38b3          	sltu	a7,t5,a7
    3108:	000104b7          	lui	s1,0x10
    310c:	01e53f33          	sltu	t5,a0,t5
    3110:	00a3b533          	sltu	a0,t2,a0
    3114:	007733b3          	sltu	t2,a4,t2
    3118:	03590ab3          	mul	s5,s2,s5
    311c:	013e0e33          	add	t3,t3,s3
    3120:	00756533          	or	a0,a0,t2
    3124:	fff48993          	addi	s3,s1,-1 # ffff <_realloc_r+0x4b>
    3128:	00eeb733          	sltu	a4,t4,a4
    312c:	01e8e8b3          	or	a7,a7,t5
    3130:	01d6beb3          	sltu	t4,a3,t4
    3134:	00a888b3          	add	a7,a7,a0
    3138:	0137f7b3          	and	a5,a5,s3
    313c:	01d76733          	or	a4,a4,t4
    3140:	032b0933          	mul	s2,s6,s2
    3144:	00b685b3          	add	a1,a3,a1
    3148:	01170733          	add	a4,a4,a7
    314c:	01079793          	slli	a5,a5,0x10
    3150:	0132f2b3          	and	t0,t0,s3
    3154:	01f70fb3          	add	t6,a4,t6
    3158:	005787b3          	add	a5,a5,t0
    315c:	00d5b6b3          	sltu	a3,a1,a3
    3160:	00df86b3          	add	a3,t6,a3
    3164:	00f587b3          	add	a5,a1,a5
    3168:	037b0b33          	mul	s6,s6,s7
    316c:	00efb733          	sltu	a4,t6,a4
    3170:	01c68e33          	add	t3,a3,t3
    3174:	01f6bfb3          	sltu	t6,a3,t6
    3178:	06f12223          	sw	a5,100(sp)
    317c:	00b7b7b3          	sltu	a5,a5,a1
    3180:	01f76533          	or	a0,a4,t6
    3184:	00fe07b3          	add	a5,t3,a5
    3188:	01085713          	srli	a4,a6,0x10
    318c:	00de36b3          	sltu	a3,t3,a3
    3190:	015b0b33          	add	s6,s6,s5
    3194:	01c7be33          	sltu	t3,a5,t3
    3198:	01670733          	add	a4,a4,s6
    319c:	01c6e6b3          	or	a3,a3,t3
    31a0:	01577463          	bgeu	a4,s5,31a8 <__multf3+0x81c>
    31a4:	00990933          	add	s2,s2,s1
    31a8:	01075593          	srli	a1,a4,0x10
    31ac:	00a585b3          	add	a1,a1,a0
    31b0:	00010537          	lui	a0,0x10
    31b4:	fff50513          	addi	a0,a0,-1 # ffff <_realloc_r+0x4b>
    31b8:	00a77733          	and	a4,a4,a0
    31bc:	01071713          	slli	a4,a4,0x10
    31c0:	00a87833          	and	a6,a6,a0
    31c4:	01070733          	add	a4,a4,a6
    31c8:	00e78733          	add	a4,a5,a4
    31cc:	00d586b3          	add	a3,a1,a3
    31d0:	00f737b3          	sltu	a5,a4,a5
    31d4:	00f687b3          	add	a5,a3,a5
    31d8:	012787b3          	add	a5,a5,s2
    31dc:	06f12623          	sw	a5,108(sp)
    31e0:	01012783          	lw	a5,16(sp)
    31e4:	00d31313          	slli	t1,t1,0xd
    31e8:	06e12423          	sw	a4,104(sp)
    31ec:	00c7e7b3          	or	a5,a5,a2
    31f0:	0147e7b3          	or	a5,a5,s4
    31f4:	00f36333          	or	t1,t1,a5
    31f8:	06010613          	addi	a2,sp,96
    31fc:	05010793          	addi	a5,sp,80
    3200:	00c7a703          	lw	a4,12(a5)
    3204:	0107a683          	lw	a3,16(a5)
    3208:	00478793          	addi	a5,a5,4
    320c:	01375713          	srli	a4,a4,0x13
    3210:	00d69693          	slli	a3,a3,0xd
    3214:	00d76733          	or	a4,a4,a3
    3218:	fee7ae23          	sw	a4,-4(a5)
    321c:	fef612e3          	bne	a2,a5,3200 <__multf3+0x874>
    3220:	05012783          	lw	a5,80(sp)
    3224:	00603333          	snez	t1,t1
    3228:	05c12703          	lw	a4,92(sp)
    322c:	00f36333          	or	t1,t1,a5
    3230:	05812783          	lw	a5,88(sp)
    3234:	04e12623          	sw	a4,76(sp)
    3238:	04612023          	sw	t1,64(sp)
    323c:	04f12423          	sw	a5,72(sp)
    3240:	05412783          	lw	a5,84(sp)
    3244:	04f12223          	sw	a5,68(sp)
    3248:	00b71793          	slli	a5,a4,0xb
    324c:	0407d863          	bgez	a5,329c <__multf3+0x910>
    3250:	01f31313          	slli	t1,t1,0x1f
    3254:	04010793          	addi	a5,sp,64
    3258:	04c10593          	addi	a1,sp,76
    325c:	0007a683          	lw	a3,0(a5)
    3260:	0047a603          	lw	a2,4(a5)
    3264:	00478793          	addi	a5,a5,4
    3268:	0016d693          	srli	a3,a3,0x1
    326c:	01f61613          	slli	a2,a2,0x1f
    3270:	00c6e6b3          	or	a3,a3,a2
    3274:	fed7ae23          	sw	a3,-4(a5)
    3278:	fef592e3          	bne	a1,a5,325c <__multf3+0x8d0>
    327c:	04012783          	lw	a5,64(sp)
    3280:	00603333          	snez	t1,t1
    3284:	00175713          	srli	a4,a4,0x1
    3288:	0067e7b3          	or	a5,a5,t1
    328c:	04f12023          	sw	a5,64(sp)
    3290:	00812783          	lw	a5,8(sp)
    3294:	04e12623          	sw	a4,76(sp)
    3298:	00f12623          	sw	a5,12(sp)
    329c:	00c12783          	lw	a5,12(sp)
    32a0:	00f12423          	sw	a5,8(sp)
    32a4:	3780006f          	j	361c <__multf3+0xc90>
    32a8:	00a7e633          	or	a2,a5,a0
    32ac:	00d66633          	or	a2,a2,a3
    32b0:	00e66633          	or	a2,a2,a4
    32b4:	14060463          	beqz	a2,33fc <__multf3+0xa70>
    32b8:	0a070063          	beqz	a4,3358 <__multf3+0x9cc>
    32bc:	00070513          	mv	a0,a4
    32c0:	044020ef          	jal	5304 <__clzsi2>
    32c4:	ff450713          	addi	a4,a0,-12
    32c8:	40575593          	srai	a1,a4,0x5
    32cc:	01f77713          	andi	a4,a4,31
    32d0:	0a070e63          	beqz	a4,338c <__multf3+0xa00>
    32d4:	ffc00693          	li	a3,-4
    32d8:	02d586b3          	mul	a3,a1,a3
    32dc:	02000813          	li	a6,32
    32e0:	02010313          	addi	t1,sp,32
    32e4:	40e80833          	sub	a6,a6,a4
    32e8:	00c68793          	addi	a5,a3,12 # 1000c <_realloc_r+0x58>
    32ec:	00f307b3          	add	a5,t1,a5
    32f0:	40d006b3          	neg	a3,a3
    32f4:	0cf31463          	bne	t1,a5,33bc <__multf3+0xa30>
    32f8:	fff58793          	addi	a5,a1,-1
    32fc:	00259593          	slli	a1,a1,0x2
    3300:	05058693          	addi	a3,a1,80
    3304:	02010613          	addi	a2,sp,32
    3308:	00c685b3          	add	a1,a3,a2
    330c:	02012683          	lw	a3,32(sp)
    3310:	00e69733          	sll	a4,a3,a4
    3314:	fae5a823          	sw	a4,-80(a1)
    3318:	00178793          	addi	a5,a5,1
    331c:	00279793          	slli	a5,a5,0x2
    3320:	00800693          	li	a3,8
    3324:	02010713          	addi	a4,sp,32
    3328:	00d7ea63          	bltu	a5,a3,333c <__multf3+0x9b0>
    332c:	02012023          	sw	zero,32(sp)
    3330:	00072223          	sw	zero,4(a4)
    3334:	ff878793          	addi	a5,a5,-8
    3338:	02810713          	addi	a4,sp,40
    333c:	00400693          	li	a3,4
    3340:	00d7e463          	bltu	a5,a3,3348 <__multf3+0x9bc>
    3344:	00072023          	sw	zero,0(a4)
    3348:	ffffc4b7          	lui	s1,0xffffc
    334c:	01148493          	addi	s1,s1,17 # ffffc011 <_end+0xfffe6dad>
    3350:	40a484b3          	sub	s1,s1,a0
    3354:	f20ff06f          	j	2a74 <__multf3+0xe8>
    3358:	00068a63          	beqz	a3,336c <__multf3+0x9e0>
    335c:	00068513          	mv	a0,a3
    3360:	7a5010ef          	jal	5304 <__clzsi2>
    3364:	02050513          	addi	a0,a0,32
    3368:	f5dff06f          	j	32c4 <__multf3+0x938>
    336c:	00050863          	beqz	a0,337c <__multf3+0x9f0>
    3370:	795010ef          	jal	5304 <__clzsi2>
    3374:	04050513          	addi	a0,a0,64
    3378:	f4dff06f          	j	32c4 <__multf3+0x938>
    337c:	00078513          	mv	a0,a5
    3380:	785010ef          	jal	5304 <__clzsi2>
    3384:	06050513          	addi	a0,a0,96
    3388:	f3dff06f          	j	32c4 <__multf3+0x938>
    338c:	ffc00693          	li	a3,-4
    3390:	02d586b3          	mul	a3,a1,a3
    3394:	02c10793          	addi	a5,sp,44
    3398:	00300713          	li	a4,3
    339c:	00d78633          	add	a2,a5,a3
    33a0:	00062603          	lw	a2,0(a2)
    33a4:	fff70713          	addi	a4,a4,-1
    33a8:	ffc78793          	addi	a5,a5,-4
    33ac:	00c7a223          	sw	a2,4(a5)
    33b0:	feb756e3          	bge	a4,a1,339c <__multf3+0xa10>
    33b4:	fff58793          	addi	a5,a1,-1
    33b8:	f61ff06f          	j	3318 <__multf3+0x98c>
    33bc:	0007a603          	lw	a2,0(a5)
    33c0:	ffc7a883          	lw	a7,-4(a5)
    33c4:	00d78e33          	add	t3,a5,a3
    33c8:	00e61633          	sll	a2,a2,a4
    33cc:	0108d8b3          	srl	a7,a7,a6
    33d0:	01166633          	or	a2,a2,a7
    33d4:	00ce2023          	sw	a2,0(t3)
    33d8:	ffc78793          	addi	a5,a5,-4
    33dc:	f19ff06f          	j	32f4 <__multf3+0x968>
    33e0:	00a7e7b3          	or	a5,a5,a0
    33e4:	00d7e7b3          	or	a5,a5,a3
    33e8:	00e7e7b3          	or	a5,a5,a4
    33ec:	00200b93          	li	s7,2
    33f0:	e8078463          	beqz	a5,2a78 <__multf3+0xec>
    33f4:	00300b93          	li	s7,3
    33f8:	e80ff06f          	j	2a78 <__multf3+0xec>
    33fc:	00000493          	li	s1,0
    3400:	00100b93          	li	s7,1
    3404:	e74ff06f          	j	2a78 <__multf3+0xec>
    3408:	016967b3          	or	a5,s2,s6
    340c:	0157e7b3          	or	a5,a5,s5
    3410:	00a7e7b3          	or	a5,a5,a0
    3414:	14078463          	beqz	a5,355c <__multf3+0xbd0>
    3418:	08050e63          	beqz	a0,34b4 <__multf3+0xb28>
    341c:	6e9010ef          	jal	5304 <__clzsi2>
    3420:	ff450693          	addi	a3,a0,-12
    3424:	4056d793          	srai	a5,a3,0x5
    3428:	01f6f693          	andi	a3,a3,31
    342c:	0c068063          	beqz	a3,34ec <__multf3+0xb60>
    3430:	ffc00613          	li	a2,-4
    3434:	02c78633          	mul	a2,a5,a2
    3438:	02000813          	li	a6,32
    343c:	03010313          	addi	t1,sp,48
    3440:	40d80833          	sub	a6,a6,a3
    3444:	00c60713          	addi	a4,a2,12
    3448:	00e30733          	add	a4,t1,a4
    344c:	40c00633          	neg	a2,a2
    3450:	0ce31663          	bne	t1,a4,351c <__multf3+0xb90>
    3454:	fff78713          	addi	a4,a5,-1
    3458:	00279793          	slli	a5,a5,0x2
    345c:	02010613          	addi	a2,sp,32
    3460:	05078793          	addi	a5,a5,80
    3464:	00c787b3          	add	a5,a5,a2
    3468:	03012603          	lw	a2,48(sp)
    346c:	00d616b3          	sll	a3,a2,a3
    3470:	fcd7a023          	sw	a3,-64(a5)
    3474:	00170793          	addi	a5,a4,1
    3478:	00279793          	slli	a5,a5,0x2
    347c:	00800693          	li	a3,8
    3480:	03010713          	addi	a4,sp,48
    3484:	00d7ea63          	bltu	a5,a3,3498 <__multf3+0xb0c>
    3488:	02012823          	sw	zero,48(sp)
    348c:	00072223          	sw	zero,4(a4)
    3490:	ff878793          	addi	a5,a5,-8
    3494:	03810713          	addi	a4,sp,56
    3498:	00400693          	li	a3,4
    349c:	00d7e463          	bltu	a5,a3,34a4 <__multf3+0xb18>
    34a0:	00072023          	sw	zero,0(a4)
    34a4:	ffffc7b7          	lui	a5,0xffffc
    34a8:	01178793          	addi	a5,a5,17 # ffffc011 <_end+0xfffe6dad>
    34ac:	40a787b3          	sub	a5,a5,a0
    34b0:	e54ff06f          	j	2b04 <__multf3+0x178>
    34b4:	000a8a63          	beqz	s5,34c8 <__multf3+0xb3c>
    34b8:	000a8513          	mv	a0,s5
    34bc:	649010ef          	jal	5304 <__clzsi2>
    34c0:	02050513          	addi	a0,a0,32
    34c4:	f5dff06f          	j	3420 <__multf3+0xa94>
    34c8:	000b0a63          	beqz	s6,34dc <__multf3+0xb50>
    34cc:	000b0513          	mv	a0,s6
    34d0:	635010ef          	jal	5304 <__clzsi2>
    34d4:	04050513          	addi	a0,a0,64
    34d8:	f49ff06f          	j	3420 <__multf3+0xa94>
    34dc:	00090513          	mv	a0,s2
    34e0:	625010ef          	jal	5304 <__clzsi2>
    34e4:	06050513          	addi	a0,a0,96
    34e8:	f39ff06f          	j	3420 <__multf3+0xa94>
    34ec:	ffc00613          	li	a2,-4
    34f0:	02c78633          	mul	a2,a5,a2
    34f4:	03c10713          	addi	a4,sp,60
    34f8:	00300693          	li	a3,3
    34fc:	00c705b3          	add	a1,a4,a2
    3500:	0005a583          	lw	a1,0(a1)
    3504:	fff68693          	addi	a3,a3,-1
    3508:	ffc70713          	addi	a4,a4,-4
    350c:	00b72223          	sw	a1,4(a4)
    3510:	fef6d6e3          	bge	a3,a5,34fc <__multf3+0xb70>
    3514:	fff78713          	addi	a4,a5,-1
    3518:	f5dff06f          	j	3474 <__multf3+0xae8>
    351c:	00072583          	lw	a1,0(a4)
    3520:	ffc72883          	lw	a7,-4(a4)
    3524:	00c70e33          	add	t3,a4,a2
    3528:	00d595b3          	sll	a1,a1,a3
    352c:	0108d8b3          	srl	a7,a7,a6
    3530:	0115e5b3          	or	a1,a1,a7
    3534:	00be2023          	sw	a1,0(t3)
    3538:	ffc70713          	addi	a4,a4,-4
    353c:	f15ff06f          	j	3450 <__multf3+0xac4>
    3540:	01696933          	or	s2,s2,s6
    3544:	01596933          	or	s2,s2,s5
    3548:	00a96933          	or	s2,s2,a0
    354c:	00200693          	li	a3,2
    3550:	da090c63          	beqz	s2,2b08 <__multf3+0x17c>
    3554:	00300693          	li	a3,3
    3558:	db0ff06f          	j	2b08 <__multf3+0x17c>
    355c:	00000793          	li	a5,0
    3560:	00100693          	li	a3,1
    3564:	da4ff06f          	j	2b08 <__multf3+0x17c>
    3568:	00100713          	li	a4,1
    356c:	00f717b3          	sll	a5,a4,a5
    3570:	5307f713          	andi	a4,a5,1328
    3574:	06071863          	bnez	a4,35e4 <__multf3+0xc58>
    3578:	0887f713          	andi	a4,a5,136
    357c:	04071063          	bnez	a4,35bc <__multf3+0xc30>
    3580:	2407f793          	andi	a5,a5,576
    3584:	dc078063          	beqz	a5,2b44 <__multf3+0x1b8>
    3588:	000087b7          	lui	a5,0x8
    358c:	04f12623          	sw	a5,76(sp)
    3590:	04012423          	sw	zero,72(sp)
    3594:	04012223          	sw	zero,68(sp)
    3598:	04012023          	sw	zero,64(sp)
    359c:	fff78793          	addi	a5,a5,-1 # 7fff <_vfprintf_r+0xc07>
    35a0:	00012223          	sw	zero,4(sp)
    35a4:	1440006f          	j	36e8 <__multf3+0xd5c>
    35a8:	00f00713          	li	a4,15
    35ac:	fce78ee3          	beq	a5,a4,3588 <__multf3+0xbfc>
    35b0:	00b00713          	li	a4,11
    35b4:	01412223          	sw	s4,4(sp)
    35b8:	02e79663          	bne	a5,a4,35e4 <__multf3+0xc58>
    35bc:	01312223          	sw	s3,4(sp)
    35c0:	03012783          	lw	a5,48(sp)
    35c4:	00068b93          	mv	s7,a3
    35c8:	04f12023          	sw	a5,64(sp)
    35cc:	03412783          	lw	a5,52(sp)
    35d0:	04f12223          	sw	a5,68(sp)
    35d4:	03812783          	lw	a5,56(sp)
    35d8:	04f12423          	sw	a5,72(sp)
    35dc:	03c12783          	lw	a5,60(sp)
    35e0:	0200006f          	j	3600 <__multf3+0xc74>
    35e4:	02012783          	lw	a5,32(sp)
    35e8:	04f12023          	sw	a5,64(sp)
    35ec:	02412783          	lw	a5,36(sp)
    35f0:	04f12223          	sw	a5,68(sp)
    35f4:	02812783          	lw	a5,40(sp)
    35f8:	04f12423          	sw	a5,72(sp)
    35fc:	02c12783          	lw	a5,44(sp)
    3600:	04f12623          	sw	a5,76(sp)
    3604:	00200793          	li	a5,2
    3608:	36fb8663          	beq	s7,a5,3974 <__multf3+0xfe8>
    360c:	00300793          	li	a5,3
    3610:	f6fb8ce3          	beq	s7,a5,3588 <__multf3+0xbfc>
    3614:	00100793          	li	a5,1
    3618:	34fb8463          	beq	s7,a5,3960 <__multf3+0xfd4>
    361c:	00812703          	lw	a4,8(sp)
    3620:	000047b7          	lui	a5,0x4
    3624:	fff78793          	addi	a5,a5,-1 # 3fff <__subtf3+0x66f>
    3628:	00f707b3          	add	a5,a4,a5
    362c:	12f05a63          	blez	a5,3760 <__multf3+0xdd4>
    3630:	04012703          	lw	a4,64(sp)
    3634:	00777693          	andi	a3,a4,7
    3638:	04068463          	beqz	a3,3680 <__multf3+0xcf4>
    363c:	00f77693          	andi	a3,a4,15
    3640:	00400613          	li	a2,4
    3644:	02c68e63          	beq	a3,a2,3680 <__multf3+0xcf4>
    3648:	00470713          	addi	a4,a4,4
    364c:	00473693          	sltiu	a3,a4,4
    3650:	04e12023          	sw	a4,64(sp)
    3654:	04412703          	lw	a4,68(sp)
    3658:	00e68733          	add	a4,a3,a4
    365c:	04e12223          	sw	a4,68(sp)
    3660:	00d73733          	sltu	a4,a4,a3
    3664:	04812683          	lw	a3,72(sp)
    3668:	00e68733          	add	a4,a3,a4
    366c:	04e12423          	sw	a4,72(sp)
    3670:	00d73733          	sltu	a4,a4,a3
    3674:	04c12683          	lw	a3,76(sp)
    3678:	00d70733          	add	a4,a4,a3
    367c:	04e12623          	sw	a4,76(sp)
    3680:	04c12703          	lw	a4,76(sp)
    3684:	00b71693          	slli	a3,a4,0xb
    3688:	0206d063          	bgez	a3,36a8 <__multf3+0xd1c>
    368c:	fff007b7          	lui	a5,0xfff00
    3690:	fff78793          	addi	a5,a5,-1 # ffefffff <_end+0xffeead9b>
    3694:	00f77733          	and	a4,a4,a5
    3698:	04e12623          	sw	a4,76(sp)
    369c:	00812703          	lw	a4,8(sp)
    36a0:	000047b7          	lui	a5,0x4
    36a4:	00f707b3          	add	a5,a4,a5
    36a8:	04010713          	addi	a4,sp,64
    36ac:	04c10593          	addi	a1,sp,76
    36b0:	00072683          	lw	a3,0(a4)
    36b4:	00472603          	lw	a2,4(a4)
    36b8:	00470713          	addi	a4,a4,4
    36bc:	0036d693          	srli	a3,a3,0x3
    36c0:	01d61613          	slli	a2,a2,0x1d
    36c4:	00c6e6b3          	or	a3,a3,a2
    36c8:	fed72e23          	sw	a3,-4(a4)
    36cc:	fee592e3          	bne	a1,a4,36b0 <__multf3+0xd24>
    36d0:	000086b7          	lui	a3,0x8
    36d4:	ffe68693          	addi	a3,a3,-2 # 7ffe <_vfprintf_r+0xc06>
    36d8:	04c12703          	lw	a4,76(sp)
    36dc:	28f6cc63          	blt	a3,a5,3974 <__multf3+0xfe8>
    36e0:	00375713          	srli	a4,a4,0x3
    36e4:	04e12623          	sw	a4,76(sp)
    36e8:	04c12703          	lw	a4,76(sp)
    36ec:	0ac12083          	lw	ra,172(sp)
    36f0:	00040513          	mv	a0,s0
    36f4:	04e11e23          	sh	a4,92(sp)
    36f8:	00412703          	lw	a4,4(sp)
    36fc:	0a412483          	lw	s1,164(sp)
    3700:	0a012903          	lw	s2,160(sp)
    3704:	00f71713          	slli	a4,a4,0xf
    3708:	00f767b3          	or	a5,a4,a5
    370c:	04f11f23          	sh	a5,94(sp)
    3710:	04012783          	lw	a5,64(sp)
    3714:	09c12983          	lw	s3,156(sp)
    3718:	09812a03          	lw	s4,152(sp)
    371c:	00f42023          	sw	a5,0(s0)
    3720:	04412783          	lw	a5,68(sp)
    3724:	09412a83          	lw	s5,148(sp)
    3728:	09012b03          	lw	s6,144(sp)
    372c:	00f42223          	sw	a5,4(s0)
    3730:	04812783          	lw	a5,72(sp)
    3734:	08c12b83          	lw	s7,140(sp)
    3738:	08812c03          	lw	s8,136(sp)
    373c:	00f42423          	sw	a5,8(s0)
    3740:	05c12783          	lw	a5,92(sp)
    3744:	08412c83          	lw	s9,132(sp)
    3748:	08012d03          	lw	s10,128(sp)
    374c:	00f42623          	sw	a5,12(s0)
    3750:	0a812403          	lw	s0,168(sp)
    3754:	07c12d83          	lw	s11,124(sp)
    3758:	0b010113          	addi	sp,sp,176
    375c:	00008067          	ret
    3760:	00100693          	li	a3,1
    3764:	40f686b3          	sub	a3,a3,a5
    3768:	07400793          	li	a5,116
    376c:	1cd7ca63          	blt	a5,a3,3940 <__multf3+0xfb4>
    3770:	04010613          	addi	a2,sp,64
    3774:	4056d713          	srai	a4,a3,0x5
    3778:	00060513          	mv	a0,a2
    377c:	01f6f693          	andi	a3,a3,31
    3780:	00000793          	li	a5,0
    3784:	00000593          	li	a1,0
    3788:	02e59e63          	bne	a1,a4,37c4 <__multf3+0xe38>
    378c:	00300593          	li	a1,3
    3790:	40e585b3          	sub	a1,a1,a4
    3794:	00271513          	slli	a0,a4,0x2
    3798:	04069063          	bnez	a3,37d8 <__multf3+0xe4c>
    379c:	00060813          	mv	a6,a2
    37a0:	00a808b3          	add	a7,a6,a0
    37a4:	0008a883          	lw	a7,0(a7) # 10000 <_realloc_r+0x4c>
    37a8:	00168693          	addi	a3,a3,1
    37ac:	00480813          	addi	a6,a6,4
    37b0:	ff182e23          	sw	a7,-4(a6)
    37b4:	fed5d6e3          	bge	a1,a3,37a0 <__multf3+0xe14>
    37b8:	00400693          	li	a3,4
    37bc:	40e68733          	sub	a4,a3,a4
    37c0:	06c0006f          	j	382c <__multf3+0xea0>
    37c4:	00052803          	lw	a6,0(a0)
    37c8:	00158593          	addi	a1,a1,1
    37cc:	00450513          	addi	a0,a0,4
    37d0:	0107e7b3          	or	a5,a5,a6
    37d4:	fb5ff06f          	j	3788 <__multf3+0xdfc>
    37d8:	05050813          	addi	a6,a0,80
    37dc:	02010893          	addi	a7,sp,32
    37e0:	01180833          	add	a6,a6,a7
    37e4:	fd082803          	lw	a6,-48(a6)
    37e8:	02000313          	li	t1,32
    37ec:	40d30333          	sub	t1,t1,a3
    37f0:	00681833          	sll	a6,a6,t1
    37f4:	0107e7b3          	or	a5,a5,a6
    37f8:	00000e13          	li	t3,0
    37fc:	00a60833          	add	a6,a2,a0
    3800:	40a00533          	neg	a0,a0
    3804:	0ebe4063          	blt	t3,a1,38e4 <__multf3+0xf58>
    3808:	00400513          	li	a0,4
    380c:	00259593          	slli	a1,a1,0x2
    3810:	40e50733          	sub	a4,a0,a4
    3814:	05058593          	addi	a1,a1,80
    3818:	02010513          	addi	a0,sp,32
    381c:	00a585b3          	add	a1,a1,a0
    3820:	04c12503          	lw	a0,76(sp)
    3824:	00d556b3          	srl	a3,a0,a3
    3828:	fcd5a823          	sw	a3,-48(a1)
    382c:	00400693          	li	a3,4
    3830:	40e686b3          	sub	a3,a3,a4
    3834:	00269693          	slli	a3,a3,0x2
    3838:	00271713          	slli	a4,a4,0x2
    383c:	00800593          	li	a1,8
    3840:	00e60733          	add	a4,a2,a4
    3844:	00b6ea63          	bltu	a3,a1,3858 <__multf3+0xecc>
    3848:	00072023          	sw	zero,0(a4)
    384c:	00072223          	sw	zero,4(a4)
    3850:	ff868693          	addi	a3,a3,-8
    3854:	00870713          	addi	a4,a4,8
    3858:	00400593          	li	a1,4
    385c:	00b6e463          	bltu	a3,a1,3864 <__multf3+0xed8>
    3860:	00072023          	sw	zero,0(a4)
    3864:	04012703          	lw	a4,64(sp)
    3868:	00f037b3          	snez	a5,a5
    386c:	00e7e7b3          	or	a5,a5,a4
    3870:	04f12023          	sw	a5,64(sp)
    3874:	0077f713          	andi	a4,a5,7
    3878:	04070463          	beqz	a4,38c0 <__multf3+0xf34>
    387c:	00f7f713          	andi	a4,a5,15
    3880:	00400693          	li	a3,4
    3884:	02d70e63          	beq	a4,a3,38c0 <__multf3+0xf34>
    3888:	04412703          	lw	a4,68(sp)
    388c:	00478793          	addi	a5,a5,4 # 4004 <__subtf3+0x674>
    3890:	04f12023          	sw	a5,64(sp)
    3894:	0047b793          	sltiu	a5,a5,4
    3898:	00f707b3          	add	a5,a4,a5
    389c:	04f12223          	sw	a5,68(sp)
    38a0:	00e7b7b3          	sltu	a5,a5,a4
    38a4:	04812703          	lw	a4,72(sp)
    38a8:	00f707b3          	add	a5,a4,a5
    38ac:	04f12423          	sw	a5,72(sp)
    38b0:	00e7b7b3          	sltu	a5,a5,a4
    38b4:	04c12703          	lw	a4,76(sp)
    38b8:	00e787b3          	add	a5,a5,a4
    38bc:	04f12623          	sw	a5,76(sp)
    38c0:	04c12703          	lw	a4,76(sp)
    38c4:	00c71793          	slli	a5,a4,0xc
    38c8:	0407d263          	bgez	a5,390c <__multf3+0xf80>
    38cc:	04012623          	sw	zero,76(sp)
    38d0:	04012423          	sw	zero,72(sp)
    38d4:	04012223          	sw	zero,68(sp)
    38d8:	04012023          	sw	zero,64(sp)
    38dc:	00100793          	li	a5,1
    38e0:	e09ff06f          	j	36e8 <__multf3+0xd5c>
    38e4:	00082883          	lw	a7,0(a6)
    38e8:	00482e83          	lw	t4,4(a6)
    38ec:	00a80f33          	add	t5,a6,a0
    38f0:	00d8d8b3          	srl	a7,a7,a3
    38f4:	006e9eb3          	sll	t4,t4,t1
    38f8:	01d8e8b3          	or	a7,a7,t4
    38fc:	011f2023          	sw	a7,0(t5)
    3900:	001e0e13          	addi	t3,t3,1
    3904:	00480813          	addi	a6,a6,4
    3908:	efdff06f          	j	3804 <__multf3+0xe78>
    390c:	00c60593          	addi	a1,a2,12
    3910:	00062783          	lw	a5,0(a2)
    3914:	00462683          	lw	a3,4(a2)
    3918:	00460613          	addi	a2,a2,4
    391c:	0037d793          	srli	a5,a5,0x3
    3920:	01d69693          	slli	a3,a3,0x1d
    3924:	00d7e7b3          	or	a5,a5,a3
    3928:	fef62e23          	sw	a5,-4(a2)
    392c:	fec592e3          	bne	a1,a2,3910 <__multf3+0xf84>
    3930:	00375713          	srli	a4,a4,0x3
    3934:	04e12623          	sw	a4,76(sp)
    3938:	00000793          	li	a5,0
    393c:	dadff06f          	j	36e8 <__multf3+0xd5c>
    3940:	04412703          	lw	a4,68(sp)
    3944:	04012783          	lw	a5,64(sp)
    3948:	00e7e7b3          	or	a5,a5,a4
    394c:	04812703          	lw	a4,72(sp)
    3950:	00e7e7b3          	or	a5,a5,a4
    3954:	04c12703          	lw	a4,76(sp)
    3958:	00e7e7b3          	or	a5,a5,a4
    395c:	fc078ee3          	beqz	a5,3938 <__multf3+0xfac>
    3960:	04012623          	sw	zero,76(sp)
    3964:	04012423          	sw	zero,72(sp)
    3968:	04012223          	sw	zero,68(sp)
    396c:	04012023          	sw	zero,64(sp)
    3970:	fc9ff06f          	j	3938 <__multf3+0xfac>
    3974:	000087b7          	lui	a5,0x8
    3978:	04012623          	sw	zero,76(sp)
    397c:	04012423          	sw	zero,72(sp)
    3980:	04012223          	sw	zero,68(sp)
    3984:	04012023          	sw	zero,64(sp)
    3988:	fff78793          	addi	a5,a5,-1 # 7fff <_vfprintf_r+0xc07>
    398c:	d5dff06f          	j	36e8 <__multf3+0xd5c>

00003990 <__subtf3>:
    3990:	f9010113          	addi	sp,sp,-112
    3994:	0085a703          	lw	a4,8(a1)
    3998:	05512a23          	sw	s5,84(sp)
    399c:	00c5aa83          	lw	s5,12(a1)
    39a0:	0005a783          	lw	a5,0(a1)
    39a4:	0045a683          	lw	a3,4(a1)
    39a8:	02e12c23          	sw	a4,56(sp)
    39ac:	00e12c23          	sw	a4,24(sp)
    39b0:	010a9713          	slli	a4,s5,0x10
    39b4:	06912223          	sw	s1,100(sp)
    39b8:	01075713          	srli	a4,a4,0x10
    39bc:	001a9493          	slli	s1,s5,0x1
    39c0:	00462803          	lw	a6,4(a2)
    39c4:	00862583          	lw	a1,8(a2)
    39c8:	06812423          	sw	s0,104(sp)
    39cc:	07212023          	sw	s2,96(sp)
    39d0:	00062403          	lw	s0,0(a2)
    39d4:	00c62903          	lw	s2,12(a2)
    39d8:	05412c23          	sw	s4,88(sp)
    39dc:	03512e23          	sw	s5,60(sp)
    39e0:	00050a13          	mv	s4,a0
    39e4:	06112623          	sw	ra,108(sp)
    39e8:	05312e23          	sw	s3,92(sp)
    39ec:	05612823          	sw	s6,80(sp)
    39f0:	05712623          	sw	s7,76(sp)
    39f4:	05812423          	sw	s8,72(sp)
    39f8:	02f12823          	sw	a5,48(sp)
    39fc:	02d12a23          	sw	a3,52(sp)
    3a00:	00f12823          	sw	a5,16(sp)
    3a04:	00d12a23          	sw	a3,20(sp)
    3a08:	00e12e23          	sw	a4,28(sp)
    3a0c:	0114d493          	srli	s1,s1,0x11
    3a10:	01fada93          	srli	s5,s5,0x1f
    3a14:	01010513          	addi	a0,sp,16
    3a18:	01c10613          	addi	a2,sp,28
    3a1c:	00062703          	lw	a4,0(a2)
    3a20:	ffc62683          	lw	a3,-4(a2)
    3a24:	ffc60613          	addi	a2,a2,-4
    3a28:	00371713          	slli	a4,a4,0x3
    3a2c:	01d6d693          	srli	a3,a3,0x1d
    3a30:	00d76733          	or	a4,a4,a3
    3a34:	00e62223          	sw	a4,4(a2)
    3a38:	fec512e3          	bne	a0,a2,3a1c <__subtf3+0x8c>
    3a3c:	01091713          	slli	a4,s2,0x10
    3a40:	00191b93          	slli	s7,s2,0x1
    3a44:	00379793          	slli	a5,a5,0x3
    3a48:	01075713          	srli	a4,a4,0x10
    3a4c:	03012a23          	sw	a6,52(sp)
    3a50:	03212e23          	sw	s2,60(sp)
    3a54:	03012223          	sw	a6,36(sp)
    3a58:	00f12823          	sw	a5,16(sp)
    3a5c:	02812823          	sw	s0,48(sp)
    3a60:	02b12c23          	sw	a1,56(sp)
    3a64:	02812023          	sw	s0,32(sp)
    3a68:	02b12423          	sw	a1,40(sp)
    3a6c:	02e12623          	sw	a4,44(sp)
    3a70:	011bdb93          	srli	s7,s7,0x11
    3a74:	01f95913          	srli	s2,s2,0x1f
    3a78:	02010813          	addi	a6,sp,32
    3a7c:	02c10313          	addi	t1,sp,44
    3a80:	00032703          	lw	a4,0(t1)
    3a84:	ffc32683          	lw	a3,-4(t1)
    3a88:	ffc30313          	addi	t1,t1,-4
    3a8c:	00371713          	slli	a4,a4,0x3
    3a90:	01d6d693          	srli	a3,a3,0x1d
    3a94:	00d76733          	or	a4,a4,a3
    3a98:	00e32223          	sw	a4,4(t1)
    3a9c:	fe6812e3          	bne	a6,t1,3a80 <__subtf3+0xf0>
    3aa0:	00341413          	slli	s0,s0,0x3
    3aa4:	00008737          	lui	a4,0x8
    3aa8:	02812023          	sw	s0,32(sp)
    3aac:	fff70713          	addi	a4,a4,-1 # 7fff <_vfprintf_r+0xc07>
    3ab0:	02eb9063          	bne	s7,a4,3ad0 <__subtf3+0x140>
    3ab4:	02812683          	lw	a3,40(sp)
    3ab8:	02412703          	lw	a4,36(sp)
    3abc:	00d76733          	or	a4,a4,a3
    3ac0:	02c12683          	lw	a3,44(sp)
    3ac4:	00d76733          	or	a4,a4,a3
    3ac8:	00876733          	or	a4,a4,s0
    3acc:	00071463          	bnez	a4,3ad4 <__subtf3+0x144>
    3ad0:	00194913          	xori	s2,s2,1
    3ad4:	417488b3          	sub	a7,s1,s7
    3ad8:	095916e3          	bne	s2,s5,4364 <__subtf3+0x9d4>
    3adc:	45105263          	blez	a7,3f20 <__subtf3+0x590>
    3ae0:	01412903          	lw	s2,20(sp)
    3ae4:	01812983          	lw	s3,24(sp)
    3ae8:	01c12b03          	lw	s6,28(sp)
    3aec:	0a0b9263          	bnez	s7,3b90 <__subtf3+0x200>
    3af0:	02412683          	lw	a3,36(sp)
    3af4:	02812703          	lw	a4,40(sp)
    3af8:	02c12583          	lw	a1,44(sp)
    3afc:	00e6e633          	or	a2,a3,a4
    3b00:	00b66633          	or	a2,a2,a1
    3b04:	00866633          	or	a2,a2,s0
    3b08:	00061e63          	bnez	a2,3b24 <__subtf3+0x194>
    3b0c:	02f12823          	sw	a5,48(sp)
    3b10:	03212a23          	sw	s2,52(sp)
    3b14:	03312c23          	sw	s3,56(sp)
    3b18:	03612e23          	sw	s6,60(sp)
    3b1c:	00088493          	mv	s1,a7
    3b20:	08c0006f          	j	3bac <__subtf3+0x21c>
    3b24:	fff88613          	addi	a2,a7,-1
    3b28:	04061863          	bnez	a2,3b78 <__subtf3+0x1e8>
    3b2c:	00878433          	add	s0,a5,s0
    3b30:	01268933          	add	s2,a3,s2
    3b34:	02812823          	sw	s0,48(sp)
    3b38:	00f43433          	sltu	s0,s0,a5
    3b3c:	00890433          	add	s0,s2,s0
    3b40:	02812a23          	sw	s0,52(sp)
    3b44:	00d936b3          	sltu	a3,s2,a3
    3b48:	01243433          	sltu	s0,s0,s2
    3b4c:	013709b3          	add	s3,a4,s3
    3b50:	0086e6b3          	or	a3,a3,s0
    3b54:	00d986b3          	add	a3,s3,a3
    3b58:	02d12c23          	sw	a3,56(sp)
    3b5c:	00e9b7b3          	sltu	a5,s3,a4
    3b60:	0136b6b3          	sltu	a3,a3,s3
    3b64:	00d7e7b3          	or	a5,a5,a3
    3b68:	016585b3          	add	a1,a1,s6
    3b6c:	00b787b3          	add	a5,a5,a1
    3b70:	00100493          	li	s1,1
    3b74:	2fc0006f          	j	3e70 <__subtf3+0x4e0>
    3b78:	00008737          	lui	a4,0x8
    3b7c:	fff70713          	addi	a4,a4,-1 # 7fff <_vfprintf_r+0xc07>
    3b80:	00e88463          	beq	a7,a4,3b88 <__subtf3+0x1f8>
    3b84:	2500106f          	j	4dd4 <__subtf3+0x1444>
    3b88:	02f12823          	sw	a5,48(sp)
    3b8c:	4400006f          	j	3fcc <__subtf3+0x63c>
    3b90:	00008737          	lui	a4,0x8
    3b94:	fff70713          	addi	a4,a4,-1 # 7fff <_vfprintf_r+0xc07>
    3b98:	16e49a63          	bne	s1,a4,3d0c <__subtf3+0x37c>
    3b9c:	02f12823          	sw	a5,48(sp)
    3ba0:	03212a23          	sw	s2,52(sp)
    3ba4:	03312c23          	sw	s3,56(sp)
    3ba8:	03612e23          	sw	s6,60(sp)
    3bac:	03012783          	lw	a5,48(sp)
    3bb0:	0077f713          	andi	a4,a5,7
    3bb4:	04070463          	beqz	a4,3bfc <__subtf3+0x26c>
    3bb8:	00f7f713          	andi	a4,a5,15
    3bbc:	00400693          	li	a3,4
    3bc0:	02d70e63          	beq	a4,a3,3bfc <__subtf3+0x26c>
    3bc4:	03412703          	lw	a4,52(sp)
    3bc8:	00478793          	addi	a5,a5,4
    3bcc:	02f12823          	sw	a5,48(sp)
    3bd0:	0047b793          	sltiu	a5,a5,4
    3bd4:	00f707b3          	add	a5,a4,a5
    3bd8:	02f12a23          	sw	a5,52(sp)
    3bdc:	00e7b7b3          	sltu	a5,a5,a4
    3be0:	03812703          	lw	a4,56(sp)
    3be4:	00f707b3          	add	a5,a4,a5
    3be8:	02f12c23          	sw	a5,56(sp)
    3bec:	00e7b7b3          	sltu	a5,a5,a4
    3bf0:	03c12703          	lw	a4,60(sp)
    3bf4:	00e787b3          	add	a5,a5,a4
    3bf8:	02f12e23          	sw	a5,60(sp)
    3bfc:	03c12783          	lw	a5,60(sp)
    3c00:	00c79713          	slli	a4,a5,0xc
    3c04:	02075463          	bgez	a4,3c2c <__subtf3+0x29c>
    3c08:	00008737          	lui	a4,0x8
    3c0c:	00148493          	addi	s1,s1,1
    3c10:	fff70713          	addi	a4,a4,-1 # 7fff <_vfprintf_r+0xc07>
    3c14:	00e49463          	bne	s1,a4,3c1c <__subtf3+0x28c>
    3c18:	1a80106f          	j	4dc0 <__subtf3+0x1430>
    3c1c:	fff80737          	lui	a4,0xfff80
    3c20:	fff70713          	addi	a4,a4,-1 # fff7ffff <_end+0xfff6ad9b>
    3c24:	00e7f7b3          	and	a5,a5,a4
    3c28:	02f12e23          	sw	a5,60(sp)
    3c2c:	03010793          	addi	a5,sp,48
    3c30:	03c10613          	addi	a2,sp,60
    3c34:	0007a703          	lw	a4,0(a5)
    3c38:	0047a683          	lw	a3,4(a5)
    3c3c:	00478793          	addi	a5,a5,4
    3c40:	00375713          	srli	a4,a4,0x3
    3c44:	01d69693          	slli	a3,a3,0x1d
    3c48:	00d76733          	or	a4,a4,a3
    3c4c:	fee7ae23          	sw	a4,-4(a5)
    3c50:	fec792e3          	bne	a5,a2,3c34 <__subtf3+0x2a4>
    3c54:	03c12703          	lw	a4,60(sp)
    3c58:	000086b7          	lui	a3,0x8
    3c5c:	fff68793          	addi	a5,a3,-1 # 7fff <_vfprintf_r+0xc07>
    3c60:	00375713          	srli	a4,a4,0x3
    3c64:	02e12e23          	sw	a4,60(sp)
    3c68:	02f49a63          	bne	s1,a5,3c9c <__subtf3+0x30c>
    3c6c:	03412603          	lw	a2,52(sp)
    3c70:	03012783          	lw	a5,48(sp)
    3c74:	00c7e7b3          	or	a5,a5,a2
    3c78:	03812603          	lw	a2,56(sp)
    3c7c:	00c7e7b3          	or	a5,a5,a2
    3c80:	00e7e7b3          	or	a5,a5,a4
    3c84:	00078c63          	beqz	a5,3c9c <__subtf3+0x30c>
    3c88:	02d12e23          	sw	a3,60(sp)
    3c8c:	02012c23          	sw	zero,56(sp)
    3c90:	02012a23          	sw	zero,52(sp)
    3c94:	02012823          	sw	zero,48(sp)
    3c98:	00000a93          	li	s5,0
    3c9c:	03c12783          	lw	a5,60(sp)
    3ca0:	01149493          	slli	s1,s1,0x11
    3ca4:	0114d493          	srli	s1,s1,0x11
    3ca8:	00f11623          	sh	a5,12(sp)
    3cac:	03012783          	lw	a5,48(sp)
    3cb0:	00fa9a93          	slli	s5,s5,0xf
    3cb4:	009aeab3          	or	s5,s5,s1
    3cb8:	00fa2023          	sw	a5,0(s4)
    3cbc:	03412783          	lw	a5,52(sp)
    3cc0:	01511723          	sh	s5,14(sp)
    3cc4:	06c12083          	lw	ra,108(sp)
    3cc8:	00fa2223          	sw	a5,4(s4)
    3ccc:	03812783          	lw	a5,56(sp)
    3cd0:	06812403          	lw	s0,104(sp)
    3cd4:	06412483          	lw	s1,100(sp)
    3cd8:	00fa2423          	sw	a5,8(s4)
    3cdc:	00c12783          	lw	a5,12(sp)
    3ce0:	06012903          	lw	s2,96(sp)
    3ce4:	05c12983          	lw	s3,92(sp)
    3ce8:	00fa2623          	sw	a5,12(s4)
    3cec:	05412a83          	lw	s5,84(sp)
    3cf0:	05012b03          	lw	s6,80(sp)
    3cf4:	04c12b83          	lw	s7,76(sp)
    3cf8:	04812c03          	lw	s8,72(sp)
    3cfc:	000a0513          	mv	a0,s4
    3d00:	05812a03          	lw	s4,88(sp)
    3d04:	07010113          	addi	sp,sp,112
    3d08:	00008067          	ret
    3d0c:	02c12703          	lw	a4,44(sp)
    3d10:	000806b7          	lui	a3,0x80
    3d14:	00d76733          	or	a4,a4,a3
    3d18:	02e12623          	sw	a4,44(sp)
    3d1c:	07400713          	li	a4,116
    3d20:	01175463          	bge	a4,a7,3d28 <__subtf3+0x398>
    3d24:	0bc0106f          	j	4de0 <__subtf3+0x1450>
    3d28:	00088613          	mv	a2,a7
    3d2c:	40565693          	srai	a3,a2,0x5
    3d30:	00030513          	mv	a0,t1
    3d34:	01f67613          	andi	a2,a2,31
    3d38:	00000713          	li	a4,0
    3d3c:	00000593          	li	a1,0
    3d40:	02d59c63          	bne	a1,a3,3d78 <__subtf3+0x3e8>
    3d44:	00300593          	li	a1,3
    3d48:	40d585b3          	sub	a1,a1,a3
    3d4c:	00269513          	slli	a0,a3,0x2
    3d50:	02061e63          	bnez	a2,3d8c <__subtf3+0x3fc>
    3d54:	00a308b3          	add	a7,t1,a0
    3d58:	0008a883          	lw	a7,0(a7)
    3d5c:	00160613          	addi	a2,a2,1
    3d60:	00430313          	addi	t1,t1,4
    3d64:	ff132e23          	sw	a7,-4(t1)
    3d68:	fec5d6e3          	bge	a1,a2,3d54 <__subtf3+0x3c4>
    3d6c:	00400613          	li	a2,4
    3d70:	40d606b3          	sub	a3,a2,a3
    3d74:	0640006f          	j	3dd8 <__subtf3+0x448>
    3d78:	00052883          	lw	a7,0(a0)
    3d7c:	00158593          	addi	a1,a1,1
    3d80:	00450513          	addi	a0,a0,4
    3d84:	01176733          	or	a4,a4,a7
    3d88:	fb9ff06f          	j	3d40 <__subtf3+0x3b0>
    3d8c:	04050893          	addi	a7,a0,64
    3d90:	002888b3          	add	a7,a7,sp
    3d94:	fe08a883          	lw	a7,-32(a7)
    3d98:	02000e13          	li	t3,32
    3d9c:	40ce0e33          	sub	t3,t3,a2
    3da0:	01c898b3          	sll	a7,a7,t3
    3da4:	01176733          	or	a4,a4,a7
    3da8:	00000e93          	li	t4,0
    3dac:	00a808b3          	add	a7,a6,a0
    3db0:	40a00533          	neg	a0,a0
    3db4:	14bec263          	blt	t4,a1,3ef8 <__subtf3+0x568>
    3db8:	00400513          	li	a0,4
    3dbc:	40d506b3          	sub	a3,a0,a3
    3dc0:	02c12503          	lw	a0,44(sp)
    3dc4:	00259593          	slli	a1,a1,0x2
    3dc8:	04058593          	addi	a1,a1,64
    3dcc:	002585b3          	add	a1,a1,sp
    3dd0:	00c55633          	srl	a2,a0,a2
    3dd4:	fec5a023          	sw	a2,-32(a1)
    3dd8:	00400613          	li	a2,4
    3ddc:	40d60633          	sub	a2,a2,a3
    3de0:	00261613          	slli	a2,a2,0x2
    3de4:	00269693          	slli	a3,a3,0x2
    3de8:	00800593          	li	a1,8
    3dec:	00d806b3          	add	a3,a6,a3
    3df0:	00b66a63          	bltu	a2,a1,3e04 <__subtf3+0x474>
    3df4:	0006a023          	sw	zero,0(a3) # 80000 <_end+0x6ad9c>
    3df8:	0006a223          	sw	zero,4(a3)
    3dfc:	ff860613          	addi	a2,a2,-8
    3e00:	00868693          	addi	a3,a3,8
    3e04:	00400593          	li	a1,4
    3e08:	00b66463          	bltu	a2,a1,3e10 <__subtf3+0x480>
    3e0c:	0006a023          	sw	zero,0(a3)
    3e10:	02012683          	lw	a3,32(sp)
    3e14:	00e03733          	snez	a4,a4
    3e18:	00d76733          	or	a4,a4,a3
    3e1c:	02412683          	lw	a3,36(sp)
    3e20:	02e12023          	sw	a4,32(sp)
    3e24:	00e78733          	add	a4,a5,a4
    3e28:	01268933          	add	s2,a3,s2
    3e2c:	02e12823          	sw	a4,48(sp)
    3e30:	00f73733          	sltu	a4,a4,a5
    3e34:	02812783          	lw	a5,40(sp)
    3e38:	00e90733          	add	a4,s2,a4
    3e3c:	02e12a23          	sw	a4,52(sp)
    3e40:	00d936b3          	sltu	a3,s2,a3
    3e44:	01273733          	sltu	a4,a4,s2
    3e48:	013789b3          	add	s3,a5,s3
    3e4c:	00e6e733          	or	a4,a3,a4
    3e50:	00e98733          	add	a4,s3,a4
    3e54:	02e12c23          	sw	a4,56(sp)
    3e58:	00f9b7b3          	sltu	a5,s3,a5
    3e5c:	01373733          	sltu	a4,a4,s3
    3e60:	00e7e7b3          	or	a5,a5,a4
    3e64:	02c12703          	lw	a4,44(sp)
    3e68:	00eb0733          	add	a4,s6,a4
    3e6c:	00e787b3          	add	a5,a5,a4
    3e70:	02f12e23          	sw	a5,60(sp)
    3e74:	00c79713          	slli	a4,a5,0xc
    3e78:	d2075ae3          	bgez	a4,3bac <__subtf3+0x21c>
    3e7c:	03012683          	lw	a3,48(sp)
    3e80:	fff80737          	lui	a4,0xfff80
    3e84:	fff70713          	addi	a4,a4,-1 # fff7ffff <_end+0xfff6ad9b>
    3e88:	00e7f7b3          	and	a5,a5,a4
    3e8c:	02f12e23          	sw	a5,60(sp)
    3e90:	00148493          	addi	s1,s1,1
    3e94:	01f69693          	slli	a3,a3,0x1f
    3e98:	03010713          	addi	a4,sp,48
    3e9c:	03c10513          	addi	a0,sp,60
    3ea0:	00072603          	lw	a2,0(a4)
    3ea4:	00472583          	lw	a1,4(a4)
    3ea8:	00470713          	addi	a4,a4,4
    3eac:	00165613          	srli	a2,a2,0x1
    3eb0:	01f59593          	slli	a1,a1,0x1f
    3eb4:	00b66633          	or	a2,a2,a1
    3eb8:	fec72e23          	sw	a2,-4(a4)
    3ebc:	fee512e3          	bne	a0,a4,3ea0 <__subtf3+0x510>
    3ec0:	03012703          	lw	a4,48(sp)
    3ec4:	0017d793          	srli	a5,a5,0x1
    3ec8:	02f12e23          	sw	a5,60(sp)
    3ecc:	00d037b3          	snez	a5,a3
    3ed0:	00f767b3          	or	a5,a4,a5
    3ed4:	02f12823          	sw	a5,48(sp)
    3ed8:	000087b7          	lui	a5,0x8
    3edc:	fff78793          	addi	a5,a5,-1 # 7fff <_vfprintf_r+0xc07>
    3ee0:	ccf496e3          	bne	s1,a5,3bac <__subtf3+0x21c>
    3ee4:	02012e23          	sw	zero,60(sp)
    3ee8:	02012c23          	sw	zero,56(sp)
    3eec:	02012a23          	sw	zero,52(sp)
    3ef0:	02012823          	sw	zero,48(sp)
    3ef4:	cb9ff06f          	j	3bac <__subtf3+0x21c>
    3ef8:	0008a303          	lw	t1,0(a7)
    3efc:	0048af03          	lw	t5,4(a7)
    3f00:	00a88fb3          	add	t6,a7,a0
    3f04:	00c35333          	srl	t1,t1,a2
    3f08:	01cf1f33          	sll	t5,t5,t3
    3f0c:	01e36333          	or	t1,t1,t5
    3f10:	006fa023          	sw	t1,0(t6)
    3f14:	001e8e93          	addi	t4,t4,1
    3f18:	00488893          	addi	a7,a7,4
    3f1c:	e99ff06f          	j	3db4 <__subtf3+0x424>
    3f20:	02412903          	lw	s2,36(sp)
    3f24:	02812983          	lw	s3,40(sp)
    3f28:	02c12b03          	lw	s6,44(sp)
    3f2c:	26088263          	beqz	a7,4190 <__subtf3+0x800>
    3f30:	409b8833          	sub	a6,s7,s1
    3f34:	0a049c63          	bnez	s1,3fec <__subtf3+0x65c>
    3f38:	01412683          	lw	a3,20(sp)
    3f3c:	01812703          	lw	a4,24(sp)
    3f40:	01c12883          	lw	a7,28(sp)
    3f44:	00e6e5b3          	or	a1,a3,a4
    3f48:	0115e5b3          	or	a1,a1,a7
    3f4c:	00f5e5b3          	or	a1,a1,a5
    3f50:	00059e63          	bnez	a1,3f6c <__subtf3+0x5dc>
    3f54:	02812823          	sw	s0,48(sp)
    3f58:	03212a23          	sw	s2,52(sp)
    3f5c:	03312c23          	sw	s3,56(sp)
    3f60:	03612e23          	sw	s6,60(sp)
    3f64:	00080493          	mv	s1,a6
    3f68:	c45ff06f          	j	3bac <__subtf3+0x21c>
    3f6c:	fff80593          	addi	a1,a6,-1
    3f70:	04059663          	bnez	a1,3fbc <__subtf3+0x62c>
    3f74:	00878433          	add	s0,a5,s0
    3f78:	01268933          	add	s2,a3,s2
    3f7c:	02812823          	sw	s0,48(sp)
    3f80:	00f43433          	sltu	s0,s0,a5
    3f84:	00890433          	add	s0,s2,s0
    3f88:	02812a23          	sw	s0,52(sp)
    3f8c:	00d936b3          	sltu	a3,s2,a3
    3f90:	01243433          	sltu	s0,s0,s2
    3f94:	013709b3          	add	s3,a4,s3
    3f98:	0086e6b3          	or	a3,a3,s0
    3f9c:	00d986b3          	add	a3,s3,a3
    3fa0:	02d12c23          	sw	a3,56(sp)
    3fa4:	00e9b7b3          	sltu	a5,s3,a4
    3fa8:	0136b6b3          	sltu	a3,a3,s3
    3fac:	00d7e7b3          	or	a5,a5,a3
    3fb0:	016888b3          	add	a7,a7,s6
    3fb4:	011787b3          	add	a5,a5,a7
    3fb8:	bb9ff06f          	j	3b70 <__subtf3+0x1e0>
    3fbc:	000087b7          	lui	a5,0x8
    3fc0:	fff78793          	addi	a5,a5,-1 # 7fff <_vfprintf_r+0xc07>
    3fc4:	62f818e3          	bne	a6,a5,4df4 <__subtf3+0x1464>
    3fc8:	02812823          	sw	s0,48(sp)
    3fcc:	03212a23          	sw	s2,52(sp)
    3fd0:	03312c23          	sw	s3,56(sp)
    3fd4:	03612e23          	sw	s6,60(sp)
    3fd8:	000084b7          	lui	s1,0x8
    3fdc:	fff48493          	addi	s1,s1,-1 # 7fff <_vfprintf_r+0xc07>
    3fe0:	bcdff06f          	j	3bac <__subtf3+0x21c>
    3fe4:	00078413          	mv	s0,a5
    3fe8:	fe1ff06f          	j	3fc8 <__subtf3+0x638>
    3fec:	000087b7          	lui	a5,0x8
    3ff0:	fff78793          	addi	a5,a5,-1 # 7fff <_vfprintf_r+0xc07>
    3ff4:	fcfb8ae3          	beq	s7,a5,3fc8 <__subtf3+0x638>
    3ff8:	01c12783          	lw	a5,28(sp)
    3ffc:	00080737          	lui	a4,0x80
    4000:	00e7e7b3          	or	a5,a5,a4
    4004:	00f12e23          	sw	a5,28(sp)
    4008:	07400793          	li	a5,116
    400c:	5f07c8e3          	blt	a5,a6,4dfc <__subtf3+0x146c>
    4010:	00080593          	mv	a1,a6
    4014:	02000713          	li	a4,32
    4018:	02e5c733          	div	a4,a1,a4
    401c:	00060693          	mv	a3,a2
    4020:	00000493          	li	s1,0
    4024:	00000793          	li	a5,0
    4028:	02e7ce63          	blt	a5,a4,4064 <__subtf3+0x6d4>
    402c:	00300793          	li	a5,3
    4030:	01f5f893          	andi	a7,a1,31
    4034:	40e787b3          	sub	a5,a5,a4
    4038:	00271813          	slli	a6,a4,0x2
    403c:	02089e63          	bnez	a7,4078 <__subtf3+0x6e8>
    4040:	010606b3          	add	a3,a2,a6
    4044:	0006a683          	lw	a3,0(a3)
    4048:	00188893          	addi	a7,a7,1
    404c:	00460613          	addi	a2,a2,4
    4050:	fed62e23          	sw	a3,-4(a2)
    4054:	ff17d6e3          	bge	a5,a7,4040 <__subtf3+0x6b0>
    4058:	00400793          	li	a5,4
    405c:	40e78733          	sub	a4,a5,a4
    4060:	0780006f          	j	40d8 <__subtf3+0x748>
    4064:	0006a803          	lw	a6,0(a3)
    4068:	00178793          	addi	a5,a5,1
    406c:	00468693          	addi	a3,a3,4
    4070:	0104e4b3          	or	s1,s1,a6
    4074:	fb5ff06f          	j	4028 <__subtf3+0x698>
    4078:	02000693          	li	a3,32
    407c:	02d5e5b3          	rem	a1,a1,a3
    4080:	40b685b3          	sub	a1,a3,a1
    4084:	00070693          	mv	a3,a4
    4088:	00075463          	bgez	a4,4090 <__subtf3+0x700>
    408c:	00000693          	li	a3,0
    4090:	00269693          	slli	a3,a3,0x2
    4094:	04068693          	addi	a3,a3,64
    4098:	002686b3          	add	a3,a3,sp
    409c:	fd06a683          	lw	a3,-48(a3)
    40a0:	00000313          	li	t1,0
    40a4:	00b696b3          	sll	a3,a3,a1
    40a8:	00d4e4b3          	or	s1,s1,a3
    40ac:	010506b3          	add	a3,a0,a6
    40b0:	41000833          	neg	a6,a6
    40b4:	0af34a63          	blt	t1,a5,4168 <__subtf3+0x7d8>
    40b8:	00400693          	li	a3,4
    40bc:	40e68733          	sub	a4,a3,a4
    40c0:	01c12683          	lw	a3,28(sp)
    40c4:	00279793          	slli	a5,a5,0x2
    40c8:	04078793          	addi	a5,a5,64
    40cc:	002787b3          	add	a5,a5,sp
    40d0:	0116d6b3          	srl	a3,a3,a7
    40d4:	fcd7a823          	sw	a3,-48(a5)
    40d8:	00572793          	slti	a5,a4,5
    40dc:	00000613          	li	a2,0
    40e0:	00078863          	beqz	a5,40f0 <__subtf3+0x760>
    40e4:	00400613          	li	a2,4
    40e8:	40e60633          	sub	a2,a2,a4
    40ec:	00261613          	slli	a2,a2,0x2
    40f0:	00271713          	slli	a4,a4,0x2
    40f4:	00e50533          	add	a0,a0,a4
    40f8:	00000593          	li	a1,0
    40fc:	b98fc0ef          	jal	494 <memset>
    4100:	01012703          	lw	a4,16(sp)
    4104:	009037b3          	snez	a5,s1
    4108:	00e7e7b3          	or	a5,a5,a4
    410c:	01412683          	lw	a3,20(sp)
    4110:	00f12823          	sw	a5,16(sp)
    4114:	00f407b3          	add	a5,s0,a5
    4118:	01268933          	add	s2,a3,s2
    411c:	02f12823          	sw	a5,48(sp)
    4120:	0087b7b3          	sltu	a5,a5,s0
    4124:	00f90733          	add	a4,s2,a5
    4128:	01812783          	lw	a5,24(sp)
    412c:	02e12a23          	sw	a4,52(sp)
    4130:	00d936b3          	sltu	a3,s2,a3
    4134:	01273733          	sltu	a4,a4,s2
    4138:	013789b3          	add	s3,a5,s3
    413c:	00e6e733          	or	a4,a3,a4
    4140:	00e98733          	add	a4,s3,a4
    4144:	02e12c23          	sw	a4,56(sp)
    4148:	00f9b7b3          	sltu	a5,s3,a5
    414c:	01373733          	sltu	a4,a4,s3
    4150:	00e7e7b3          	or	a5,a5,a4
    4154:	01c12703          	lw	a4,28(sp)
    4158:	000b8493          	mv	s1,s7
    415c:	00eb0733          	add	a4,s6,a4
    4160:	00e787b3          	add	a5,a5,a4
    4164:	d0dff06f          	j	3e70 <__subtf3+0x4e0>
    4168:	0006a603          	lw	a2,0(a3)
    416c:	0046ae03          	lw	t3,4(a3)
    4170:	01068eb3          	add	t4,a3,a6
    4174:	01165633          	srl	a2,a2,a7
    4178:	00be1e33          	sll	t3,t3,a1
    417c:	01c66633          	or	a2,a2,t3
    4180:	00cea023          	sw	a2,0(t4)
    4184:	00130313          	addi	t1,t1,1
    4188:	00468693          	addi	a3,a3,4
    418c:	f29ff06f          	j	40b4 <__subtf3+0x724>
    4190:	00148813          	addi	a6,s1,1
    4194:	01181893          	slli	a7,a6,0x11
    4198:	0128d893          	srli	a7,a7,0x12
    419c:	01412683          	lw	a3,20(sp)
    41a0:	01812703          	lw	a4,24(sp)
    41a4:	01c12603          	lw	a2,28(sp)
    41a8:	03010593          	addi	a1,sp,48
    41ac:	03c10513          	addi	a0,sp,60
    41b0:	10089e63          	bnez	a7,42cc <__subtf3+0x93c>
    41b4:	00e6e833          	or	a6,a3,a4
    41b8:	00c86833          	or	a6,a6,a2
    41bc:	00f86833          	or	a6,a6,a5
    41c0:	0a049863          	bnez	s1,4270 <__subtf3+0x8e0>
    41c4:	00081e63          	bnez	a6,41e0 <__subtf3+0x850>
    41c8:	02812823          	sw	s0,48(sp)
    41cc:	03212a23          	sw	s2,52(sp)
    41d0:	03312c23          	sw	s3,56(sp)
    41d4:	03612e23          	sw	s6,60(sp)
    41d8:	00000493          	li	s1,0
    41dc:	9d1ff06f          	j	3bac <__subtf3+0x21c>
    41e0:	013965b3          	or	a1,s2,s3
    41e4:	0165e5b3          	or	a1,a1,s6
    41e8:	0085e5b3          	or	a1,a1,s0
    41ec:	00059c63          	bnez	a1,4204 <__subtf3+0x874>
    41f0:	02f12823          	sw	a5,48(sp)
    41f4:	02d12a23          	sw	a3,52(sp)
    41f8:	02e12c23          	sw	a4,56(sp)
    41fc:	02c12e23          	sw	a2,60(sp)
    4200:	9adff06f          	j	3bac <__subtf3+0x21c>
    4204:	00878433          	add	s0,a5,s0
    4208:	01268933          	add	s2,a3,s2
    420c:	02812823          	sw	s0,48(sp)
    4210:	00f43433          	sltu	s0,s0,a5
    4214:	00890433          	add	s0,s2,s0
    4218:	02812a23          	sw	s0,52(sp)
    421c:	00d936b3          	sltu	a3,s2,a3
    4220:	01243433          	sltu	s0,s0,s2
    4224:	013709b3          	add	s3,a4,s3
    4228:	0086e6b3          	or	a3,a3,s0
    422c:	00d986b3          	add	a3,s3,a3
    4230:	02d12c23          	sw	a3,56(sp)
    4234:	00e9b733          	sltu	a4,s3,a4
    4238:	0136b6b3          	sltu	a3,a3,s3
    423c:	00d76733          	or	a4,a4,a3
    4240:	01660633          	add	a2,a2,s6
    4244:	00c70733          	add	a4,a4,a2
    4248:	00c71793          	slli	a5,a4,0xc
    424c:	0007c663          	bltz	a5,4258 <__subtf3+0x8c8>
    4250:	02e12e23          	sw	a4,60(sp)
    4254:	959ff06f          	j	3bac <__subtf3+0x21c>
    4258:	fff807b7          	lui	a5,0xfff80
    425c:	fff78793          	addi	a5,a5,-1 # fff7ffff <_end+0xfff6ad9b>
    4260:	00f77733          	and	a4,a4,a5
    4264:	02e12e23          	sw	a4,60(sp)
    4268:	00100493          	li	s1,1
    426c:	941ff06f          	j	3bac <__subtf3+0x21c>
    4270:	1a080463          	beqz	a6,4418 <__subtf3+0xa88>
    4274:	01396933          	or	s2,s2,s3
    4278:	01696933          	or	s2,s2,s6
    427c:	00896933          	or	s2,s2,s0
    4280:	1a090063          	beqz	s2,4420 <__subtf3+0xa90>
    4284:	000087b7          	lui	a5,0x8
    4288:	02f12e23          	sw	a5,60(sp)
    428c:	02012c23          	sw	zero,56(sp)
    4290:	02012a23          	sw	zero,52(sp)
    4294:	02012823          	sw	zero,48(sp)
    4298:	00050793          	mv	a5,a0
    429c:	0007a703          	lw	a4,0(a5) # 8000 <_vfprintf_r+0xc08>
    42a0:	ffc7a683          	lw	a3,-4(a5)
    42a4:	ffc78793          	addi	a5,a5,-4
    42a8:	00371713          	slli	a4,a4,0x3
    42ac:	01d6d693          	srli	a3,a3,0x1d
    42b0:	00d76733          	or	a4,a4,a3
    42b4:	00e7a223          	sw	a4,4(a5)
    42b8:	fef592e3          	bne	a1,a5,429c <__subtf3+0x90c>
    42bc:	000084b7          	lui	s1,0x8
    42c0:	fff48493          	addi	s1,s1,-1 # 7fff <_vfprintf_r+0xc07>
    42c4:	00000a93          	li	s5,0
    42c8:	8e5ff06f          	j	3bac <__subtf3+0x21c>
    42cc:	00878433          	add	s0,a5,s0
    42d0:	01268933          	add	s2,a3,s2
    42d4:	02812823          	sw	s0,48(sp)
    42d8:	00f43433          	sltu	s0,s0,a5
    42dc:	00890433          	add	s0,s2,s0
    42e0:	02812a23          	sw	s0,52(sp)
    42e4:	00d936b3          	sltu	a3,s2,a3
    42e8:	01243433          	sltu	s0,s0,s2
    42ec:	013709b3          	add	s3,a4,s3
    42f0:	0086e6b3          	or	a3,a3,s0
    42f4:	00d986b3          	add	a3,s3,a3
    42f8:	02d12c23          	sw	a3,56(sp)
    42fc:	00e9b733          	sltu	a4,s3,a4
    4300:	0136b6b3          	sltu	a3,a3,s3
    4304:	00d76733          	or	a4,a4,a3
    4308:	01660633          	add	a2,a2,s6
    430c:	00c70733          	add	a4,a4,a2
    4310:	02e12e23          	sw	a4,60(sp)
    4314:	00058793          	mv	a5,a1
    4318:	0007a683          	lw	a3,0(a5)
    431c:	0047a603          	lw	a2,4(a5)
    4320:	00478793          	addi	a5,a5,4
    4324:	0016d693          	srli	a3,a3,0x1
    4328:	01f61613          	slli	a2,a2,0x1f
    432c:	00c6e6b3          	or	a3,a3,a2
    4330:	fed7ae23          	sw	a3,-4(a5)
    4334:	fef512e3          	bne	a0,a5,4318 <__subtf3+0x988>
    4338:	000087b7          	lui	a5,0x8
    433c:	fff78793          	addi	a5,a5,-1 # 7fff <_vfprintf_r+0xc07>
    4340:	00f80863          	beq	a6,a5,4350 <__subtf3+0x9c0>
    4344:	00175713          	srli	a4,a4,0x1
    4348:	02e12e23          	sw	a4,60(sp)
    434c:	c19ff06f          	j	3f64 <__subtf3+0x5d4>
    4350:	02012e23          	sw	zero,60(sp)
    4354:	02012c23          	sw	zero,56(sp)
    4358:	02012a23          	sw	zero,52(sp)
    435c:	02012823          	sw	zero,48(sp)
    4360:	c05ff06f          	j	3f64 <__subtf3+0x5d4>
    4364:	29105c63          	blez	a7,45fc <__subtf3+0xc6c>
    4368:	01412903          	lw	s2,20(sp)
    436c:	01812983          	lw	s3,24(sp)
    4370:	01c12b03          	lw	s6,28(sp)
    4374:	0a0b9e63          	bnez	s7,4430 <__subtf3+0xaa0>
    4378:	02412e03          	lw	t3,36(sp)
    437c:	02812503          	lw	a0,40(sp)
    4380:	02c12683          	lw	a3,44(sp)
    4384:	00ae6733          	or	a4,t3,a0
    4388:	00d76733          	or	a4,a4,a3
    438c:	00876733          	or	a4,a4,s0
    4390:	f6070e63          	beqz	a4,3b0c <__subtf3+0x17c>
    4394:	fff88e93          	addi	t4,a7,-1
    4398:	040e9c63          	bnez	t4,43f0 <__subtf3+0xa60>
    439c:	40878733          	sub	a4,a5,s0
    43a0:	41c90633          	sub	a2,s2,t3
    43a4:	00e7b5b3          	sltu	a1,a5,a4
    43a8:	00c93833          	sltu	a6,s2,a2
    43ac:	40b60633          	sub	a2,a2,a1
    43b0:	00000593          	li	a1,0
    43b4:	00e7f663          	bgeu	a5,a4,43c0 <__subtf3+0xa30>
    43b8:	412e0e33          	sub	t3,t3,s2
    43bc:	001e3593          	seqz	a1,t3
    43c0:	0105e7b3          	or	a5,a1,a6
    43c4:	40a985b3          	sub	a1,s3,a0
    43c8:	00b9b833          	sltu	a6,s3,a1
    43cc:	40f585b3          	sub	a1,a1,a5
    43d0:	00078663          	beqz	a5,43dc <__subtf3+0xa4c>
    43d4:	41350533          	sub	a0,a0,s3
    43d8:	00153e93          	seqz	t4,a0
    43dc:	40db07b3          	sub	a5,s6,a3
    43e0:	010ee6b3          	or	a3,t4,a6
    43e4:	40d787b3          	sub	a5,a5,a3
    43e8:	00100493          	li	s1,1
    43ec:	1bc0006f          	j	45a8 <__subtf3+0xc18>
    43f0:	00008737          	lui	a4,0x8
    43f4:	fff70713          	addi	a4,a4,-1 # 7fff <_vfprintf_r+0xc07>
    43f8:	f8e88863          	beq	a7,a4,3b88 <__subtf3+0x1f8>
    43fc:	07400713          	li	a4,116
    4400:	05d75c63          	bge	a4,t4,4458 <__subtf3+0xac8>
    4404:	02012623          	sw	zero,44(sp)
    4408:	02012423          	sw	zero,40(sp)
    440c:	02012223          	sw	zero,36(sp)
    4410:	00100713          	li	a4,1
    4414:	1340006f          	j	4548 <__subtf3+0xbb8>
    4418:	00040793          	mv	a5,s0
    441c:	f6cff06f          	j	3b88 <__subtf3+0x1f8>
    4420:	00068913          	mv	s2,a3
    4424:	00070993          	mv	s3,a4
    4428:	00060b13          	mv	s6,a2
    442c:	f5cff06f          	j	3b88 <__subtf3+0x1f8>
    4430:	00008737          	lui	a4,0x8
    4434:	fff70713          	addi	a4,a4,-1 # 7fff <_vfprintf_r+0xc07>
    4438:	bae486e3          	beq	s1,a4,3fe4 <__subtf3+0x654>
    443c:	02c12703          	lw	a4,44(sp)
    4440:	000806b7          	lui	a3,0x80
    4444:	00d76733          	or	a4,a4,a3
    4448:	02e12623          	sw	a4,44(sp)
    444c:	07400713          	li	a4,116
    4450:	fb174ae3          	blt	a4,a7,4404 <__subtf3+0xa74>
    4454:	00088e93          	mv	t4,a7
    4458:	405ed693          	srai	a3,t4,0x5
    445c:	00030593          	mv	a1,t1
    4460:	01fefe93          	andi	t4,t4,31
    4464:	00000713          	li	a4,0
    4468:	00000613          	li	a2,0
    446c:	02d61c63          	bne	a2,a3,44a4 <__subtf3+0xb14>
    4470:	00300613          	li	a2,3
    4474:	40d60633          	sub	a2,a2,a3
    4478:	00269593          	slli	a1,a3,0x2
    447c:	020e9e63          	bnez	t4,44b8 <__subtf3+0xb28>
    4480:	00b30533          	add	a0,t1,a1
    4484:	00052503          	lw	a0,0(a0)
    4488:	001e8e93          	addi	t4,t4,1
    448c:	00430313          	addi	t1,t1,4
    4490:	fea32e23          	sw	a0,-4(t1)
    4494:	ffd656e3          	bge	a2,t4,4480 <__subtf3+0xaf0>
    4498:	00400613          	li	a2,4
    449c:	40d606b3          	sub	a3,a2,a3
    44a0:	0640006f          	j	4504 <__subtf3+0xb74>
    44a4:	0005a503          	lw	a0,0(a1)
    44a8:	00160613          	addi	a2,a2,1
    44ac:	00458593          	addi	a1,a1,4
    44b0:	00a76733          	or	a4,a4,a0
    44b4:	fb9ff06f          	j	446c <__subtf3+0xadc>
    44b8:	04058513          	addi	a0,a1,64
    44bc:	00250533          	add	a0,a0,sp
    44c0:	fe052503          	lw	a0,-32(a0)
    44c4:	02000313          	li	t1,32
    44c8:	41d30333          	sub	t1,t1,t4
    44cc:	00651533          	sll	a0,a0,t1
    44d0:	00a76733          	or	a4,a4,a0
    44d4:	00000e13          	li	t3,0
    44d8:	00b80533          	add	a0,a6,a1
    44dc:	40b005b3          	neg	a1,a1
    44e0:	0ece4a63          	blt	t3,a2,45d4 <__subtf3+0xc44>
    44e4:	00400593          	li	a1,4
    44e8:	40d586b3          	sub	a3,a1,a3
    44ec:	02c12583          	lw	a1,44(sp)
    44f0:	00261613          	slli	a2,a2,0x2
    44f4:	04060613          	addi	a2,a2,64
    44f8:	00260633          	add	a2,a2,sp
    44fc:	01d5d5b3          	srl	a1,a1,t4
    4500:	feb62023          	sw	a1,-32(a2)
    4504:	00400613          	li	a2,4
    4508:	40d60633          	sub	a2,a2,a3
    450c:	00261613          	slli	a2,a2,0x2
    4510:	00269693          	slli	a3,a3,0x2
    4514:	00800593          	li	a1,8
    4518:	00d806b3          	add	a3,a6,a3
    451c:	00b66a63          	bltu	a2,a1,4530 <__subtf3+0xba0>
    4520:	0006a023          	sw	zero,0(a3) # 80000 <_end+0x6ad9c>
    4524:	0006a223          	sw	zero,4(a3)
    4528:	ff860613          	addi	a2,a2,-8
    452c:	00868693          	addi	a3,a3,8
    4530:	00400593          	li	a1,4
    4534:	00b66463          	bltu	a2,a1,453c <__subtf3+0xbac>
    4538:	0006a023          	sw	zero,0(a3)
    453c:	02012683          	lw	a3,32(sp)
    4540:	00e03733          	snez	a4,a4
    4544:	00d76733          	or	a4,a4,a3
    4548:	02412583          	lw	a1,36(sp)
    454c:	02e12023          	sw	a4,32(sp)
    4550:	40e78733          	sub	a4,a5,a4
    4554:	40b90633          	sub	a2,s2,a1
    4558:	00e7b6b3          	sltu	a3,a5,a4
    455c:	00c93533          	sltu	a0,s2,a2
    4560:	40d60633          	sub	a2,a2,a3
    4564:	00000693          	li	a3,0
    4568:	00e7f663          	bgeu	a5,a4,4574 <__subtf3+0xbe4>
    456c:	412585b3          	sub	a1,a1,s2
    4570:	0015b693          	seqz	a3,a1
    4574:	00a6e7b3          	or	a5,a3,a0
    4578:	02812503          	lw	a0,40(sp)
    457c:	00000693          	li	a3,0
    4580:	40a985b3          	sub	a1,s3,a0
    4584:	00b9b833          	sltu	a6,s3,a1
    4588:	40f585b3          	sub	a1,a1,a5
    458c:	00078663          	beqz	a5,4598 <__subtf3+0xc08>
    4590:	41350533          	sub	a0,a0,s3
    4594:	00153693          	seqz	a3,a0
    4598:	02c12783          	lw	a5,44(sp)
    459c:	0106e6b3          	or	a3,a3,a6
    45a0:	40fb07b3          	sub	a5,s6,a5
    45a4:	40d787b3          	sub	a5,a5,a3
    45a8:	02e12823          	sw	a4,48(sp)
    45ac:	02f12e23          	sw	a5,60(sp)
    45b0:	02b12c23          	sw	a1,56(sp)
    45b4:	02c12a23          	sw	a2,52(sp)
    45b8:	00c79713          	slli	a4,a5,0xc
    45bc:	de075863          	bgez	a4,3bac <__subtf3+0x21c>
    45c0:	00080737          	lui	a4,0x80
    45c4:	fff70713          	addi	a4,a4,-1 # 7ffff <_end+0x6ad9b>
    45c8:	00e7f7b3          	and	a5,a5,a4
    45cc:	02f12e23          	sw	a5,60(sp)
    45d0:	5700006f          	j	4b40 <__subtf3+0x11b0>
    45d4:	00052883          	lw	a7,0(a0)
    45d8:	00452f03          	lw	t5,4(a0)
    45dc:	00b50fb3          	add	t6,a0,a1
    45e0:	01d8d8b3          	srl	a7,a7,t4
    45e4:	006f1f33          	sll	t5,t5,t1
    45e8:	01e8e8b3          	or	a7,a7,t5
    45ec:	011fa023          	sw	a7,0(t6)
    45f0:	001e0e13          	addi	t3,t3,1
    45f4:	00450513          	addi	a0,a0,4
    45f8:	ee9ff06f          	j	44e0 <__subtf3+0xb50>
    45fc:	02412c03          	lw	s8,36(sp)
    4600:	02812b03          	lw	s6,40(sp)
    4604:	02c12983          	lw	s3,44(sp)
    4608:	28088463          	beqz	a7,4890 <__subtf3+0xf00>
    460c:	409b8333          	sub	t1,s7,s1
    4610:	0a049e63          	bnez	s1,46cc <__subtf3+0xd3c>
    4614:	01412583          	lw	a1,20(sp)
    4618:	01812803          	lw	a6,24(sp)
    461c:	01c12683          	lw	a3,28(sp)
    4620:	0105e8b3          	or	a7,a1,a6
    4624:	00d8e8b3          	or	a7,a7,a3
    4628:	00f8e8b3          	or	a7,a7,a5
    462c:	02089063          	bnez	a7,464c <__subtf3+0xcbc>
    4630:	02812823          	sw	s0,48(sp)
    4634:	03812a23          	sw	s8,52(sp)
    4638:	03612c23          	sw	s6,56(sp)
    463c:	03312e23          	sw	s3,60(sp)
    4640:	00030493          	mv	s1,t1
    4644:	00090a93          	mv	s5,s2
    4648:	d64ff06f          	j	3bac <__subtf3+0x21c>
    464c:	fff30893          	addi	a7,t1,-1
    4650:	04089c63          	bnez	a7,46a8 <__subtf3+0xd18>
    4654:	40f40733          	sub	a4,s0,a5
    4658:	40bc0633          	sub	a2,s8,a1
    465c:	00e437b3          	sltu	a5,s0,a4
    4660:	00cc3533          	sltu	a0,s8,a2
    4664:	40f60633          	sub	a2,a2,a5
    4668:	00000793          	li	a5,0
    466c:	00e47663          	bgeu	s0,a4,4678 <__subtf3+0xce8>
    4670:	418585b3          	sub	a1,a1,s8
    4674:	0015b793          	seqz	a5,a1
    4678:	00a7e7b3          	or	a5,a5,a0
    467c:	410b05b3          	sub	a1,s6,a6
    4680:	00bb3533          	sltu	a0,s6,a1
    4684:	40f585b3          	sub	a1,a1,a5
    4688:	00078663          	beqz	a5,4694 <__subtf3+0xd04>
    468c:	41680833          	sub	a6,a6,s6
    4690:	00183893          	seqz	a7,a6
    4694:	40d987b3          	sub	a5,s3,a3
    4698:	00a8e6b3          	or	a3,a7,a0
    469c:	40d787b3          	sub	a5,a5,a3
    46a0:	00090a93          	mv	s5,s2
    46a4:	d45ff06f          	j	43e8 <__subtf3+0xa58>
    46a8:	000087b7          	lui	a5,0x8
    46ac:	fff78793          	addi	a5,a5,-1 # 7fff <_vfprintf_r+0xc07>
    46b0:	76f31063          	bne	t1,a5,4e10 <__subtf3+0x1480>
    46b4:	02812823          	sw	s0,48(sp)
    46b8:	03812a23          	sw	s8,52(sp)
    46bc:	03612c23          	sw	s6,56(sp)
    46c0:	03312e23          	sw	s3,60(sp)
    46c4:	00090a93          	mv	s5,s2
    46c8:	911ff06f          	j	3fd8 <__subtf3+0x648>
    46cc:	000087b7          	lui	a5,0x8
    46d0:	fff78793          	addi	a5,a5,-1 # 7fff <_vfprintf_r+0xc07>
    46d4:	fefb80e3          	beq	s7,a5,46b4 <__subtf3+0xd24>
    46d8:	01c12783          	lw	a5,28(sp)
    46dc:	00080737          	lui	a4,0x80
    46e0:	00e7e7b3          	or	a5,a5,a4
    46e4:	00f12e23          	sw	a5,28(sp)
    46e8:	07400793          	li	a5,116
    46ec:	1867c863          	blt	a5,t1,487c <__subtf3+0xeec>
    46f0:	02000793          	li	a5,32
    46f4:	02f347b3          	div	a5,t1,a5
    46f8:	00060693          	mv	a3,a2
    46fc:	00000493          	li	s1,0
    4700:	00000713          	li	a4,0
    4704:	02f74e63          	blt	a4,a5,4740 <__subtf3+0xdb0>
    4708:	00300713          	li	a4,3
    470c:	01f37893          	andi	a7,t1,31
    4710:	40f70e33          	sub	t3,a4,a5
    4714:	00279593          	slli	a1,a5,0x2
    4718:	02089e63          	bnez	a7,4754 <__subtf3+0xdc4>
    471c:	00b60733          	add	a4,a2,a1
    4720:	00072703          	lw	a4,0(a4) # 80000 <_end+0x6ad9c>
    4724:	00188893          	addi	a7,a7,1
    4728:	00460613          	addi	a2,a2,4
    472c:	fee62e23          	sw	a4,-4(a2)
    4730:	ff1e56e3          	bge	t3,a7,471c <__subtf3+0xd8c>
    4734:	00400713          	li	a4,4
    4738:	40f707b3          	sub	a5,a4,a5
    473c:	0780006f          	j	47b4 <__subtf3+0xe24>
    4740:	0006a583          	lw	a1,0(a3)
    4744:	00170713          	addi	a4,a4,1
    4748:	00468693          	addi	a3,a3,4
    474c:	00b4e4b3          	or	s1,s1,a1
    4750:	fb5ff06f          	j	4704 <__subtf3+0xd74>
    4754:	02000613          	li	a2,32
    4758:	02c36733          	rem	a4,t1,a2
    475c:	00078693          	mv	a3,a5
    4760:	40e60633          	sub	a2,a2,a4
    4764:	0007d463          	bgez	a5,476c <__subtf3+0xddc>
    4768:	00000693          	li	a3,0
    476c:	00269693          	slli	a3,a3,0x2
    4770:	04068713          	addi	a4,a3,64
    4774:	002706b3          	add	a3,a4,sp
    4778:	fd06a703          	lw	a4,-48(a3)
    477c:	00b506b3          	add	a3,a0,a1
    4780:	40b005b3          	neg	a1,a1
    4784:	00c71733          	sll	a4,a4,a2
    4788:	00e4e4b3          	or	s1,s1,a4
    478c:	00000713          	li	a4,0
    4790:	0dc74263          	blt	a4,t3,4854 <__subtf3+0xec4>
    4794:	01c12683          	lw	a3,28(sp)
    4798:	00400713          	li	a4,4
    479c:	40f707b3          	sub	a5,a4,a5
    47a0:	002e1713          	slli	a4,t3,0x2
    47a4:	04070713          	addi	a4,a4,64
    47a8:	00270733          	add	a4,a4,sp
    47ac:	0116d6b3          	srl	a3,a3,a7
    47b0:	fcd72823          	sw	a3,-48(a4)
    47b4:	0057a713          	slti	a4,a5,5
    47b8:	00000613          	li	a2,0
    47bc:	00070863          	beqz	a4,47cc <__subtf3+0xe3c>
    47c0:	00400613          	li	a2,4
    47c4:	40f60633          	sub	a2,a2,a5
    47c8:	00261613          	slli	a2,a2,0x2
    47cc:	00279793          	slli	a5,a5,0x2
    47d0:	00f50533          	add	a0,a0,a5
    47d4:	00000593          	li	a1,0
    47d8:	cbdfb0ef          	jal	494 <memset>
    47dc:	01012783          	lw	a5,16(sp)
    47e0:	00903733          	snez	a4,s1
    47e4:	00f76733          	or	a4,a4,a5
    47e8:	01412683          	lw	a3,20(sp)
    47ec:	00e12823          	sw	a4,16(sp)
    47f0:	40e40733          	sub	a4,s0,a4
    47f4:	40dc0633          	sub	a2,s8,a3
    47f8:	00e437b3          	sltu	a5,s0,a4
    47fc:	00cc35b3          	sltu	a1,s8,a2
    4800:	40f60633          	sub	a2,a2,a5
    4804:	00000793          	li	a5,0
    4808:	00e47663          	bgeu	s0,a4,4814 <__subtf3+0xe84>
    480c:	418686b3          	sub	a3,a3,s8
    4810:	0016b793          	seqz	a5,a3
    4814:	01812503          	lw	a0,24(sp)
    4818:	00b7e7b3          	or	a5,a5,a1
    481c:	00000693          	li	a3,0
    4820:	40ab05b3          	sub	a1,s6,a0
    4824:	00bb3833          	sltu	a6,s6,a1
    4828:	40f585b3          	sub	a1,a1,a5
    482c:	00078663          	beqz	a5,4838 <__subtf3+0xea8>
    4830:	41650533          	sub	a0,a0,s6
    4834:	00153693          	seqz	a3,a0
    4838:	01c12783          	lw	a5,28(sp)
    483c:	0106e6b3          	or	a3,a3,a6
    4840:	000b8493          	mv	s1,s7
    4844:	40f987b3          	sub	a5,s3,a5
    4848:	40d787b3          	sub	a5,a5,a3
    484c:	00090a93          	mv	s5,s2
    4850:	d59ff06f          	j	45a8 <__subtf3+0xc18>
    4854:	0006a803          	lw	a6,0(a3)
    4858:	0046a303          	lw	t1,4(a3)
    485c:	00b68eb3          	add	t4,a3,a1
    4860:	01185833          	srl	a6,a6,a7
    4864:	00c31333          	sll	t1,t1,a2
    4868:	00686833          	or	a6,a6,t1
    486c:	010ea023          	sw	a6,0(t4)
    4870:	00170713          	addi	a4,a4,1
    4874:	00468693          	addi	a3,a3,4
    4878:	f19ff06f          	j	4790 <__subtf3+0xe00>
    487c:	00012e23          	sw	zero,28(sp)
    4880:	00012c23          	sw	zero,24(sp)
    4884:	00012a23          	sw	zero,20(sp)
    4888:	00100713          	li	a4,1
    488c:	f5dff06f          	j	47e8 <__subtf3+0xe58>
    4890:	00148593          	addi	a1,s1,1
    4894:	01159513          	slli	a0,a1,0x11
    4898:	01255513          	srli	a0,a0,0x12
    489c:	01412683          	lw	a3,20(sp)
    48a0:	01812603          	lw	a2,24(sp)
    48a4:	01c12703          	lw	a4,28(sp)
    48a8:	00008837          	lui	a6,0x8
    48ac:	1c051e63          	bnez	a0,4a88 <__subtf3+0x10f8>
    48b0:	016c6533          	or	a0,s8,s6
    48b4:	00c6e5b3          	or	a1,a3,a2
    48b8:	01356533          	or	a0,a0,s3
    48bc:	00e5e5b3          	or	a1,a1,a4
    48c0:	00856533          	or	a0,a0,s0
    48c4:	00f5e5b3          	or	a1,a1,a5
    48c8:	10049863          	bnez	s1,49d8 <__subtf3+0x1048>
    48cc:	02059263          	bnez	a1,48f0 <__subtf3+0xf60>
    48d0:	02812823          	sw	s0,48(sp)
    48d4:	03812a23          	sw	s8,52(sp)
    48d8:	03612c23          	sw	s6,56(sp)
    48dc:	03312e23          	sw	s3,60(sp)
    48e0:	00090a93          	mv	s5,s2
    48e4:	ac051463          	bnez	a0,3bac <__subtf3+0x21c>
    48e8:	00000493          	li	s1,0
    48ec:	9d9ff06f          	j	42c4 <__subtf3+0x934>
    48f0:	00051c63          	bnez	a0,4908 <__subtf3+0xf78>
    48f4:	02f12823          	sw	a5,48(sp)
    48f8:	02d12a23          	sw	a3,52(sp)
    48fc:	02c12c23          	sw	a2,56(sp)
    4900:	02e12e23          	sw	a4,60(sp)
    4904:	8d5ff06f          	j	41d8 <__subtf3+0x848>
    4908:	40878533          	sub	a0,a5,s0
    490c:	41868e33          	sub	t3,a3,s8
    4910:	00a7b833          	sltu	a6,a5,a0
    4914:	01c6b8b3          	sltu	a7,a3,t3
    4918:	410e0833          	sub	a6,t3,a6
    491c:	00000593          	li	a1,0
    4920:	00a7f463          	bgeu	a5,a0,4928 <__subtf3+0xf98>
    4924:	001e3593          	seqz	a1,t3
    4928:	0115e5b3          	or	a1,a1,a7
    492c:	416608b3          	sub	a7,a2,s6
    4930:	01163f33          	sltu	t5,a2,a7
    4934:	40b88eb3          	sub	t4,a7,a1
    4938:	00000313          	li	t1,0
    493c:	00058463          	beqz	a1,4944 <__subtf3+0xfb4>
    4940:	0018b313          	seqz	t1,a7
    4944:	01e36333          	or	t1,t1,t5
    4948:	413705b3          	sub	a1,a4,s3
    494c:	406585b3          	sub	a1,a1,t1
    4950:	02b12e23          	sw	a1,60(sp)
    4954:	03d12c23          	sw	t4,56(sp)
    4958:	03012a23          	sw	a6,52(sp)
    495c:	02a12823          	sw	a0,48(sp)
    4960:	00c59313          	slli	t1,a1,0xc
    4964:	06035063          	bgez	t1,49c4 <__subtf3+0x1034>
    4968:	40f407b3          	sub	a5,s0,a5
    496c:	40dc06b3          	sub	a3,s8,a3
    4970:	00f435b3          	sltu	a1,s0,a5
    4974:	00dc3c33          	sltu	s8,s8,a3
    4978:	40b686b3          	sub	a3,a3,a1
    497c:	00000593          	li	a1,0
    4980:	00f47463          	bgeu	s0,a5,4988 <__subtf3+0xff8>
    4984:	001e3593          	seqz	a1,t3
    4988:	40cb0633          	sub	a2,s6,a2
    498c:	0185ec33          	or	s8,a1,s8
    4990:	00cb3b33          	sltu	s6,s6,a2
    4994:	00000513          	li	a0,0
    4998:	41860633          	sub	a2,a2,s8
    499c:	000c0463          	beqz	s8,49a4 <__subtf3+0x1014>
    49a0:	0018b513          	seqz	a0,a7
    49a4:	40e98733          	sub	a4,s3,a4
    49a8:	01656533          	or	a0,a0,s6
    49ac:	40a70733          	sub	a4,a4,a0
    49b0:	02e12e23          	sw	a4,60(sp)
    49b4:	02c12c23          	sw	a2,56(sp)
    49b8:	02d12a23          	sw	a3,52(sp)
    49bc:	02f12823          	sw	a5,48(sp)
    49c0:	c85ff06f          	j	4644 <__subtf3+0xcb4>
    49c4:	01056533          	or	a0,a0,a6
    49c8:	01d56533          	or	a0,a0,t4
    49cc:	00b56533          	or	a0,a0,a1
    49d0:	f0050ce3          	beqz	a0,48e8 <__subtf3+0xf58>
    49d4:	805ff06f          	j	41d8 <__subtf3+0x848>
    49d8:	03010893          	addi	a7,sp,48
    49dc:	04059e63          	bnez	a1,4a38 <__subtf3+0x10a8>
    49e0:	02051e63          	bnez	a0,4a1c <__subtf3+0x108c>
    49e4:	03012e23          	sw	a6,60(sp)
    49e8:	02012c23          	sw	zero,56(sp)
    49ec:	02012a23          	sw	zero,52(sp)
    49f0:	02012823          	sw	zero,48(sp)
    49f4:	03c10793          	addi	a5,sp,60
    49f8:	0007a703          	lw	a4,0(a5)
    49fc:	ffc7a683          	lw	a3,-4(a5)
    4a00:	ffc78793          	addi	a5,a5,-4
    4a04:	00371713          	slli	a4,a4,0x3
    4a08:	01d6d693          	srli	a3,a3,0x1d
    4a0c:	00d76733          	or	a4,a4,a3
    4a10:	00e7a223          	sw	a4,4(a5)
    4a14:	fef892e3          	bne	a7,a5,49f8 <__subtf3+0x1068>
    4a18:	8a5ff06f          	j	42bc <__subtf3+0x92c>
    4a1c:	02812823          	sw	s0,48(sp)
    4a20:	03812a23          	sw	s8,52(sp)
    4a24:	03612c23          	sw	s6,56(sp)
    4a28:	03312e23          	sw	s3,60(sp)
    4a2c:	00090a93          	mv	s5,s2
    4a30:	fff80493          	addi	s1,a6,-1 # 7fff <_vfprintf_r+0xc07>
    4a34:	978ff06f          	j	3bac <__subtf3+0x21c>
    4a38:	00051c63          	bnez	a0,4a50 <__subtf3+0x10c0>
    4a3c:	02f12823          	sw	a5,48(sp)
    4a40:	02d12a23          	sw	a3,52(sp)
    4a44:	02c12c23          	sw	a2,56(sp)
    4a48:	02e12e23          	sw	a4,60(sp)
    4a4c:	fe5ff06f          	j	4a30 <__subtf3+0x10a0>
    4a50:	03012e23          	sw	a6,60(sp)
    4a54:	02012c23          	sw	zero,56(sp)
    4a58:	02012a23          	sw	zero,52(sp)
    4a5c:	02012823          	sw	zero,48(sp)
    4a60:	03c10793          	addi	a5,sp,60
    4a64:	0007a703          	lw	a4,0(a5)
    4a68:	ffc7a683          	lw	a3,-4(a5)
    4a6c:	ffc78793          	addi	a5,a5,-4
    4a70:	00371713          	slli	a4,a4,0x3
    4a74:	01d6d693          	srli	a3,a3,0x1d
    4a78:	00d76733          	or	a4,a4,a3
    4a7c:	00e7a223          	sw	a4,4(a5)
    4a80:	fef892e3          	bne	a7,a5,4a64 <__subtf3+0x10d4>
    4a84:	839ff06f          	j	42bc <__subtf3+0x92c>
    4a88:	40878533          	sub	a0,a5,s0
    4a8c:	41868eb3          	sub	t4,a3,s8
    4a90:	00a7b833          	sltu	a6,a5,a0
    4a94:	01d6b333          	sltu	t1,a3,t4
    4a98:	410e8833          	sub	a6,t4,a6
    4a9c:	00000593          	li	a1,0
    4aa0:	00a7f463          	bgeu	a5,a0,4aa8 <__subtf3+0x1118>
    4aa4:	001eb593          	seqz	a1,t4
    4aa8:	0065e5b3          	or	a1,a1,t1
    4aac:	41660333          	sub	t1,a2,s6
    4ab0:	00663fb3          	sltu	t6,a2,t1
    4ab4:	40b30f33          	sub	t5,t1,a1
    4ab8:	00000e13          	li	t3,0
    4abc:	00058463          	beqz	a1,4ac4 <__subtf3+0x1134>
    4ac0:	00133e13          	seqz	t3,t1
    4ac4:	01fe6e33          	or	t3,t3,t6
    4ac8:	413705b3          	sub	a1,a4,s3
    4acc:	41c585b3          	sub	a1,a1,t3
    4ad0:	02b12e23          	sw	a1,60(sp)
    4ad4:	03e12c23          	sw	t5,56(sp)
    4ad8:	03012a23          	sw	a6,52(sp)
    4adc:	02a12823          	sw	a0,48(sp)
    4ae0:	00c59e13          	slli	t3,a1,0xc
    4ae4:	140e5663          	bgez	t3,4c30 <__subtf3+0x12a0>
    4ae8:	40f407b3          	sub	a5,s0,a5
    4aec:	40dc06b3          	sub	a3,s8,a3
    4af0:	00f435b3          	sltu	a1,s0,a5
    4af4:	00dc3c33          	sltu	s8,s8,a3
    4af8:	40b686b3          	sub	a3,a3,a1
    4afc:	00000593          	li	a1,0
    4b00:	00f47463          	bgeu	s0,a5,4b08 <__subtf3+0x1178>
    4b04:	001eb593          	seqz	a1,t4
    4b08:	40cb0633          	sub	a2,s6,a2
    4b0c:	0185ec33          	or	s8,a1,s8
    4b10:	00cb3b33          	sltu	s6,s6,a2
    4b14:	41860633          	sub	a2,a2,s8
    4b18:	000c0463          	beqz	s8,4b20 <__subtf3+0x1190>
    4b1c:	00133893          	seqz	a7,t1
    4b20:	40e985b3          	sub	a1,s3,a4
    4b24:	0168e733          	or	a4,a7,s6
    4b28:	40e58733          	sub	a4,a1,a4
    4b2c:	02e12e23          	sw	a4,60(sp)
    4b30:	02c12c23          	sw	a2,56(sp)
    4b34:	02d12a23          	sw	a3,52(sp)
    4b38:	02f12823          	sw	a5,48(sp)
    4b3c:	00090a93          	mv	s5,s2
    4b40:	03c12503          	lw	a0,60(sp)
    4b44:	10050063          	beqz	a0,4c44 <__subtf3+0x12b4>
    4b48:	7bc000ef          	jal	5304 <__clzsi2>
    4b4c:	ff450513          	addi	a0,a0,-12
    4b50:	02000713          	li	a4,32
    4b54:	01f57813          	andi	a6,a0,31
    4b58:	02e547b3          	div	a5,a0,a4
    4b5c:	12080063          	beqz	a6,4c7c <__subtf3+0x12ec>
    4b60:	03010313          	addi	t1,sp,48
    4b64:	02e566b3          	rem	a3,a0,a4
    4b68:	40d70633          	sub	a2,a4,a3
    4b6c:	ffc00693          	li	a3,-4
    4b70:	02d786b3          	mul	a3,a5,a3
    4b74:	00c68713          	addi	a4,a3,12
    4b78:	00e30733          	add	a4,t1,a4
    4b7c:	40d006b3          	neg	a3,a3
    4b80:	12e31663          	bne	t1,a4,4cac <__subtf3+0x131c>
    4b84:	03012683          	lw	a3,48(sp)
    4b88:	fff78713          	addi	a4,a5,-1
    4b8c:	00279793          	slli	a5,a5,0x2
    4b90:	04078793          	addi	a5,a5,64
    4b94:	002787b3          	add	a5,a5,sp
    4b98:	010696b3          	sll	a3,a3,a6
    4b9c:	fed7a823          	sw	a3,-16(a5)
    4ba0:	00170713          	addi	a4,a4,1
    4ba4:	03010793          	addi	a5,sp,48
    4ba8:	00271713          	slli	a4,a4,0x2
    4bac:	00800693          	li	a3,8
    4bb0:	00078893          	mv	a7,a5
    4bb4:	00d76a63          	bltu	a4,a3,4bc8 <__subtf3+0x1238>
    4bb8:	02012823          	sw	zero,48(sp)
    4bbc:	0007a223          	sw	zero,4(a5)
    4bc0:	ff870713          	addi	a4,a4,-8
    4bc4:	03810793          	addi	a5,sp,56
    4bc8:	00400693          	li	a3,4
    4bcc:	00d76463          	bltu	a4,a3,4bd4 <__subtf3+0x1244>
    4bd0:	0007a023          	sw	zero,0(a5)
    4bd4:	1c954863          	blt	a0,s1,4da4 <__subtf3+0x1414>
    4bd8:	40950533          	sub	a0,a0,s1
    4bdc:	00150513          	addi	a0,a0,1
    4be0:	40555713          	srai	a4,a0,0x5
    4be4:	01f57793          	andi	a5,a0,31
    4be8:	00088593          	mv	a1,a7
    4bec:	00088613          	mv	a2,a7
    4bf0:	00000313          	li	t1,0
    4bf4:	00000693          	li	a3,0
    4bf8:	0ce69c63          	bne	a3,a4,4cd0 <__subtf3+0x1340>
    4bfc:	00300693          	li	a3,3
    4c00:	40e686b3          	sub	a3,a3,a4
    4c04:	00271613          	slli	a2,a4,0x2
    4c08:	0c079e63          	bnez	a5,4ce4 <__subtf3+0x1354>
    4c0c:	00c58533          	add	a0,a1,a2
    4c10:	00052503          	lw	a0,0(a0)
    4c14:	00178793          	addi	a5,a5,1
    4c18:	00458593          	addi	a1,a1,4
    4c1c:	fea5ae23          	sw	a0,-4(a1)
    4c20:	fef6d6e3          	bge	a3,a5,4c0c <__subtf3+0x127c>
    4c24:	00400793          	li	a5,4
    4c28:	40e78733          	sub	a4,a5,a4
    4c2c:	1040006f          	j	4d30 <__subtf3+0x13a0>
    4c30:	01056533          	or	a0,a0,a6
    4c34:	01e56533          	or	a0,a0,t5
    4c38:	00b56533          	or	a0,a0,a1
    4c3c:	ca0506e3          	beqz	a0,48e8 <__subtf3+0xf58>
    4c40:	f01ff06f          	j	4b40 <__subtf3+0x11b0>
    4c44:	03812503          	lw	a0,56(sp)
    4c48:	00050863          	beqz	a0,4c58 <__subtf3+0x12c8>
    4c4c:	6b8000ef          	jal	5304 <__clzsi2>
    4c50:	02050513          	addi	a0,a0,32
    4c54:	ef9ff06f          	j	4b4c <__subtf3+0x11bc>
    4c58:	03412503          	lw	a0,52(sp)
    4c5c:	00050863          	beqz	a0,4c6c <__subtf3+0x12dc>
    4c60:	6a4000ef          	jal	5304 <__clzsi2>
    4c64:	04050513          	addi	a0,a0,64
    4c68:	ee5ff06f          	j	4b4c <__subtf3+0x11bc>
    4c6c:	03012503          	lw	a0,48(sp)
    4c70:	694000ef          	jal	5304 <__clzsi2>
    4c74:	06050513          	addi	a0,a0,96
    4c78:	ed5ff06f          	j	4b4c <__subtf3+0x11bc>
    4c7c:	ffc00613          	li	a2,-4
    4c80:	02c78633          	mul	a2,a5,a2
    4c84:	03c10713          	addi	a4,sp,60
    4c88:	00300693          	li	a3,3
    4c8c:	00c705b3          	add	a1,a4,a2
    4c90:	0005a583          	lw	a1,0(a1)
    4c94:	fff68693          	addi	a3,a3,-1
    4c98:	ffc70713          	addi	a4,a4,-4
    4c9c:	00b72223          	sw	a1,4(a4)
    4ca0:	fef6d6e3          	bge	a3,a5,4c8c <__subtf3+0x12fc>
    4ca4:	fff78713          	addi	a4,a5,-1
    4ca8:	ef9ff06f          	j	4ba0 <__subtf3+0x1210>
    4cac:	00072583          	lw	a1,0(a4)
    4cb0:	ffc72883          	lw	a7,-4(a4)
    4cb4:	00d70e33          	add	t3,a4,a3
    4cb8:	010595b3          	sll	a1,a1,a6
    4cbc:	00c8d8b3          	srl	a7,a7,a2
    4cc0:	0115e5b3          	or	a1,a1,a7
    4cc4:	00be2023          	sw	a1,0(t3)
    4cc8:	ffc70713          	addi	a4,a4,-4
    4ccc:	eb5ff06f          	j	4b80 <__subtf3+0x11f0>
    4cd0:	00062503          	lw	a0,0(a2)
    4cd4:	00168693          	addi	a3,a3,1
    4cd8:	00460613          	addi	a2,a2,4
    4cdc:	00a36333          	or	t1,t1,a0
    4ce0:	f19ff06f          	j	4bf8 <__subtf3+0x1268>
    4ce4:	04060593          	addi	a1,a2,64
    4ce8:	002585b3          	add	a1,a1,sp
    4cec:	ff05a583          	lw	a1,-16(a1)
    4cf0:	02000813          	li	a6,32
    4cf4:	40f80833          	sub	a6,a6,a5
    4cf8:	010595b3          	sll	a1,a1,a6
    4cfc:	00b36333          	or	t1,t1,a1
    4d00:	00000e13          	li	t3,0
    4d04:	00c885b3          	add	a1,a7,a2
    4d08:	40c00633          	neg	a2,a2
    4d0c:	06de4863          	blt	t3,a3,4d7c <__subtf3+0x13ec>
    4d10:	00400613          	li	a2,4
    4d14:	40e60733          	sub	a4,a2,a4
    4d18:	03c12603          	lw	a2,60(sp)
    4d1c:	00269693          	slli	a3,a3,0x2
    4d20:	04068693          	addi	a3,a3,64
    4d24:	002686b3          	add	a3,a3,sp
    4d28:	00f657b3          	srl	a5,a2,a5
    4d2c:	fef6a823          	sw	a5,-16(a3)
    4d30:	00400693          	li	a3,4
    4d34:	40e686b3          	sub	a3,a3,a4
    4d38:	00271713          	slli	a4,a4,0x2
    4d3c:	00e887b3          	add	a5,a7,a4
    4d40:	00269713          	slli	a4,a3,0x2
    4d44:	00800693          	li	a3,8
    4d48:	00d76a63          	bltu	a4,a3,4d5c <__subtf3+0x13cc>
    4d4c:	0007a023          	sw	zero,0(a5)
    4d50:	0007a223          	sw	zero,4(a5)
    4d54:	ff870713          	addi	a4,a4,-8
    4d58:	00878793          	addi	a5,a5,8
    4d5c:	00400693          	li	a3,4
    4d60:	00d76463          	bltu	a4,a3,4d68 <__subtf3+0x13d8>
    4d64:	0007a023          	sw	zero,0(a5)
    4d68:	03012703          	lw	a4,48(sp)
    4d6c:	006037b3          	snez	a5,t1
    4d70:	00f767b3          	or	a5,a4,a5
    4d74:	02f12823          	sw	a5,48(sp)
    4d78:	c60ff06f          	j	41d8 <__subtf3+0x848>
    4d7c:	0005a503          	lw	a0,0(a1)
    4d80:	0045ae83          	lw	t4,4(a1)
    4d84:	00c58f33          	add	t5,a1,a2
    4d88:	00f55533          	srl	a0,a0,a5
    4d8c:	010e9eb3          	sll	t4,t4,a6
    4d90:	01d56533          	or	a0,a0,t4
    4d94:	00af2023          	sw	a0,0(t5)
    4d98:	001e0e13          	addi	t3,t3,1
    4d9c:	00458593          	addi	a1,a1,4
    4da0:	f6dff06f          	j	4d0c <__subtf3+0x137c>
    4da4:	03c12783          	lw	a5,60(sp)
    4da8:	fff80737          	lui	a4,0xfff80
    4dac:	fff70713          	addi	a4,a4,-1 # fff7ffff <_end+0xfff6ad9b>
    4db0:	00e7f7b3          	and	a5,a5,a4
    4db4:	40a484b3          	sub	s1,s1,a0
    4db8:	02f12e23          	sw	a5,60(sp)
    4dbc:	df1fe06f          	j	3bac <__subtf3+0x21c>
    4dc0:	02012e23          	sw	zero,60(sp)
    4dc4:	02012c23          	sw	zero,56(sp)
    4dc8:	02012a23          	sw	zero,52(sp)
    4dcc:	02012823          	sw	zero,48(sp)
    4dd0:	e5dfe06f          	j	3c2c <__subtf3+0x29c>
    4dd4:	07400713          	li	a4,116
    4dd8:	00c74463          	blt	a4,a2,4de0 <__subtf3+0x1450>
    4ddc:	f51fe06f          	j	3d2c <__subtf3+0x39c>
    4de0:	02012623          	sw	zero,44(sp)
    4de4:	02012423          	sw	zero,40(sp)
    4de8:	02012223          	sw	zero,36(sp)
    4dec:	00100713          	li	a4,1
    4df0:	82cff06f          	j	3e1c <__subtf3+0x48c>
    4df4:	07400793          	li	a5,116
    4df8:	a0b7de63          	bge	a5,a1,4014 <__subtf3+0x684>
    4dfc:	00012e23          	sw	zero,28(sp)
    4e00:	00012c23          	sw	zero,24(sp)
    4e04:	00012a23          	sw	zero,20(sp)
    4e08:	00100793          	li	a5,1
    4e0c:	b00ff06f          	j	410c <__subtf3+0x77c>
    4e10:	07400793          	li	a5,116
    4e14:	a717c4e3          	blt	a5,a7,487c <__subtf3+0xeec>
    4e18:	00088313          	mv	t1,a7
    4e1c:	8d5ff06f          	j	46f0 <__subtf3+0xd60>

00004e20 <__unordtf2>:
    4e20:	00052703          	lw	a4,0(a0)
    4e24:	00452e83          	lw	t4,4(a0)
    4e28:	00852e03          	lw	t3,8(a0)
    4e2c:	00c52503          	lw	a0,12(a0)
    4e30:	00c5a603          	lw	a2,12(a1)
    4e34:	000086b7          	lui	a3,0x8
    4e38:	fff68693          	addi	a3,a3,-1 # 7fff <_vfprintf_r+0xc07>
    4e3c:	01055813          	srli	a6,a0,0x10
    4e40:	0005a783          	lw	a5,0(a1)
    4e44:	0045a303          	lw	t1,4(a1)
    4e48:	0085a883          	lw	a7,8(a1)
    4e4c:	00d87833          	and	a6,a6,a3
    4e50:	01065593          	srli	a1,a2,0x10
    4e54:	ff010113          	addi	sp,sp,-16
    4e58:	00d5f5b3          	and	a1,a1,a3
    4e5c:	02d81063          	bne	a6,a3,4e7c <__unordtf2+0x5c>
    4e60:	01d76733          	or	a4,a4,t4
    4e64:	01051513          	slli	a0,a0,0x10
    4e68:	01055513          	srli	a0,a0,0x10
    4e6c:	01c76733          	or	a4,a4,t3
    4e70:	00a76733          	or	a4,a4,a0
    4e74:	00100513          	li	a0,1
    4e78:	02071663          	bnez	a4,4ea4 <__unordtf2+0x84>
    4e7c:	00008737          	lui	a4,0x8
    4e80:	fff70713          	addi	a4,a4,-1 # 7fff <_vfprintf_r+0xc07>
    4e84:	00000513          	li	a0,0
    4e88:	00e59e63          	bne	a1,a4,4ea4 <__unordtf2+0x84>
    4e8c:	0067e533          	or	a0,a5,t1
    4e90:	01061613          	slli	a2,a2,0x10
    4e94:	01156533          	or	a0,a0,a7
    4e98:	01065613          	srli	a2,a2,0x10
    4e9c:	00c56533          	or	a0,a0,a2
    4ea0:	00a03533          	snez	a0,a0
    4ea4:	01010113          	addi	sp,sp,16
    4ea8:	00008067          	ret

00004eac <__fixtfsi>:
    4eac:	00052703          	lw	a4,0(a0)
    4eb0:	00452683          	lw	a3,4(a0)
    4eb4:	00c52783          	lw	a5,12(a0)
    4eb8:	00852583          	lw	a1,8(a0)
    4ebc:	fe010113          	addi	sp,sp,-32
    4ec0:	00e12023          	sw	a4,0(sp)
    4ec4:	00d12223          	sw	a3,4(sp)
    4ec8:	00e12823          	sw	a4,16(sp)
    4ecc:	00179693          	slli	a3,a5,0x1
    4ed0:	00004737          	lui	a4,0x4
    4ed4:	00b12423          	sw	a1,8(sp)
    4ed8:	00f12623          	sw	a5,12(sp)
    4edc:	00b12c23          	sw	a1,24(sp)
    4ee0:	0116d693          	srli	a3,a3,0x11
    4ee4:	ffe70713          	addi	a4,a4,-2 # 3ffe <__subtf3+0x66e>
    4ee8:	00000513          	li	a0,0
    4eec:	02d75063          	bge	a4,a3,4f0c <__fixtfsi+0x60>
    4ef0:	00004737          	lui	a4,0x4
    4ef4:	01d70713          	addi	a4,a4,29 # 401d <__subtf3+0x68d>
    4ef8:	01f7d813          	srli	a6,a5,0x1f
    4efc:	00d75c63          	bge	a4,a3,4f14 <__fixtfsi+0x68>
    4f00:	80000537          	lui	a0,0x80000
    4f04:	fff50513          	addi	a0,a0,-1 # 7fffffff <_end+0x7ffead9b>
    4f08:	00a80533          	add	a0,a6,a0
    4f0c:	02010113          	addi	sp,sp,32
    4f10:	00008067          	ret
    4f14:	01079793          	slli	a5,a5,0x10
    4f18:	00010737          	lui	a4,0x10
    4f1c:	0107d793          	srli	a5,a5,0x10
    4f20:	00e7e7b3          	or	a5,a5,a4
    4f24:	00004737          	lui	a4,0x4
    4f28:	06f70713          	addi	a4,a4,111 # 406f <__subtf3+0x6df>
    4f2c:	40d70733          	sub	a4,a4,a3
    4f30:	40575613          	srai	a2,a4,0x5
    4f34:	00f12e23          	sw	a5,28(sp)
    4f38:	01f77713          	andi	a4,a4,31
    4f3c:	02071463          	bnez	a4,4f64 <__fixtfsi+0xb8>
    4f40:	00261613          	slli	a2,a2,0x2
    4f44:	02060793          	addi	a5,a2,32
    4f48:	00278633          	add	a2,a5,sp
    4f4c:	ff062783          	lw	a5,-16(a2)
    4f50:	00f12823          	sw	a5,16(sp)
    4f54:	01012503          	lw	a0,16(sp)
    4f58:	fa080ae3          	beqz	a6,4f0c <__fixtfsi+0x60>
    4f5c:	40a00533          	neg	a0,a0
    4f60:	fadff06f          	j	4f0c <__fixtfsi+0x60>
    4f64:	00200513          	li	a0,2
    4f68:	00000693          	li	a3,0
    4f6c:	02a61063          	bne	a2,a0,4f8c <__fixtfsi+0xe0>
    4f70:	02000693          	li	a3,32
    4f74:	40e686b3          	sub	a3,a3,a4
    4f78:	00d796b3          	sll	a3,a5,a3
    4f7c:	00e5d5b3          	srl	a1,a1,a4
    4f80:	00b6e6b3          	or	a3,a3,a1
    4f84:	00d12823          	sw	a3,16(sp)
    4f88:	00100693          	li	a3,1
    4f8c:	00269693          	slli	a3,a3,0x2
    4f90:	02068693          	addi	a3,a3,32
    4f94:	002686b3          	add	a3,a3,sp
    4f98:	00e7d7b3          	srl	a5,a5,a4
    4f9c:	fef6a823          	sw	a5,-16(a3)
    4fa0:	fb5ff06f          	j	4f54 <__fixtfsi+0xa8>

00004fa4 <__floatsitf>:
    4fa4:	fd010113          	addi	sp,sp,-48
    4fa8:	02912223          	sw	s1,36(sp)
    4fac:	02112623          	sw	ra,44(sp)
    4fb0:	02812423          	sw	s0,40(sp)
    4fb4:	03212023          	sw	s2,32(sp)
    4fb8:	00050493          	mv	s1,a0
    4fbc:	12058263          	beqz	a1,50e0 <__floatsitf+0x13c>
    4fc0:	41f5d793          	srai	a5,a1,0x1f
    4fc4:	00b7c433          	xor	s0,a5,a1
    4fc8:	40f40433          	sub	s0,s0,a5
    4fcc:	00040513          	mv	a0,s0
    4fd0:	01f5d913          	srli	s2,a1,0x1f
    4fd4:	330000ef          	jal	5304 <__clzsi2>
    4fd8:	00004737          	lui	a4,0x4
    4fdc:	01e70713          	addi	a4,a4,30 # 401e <__subtf3+0x68e>
    4fe0:	05150793          	addi	a5,a0,81
    4fe4:	40a70633          	sub	a2,a4,a0
    4fe8:	00812823          	sw	s0,16(sp)
    4fec:	4057d713          	srai	a4,a5,0x5
    4ff0:	00012a23          	sw	zero,20(sp)
    4ff4:	00012c23          	sw	zero,24(sp)
    4ff8:	00012e23          	sw	zero,28(sp)
    4ffc:	01f7f793          	andi	a5,a5,31
    5000:	02078c63          	beqz	a5,5038 <__floatsitf+0x94>
    5004:	00200693          	li	a3,2
    5008:	0cd71863          	bne	a4,a3,50d8 <__floatsitf+0x134>
    500c:	02000693          	li	a3,32
    5010:	40f686b3          	sub	a3,a3,a5
    5014:	00d456b3          	srl	a3,s0,a3
    5018:	00d12e23          	sw	a3,28(sp)
    501c:	fff70693          	addi	a3,a4,-1
    5020:	00271713          	slli	a4,a4,0x2
    5024:	02070713          	addi	a4,a4,32
    5028:	00270733          	add	a4,a4,sp
    502c:	00f41433          	sll	s0,s0,a5
    5030:	fe872823          	sw	s0,-16(a4)
    5034:	0340006f          	j	5068 <__floatsitf+0xc4>
    5038:	00300793          	li	a5,3
    503c:	40e787b3          	sub	a5,a5,a4
    5040:	00279793          	slli	a5,a5,0x2
    5044:	02078793          	addi	a5,a5,32
    5048:	002787b3          	add	a5,a5,sp
    504c:	ff07a783          	lw	a5,-16(a5)
    5050:	00200693          	li	a3,2
    5054:	00f12e23          	sw	a5,28(sp)
    5058:	00200793          	li	a5,2
    505c:	00f71663          	bne	a4,a5,5068 <__floatsitf+0xc4>
    5060:	00812c23          	sw	s0,24(sp)
    5064:	00100693          	li	a3,1
    5068:	00269693          	slli	a3,a3,0x2
    506c:	00012823          	sw	zero,16(sp)
    5070:	00012a23          	sw	zero,20(sp)
    5074:	ffc68693          	addi	a3,a3,-4
    5078:	00400793          	li	a5,4
    507c:	00f6e463          	bltu	a3,a5,5084 <__floatsitf+0xe0>
    5080:	00012c23          	sw	zero,24(sp)
    5084:	00090593          	mv	a1,s2
    5088:	01c12783          	lw	a5,28(sp)
    508c:	00f59413          	slli	s0,a1,0xf
    5090:	00c46433          	or	s0,s0,a2
    5094:	00f11623          	sh	a5,12(sp)
    5098:	01012783          	lw	a5,16(sp)
    509c:	00811723          	sh	s0,14(sp)
    50a0:	02c12083          	lw	ra,44(sp)
    50a4:	00f4a023          	sw	a5,0(s1)
    50a8:	01412783          	lw	a5,20(sp)
    50ac:	02812403          	lw	s0,40(sp)
    50b0:	02012903          	lw	s2,32(sp)
    50b4:	00f4a223          	sw	a5,4(s1)
    50b8:	01812783          	lw	a5,24(sp)
    50bc:	00048513          	mv	a0,s1
    50c0:	00f4a423          	sw	a5,8(s1)
    50c4:	00c12783          	lw	a5,12(sp)
    50c8:	00f4a623          	sw	a5,12(s1)
    50cc:	02412483          	lw	s1,36(sp)
    50d0:	03010113          	addi	sp,sp,48
    50d4:	00008067          	ret
    50d8:	00300713          	li	a4,3
    50dc:	f41ff06f          	j	501c <__floatsitf+0x78>
    50e0:	00012e23          	sw	zero,28(sp)
    50e4:	00012c23          	sw	zero,24(sp)
    50e8:	00012a23          	sw	zero,20(sp)
    50ec:	00012823          	sw	zero,16(sp)
    50f0:	00000613          	li	a2,0
    50f4:	f95ff06f          	j	5088 <__floatsitf+0xe4>

000050f8 <__extenddftf2>:
    50f8:	01465713          	srli	a4,a2,0x14
    50fc:	00c61793          	slli	a5,a2,0xc
    5100:	7ff77713          	andi	a4,a4,2047
    5104:	fd010113          	addi	sp,sp,-48
    5108:	00c7d793          	srli	a5,a5,0xc
    510c:	00170693          	addi	a3,a4,1
    5110:	02812423          	sw	s0,40(sp)
    5114:	02912223          	sw	s1,36(sp)
    5118:	03212023          	sw	s2,32(sp)
    511c:	02112623          	sw	ra,44(sp)
    5120:	00b12823          	sw	a1,16(sp)
    5124:	00f12a23          	sw	a5,20(sp)
    5128:	00012e23          	sw	zero,28(sp)
    512c:	00012c23          	sw	zero,24(sp)
    5130:	7fe6f693          	andi	a3,a3,2046
    5134:	00050913          	mv	s2,a0
    5138:	00058413          	mv	s0,a1
    513c:	01f65493          	srli	s1,a2,0x1f
    5140:	08068263          	beqz	a3,51c4 <__extenddftf2+0xcc>
    5144:	000046b7          	lui	a3,0x4
    5148:	c0068693          	addi	a3,a3,-1024 # 3c00 <__subtf3+0x270>
    514c:	00d70733          	add	a4,a4,a3
    5150:	0047d693          	srli	a3,a5,0x4
    5154:	00d12e23          	sw	a3,28(sp)
    5158:	01c79793          	slli	a5,a5,0x1c
    515c:	0045d693          	srli	a3,a1,0x4
    5160:	00d7e7b3          	or	a5,a5,a3
    5164:	01c59413          	slli	s0,a1,0x1c
    5168:	00f12c23          	sw	a5,24(sp)
    516c:	00812a23          	sw	s0,20(sp)
    5170:	00012823          	sw	zero,16(sp)
    5174:	01c12783          	lw	a5,28(sp)
    5178:	00f49493          	slli	s1,s1,0xf
    517c:	00e4e4b3          	or	s1,s1,a4
    5180:	00f11623          	sh	a5,12(sp)
    5184:	01012783          	lw	a5,16(sp)
    5188:	00911723          	sh	s1,14(sp)
    518c:	02c12083          	lw	ra,44(sp)
    5190:	00f92023          	sw	a5,0(s2)
    5194:	01412783          	lw	a5,20(sp)
    5198:	02812403          	lw	s0,40(sp)
    519c:	02412483          	lw	s1,36(sp)
    51a0:	00f92223          	sw	a5,4(s2)
    51a4:	01812783          	lw	a5,24(sp)
    51a8:	00090513          	mv	a0,s2
    51ac:	00f92423          	sw	a5,8(s2)
    51b0:	00c12783          	lw	a5,12(sp)
    51b4:	00f92623          	sw	a5,12(s2)
    51b8:	02012903          	lw	s2,32(sp)
    51bc:	03010113          	addi	sp,sp,48
    51c0:	00008067          	ret
    51c4:	00b7e533          	or	a0,a5,a1
    51c8:	10071063          	bnez	a4,52c8 <__extenddftf2+0x1d0>
    51cc:	fa0504e3          	beqz	a0,5174 <__extenddftf2+0x7c>
    51d0:	04078e63          	beqz	a5,522c <__extenddftf2+0x134>
    51d4:	00078513          	mv	a0,a5
    51d8:	12c000ef          	jal	5304 <__clzsi2>
    51dc:	03150693          	addi	a3,a0,49
    51e0:	4056d793          	srai	a5,a3,0x5
    51e4:	01f6f693          	andi	a3,a3,31
    51e8:	04068863          	beqz	a3,5238 <__extenddftf2+0x140>
    51ec:	ffc00613          	li	a2,-4
    51f0:	02c78633          	mul	a2,a5,a2
    51f4:	02000813          	li	a6,32
    51f8:	01010313          	addi	t1,sp,16
    51fc:	40d80833          	sub	a6,a6,a3
    5200:	00c60713          	addi	a4,a2,12
    5204:	00e30733          	add	a4,t1,a4
    5208:	40c00633          	neg	a2,a2
    520c:	08e31c63          	bne	t1,a4,52a4 <__extenddftf2+0x1ac>
    5210:	fff78713          	addi	a4,a5,-1
    5214:	00279793          	slli	a5,a5,0x2
    5218:	02078793          	addi	a5,a5,32
    521c:	002787b3          	add	a5,a5,sp
    5220:	00d416b3          	sll	a3,s0,a3
    5224:	fed7a823          	sw	a3,-16(a5)
    5228:	03c0006f          	j	5264 <__extenddftf2+0x16c>
    522c:	0d8000ef          	jal	5304 <__clzsi2>
    5230:	02050513          	addi	a0,a0,32
    5234:	fa9ff06f          	j	51dc <__extenddftf2+0xe4>
    5238:	ffc00613          	li	a2,-4
    523c:	02c78633          	mul	a2,a5,a2
    5240:	01c10713          	addi	a4,sp,28
    5244:	00300693          	li	a3,3
    5248:	00c705b3          	add	a1,a4,a2
    524c:	0005a583          	lw	a1,0(a1)
    5250:	fff68693          	addi	a3,a3,-1
    5254:	ffc70713          	addi	a4,a4,-4
    5258:	00b72223          	sw	a1,4(a4)
    525c:	fef6d6e3          	bge	a3,a5,5248 <__extenddftf2+0x150>
    5260:	fff78713          	addi	a4,a5,-1
    5264:	00170793          	addi	a5,a4,1
    5268:	00279793          	slli	a5,a5,0x2
    526c:	00800693          	li	a3,8
    5270:	01010713          	addi	a4,sp,16
    5274:	00d7ea63          	bltu	a5,a3,5288 <__extenddftf2+0x190>
    5278:	00012823          	sw	zero,16(sp)
    527c:	00072223          	sw	zero,4(a4)
    5280:	ff878793          	addi	a5,a5,-8
    5284:	01810713          	addi	a4,sp,24
    5288:	00400693          	li	a3,4
    528c:	00d7e463          	bltu	a5,a3,5294 <__extenddftf2+0x19c>
    5290:	00072023          	sw	zero,0(a4)
    5294:	00004737          	lui	a4,0x4
    5298:	c0c70713          	addi	a4,a4,-1012 # 3c0c <__subtf3+0x27c>
    529c:	40a70733          	sub	a4,a4,a0
    52a0:	ed5ff06f          	j	5174 <__extenddftf2+0x7c>
    52a4:	00072583          	lw	a1,0(a4)
    52a8:	ffc72883          	lw	a7,-4(a4)
    52ac:	00c70e33          	add	t3,a4,a2
    52b0:	00d595b3          	sll	a1,a1,a3
    52b4:	0108d8b3          	srl	a7,a7,a6
    52b8:	0115e5b3          	or	a1,a1,a7
    52bc:	00be2023          	sw	a1,0(t3)
    52c0:	ffc70713          	addi	a4,a4,-4
    52c4:	f49ff06f          	j	520c <__extenddftf2+0x114>
    52c8:	02050863          	beqz	a0,52f8 <__extenddftf2+0x200>
    52cc:	01c79713          	slli	a4,a5,0x1c
    52d0:	0045d693          	srli	a3,a1,0x4
    52d4:	00d76733          	or	a4,a4,a3
    52d8:	00e12c23          	sw	a4,24(sp)
    52dc:	0047d793          	srli	a5,a5,0x4
    52e0:	00008737          	lui	a4,0x8
    52e4:	01c59413          	slli	s0,a1,0x1c
    52e8:	00e7e7b3          	or	a5,a5,a4
    52ec:	00812a23          	sw	s0,20(sp)
    52f0:	00012823          	sw	zero,16(sp)
    52f4:	00f12e23          	sw	a5,28(sp)
    52f8:	00008737          	lui	a4,0x8
    52fc:	fff70713          	addi	a4,a4,-1 # 7fff <_vfprintf_r+0xc07>
    5300:	e75ff06f          	j	5174 <__extenddftf2+0x7c>

00005304 <__clzsi2>:
    5304:	000107b7          	lui	a5,0x10
    5308:	02f57a63          	bgeu	a0,a5,533c <__clzsi2+0x38>
    530c:	10053793          	sltiu	a5,a0,256
    5310:	0017b793          	seqz	a5,a5
    5314:	00379793          	slli	a5,a5,0x3
    5318:	00012737          	lui	a4,0x12
    531c:	02000693          	li	a3,32
    5320:	40f686b3          	sub	a3,a3,a5
    5324:	00f55533          	srl	a0,a0,a5
    5328:	e4070793          	addi	a5,a4,-448 # 11e40 <__clz_tab>
    532c:	00a787b3          	add	a5,a5,a0
    5330:	0007c503          	lbu	a0,0(a5) # 10000 <_realloc_r+0x4c>
    5334:	40a68533          	sub	a0,a3,a0
    5338:	00008067          	ret
    533c:	01000737          	lui	a4,0x1000
    5340:	01800793          	li	a5,24
    5344:	fce57ae3          	bgeu	a0,a4,5318 <__clzsi2+0x14>
    5348:	01000793          	li	a5,16
    534c:	fcdff06f          	j	5318 <__clzsi2+0x14>

00005350 <exit>:
    5350:	ff010113          	addi	sp,sp,-16
    5354:	00000593          	li	a1,0
    5358:	00812423          	sw	s0,8(sp)
    535c:	00112623          	sw	ra,12(sp)
    5360:	00050413          	mv	s0,a0
    5364:	309010ef          	jal	6e6c <__call_exitprocs>
    5368:	8b81a783          	lw	a5,-1864(gp) # 12770 <__stdio_exit_handler>
    536c:	00078463          	beqz	a5,5374 <exit+0x24>
    5370:	000780e7          	jalr	a5
    5374:	00040513          	mv	a0,s0
    5378:	918fb0ef          	jal	490 <_exit>

0000537c <main>:
    537c:	f5010113          	addi	sp,sp,-176
    5380:	03000513          	li	a0,48
    5384:	0a112623          	sw	ra,172(sp)
    5388:	0a812423          	sw	s0,168(sp)
    538c:	09612823          	sw	s6,144(sp)
    5390:	09812423          	sw	s8,136(sp)
    5394:	0a912223          	sw	s1,164(sp)
    5398:	0b212023          	sw	s2,160(sp)
    539c:	09312e23          	sw	s3,156(sp)
    53a0:	09412c23          	sw	s4,152(sp)
    53a4:	09512a23          	sw	s5,148(sp)
    53a8:	09712623          	sw	s7,140(sp)
    53ac:	09912223          	sw	s9,132(sp)
    53b0:	09a12023          	sw	s10,128(sp)
    53b4:	07b12e23          	sw	s11,124(sp)
    53b8:	7bc000ef          	jal	5b74 <malloc>
    53bc:	00050413          	mv	s0,a0
    53c0:	03000513          	li	a0,48
    53c4:	8a81a023          	sw	s0,-1888(gp) # 12758 <Next_Ptr_Glob>
    53c8:	7ac000ef          	jal	5b74 <malloc>
    53cc:	000117b7          	lui	a5,0x11
    53d0:	00011737          	lui	a4,0x11
    53d4:	13078793          	addi	a5,a5,304 # 11130 <_getpid_r+0x8>
    53d8:	68c70713          	addi	a4,a4,1676 # 1168c <_getpid_r+0x564>
    53dc:	0007a383          	lw	t2,0(a5)
    53e0:	0047af03          	lw	t5,4(a5)
    53e4:	0087ae83          	lw	t4,8(a5)
    53e8:	00c7ae03          	lw	t3,12(a5)
    53ec:	0107a303          	lw	t1,16(a5)
    53f0:	00072283          	lw	t0,0(a4)
    53f4:	00472f83          	lw	t6,4(a4)
    53f8:	0147a883          	lw	a7,20(a5)
    53fc:	0187a803          	lw	a6,24(a5)
    5400:	01c7d583          	lhu	a1,28(a5)
    5404:	01e7c603          	lbu	a2,30(a5)
    5408:	00852023          	sw	s0,0(a0)
    540c:	00050793          	mv	a5,a0
    5410:	00052223          	sw	zero,4(a0)
    5414:	00872683          	lw	a3,8(a4)
    5418:	00200513          	li	a0,2
    541c:	00a7a423          	sw	a0,8(a5)
    5420:	02800513          	li	a0,40
    5424:	0077a823          	sw	t2,16(a5)
    5428:	01e7aa23          	sw	t5,20(a5)
    542c:	01d7ac23          	sw	t4,24(a5)
    5430:	01c7ae23          	sw	t3,28(a5)
    5434:	0267a023          	sw	t1,32(a5)
    5438:	02512823          	sw	t0,48(sp)
    543c:	03f12a23          	sw	t6,52(sp)
    5440:	00a7a623          	sw	a0,12(a5)
    5444:	0317a223          	sw	a7,36(a5)
    5448:	0307a423          	sw	a6,40(a5)
    544c:	02b79623          	sh	a1,44(a5)
    5450:	02c78723          	sb	a2,46(a5)
    5454:	8af1a223          	sw	a5,-1884(gp) # 1275c <Ptr_Glob>
    5458:	00c72883          	lw	a7,12(a4)
    545c:	01072803          	lw	a6,16(a4)
    5460:	01472583          	lw	a1,20(a4)
    5464:	01872603          	lw	a2,24(a4)
    5468:	02d12c23          	sw	a3,56(sp)
    546c:	01e74783          	lbu	a5,30(a4)
    5470:	01c75683          	lhu	a3,28(a4)
    5474:	00013c37          	lui	s8,0x13
    5478:	864c0713          	addi	a4,s8,-1948 # 12864 <Arr_2_Glob>
    547c:	04f10723          	sb	a5,78(sp)
    5480:	00a00513          	li	a0,10
    5484:	00a00793          	li	a5,10
    5488:	64f72e23          	sw	a5,1628(a4)
    548c:	03112e23          	sw	a7,60(sp)
    5490:	05012023          	sw	a6,64(sp)
    5494:	04b12223          	sw	a1,68(sp)
    5498:	04c12423          	sw	a2,72(sp)
    549c:	04d11623          	sh	a3,76(sp)
    54a0:	38c010ef          	jal	682c <putchar>
    54a4:	00011537          	lui	a0,0x11
    54a8:	15050513          	addi	a0,a0,336 # 11150 <_getpid_r+0x28>
    54ac:	464010ef          	jal	6910 <puts>
    54b0:	00a00513          	li	a0,10
    54b4:	378010ef          	jal	682c <putchar>
    54b8:	8901a783          	lw	a5,-1904(gp) # 12748 <Reg>
    54bc:	68078463          	beqz	a5,5b44 <main+0x7c8>
    54c0:	00011537          	lui	a0,0x11
    54c4:	18050513          	addi	a0,a0,384 # 11180 <_getpid_r+0x58>
    54c8:	448010ef          	jal	6910 <puts>
    54cc:	00a00513          	li	a0,10
    54d0:	35c010ef          	jal	682c <putchar>
    54d4:	00011537          	lui	a0,0x11
    54d8:	1dc50513          	addi	a0,a0,476 # 111dc <_getpid_r+0xb4>
    54dc:	2fc010ef          	jal	67d8 <printf>
    54e0:	00a00513          	li	a0,10
    54e4:	348010ef          	jal	682c <putchar>
    54e8:	000185b7          	lui	a1,0x18
    54ec:	00011537          	lui	a0,0x11
    54f0:	6a058593          	addi	a1,a1,1696 # 186a0 <_end+0x343c>
    54f4:	21450513          	addi	a0,a0,532 # 11214 <_getpid_r+0xec>
    54f8:	2e0010ef          	jal	67d8 <printf>
    54fc:	00000513          	li	a0,0
    5500:	ed9fa0ef          	jal	3d8 <time>
    5504:	00050793          	mv	a5,a0
    5508:	00000513          	li	a0,0
    550c:	88f1a623          	sw	a5,-1908(gp) # 12744 <Begin_Time>
    5510:	ed1fa0ef          	jal	3e0 <insn>
    5514:	000117b7          	lui	a5,0x11
    5518:	6ac78793          	addi	a5,a5,1708 # 116ac <_getpid_r+0x584>
    551c:	0047a703          	lw	a4,4(a5)
    5520:	0007ad83          	lw	s11,0(a5)
    5524:	00011837          	lui	a6,0x11
    5528:	00e12023          	sw	a4,0(sp)
    552c:	0087a703          	lw	a4,8(a5)
    5530:	00100493          	li	s1,1
    5534:	00e12223          	sw	a4,4(sp)
    5538:	00c7a703          	lw	a4,12(a5)
    553c:	00e12423          	sw	a4,8(sp)
    5540:	0107a703          	lw	a4,16(a5)
    5544:	00e12623          	sw	a4,12(sp)
    5548:	0147a703          	lw	a4,20(a5)
    554c:	6cc80c93          	addi	s9,a6,1740 # 116cc <_getpid_r+0x5a4>
    5550:	00e12823          	sw	a4,16(sp)
    5554:	0187a703          	lw	a4,24(a5)
    5558:	00e12a23          	sw	a4,20(sp)
    555c:	01c7d703          	lhu	a4,28(a5)
    5560:	01e7c783          	lbu	a5,30(a5)
    5564:	00e12c23          	sw	a4,24(sp)
    5568:	00f12e23          	sw	a5,28(sp)
    556c:	88a1a023          	sw	a0,-1920(gp) # 12738 <Begin_Insn>
    5570:	04100713          	li	a4,65
    5574:	88e18aa3          	sb	a4,-1899(gp) # 1274d <Ch_1_Glob>
    5578:	04200713          	li	a4,66
    557c:	88e18a23          	sb	a4,-1900(gp) # 1274c <Ch_2_Glob>
    5580:	00012703          	lw	a4,0(sp)
    5584:	00100793          	li	a5,1
    5588:	05010593          	addi	a1,sp,80
    558c:	04e12a23          	sw	a4,84(sp)
    5590:	00412703          	lw	a4,4(sp)
    5594:	03010513          	addi	a0,sp,48
    5598:	88f1ac23          	sw	a5,-1896(gp) # 12750 <Bool_Glob>
    559c:	04e12c23          	sw	a4,88(sp)
    55a0:	00812703          	lw	a4,8(sp)
    55a4:	02f12623          	sw	a5,44(sp)
    55a8:	05b12823          	sw	s11,80(sp)
    55ac:	04e12e23          	sw	a4,92(sp)
    55b0:	00c12703          	lw	a4,12(sp)
    55b4:	06e12023          	sw	a4,96(sp)
    55b8:	01012703          	lw	a4,16(sp)
    55bc:	06e12223          	sw	a4,100(sp)
    55c0:	01412703          	lw	a4,20(sp)
    55c4:	06e12423          	sw	a4,104(sp)
    55c8:	01812703          	lw	a4,24(sp)
    55cc:	06e11623          	sh	a4,108(sp)
    55d0:	01c12703          	lw	a4,28(sp)
    55d4:	06e10723          	sb	a4,110(sp)
    55d8:	db1fa0ef          	jal	388 <Func_2>
    55dc:	00153793          	seqz	a5,a0
    55e0:	02810613          	addi	a2,sp,40
    55e4:	00300593          	li	a1,3
    55e8:	88f1ac23          	sw	a5,-1896(gp) # 12750 <Bool_Glob>
    55ec:	00200513          	li	a0,2
    55f0:	00700793          	li	a5,7
    55f4:	02f12423          	sw	a5,40(sp)
    55f8:	cfdfa0ef          	jal	2f4 <Proc_7>
    55fc:	02812683          	lw	a3,40(sp)
    5600:	00300613          	li	a2,3
    5604:	864c0593          	addi	a1,s8,-1948
    5608:	8e418513          	addi	a0,gp,-1820 # 1279c <Arr_1_Glob>
    560c:	cf9fa0ef          	jal	304 <Proc_8>
    5610:	8a41a503          	lw	a0,-1884(gp) # 1275c <Ptr_Glob>
    5614:	aa1fa0ef          	jal	b4 <Proc_1>
    5618:	8941c703          	lbu	a4,-1900(gp) # 1274c <Ch_2_Glob>
    561c:	04000793          	li	a5,64
    5620:	50e7fe63          	bgeu	a5,a4,5b3c <main+0x7c0>
    5624:	04100d13          	li	s10,65
    5628:	00300913          	li	s2,3
    562c:	04300593          	li	a1,67
    5630:	000d0513          	mv	a0,s10
    5634:	d35fa0ef          	jal	368 <Func_1>
    5638:	02c12783          	lw	a5,44(sp)
    563c:	001d0713          	addi	a4,s10,1
    5640:	48f50663          	beq	a0,a5,5acc <main+0x750>
    5644:	8941c783          	lbu	a5,-1900(gp) # 1274c <Ch_2_Glob>
    5648:	0ff77d13          	zext.b	s10,a4
    564c:	ffa7f0e3          	bgeu	a5,s10,562c <main+0x2b0>
    5650:	00191793          	slli	a5,s2,0x1
    5654:	01278933          	add	s2,a5,s2
    5658:	02812883          	lw	a7,40(sp)
    565c:	8951c683          	lbu	a3,-1899(gp) # 1274d <Ch_1_Glob>
    5660:	04100793          	li	a5,65
    5664:	03194633          	div	a2,s2,a7
    5668:	00060713          	mv	a4,a2
    566c:	00f69863          	bne	a3,a5,567c <main+0x300>
    5670:	89c1a783          	lw	a5,-1892(gp) # 12754 <Int_Glob>
    5674:	00960713          	addi	a4,a2,9
    5678:	40f70733          	sub	a4,a4,a5
    567c:	000187b7          	lui	a5,0x18
    5680:	00148493          	addi	s1,s1,1
    5684:	6a178793          	addi	a5,a5,1697 # 186a1 <_end+0x343d>
    5688:	eef494e3          	bne	s1,a5,5570 <main+0x1f4>
    568c:	00000513          	li	a0,0
    5690:	01112423          	sw	a7,8(sp)
