
dhry.elf:     file format elf32-littleriscv


Disassembly of section .text:

00000000 <_start>:
       0:	00013197          	auipc	gp,0x13
       4:	eb818193          	add	gp,gp,-328 # 12eb8 <__global_pointer$>
       8:	87018513          	add	a0,gp,-1936 # 12728 <Dhrystones_Per_Second>
       c:	00015617          	auipc	a2,0x15
      10:	25860613          	add	a2,a2,600 # 15264 <_end>
      14:	40a60633          	sub	a2,a2,a0
      18:	00000593          	li	a1,0
      1c:	478000ef          	jal	494 <memset>
      20:	00007517          	auipc	a0,0x7
      24:	f7450513          	add	a0,a0,-140 # 6f94 <atexit>
      28:	00050863          	beqz	a0,38 <_start+0x38>
      2c:	0000c517          	auipc	a0,0xc
      30:	42450513          	add	a0,a0,1060 # c450 <__libc_fini_array>
      34:	761060ef          	jal	6f94 <atexit>
      38:	501060ef          	jal	6d38 <__libc_init_array>
      3c:	00012503          	lw	a0,0(sp)
      40:	00410593          	add	a1,sp,4
      44:	00000613          	li	a2,0
      48:	334050ef          	jal	537c <main>
      4c:	3040506f          	j	5350 <exit>

00000050 <__do_global_dtors_aux>:
      50:	ff010113          	add	sp,sp,-16
      54:	00812423          	sw	s0,8(sp)
      58:	8c81c783          	lbu	a5,-1848(gp) # 12780 <completed.1>
      5c:	00112623          	sw	ra,12(sp)
      60:	02079263          	bnez	a5,84 <__do_global_dtors_aux+0x34>
      64:	00000793          	li	a5,0
      68:	00078a63          	beqz	a5,7c <__do_global_dtors_aux+0x2c>
      6c:	00012537          	lui	a0,0x12
      70:	00050513          	mv	a0,a0
      74:	00000097          	auipc	ra,0x0
      78:	000000e7          	jalr	zero # 0 <_start>
      7c:	00100793          	li	a5,1
      80:	8cf18423          	sb	a5,-1848(gp) # 12780 <completed.1>
      84:	00c12083          	lw	ra,12(sp)
      88:	00812403          	lw	s0,8(sp)
      8c:	01010113          	add	sp,sp,16
      90:	00008067          	ret

00000094 <frame_dummy>:
      94:	00000793          	li	a5,0
      98:	00078c63          	beqz	a5,b0 <frame_dummy+0x1c>
      9c:	00012537          	lui	a0,0x12
      a0:	8cc18593          	add	a1,gp,-1844 # 12784 <object.0>
      a4:	00050513          	mv	a0,a0
      a8:	00000317          	auipc	t1,0x0
      ac:	00000067          	jr	zero # 0 <_start>
      b0:	00008067          	ret

000000b4 <Proc_1>:
      b4:	ff010113          	add	sp,sp,-16
      b8:	01212023          	sw	s2,0(sp)
      bc:	8a41a783          	lw	a5,-1884(gp) # 1275c <Ptr_Glob>
      c0:	00812423          	sw	s0,8(sp)
      c4:	00052403          	lw	s0,0(a0) # 12000 <__EH_FRAME_BEGIN__>
      c8:	0007a703          	lw	a4,0(a5)
      cc:	0047af83          	lw	t6,4(a5)
      d0:	0087af03          	lw	t5,8(a5)
      d4:	0107ae83          	lw	t4,16(a5)
      d8:	0147ae03          	lw	t3,20(a5)
      dc:	0187a303          	lw	t1,24(a5)
      e0:	01c7a883          	lw	a7,28(a5)
      e4:	0207a803          	lw	a6,32(a5)
      e8:	02c7a603          	lw	a2,44(a5)
      ec:	0287a583          	lw	a1,40(a5)
      f0:	00112623          	sw	ra,12(sp)
      f4:	00912223          	sw	s1,4(sp)
      f8:	00050493          	mv	s1,a0
      fc:	0247a503          	lw	a0,36(a5)
     100:	00e42023          	sw	a4,0(s0)
     104:	0004a683          	lw	a3,0(s1)
     108:	00500713          	li	a4,5
     10c:	01f42223          	sw	t6,4(s0)
     110:	01e42423          	sw	t5,8(s0)
     114:	01d42823          	sw	t4,16(s0)
     118:	01c42a23          	sw	t3,20(s0)
     11c:	00642c23          	sw	t1,24(s0)
     120:	01142e23          	sw	a7,28(s0)
     124:	03042023          	sw	a6,32(s0)
     128:	02a42223          	sw	a0,36(s0)
     12c:	02c42623          	sw	a2,44(s0)
     130:	02b42423          	sw	a1,40(s0)
     134:	00e4a623          	sw	a4,12(s1)
     138:	00d42023          	sw	a3,0(s0)
     13c:	0007a783          	lw	a5,0(a5)
     140:	89c1a583          	lw	a1,-1892(gp) # 12754 <Int_Glob>
     144:	00f42023          	sw	a5,0(s0)
     148:	8a41a603          	lw	a2,-1884(gp) # 1275c <Ptr_Glob>
     14c:	00e42623          	sw	a4,12(s0)
     150:	00a00513          	li	a0,10
     154:	00c60613          	add	a2,a2,12
     158:	19c000ef          	jal	2f4 <Proc_7>
     15c:	00442783          	lw	a5,4(s0)
     160:	08078063          	beqz	a5,1e0 <Proc_1+0x12c>
     164:	0004a783          	lw	a5,0(s1)
     168:	00c12083          	lw	ra,12(sp)
     16c:	00812403          	lw	s0,8(sp)
     170:	0007af83          	lw	t6,0(a5)
     174:	0047af03          	lw	t5,4(a5)
     178:	0087ae83          	lw	t4,8(a5)
     17c:	00c7ae03          	lw	t3,12(a5)
     180:	0107a303          	lw	t1,16(a5)
     184:	0147a883          	lw	a7,20(a5)
     188:	0187a803          	lw	a6,24(a5)
     18c:	01c7a583          	lw	a1,28(a5)
     190:	0207a603          	lw	a2,32(a5)
     194:	0247a683          	lw	a3,36(a5)
     198:	0287a703          	lw	a4,40(a5)
     19c:	02c7a783          	lw	a5,44(a5)
     1a0:	01f4a023          	sw	t6,0(s1)
     1a4:	01e4a223          	sw	t5,4(s1)
     1a8:	01d4a423          	sw	t4,8(s1)
     1ac:	01c4a623          	sw	t3,12(s1)
     1b0:	0064a823          	sw	t1,16(s1)
     1b4:	0114aa23          	sw	a7,20(s1)
     1b8:	0104ac23          	sw	a6,24(s1)
     1bc:	00b4ae23          	sw	a1,28(s1)
     1c0:	02c4a023          	sw	a2,32(s1)
     1c4:	02d4a223          	sw	a3,36(s1)
     1c8:	02e4a423          	sw	a4,40(s1)
     1cc:	02f4a623          	sw	a5,44(s1)
     1d0:	00012903          	lw	s2,0(sp)
     1d4:	00412483          	lw	s1,4(sp)
     1d8:	01010113          	add	sp,sp,16
     1dc:	00008067          	ret
     1e0:	0084a503          	lw	a0,8(s1)
     1e4:	00600793          	li	a5,6
     1e8:	00f42623          	sw	a5,12(s0)
     1ec:	00840593          	add	a1,s0,8
     1f0:	0b4000ef          	jal	2a4 <Proc_6>
     1f4:	8a41a783          	lw	a5,-1884(gp) # 1275c <Ptr_Glob>
     1f8:	00c42503          	lw	a0,12(s0)
     1fc:	00c40613          	add	a2,s0,12
     200:	0007a783          	lw	a5,0(a5)
     204:	00c12083          	lw	ra,12(sp)
     208:	00412483          	lw	s1,4(sp)
     20c:	00f42023          	sw	a5,0(s0)
     210:	00812403          	lw	s0,8(sp)
     214:	00012903          	lw	s2,0(sp)
     218:	00a00593          	li	a1,10
     21c:	01010113          	add	sp,sp,16
     220:	0d40006f          	j	2f4 <Proc_7>

00000224 <Proc_2>:
     224:	8951c703          	lbu	a4,-1899(gp) # 1274d <Ch_1_Glob>
     228:	04100793          	li	a5,65
     22c:	00f70463          	beq	a4,a5,234 <Proc_2+0x10>
     230:	00008067          	ret
     234:	00052783          	lw	a5,0(a0)
     238:	89c1a703          	lw	a4,-1892(gp) # 12754 <Int_Glob>
     23c:	00978793          	add	a5,a5,9
     240:	40e787b3          	sub	a5,a5,a4
     244:	00f52023          	sw	a5,0(a0)
     248:	00008067          	ret

0000024c <Proc_3>:
     24c:	8a41a603          	lw	a2,-1884(gp) # 1275c <Ptr_Glob>
     250:	00060863          	beqz	a2,260 <Proc_3+0x14>
     254:	00062703          	lw	a4,0(a2)
     258:	00e52023          	sw	a4,0(a0)
     25c:	8a41a603          	lw	a2,-1884(gp) # 1275c <Ptr_Glob>
     260:	89c1a583          	lw	a1,-1892(gp) # 12754 <Int_Glob>
     264:	00c60613          	add	a2,a2,12
     268:	00a00513          	li	a0,10
     26c:	0880006f          	j	2f4 <Proc_7>

00000270 <Proc_4>:
     270:	8951c783          	lbu	a5,-1899(gp) # 1274d <Ch_1_Glob>
     274:	8981a683          	lw	a3,-1896(gp) # 12750 <Bool_Glob>
     278:	fbf78793          	add	a5,a5,-65
     27c:	0017b793          	seqz	a5,a5
     280:	00d7e7b3          	or	a5,a5,a3
     284:	88f1ac23          	sw	a5,-1896(gp) # 12750 <Bool_Glob>
     288:	04200713          	li	a4,66
     28c:	88e18a23          	sb	a4,-1900(gp) # 1274c <Ch_2_Glob>
     290:	00008067          	ret

00000294 <Proc_5>:
     294:	04100713          	li	a4,65
     298:	88e18aa3          	sb	a4,-1899(gp) # 1274d <Ch_1_Glob>
     29c:	8801ac23          	sw	zero,-1896(gp) # 12750 <Bool_Glob>
     2a0:	00008067          	ret

000002a4 <Proc_6>:
     2a4:	00200793          	li	a5,2
     2a8:	02f50c63          	beq	a0,a5,2e0 <Proc_6+0x3c>
     2ac:	00300713          	li	a4,3
     2b0:	00e5a023          	sw	a4,0(a1)
     2b4:	00100713          	li	a4,1
     2b8:	00e50a63          	beq	a0,a4,2cc <Proc_6+0x28>
     2bc:	00400713          	li	a4,4
     2c0:	02e50663          	beq	a0,a4,2ec <Proc_6+0x48>
     2c4:	00050a63          	beqz	a0,2d8 <Proc_6+0x34>
     2c8:	00008067          	ret
     2cc:	89c1a703          	lw	a4,-1892(gp) # 12754 <Int_Glob>
     2d0:	06400793          	li	a5,100
     2d4:	fee7dae3          	bge	a5,a4,2c8 <Proc_6+0x24>
     2d8:	0005a023          	sw	zero,0(a1)
     2dc:	00008067          	ret
     2e0:	00100793          	li	a5,1
     2e4:	00f5a023          	sw	a5,0(a1)
     2e8:	00008067          	ret
     2ec:	00f5a023          	sw	a5,0(a1)
     2f0:	00008067          	ret

000002f4 <Proc_7>:
     2f4:	00250513          	add	a0,a0,2
     2f8:	00b505b3          	add	a1,a0,a1
     2fc:	00b62023          	sw	a1,0(a2)
     300:	00008067          	ret

00000304 <Proc_8>:
     304:	00560713          	add	a4,a2,5
     308:	0c800813          	li	a6,200
     30c:	03070833          	mul	a6,a4,a6
     310:	00261613          	sll	a2,a2,0x2
     314:	00271793          	sll	a5,a4,0x2
     318:	00f50533          	add	a0,a0,a5
     31c:	00d52023          	sw	a3,0(a0)
     320:	06e52c23          	sw	a4,120(a0)
     324:	00d52223          	sw	a3,4(a0)
     328:	00c807b3          	add	a5,a6,a2
     32c:	00f587b3          	add	a5,a1,a5
     330:	0107a683          	lw	a3,16(a5)
     334:	00e7aa23          	sw	a4,20(a5)
     338:	00e7ac23          	sw	a4,24(a5)
     33c:	00168713          	add	a4,a3,1
     340:	00e7a823          	sw	a4,16(a5)
     344:	00052703          	lw	a4,0(a0)
     348:	010585b3          	add	a1,a1,a6
     34c:	00c585b3          	add	a1,a1,a2
     350:	000017b7          	lui	a5,0x1
     354:	00b787b3          	add	a5,a5,a1
     358:	fae7aa23          	sw	a4,-76(a5) # fb4 <__divdf3+0x134>
     35c:	00500713          	li	a4,5
     360:	88e1ae23          	sw	a4,-1892(gp) # 12754 <Int_Glob>
     364:	00008067          	ret

00000368 <Func_1>:
     368:	0ff57513          	zext.b	a0,a0
     36c:	0ff5f593          	zext.b	a1,a1
     370:	00b50663          	beq	a0,a1,37c <Func_1+0x14>
     374:	00000513          	li	a0,0
     378:	00008067          	ret
     37c:	88a18aa3          	sb	a0,-1899(gp) # 1274d <Ch_1_Glob>
     380:	00100513          	li	a0,1
     384:	00008067          	ret

00000388 <Func_2>:
     388:	ff010113          	add	sp,sp,-16
     38c:	00112623          	sw	ra,12(sp)
     390:	00254703          	lbu	a4,2(a0)
     394:	0035c783          	lbu	a5,3(a1)
     398:	02e78663          	beq	a5,a4,3c4 <Func_2+0x3c>
     39c:	1d4000ef          	jal	570 <strcmp>
     3a0:	00000793          	li	a5,0
     3a4:	00a05863          	blez	a0,3b4 <Func_2+0x2c>
     3a8:	00a00713          	li	a4,10
     3ac:	88e1ae23          	sw	a4,-1892(gp) # 12754 <Int_Glob>
     3b0:	00100793          	li	a5,1
     3b4:	00c12083          	lw	ra,12(sp)
     3b8:	00078513          	mv	a0,a5
     3bc:	01010113          	add	sp,sp,16
     3c0:	00008067          	ret
     3c4:	88f18aa3          	sb	a5,-1899(gp) # 1274d <Ch_1_Glob>
     3c8:	fd1ff06f          	j	398 <Func_2+0x10>

000003cc <Func_3>:
     3cc:	ffe50513          	add	a0,a0,-2
     3d0:	00153513          	seqz	a0,a0
     3d4:	00008067          	ret

000003d8 <time>:
     3d8:	c0002573          	rdcycle	a0
     3dc:	00008067          	ret

000003e0 <insn>:
     3e0:	c0202573          	rdinstret	a0
     3e4:	00008067          	ret

000003e8 <_access>:
     3e8:	0040006f          	j	3ec <unimplemented_syscall>

000003ec <unimplemented_syscall>:
     3ec:	000117b7          	lui	a5,0x11
     3f0:	6dc78793          	add	a5,a5,1756 # 116dc <_getpid_r+0x5c0>
     3f4:	05500713          	li	a4,85
     3f8:	100006b7          	lui	a3,0x10000
     3fc:	00178793          	add	a5,a5,1
     400:	00e6a023          	sw	a4,0(a3) # 10000000 <_end+0xffead9c>
     404:	0007c703          	lbu	a4,0(a5)
     408:	fe071ae3          	bnez	a4,3fc <unimplemented_syscall+0x10>
     40c:	00100073          	ebreak

00000410 <_read>:
     410:	00000513          	li	a0,0
     414:	00008067          	ret

00000418 <_write>:
     418:	00c58733          	add	a4,a1,a2
     41c:	00060513          	mv	a0,a2
     420:	00e58c63          	beq	a1,a4,438 <_write+0x20>
     424:	100006b7          	lui	a3,0x10000
     428:	0005c783          	lbu	a5,0(a1)
     42c:	00158593          	add	a1,a1,1
     430:	00f6a023          	sw	a5,0(a3) # 10000000 <_end+0xffead9c>
     434:	feb71ae3          	bne	a4,a1,428 <_write+0x10>
     438:	00008067          	ret

0000043c <_close>:
     43c:	00000513          	li	a0,0
     440:	00008067          	ret

00000444 <_fstat>:
     444:	ff010113          	add	sp,sp,-16
     448:	00112623          	sw	ra,12(sp)
     44c:	0e5060ef          	jal	6d30 <__errno>
     450:	00c12083          	lw	ra,12(sp)
     454:	00200793          	li	a5,2
     458:	00f52023          	sw	a5,0(a0)
     45c:	fff00513          	li	a0,-1
     460:	01010113          	add	sp,sp,16
     464:	00008067          	ret

00000468 <_sbrk>:
     468:	8a81a703          	lw	a4,-1880(gp) # 12760 <heap_end.0>
     46c:	00050793          	mv	a5,a0
     470:	00070513          	mv	a0,a4
     474:	00071863          	bnez	a4,484 <_sbrk+0x1c>
     478:	00015537          	lui	a0,0x15
     47c:	26450713          	add	a4,a0,612 # 15264 <_end>
     480:	26450513          	add	a0,a0,612
     484:	00e787b3          	add	a5,a5,a4
     488:	8af1a423          	sw	a5,-1880(gp) # 12760 <heap_end.0>
     48c:	00008067          	ret

00000490 <_exit>:
     490:	00100073          	ebreak

00000494 <memset>:
     494:	00f00313          	li	t1,15
     498:	00050713          	mv	a4,a0
     49c:	02c37e63          	bgeu	t1,a2,4d8 <memset+0x44>
     4a0:	00f77793          	and	a5,a4,15
     4a4:	0a079063          	bnez	a5,544 <memset+0xb0>
     4a8:	08059263          	bnez	a1,52c <memset+0x98>
     4ac:	ff067693          	and	a3,a2,-16
     4b0:	00f67613          	and	a2,a2,15
     4b4:	00e686b3          	add	a3,a3,a4
     4b8:	00b72023          	sw	a1,0(a4)
     4bc:	00b72223          	sw	a1,4(a4)
     4c0:	00b72423          	sw	a1,8(a4)
     4c4:	00b72623          	sw	a1,12(a4)
     4c8:	01070713          	add	a4,a4,16
     4cc:	fed766e3          	bltu	a4,a3,4b8 <memset+0x24>
     4d0:	00061463          	bnez	a2,4d8 <memset+0x44>
     4d4:	00008067          	ret
     4d8:	40c306b3          	sub	a3,t1,a2
     4dc:	00269693          	sll	a3,a3,0x2
     4e0:	00000297          	auipc	t0,0x0
     4e4:	005686b3          	add	a3,a3,t0
     4e8:	00c68067          	jr	12(a3)
     4ec:	00b70723          	sb	a1,14(a4)
     4f0:	00b706a3          	sb	a1,13(a4)
     4f4:	00b70623          	sb	a1,12(a4)
     4f8:	00b705a3          	sb	a1,11(a4)
     4fc:	00b70523          	sb	a1,10(a4)
     500:	00b704a3          	sb	a1,9(a4)
     504:	00b70423          	sb	a1,8(a4)
     508:	00b703a3          	sb	a1,7(a4)
     50c:	00b70323          	sb	a1,6(a4)
     510:	00b702a3          	sb	a1,5(a4)
     514:	00b70223          	sb	a1,4(a4)
     518:	00b701a3          	sb	a1,3(a4)
     51c:	00b70123          	sb	a1,2(a4)
     520:	00b700a3          	sb	a1,1(a4)
     524:	00b70023          	sb	a1,0(a4)
     528:	00008067          	ret
     52c:	0ff5f593          	zext.b	a1,a1
     530:	00859693          	sll	a3,a1,0x8
     534:	00d5e5b3          	or	a1,a1,a3
     538:	01059693          	sll	a3,a1,0x10
     53c:	00d5e5b3          	or	a1,a1,a3
     540:	f6dff06f          	j	4ac <memset+0x18>
     544:	00279693          	sll	a3,a5,0x2
     548:	00000297          	auipc	t0,0x0
     54c:	005686b3          	add	a3,a3,t0
     550:	00008293          	mv	t0,ra
     554:	fa0680e7          	jalr	-96(a3)
     558:	00028093          	mv	ra,t0
     55c:	ff078793          	add	a5,a5,-16
     560:	40f70733          	sub	a4,a4,a5
     564:	00f60633          	add	a2,a2,a5
     568:	f6c378e3          	bgeu	t1,a2,4d8 <memset+0x44>
     56c:	f3dff06f          	j	4a8 <memset+0x14>

00000570 <strcmp>:
     570:	00b56733          	or	a4,a0,a1
     574:	fff00393          	li	t2,-1
     578:	00377713          	and	a4,a4,3
     57c:	10071063          	bnez	a4,67c <strcmp+0x10c>
     580:	7f7f87b7          	lui	a5,0x7f7f8
     584:	f7f78793          	add	a5,a5,-129 # 7f7f7f7f <_end+0x7f7e2d1b>
     588:	00052603          	lw	a2,0(a0)
     58c:	0005a683          	lw	a3,0(a1)
     590:	00f672b3          	and	t0,a2,a5
     594:	00f66333          	or	t1,a2,a5
     598:	00f282b3          	add	t0,t0,a5
     59c:	0062e2b3          	or	t0,t0,t1
     5a0:	10729263          	bne	t0,t2,6a4 <strcmp+0x134>
     5a4:	08d61663          	bne	a2,a3,630 <strcmp+0xc0>
     5a8:	00452603          	lw	a2,4(a0)
     5ac:	0045a683          	lw	a3,4(a1)
     5b0:	00f672b3          	and	t0,a2,a5
     5b4:	00f66333          	or	t1,a2,a5
     5b8:	00f282b3          	add	t0,t0,a5
     5bc:	0062e2b3          	or	t0,t0,t1
     5c0:	0c729e63          	bne	t0,t2,69c <strcmp+0x12c>
     5c4:	06d61663          	bne	a2,a3,630 <strcmp+0xc0>
     5c8:	00852603          	lw	a2,8(a0)
     5cc:	0085a683          	lw	a3,8(a1)
     5d0:	00f672b3          	and	t0,a2,a5
     5d4:	00f66333          	or	t1,a2,a5
     5d8:	00f282b3          	add	t0,t0,a5
     5dc:	0062e2b3          	or	t0,t0,t1
     5e0:	0c729863          	bne	t0,t2,6b0 <strcmp+0x140>
     5e4:	04d61663          	bne	a2,a3,630 <strcmp+0xc0>
     5e8:	00c52603          	lw	a2,12(a0)
     5ec:	00c5a683          	lw	a3,12(a1)
     5f0:	00f672b3          	and	t0,a2,a5
     5f4:	00f66333          	or	t1,a2,a5
     5f8:	00f282b3          	add	t0,t0,a5
     5fc:	0062e2b3          	or	t0,t0,t1
     600:	0c729263          	bne	t0,t2,6c4 <strcmp+0x154>
     604:	02d61663          	bne	a2,a3,630 <strcmp+0xc0>
     608:	01052603          	lw	a2,16(a0)
     60c:	0105a683          	lw	a3,16(a1)
     610:	00f672b3          	and	t0,a2,a5
     614:	00f66333          	or	t1,a2,a5
     618:	00f282b3          	add	t0,t0,a5
     61c:	0062e2b3          	or	t0,t0,t1
     620:	0a729c63          	bne	t0,t2,6d8 <strcmp+0x168>
     624:	01450513          	add	a0,a0,20
     628:	01458593          	add	a1,a1,20
     62c:	f4d60ee3          	beq	a2,a3,588 <strcmp+0x18>
     630:	01061713          	sll	a4,a2,0x10
     634:	01069793          	sll	a5,a3,0x10
     638:	00f71e63          	bne	a4,a5,654 <strcmp+0xe4>
     63c:	01065713          	srl	a4,a2,0x10
     640:	0106d793          	srl	a5,a3,0x10
     644:	40f70533          	sub	a0,a4,a5
     648:	0ff57593          	zext.b	a1,a0
     64c:	02059063          	bnez	a1,66c <strcmp+0xfc>
     650:	00008067          	ret
     654:	01075713          	srl	a4,a4,0x10
     658:	0107d793          	srl	a5,a5,0x10
     65c:	40f70533          	sub	a0,a4,a5
     660:	0ff57593          	zext.b	a1,a0
     664:	00059463          	bnez	a1,66c <strcmp+0xfc>
     668:	00008067          	ret
     66c:	0ff77713          	zext.b	a4,a4
     670:	0ff7f793          	zext.b	a5,a5
     674:	40f70533          	sub	a0,a4,a5
     678:	00008067          	ret
     67c:	00054603          	lbu	a2,0(a0)
     680:	0005c683          	lbu	a3,0(a1)
     684:	00150513          	add	a0,a0,1
     688:	00158593          	add	a1,a1,1
     68c:	00d61463          	bne	a2,a3,694 <strcmp+0x124>
     690:	fe0616e3          	bnez	a2,67c <strcmp+0x10c>
     694:	40d60533          	sub	a0,a2,a3
     698:	00008067          	ret
     69c:	00450513          	add	a0,a0,4
     6a0:	00458593          	add	a1,a1,4
     6a4:	fcd61ce3          	bne	a2,a3,67c <strcmp+0x10c>
     6a8:	00000513          	li	a0,0
     6ac:	00008067          	ret
     6b0:	00850513          	add	a0,a0,8
     6b4:	00858593          	add	a1,a1,8
     6b8:	fcd612e3          	bne	a2,a3,67c <strcmp+0x10c>
     6bc:	00000513          	li	a0,0
     6c0:	00008067          	ret
     6c4:	00c50513          	add	a0,a0,12
     6c8:	00c58593          	add	a1,a1,12
     6cc:	fad618e3          	bne	a2,a3,67c <strcmp+0x10c>
     6d0:	00000513          	li	a0,0
     6d4:	00008067          	ret
     6d8:	01050513          	add	a0,a0,16
     6dc:	01058593          	add	a1,a1,16
     6e0:	f8d61ee3          	bne	a2,a3,67c <strcmp+0x10c>
     6e4:	00000513          	li	a0,0
     6e8:	00008067          	ret

000006ec <__adddf3>:
     6ec:	00100837          	lui	a6,0x100
     6f0:	fff80813          	add	a6,a6,-1 # fffff <_end+0xead9b>
     6f4:	fe010113          	add	sp,sp,-32
     6f8:	00b878b3          	and	a7,a6,a1
     6fc:	0145d713          	srl	a4,a1,0x14
     700:	01d55793          	srl	a5,a0,0x1d
     704:	00d87833          	and	a6,a6,a3
     708:	00912a23          	sw	s1,20(sp)
     70c:	7ff77493          	and	s1,a4,2047
     710:	00389713          	sll	a4,a7,0x3
     714:	0146d893          	srl	a7,a3,0x14
     718:	00381813          	sll	a6,a6,0x3
     71c:	01212823          	sw	s2,16(sp)
     720:	00e7e7b3          	or	a5,a5,a4
     724:	7ff8f893          	and	a7,a7,2047
     728:	01d65713          	srl	a4,a2,0x1d
     72c:	00112e23          	sw	ra,28(sp)
     730:	00812c23          	sw	s0,24(sp)
     734:	01312623          	sw	s3,12(sp)
     738:	01f5d913          	srl	s2,a1,0x1f
     73c:	01f6d693          	srl	a3,a3,0x1f
     740:	01076733          	or	a4,a4,a6
     744:	00351513          	sll	a0,a0,0x3
     748:	00361613          	sll	a2,a2,0x3
     74c:	41148833          	sub	a6,s1,a7
     750:	2ad91a63          	bne	s2,a3,a04 <__adddf3+0x318>
     754:	11005c63          	blez	a6,86c <__adddf3+0x180>
     758:	04089063          	bnez	a7,798 <__adddf3+0xac>
     75c:	00c766b3          	or	a3,a4,a2
     760:	66068063          	beqz	a3,dc0 <__adddf3+0x6d4>
     764:	fff80593          	add	a1,a6,-1
     768:	02059063          	bnez	a1,788 <__adddf3+0x9c>
     76c:	00c50633          	add	a2,a0,a2
     770:	00a636b3          	sltu	a3,a2,a0
     774:	00e78733          	add	a4,a5,a4
     778:	00060513          	mv	a0,a2
     77c:	00d707b3          	add	a5,a4,a3
     780:	00100493          	li	s1,1
     784:	06c0006f          	j	7f0 <__adddf3+0x104>
     788:	7ff00693          	li	a3,2047
     78c:	02d81063          	bne	a6,a3,7ac <__adddf3+0xc0>
     790:	7ff00493          	li	s1,2047
     794:	1f80006f          	j	98c <__adddf3+0x2a0>
     798:	7ff00693          	li	a3,2047
     79c:	1ed48863          	beq	s1,a3,98c <__adddf3+0x2a0>
     7a0:	008006b7          	lui	a3,0x800
     7a4:	00d76733          	or	a4,a4,a3
     7a8:	00080593          	mv	a1,a6
     7ac:	03800693          	li	a3,56
     7b0:	0ab6c863          	blt	a3,a1,860 <__adddf3+0x174>
     7b4:	01f00693          	li	a3,31
     7b8:	06b6ca63          	blt	a3,a1,82c <__adddf3+0x140>
     7bc:	02000813          	li	a6,32
     7c0:	40b80833          	sub	a6,a6,a1
     7c4:	010716b3          	sll	a3,a4,a6
     7c8:	00b658b3          	srl	a7,a2,a1
     7cc:	01061833          	sll	a6,a2,a6
     7d0:	0116e6b3          	or	a3,a3,a7
     7d4:	01003833          	snez	a6,a6
     7d8:	0106e6b3          	or	a3,a3,a6
     7dc:	00b755b3          	srl	a1,a4,a1
     7e0:	00a68533          	add	a0,a3,a0
     7e4:	00f585b3          	add	a1,a1,a5
     7e8:	00d536b3          	sltu	a3,a0,a3
     7ec:	00d587b3          	add	a5,a1,a3
     7f0:	00879713          	sll	a4,a5,0x8
     7f4:	18075c63          	bgez	a4,98c <__adddf3+0x2a0>
     7f8:	00148493          	add	s1,s1,1
     7fc:	7ff00713          	li	a4,2047
     800:	5ae48a63          	beq	s1,a4,db4 <__adddf3+0x6c8>
     804:	ff800737          	lui	a4,0xff800
     808:	fff70713          	add	a4,a4,-1 # ff7fffff <_end+0xff7ead9b>
     80c:	00e7f733          	and	a4,a5,a4
     810:	00155793          	srl	a5,a0,0x1
     814:	00157513          	and	a0,a0,1
     818:	00a7e7b3          	or	a5,a5,a0
     81c:	01f71513          	sll	a0,a4,0x1f
     820:	00f56533          	or	a0,a0,a5
     824:	00175793          	srl	a5,a4,0x1
     828:	1640006f          	j	98c <__adddf3+0x2a0>
     82c:	fe058693          	add	a3,a1,-32
     830:	02000893          	li	a7,32
     834:	00d756b3          	srl	a3,a4,a3
     838:	00000813          	li	a6,0
     83c:	01158863          	beq	a1,a7,84c <__adddf3+0x160>
     840:	04000813          	li	a6,64
     844:	40b80833          	sub	a6,a6,a1
     848:	01071833          	sll	a6,a4,a6
     84c:	00c86833          	or	a6,a6,a2
     850:	01003833          	snez	a6,a6
     854:	0106e6b3          	or	a3,a3,a6
     858:	00000593          	li	a1,0
     85c:	f85ff06f          	j	7e0 <__adddf3+0xf4>
     860:	00c766b3          	or	a3,a4,a2
     864:	00d036b3          	snez	a3,a3
     868:	ff1ff06f          	j	858 <__adddf3+0x16c>
     86c:	0c080a63          	beqz	a6,940 <__adddf3+0x254>
     870:	409886b3          	sub	a3,a7,s1
     874:	02049463          	bnez	s1,89c <__adddf3+0x1b0>
     878:	00a7e5b3          	or	a1,a5,a0
     87c:	50058e63          	beqz	a1,d98 <__adddf3+0x6ac>
     880:	fff68593          	add	a1,a3,-1 # 7fffff <_end+0x7ead9b>
     884:	ee0584e3          	beqz	a1,76c <__adddf3+0x80>
     888:	7ff00813          	li	a6,2047
     88c:	03069263          	bne	a3,a6,8b0 <__adddf3+0x1c4>
     890:	00070793          	mv	a5,a4
     894:	00060513          	mv	a0,a2
     898:	ef9ff06f          	j	790 <__adddf3+0xa4>
     89c:	7ff00593          	li	a1,2047
     8a0:	feb888e3          	beq	a7,a1,890 <__adddf3+0x1a4>
     8a4:	008005b7          	lui	a1,0x800
     8a8:	00b7e7b3          	or	a5,a5,a1
     8ac:	00068593          	mv	a1,a3
     8b0:	03800693          	li	a3,56
     8b4:	08b6c063          	blt	a3,a1,934 <__adddf3+0x248>
     8b8:	01f00693          	li	a3,31
     8bc:	04b6c263          	blt	a3,a1,900 <__adddf3+0x214>
     8c0:	02000813          	li	a6,32
     8c4:	40b80833          	sub	a6,a6,a1
     8c8:	010796b3          	sll	a3,a5,a6
     8cc:	00b55333          	srl	t1,a0,a1
     8d0:	01051833          	sll	a6,a0,a6
     8d4:	0066e6b3          	or	a3,a3,t1
     8d8:	01003833          	snez	a6,a6
     8dc:	0106e6b3          	or	a3,a3,a6
     8e0:	00b7d5b3          	srl	a1,a5,a1
     8e4:	00c68633          	add	a2,a3,a2
     8e8:	00e585b3          	add	a1,a1,a4
     8ec:	00d636b3          	sltu	a3,a2,a3
     8f0:	00060513          	mv	a0,a2
     8f4:	00d587b3          	add	a5,a1,a3
     8f8:	00088493          	mv	s1,a7
     8fc:	ef5ff06f          	j	7f0 <__adddf3+0x104>
     900:	fe058693          	add	a3,a1,-32 # 7fffe0 <_end+0x7ead7c>
     904:	02000313          	li	t1,32
     908:	00d7d6b3          	srl	a3,a5,a3
     90c:	00000813          	li	a6,0
     910:	00658863          	beq	a1,t1,920 <__adddf3+0x234>
     914:	04000813          	li	a6,64
     918:	40b80833          	sub	a6,a6,a1
     91c:	01079833          	sll	a6,a5,a6
     920:	00a86833          	or	a6,a6,a0
     924:	01003833          	snez	a6,a6
     928:	0106e6b3          	or	a3,a3,a6
     92c:	00000593          	li	a1,0
     930:	fb5ff06f          	j	8e4 <__adddf3+0x1f8>
     934:	00a7e6b3          	or	a3,a5,a0
     938:	00d036b3          	snez	a3,a3
     93c:	ff1ff06f          	j	92c <__adddf3+0x240>
     940:	00148693          	add	a3,s1,1
     944:	7fe6f593          	and	a1,a3,2046
     948:	08059663          	bnez	a1,9d4 <__adddf3+0x2e8>
     94c:	00a7e6b3          	or	a3,a5,a0
     950:	06049263          	bnez	s1,9b4 <__adddf3+0x2c8>
     954:	44068863          	beqz	a3,da4 <__adddf3+0x6b8>
     958:	00c766b3          	or	a3,a4,a2
     95c:	02068863          	beqz	a3,98c <__adddf3+0x2a0>
     960:	00c50633          	add	a2,a0,a2
     964:	00a636b3          	sltu	a3,a2,a0
     968:	00e78733          	add	a4,a5,a4
     96c:	00d707b3          	add	a5,a4,a3
     970:	00879713          	sll	a4,a5,0x8
     974:	00060513          	mv	a0,a2
     978:	00075a63          	bgez	a4,98c <__adddf3+0x2a0>
     97c:	ff800737          	lui	a4,0xff800
     980:	fff70713          	add	a4,a4,-1 # ff7fffff <_end+0xff7ead9b>
     984:	00e7f7b3          	and	a5,a5,a4
     988:	00100493          	li	s1,1
     98c:	00757713          	and	a4,a0,7
     990:	44070863          	beqz	a4,de0 <__adddf3+0x6f4>
     994:	00f57713          	and	a4,a0,15
     998:	00400693          	li	a3,4
     99c:	44d70263          	beq	a4,a3,de0 <__adddf3+0x6f4>
     9a0:	00450713          	add	a4,a0,4
     9a4:	00a736b3          	sltu	a3,a4,a0
     9a8:	00d787b3          	add	a5,a5,a3
     9ac:	00070513          	mv	a0,a4
     9b0:	4300006f          	j	de0 <__adddf3+0x6f4>
     9b4:	ec068ee3          	beqz	a3,890 <__adddf3+0x1a4>
     9b8:	00c76633          	or	a2,a4,a2
     9bc:	dc060ae3          	beqz	a2,790 <__adddf3+0xa4>
     9c0:	00000913          	li	s2,0
     9c4:	004007b7          	lui	a5,0x400
     9c8:	00000513          	li	a0,0
     9cc:	7ff00493          	li	s1,2047
     9d0:	4100006f          	j	de0 <__adddf3+0x6f4>
     9d4:	7ff00593          	li	a1,2047
     9d8:	3cb68c63          	beq	a3,a1,db0 <__adddf3+0x6c4>
     9dc:	00c50633          	add	a2,a0,a2
     9e0:	00a63533          	sltu	a0,a2,a0
     9e4:	00e78733          	add	a4,a5,a4
     9e8:	00a70733          	add	a4,a4,a0
     9ec:	01f71513          	sll	a0,a4,0x1f
     9f0:	00165613          	srl	a2,a2,0x1
     9f4:	00c56533          	or	a0,a0,a2
     9f8:	00175793          	srl	a5,a4,0x1
     9fc:	00068493          	mv	s1,a3
     a00:	f8dff06f          	j	98c <__adddf3+0x2a0>
     a04:	0f005c63          	blez	a6,afc <__adddf3+0x410>
     a08:	08089e63          	bnez	a7,aa4 <__adddf3+0x3b8>
     a0c:	00c766b3          	or	a3,a4,a2
     a10:	3a068863          	beqz	a3,dc0 <__adddf3+0x6d4>
     a14:	fff80693          	add	a3,a6,-1
     a18:	02069063          	bnez	a3,a38 <__adddf3+0x34c>
     a1c:	40c50633          	sub	a2,a0,a2
     a20:	00c536b3          	sltu	a3,a0,a2
     a24:	40e78733          	sub	a4,a5,a4
     a28:	00060513          	mv	a0,a2
     a2c:	40d707b3          	sub	a5,a4,a3
     a30:	00100493          	li	s1,1
     a34:	0540006f          	j	a88 <__adddf3+0x39c>
     a38:	7ff00593          	li	a1,2047
     a3c:	d4b80ae3          	beq	a6,a1,790 <__adddf3+0xa4>
     a40:	03800593          	li	a1,56
     a44:	0ad5c663          	blt	a1,a3,af0 <__adddf3+0x404>
     a48:	01f00593          	li	a1,31
     a4c:	06d5c863          	blt	a1,a3,abc <__adddf3+0x3d0>
     a50:	02000813          	li	a6,32
     a54:	40d80833          	sub	a6,a6,a3
     a58:	00d658b3          	srl	a7,a2,a3
     a5c:	010715b3          	sll	a1,a4,a6
     a60:	01061833          	sll	a6,a2,a6
     a64:	0115e5b3          	or	a1,a1,a7
     a68:	01003833          	snez	a6,a6
     a6c:	0105e633          	or	a2,a1,a6
     a70:	00d756b3          	srl	a3,a4,a3
     a74:	40c50633          	sub	a2,a0,a2
     a78:	00c53733          	sltu	a4,a0,a2
     a7c:	40d786b3          	sub	a3,a5,a3
     a80:	00060513          	mv	a0,a2
     a84:	40e687b3          	sub	a5,a3,a4
     a88:	00879713          	sll	a4,a5,0x8
     a8c:	f00750e3          	bgez	a4,98c <__adddf3+0x2a0>
     a90:	00800437          	lui	s0,0x800
     a94:	fff40413          	add	s0,s0,-1 # 7fffff <_end+0x7ead9b>
     a98:	0087f433          	and	s0,a5,s0
     a9c:	00050993          	mv	s3,a0
     aa0:	2100006f          	j	cb0 <__adddf3+0x5c4>
     aa4:	7ff00693          	li	a3,2047
     aa8:	eed482e3          	beq	s1,a3,98c <__adddf3+0x2a0>
     aac:	008006b7          	lui	a3,0x800
     ab0:	00d76733          	or	a4,a4,a3
     ab4:	00080693          	mv	a3,a6
     ab8:	f89ff06f          	j	a40 <__adddf3+0x354>
     abc:	fe068593          	add	a1,a3,-32 # 7fffe0 <_end+0x7ead7c>
     ac0:	02000893          	li	a7,32
     ac4:	00b755b3          	srl	a1,a4,a1
     ac8:	00000813          	li	a6,0
     acc:	01168863          	beq	a3,a7,adc <__adddf3+0x3f0>
     ad0:	04000813          	li	a6,64
     ad4:	40d80833          	sub	a6,a6,a3
     ad8:	01071833          	sll	a6,a4,a6
     adc:	00c86833          	or	a6,a6,a2
     ae0:	01003833          	snez	a6,a6
     ae4:	0105e633          	or	a2,a1,a6
     ae8:	00000693          	li	a3,0
     aec:	f89ff06f          	j	a74 <__adddf3+0x388>
     af0:	00c76633          	or	a2,a4,a2
     af4:	00c03633          	snez	a2,a2
     af8:	ff1ff06f          	j	ae8 <__adddf3+0x3fc>
     afc:	0e080863          	beqz	a6,bec <__adddf3+0x500>
     b00:	40988833          	sub	a6,a7,s1
     b04:	04049263          	bnez	s1,b48 <__adddf3+0x45c>
     b08:	00a7e5b3          	or	a1,a5,a0
     b0c:	2a058e63          	beqz	a1,dc8 <__adddf3+0x6dc>
     b10:	fff80593          	add	a1,a6,-1
     b14:	00059e63          	bnez	a1,b30 <__adddf3+0x444>
     b18:	40a60533          	sub	a0,a2,a0
     b1c:	40f70733          	sub	a4,a4,a5
     b20:	00a63633          	sltu	a2,a2,a0
     b24:	40c707b3          	sub	a5,a4,a2
     b28:	00068913          	mv	s2,a3
     b2c:	f05ff06f          	j	a30 <__adddf3+0x344>
     b30:	7ff00313          	li	t1,2047
     b34:	02681463          	bne	a6,t1,b5c <__adddf3+0x470>
     b38:	00070793          	mv	a5,a4
     b3c:	00060513          	mv	a0,a2
     b40:	7ff00493          	li	s1,2047
     b44:	0d00006f          	j	c14 <__adddf3+0x528>
     b48:	7ff00593          	li	a1,2047
     b4c:	feb886e3          	beq	a7,a1,b38 <__adddf3+0x44c>
     b50:	008005b7          	lui	a1,0x800
     b54:	00b7e7b3          	or	a5,a5,a1
     b58:	00080593          	mv	a1,a6
     b5c:	03800813          	li	a6,56
     b60:	08b84063          	blt	a6,a1,be0 <__adddf3+0x4f4>
     b64:	01f00813          	li	a6,31
     b68:	04b84263          	blt	a6,a1,bac <__adddf3+0x4c0>
     b6c:	02000313          	li	t1,32
     b70:	40b30333          	sub	t1,t1,a1
     b74:	00b55e33          	srl	t3,a0,a1
     b78:	00679833          	sll	a6,a5,t1
     b7c:	00651333          	sll	t1,a0,t1
     b80:	01c86833          	or	a6,a6,t3
     b84:	00603333          	snez	t1,t1
     b88:	00686533          	or	a0,a6,t1
     b8c:	00b7d5b3          	srl	a1,a5,a1
     b90:	40a60533          	sub	a0,a2,a0
     b94:	40b705b3          	sub	a1,a4,a1
     b98:	00a63633          	sltu	a2,a2,a0
     b9c:	40c587b3          	sub	a5,a1,a2
     ba0:	00088493          	mv	s1,a7
     ba4:	00068913          	mv	s2,a3
     ba8:	ee1ff06f          	j	a88 <__adddf3+0x39c>
     bac:	fe058813          	add	a6,a1,-32 # 7fffe0 <_end+0x7ead7c>
     bb0:	02000e13          	li	t3,32
     bb4:	0107d833          	srl	a6,a5,a6
     bb8:	00000313          	li	t1,0
     bbc:	01c58863          	beq	a1,t3,bcc <__adddf3+0x4e0>
     bc0:	04000313          	li	t1,64
     bc4:	40b30333          	sub	t1,t1,a1
     bc8:	00679333          	sll	t1,a5,t1
     bcc:	00a36333          	or	t1,t1,a0
     bd0:	00603333          	snez	t1,t1
     bd4:	00686533          	or	a0,a6,t1
     bd8:	00000593          	li	a1,0
     bdc:	fb5ff06f          	j	b90 <__adddf3+0x4a4>
     be0:	00a7e533          	or	a0,a5,a0
     be4:	00a03533          	snez	a0,a0
     be8:	ff1ff06f          	j	bd8 <__adddf3+0x4ec>
     bec:	00148593          	add	a1,s1,1
     bf0:	7fe5f593          	and	a1,a1,2046
     bf4:	08059663          	bnez	a1,c80 <__adddf3+0x594>
     bf8:	00a7e833          	or	a6,a5,a0
     bfc:	00c765b3          	or	a1,a4,a2
     c00:	06049063          	bnez	s1,c60 <__adddf3+0x574>
     c04:	00081c63          	bnez	a6,c1c <__adddf3+0x530>
     c08:	10058e63          	beqz	a1,d24 <__adddf3+0x638>
     c0c:	00070793          	mv	a5,a4
     c10:	00060513          	mv	a0,a2
     c14:	00068913          	mv	s2,a3
     c18:	d75ff06f          	j	98c <__adddf3+0x2a0>
     c1c:	d60588e3          	beqz	a1,98c <__adddf3+0x2a0>
     c20:	40c50833          	sub	a6,a0,a2
     c24:	010538b3          	sltu	a7,a0,a6
     c28:	40e785b3          	sub	a1,a5,a4
     c2c:	411585b3          	sub	a1,a1,a7
     c30:	00859893          	sll	a7,a1,0x8
     c34:	0008dc63          	bgez	a7,c4c <__adddf3+0x560>
     c38:	40a60533          	sub	a0,a2,a0
     c3c:	40f70733          	sub	a4,a4,a5
     c40:	00a63633          	sltu	a2,a2,a0
     c44:	40c707b3          	sub	a5,a4,a2
     c48:	fcdff06f          	j	c14 <__adddf3+0x528>
     c4c:	00b86533          	or	a0,a6,a1
     c50:	18050463          	beqz	a0,dd8 <__adddf3+0x6ec>
     c54:	00058793          	mv	a5,a1
     c58:	00080513          	mv	a0,a6
     c5c:	d31ff06f          	j	98c <__adddf3+0x2a0>
     c60:	00081c63          	bnez	a6,c78 <__adddf3+0x58c>
     c64:	d4058ee3          	beqz	a1,9c0 <__adddf3+0x2d4>
     c68:	00070793          	mv	a5,a4
     c6c:	00060513          	mv	a0,a2
     c70:	00068913          	mv	s2,a3
     c74:	b1dff06f          	j	790 <__adddf3+0xa4>
     c78:	b0058ce3          	beqz	a1,790 <__adddf3+0xa4>
     c7c:	d45ff06f          	j	9c0 <__adddf3+0x2d4>
     c80:	40c505b3          	sub	a1,a0,a2
     c84:	00b53833          	sltu	a6,a0,a1
     c88:	40e78433          	sub	s0,a5,a4
     c8c:	41040433          	sub	s0,s0,a6
     c90:	00841813          	sll	a6,s0,0x8
     c94:	00058993          	mv	s3,a1
     c98:	08085063          	bgez	a6,d18 <__adddf3+0x62c>
     c9c:	40a609b3          	sub	s3,a2,a0
     ca0:	40f70433          	sub	s0,a4,a5
     ca4:	01363633          	sltu	a2,a2,s3
     ca8:	40c40433          	sub	s0,s0,a2
     cac:	00068913          	mv	s2,a3
     cb0:	06040e63          	beqz	s0,d2c <__adddf3+0x640>
     cb4:	00040513          	mv	a0,s0
     cb8:	64c040ef          	jal	5304 <__clzsi2>
     cbc:	ff850693          	add	a3,a0,-8
     cc0:	02000793          	li	a5,32
     cc4:	40d787b3          	sub	a5,a5,a3
     cc8:	00d41433          	sll	s0,s0,a3
     ccc:	00f9d7b3          	srl	a5,s3,a5
     cd0:	0087e7b3          	or	a5,a5,s0
     cd4:	00d99433          	sll	s0,s3,a3
     cd8:	0a96c463          	blt	a3,s1,d80 <__adddf3+0x694>
     cdc:	409686b3          	sub	a3,a3,s1
     ce0:	00168613          	add	a2,a3,1
     ce4:	01f00713          	li	a4,31
     ce8:	06c74263          	blt	a4,a2,d4c <__adddf3+0x660>
     cec:	02000713          	li	a4,32
     cf0:	40c70733          	sub	a4,a4,a2
     cf4:	00e79533          	sll	a0,a5,a4
     cf8:	00c456b3          	srl	a3,s0,a2
     cfc:	00e41733          	sll	a4,s0,a4
     d00:	00d56533          	or	a0,a0,a3
     d04:	00e03733          	snez	a4,a4
     d08:	00e56533          	or	a0,a0,a4
     d0c:	00c7d7b3          	srl	a5,a5,a2
     d10:	00000493          	li	s1,0
     d14:	c79ff06f          	j	98c <__adddf3+0x2a0>
     d18:	0085e5b3          	or	a1,a1,s0
     d1c:	f8059ae3          	bnez	a1,cb0 <__adddf3+0x5c4>
     d20:	00000493          	li	s1,0
     d24:	00000913          	li	s2,0
     d28:	08c0006f          	j	db4 <__adddf3+0x6c8>
     d2c:	00098513          	mv	a0,s3
     d30:	5d4040ef          	jal	5304 <__clzsi2>
     d34:	01850693          	add	a3,a0,24
     d38:	01f00793          	li	a5,31
     d3c:	f8d7d2e3          	bge	a5,a3,cc0 <__adddf3+0x5d4>
     d40:	ff850793          	add	a5,a0,-8
     d44:	00f997b3          	sll	a5,s3,a5
     d48:	f91ff06f          	j	cd8 <__adddf3+0x5ec>
     d4c:	fe168693          	add	a3,a3,-31
     d50:	00d7d533          	srl	a0,a5,a3
     d54:	02000693          	li	a3,32
     d58:	00000713          	li	a4,0
     d5c:	00d60863          	beq	a2,a3,d6c <__adddf3+0x680>
     d60:	04000713          	li	a4,64
     d64:	40c70733          	sub	a4,a4,a2
     d68:	00e79733          	sll	a4,a5,a4
     d6c:	00e46733          	or	a4,s0,a4
     d70:	00e03733          	snez	a4,a4
     d74:	00e56533          	or	a0,a0,a4
     d78:	00000793          	li	a5,0
     d7c:	f95ff06f          	j	d10 <__adddf3+0x624>
     d80:	ff800737          	lui	a4,0xff800
     d84:	fff70713          	add	a4,a4,-1 # ff7fffff <_end+0xff7ead9b>
     d88:	40d484b3          	sub	s1,s1,a3
     d8c:	00e7f7b3          	and	a5,a5,a4
     d90:	00040513          	mv	a0,s0
     d94:	bf9ff06f          	j	98c <__adddf3+0x2a0>
     d98:	00070793          	mv	a5,a4
     d9c:	00060513          	mv	a0,a2
     da0:	c5dff06f          	j	9fc <__adddf3+0x310>
     da4:	00070793          	mv	a5,a4
     da8:	00060513          	mv	a0,a2
     dac:	be1ff06f          	j	98c <__adddf3+0x2a0>
     db0:	7ff00493          	li	s1,2047
     db4:	00000793          	li	a5,0
     db8:	00000513          	li	a0,0
     dbc:	0240006f          	j	de0 <__adddf3+0x6f4>
     dc0:	00080493          	mv	s1,a6
     dc4:	bc9ff06f          	j	98c <__adddf3+0x2a0>
     dc8:	00070793          	mv	a5,a4
     dcc:	00060513          	mv	a0,a2
     dd0:	00080493          	mv	s1,a6
     dd4:	e41ff06f          	j	c14 <__adddf3+0x528>
     dd8:	00000793          	li	a5,0
     ddc:	00000913          	li	s2,0
     de0:	00879713          	sll	a4,a5,0x8
     de4:	00075e63          	bgez	a4,e00 <__adddf3+0x714>
     de8:	00148493          	add	s1,s1,1
     dec:	7ff00713          	li	a4,2047
     df0:	08e48263          	beq	s1,a4,e74 <__adddf3+0x788>
     df4:	ff800737          	lui	a4,0xff800
     df8:	fff70713          	add	a4,a4,-1 # ff7fffff <_end+0xff7ead9b>
     dfc:	00e7f7b3          	and	a5,a5,a4
     e00:	01d79693          	sll	a3,a5,0x1d
     e04:	00355513          	srl	a0,a0,0x3
     e08:	7ff00713          	li	a4,2047
     e0c:	00a6e6b3          	or	a3,a3,a0
     e10:	0037d793          	srl	a5,a5,0x3
     e14:	00e49e63          	bne	s1,a4,e30 <__adddf3+0x744>
     e18:	00f6e6b3          	or	a3,a3,a5
     e1c:	00000793          	li	a5,0
     e20:	00068863          	beqz	a3,e30 <__adddf3+0x744>
     e24:	000807b7          	lui	a5,0x80
     e28:	00000693          	li	a3,0
     e2c:	00000913          	li	s2,0
     e30:	01449713          	sll	a4,s1,0x14
     e34:	7ff00637          	lui	a2,0x7ff00
     e38:	00c79793          	sll	a5,a5,0xc
     e3c:	00c77733          	and	a4,a4,a2
     e40:	01c12083          	lw	ra,28(sp)
     e44:	01812403          	lw	s0,24(sp)
     e48:	00c7d793          	srl	a5,a5,0xc
     e4c:	00f767b3          	or	a5,a4,a5
     e50:	01f91713          	sll	a4,s2,0x1f
     e54:	00e7e633          	or	a2,a5,a4
     e58:	01412483          	lw	s1,20(sp)
     e5c:	01012903          	lw	s2,16(sp)
     e60:	00c12983          	lw	s3,12(sp)
     e64:	00068513          	mv	a0,a3
     e68:	00060593          	mv	a1,a2
     e6c:	02010113          	add	sp,sp,32
     e70:	00008067          	ret
     e74:	00000793          	li	a5,0
     e78:	00000513          	li	a0,0
     e7c:	f85ff06f          	j	e00 <__adddf3+0x714>

00000e80 <__divdf3>:
     e80:	fd010113          	add	sp,sp,-48
     e84:	0145d813          	srl	a6,a1,0x14
     e88:	02912223          	sw	s1,36(sp)
     e8c:	03212023          	sw	s2,32(sp)
     e90:	01312e23          	sw	s3,28(sp)
     e94:	01612823          	sw	s6,16(sp)
     e98:	01712623          	sw	s7,12(sp)
     e9c:	00c59493          	sll	s1,a1,0xc
     ea0:	02112623          	sw	ra,44(sp)
     ea4:	02812423          	sw	s0,40(sp)
     ea8:	01412c23          	sw	s4,24(sp)
     eac:	01512a23          	sw	s5,20(sp)
     eb0:	7ff87813          	and	a6,a6,2047
     eb4:	00050b13          	mv	s6,a0
     eb8:	00060b93          	mv	s7,a2
     ebc:	00068913          	mv	s2,a3
     ec0:	00c4d493          	srl	s1,s1,0xc
     ec4:	01f5d993          	srl	s3,a1,0x1f
     ec8:	0a080063          	beqz	a6,f68 <__divdf3+0xe8>
     ecc:	7ff00793          	li	a5,2047
     ed0:	10f80063          	beq	a6,a5,fd0 <__divdf3+0x150>
     ed4:	01d55a13          	srl	s4,a0,0x1d
     ed8:	00349493          	sll	s1,s1,0x3
     edc:	009a6a33          	or	s4,s4,s1
     ee0:	008007b7          	lui	a5,0x800
     ee4:	00fa6a33          	or	s4,s4,a5
     ee8:	00351413          	sll	s0,a0,0x3
     eec:	c0180a93          	add	s5,a6,-1023
     ef0:	00000b13          	li	s6,0
     ef4:	01495713          	srl	a4,s2,0x14
     ef8:	00c91493          	sll	s1,s2,0xc
     efc:	7ff77713          	and	a4,a4,2047
     f00:	00c4d493          	srl	s1,s1,0xc
     f04:	01f95913          	srl	s2,s2,0x1f
     f08:	10070263          	beqz	a4,100c <__divdf3+0x18c>
     f0c:	7ff00793          	li	a5,2047
     f10:	16f70663          	beq	a4,a5,107c <__divdf3+0x1fc>
     f14:	00349493          	sll	s1,s1,0x3
     f18:	01dbd793          	srl	a5,s7,0x1d
     f1c:	0097e7b3          	or	a5,a5,s1
     f20:	008004b7          	lui	s1,0x800
     f24:	0097e4b3          	or	s1,a5,s1
     f28:	003b9f13          	sll	t5,s7,0x3
     f2c:	c0170713          	add	a4,a4,-1023
     f30:	00000793          	li	a5,0
     f34:	40ea8833          	sub	a6,s5,a4
     f38:	002b1713          	sll	a4,s6,0x2
     f3c:	00f76733          	or	a4,a4,a5
     f40:	fff70713          	add	a4,a4,-1
     f44:	00e00693          	li	a3,14
     f48:	0129c633          	xor	a2,s3,s2
     f4c:	16e6e463          	bltu	a3,a4,10b4 <__divdf3+0x234>
     f50:	000126b7          	lui	a3,0x12
     f54:	00271713          	sll	a4,a4,0x2
     f58:	df468693          	add	a3,a3,-524 # 11df4 <_ctype_+0x104>
     f5c:	00d70733          	add	a4,a4,a3
     f60:	00072703          	lw	a4,0(a4)
     f64:	00070067          	jr	a4
     f68:	00a4ea33          	or	s4,s1,a0
     f6c:	060a0e63          	beqz	s4,fe8 <__divdf3+0x168>
     f70:	02048e63          	beqz	s1,fac <__divdf3+0x12c>
     f74:	00048513          	mv	a0,s1
     f78:	38c040ef          	jal	5304 <__clzsi2>
     f7c:	ff550793          	add	a5,a0,-11
     f80:	01d00a13          	li	s4,29
     f84:	ff850713          	add	a4,a0,-8
     f88:	40fa0a33          	sub	s4,s4,a5
     f8c:	00e494b3          	sll	s1,s1,a4
     f90:	014b5a33          	srl	s4,s6,s4
     f94:	009a6a33          	or	s4,s4,s1
     f98:	00eb14b3          	sll	s1,s6,a4
     f9c:	c0d00813          	li	a6,-1011
     fa0:	40a80ab3          	sub	s5,a6,a0
     fa4:	00048413          	mv	s0,s1
     fa8:	f49ff06f          	j	ef0 <__divdf3+0x70>
     fac:	358040ef          	jal	5304 <__clzsi2>
     fb0:	00050a13          	mv	s4,a0
     fb4:	015a0793          	add	a5,s4,21
     fb8:	01c00713          	li	a4,28
     fbc:	02050513          	add	a0,a0,32
     fc0:	fcf750e3          	bge	a4,a5,f80 <__divdf3+0x100>
     fc4:	ff8a0a13          	add	s4,s4,-8
     fc8:	014b1a33          	sll	s4,s6,s4
     fcc:	fd1ff06f          	j	f9c <__divdf3+0x11c>
     fd0:	00a4ea33          	or	s4,s1,a0
     fd4:	020a1263          	bnez	s4,ff8 <__divdf3+0x178>
     fd8:	00000413          	li	s0,0
     fdc:	7ff00a93          	li	s5,2047
     fe0:	00200b13          	li	s6,2
     fe4:	f11ff06f          	j	ef4 <__divdf3+0x74>
     fe8:	00000413          	li	s0,0
     fec:	00000a93          	li	s5,0
     ff0:	00100b13          	li	s6,1
     ff4:	f01ff06f          	j	ef4 <__divdf3+0x74>
     ff8:	00050413          	mv	s0,a0
     ffc:	00048a13          	mv	s4,s1
    1000:	7ff00a93          	li	s5,2047
    1004:	00300b13          	li	s6,3
    1008:	eedff06f          	j	ef4 <__divdf3+0x74>
    100c:	0174ef33          	or	t5,s1,s7
    1010:	080f0263          	beqz	t5,1094 <__divdf3+0x214>
    1014:	04048063          	beqz	s1,1054 <__divdf3+0x1d4>
    1018:	00048513          	mv	a0,s1
    101c:	2e8040ef          	jal	5304 <__clzsi2>
    1020:	ff550713          	add	a4,a0,-11
    1024:	01d00793          	li	a5,29
    1028:	ff850693          	add	a3,a0,-8
    102c:	40e787b3          	sub	a5,a5,a4
    1030:	00d494b3          	sll	s1,s1,a3
    1034:	00fbd7b3          	srl	a5,s7,a5
    1038:	0097e7b3          	or	a5,a5,s1
    103c:	00db94b3          	sll	s1,s7,a3
    1040:	c0d00713          	li	a4,-1011
    1044:	00048f13          	mv	t5,s1
    1048:	40a70733          	sub	a4,a4,a0
    104c:	00078493          	mv	s1,a5
    1050:	ee1ff06f          	j	f30 <__divdf3+0xb0>
    1054:	000b8513          	mv	a0,s7
    1058:	2ac040ef          	jal	5304 <__clzsi2>
    105c:	00050793          	mv	a5,a0
    1060:	01578713          	add	a4,a5,21 # 800015 <_end+0x7eadb1>
    1064:	01c00693          	li	a3,28
    1068:	02050513          	add	a0,a0,32
    106c:	fae6dce3          	bge	a3,a4,1024 <__divdf3+0x1a4>
    1070:	ff878793          	add	a5,a5,-8
    1074:	00fb97b3          	sll	a5,s7,a5
    1078:	fc9ff06f          	j	1040 <__divdf3+0x1c0>
    107c:	0174ef33          	or	t5,s1,s7
    1080:	020f1263          	bnez	t5,10a4 <__divdf3+0x224>
    1084:	00000493          	li	s1,0
    1088:	7ff00713          	li	a4,2047
    108c:	00200793          	li	a5,2
    1090:	ea5ff06f          	j	f34 <__divdf3+0xb4>
    1094:	00000493          	li	s1,0
    1098:	00000713          	li	a4,0
    109c:	00100793          	li	a5,1
    10a0:	e95ff06f          	j	f34 <__divdf3+0xb4>
    10a4:	000b8f13          	mv	t5,s7
    10a8:	7ff00713          	li	a4,2047
    10ac:	00300793          	li	a5,3
    10b0:	e85ff06f          	j	f34 <__divdf3+0xb4>
    10b4:	0144e663          	bltu	s1,s4,10c0 <__divdf3+0x240>
    10b8:	349a1c63          	bne	s4,s1,1410 <__divdf3+0x590>
    10bc:	35e46a63          	bltu	s0,t5,1410 <__divdf3+0x590>
    10c0:	01fa1693          	sll	a3,s4,0x1f
    10c4:	00145793          	srl	a5,s0,0x1
    10c8:	01f41713          	sll	a4,s0,0x1f
    10cc:	001a5a13          	srl	s4,s4,0x1
    10d0:	00f6e433          	or	s0,a3,a5
    10d4:	00849893          	sll	a7,s1,0x8
    10d8:	018f5593          	srl	a1,t5,0x18
    10dc:	0115e5b3          	or	a1,a1,a7
    10e0:	0108d893          	srl	a7,a7,0x10
    10e4:	031a5eb3          	divu	t4,s4,a7
    10e8:	01059313          	sll	t1,a1,0x10
    10ec:	01035313          	srl	t1,t1,0x10
    10f0:	01045793          	srl	a5,s0,0x10
    10f4:	008f1513          	sll	a0,t5,0x8
    10f8:	031a7a33          	remu	s4,s4,a7
    10fc:	000e8693          	mv	a3,t4
    1100:	03d30e33          	mul	t3,t1,t4
    1104:	010a1a13          	sll	s4,s4,0x10
    1108:	0147e7b3          	or	a5,a5,s4
    110c:	01c7fe63          	bgeu	a5,t3,1128 <__divdf3+0x2a8>
    1110:	00f587b3          	add	a5,a1,a5
    1114:	fffe8693          	add	a3,t4,-1
    1118:	00b7e863          	bltu	a5,a1,1128 <__divdf3+0x2a8>
    111c:	01c7f663          	bgeu	a5,t3,1128 <__divdf3+0x2a8>
    1120:	ffee8693          	add	a3,t4,-2
    1124:	00b787b3          	add	a5,a5,a1
    1128:	41c787b3          	sub	a5,a5,t3
    112c:	0317df33          	divu	t5,a5,a7
    1130:	01041413          	sll	s0,s0,0x10
    1134:	01045413          	srl	s0,s0,0x10
    1138:	0317f7b3          	remu	a5,a5,a7
    113c:	000f0e13          	mv	t3,t5
    1140:	03e30eb3          	mul	t4,t1,t5
    1144:	01079793          	sll	a5,a5,0x10
    1148:	00f467b3          	or	a5,s0,a5
    114c:	01d7fe63          	bgeu	a5,t4,1168 <__divdf3+0x2e8>
    1150:	00f587b3          	add	a5,a1,a5
    1154:	ffff0e13          	add	t3,t5,-1
    1158:	00b7e863          	bltu	a5,a1,1168 <__divdf3+0x2e8>
    115c:	01d7f663          	bgeu	a5,t4,1168 <__divdf3+0x2e8>
    1160:	ffef0e13          	add	t3,t5,-2
    1164:	00b787b3          	add	a5,a5,a1
    1168:	01069693          	sll	a3,a3,0x10
    116c:	00010437          	lui	s0,0x10
    1170:	01c6e2b3          	or	t0,a3,t3
    1174:	fff40e13          	add	t3,s0,-1 # ffff <_realloc_r+0x57>
    1178:	01c2f6b3          	and	a3,t0,t3
    117c:	0102df93          	srl	t6,t0,0x10
    1180:	01c57e33          	and	t3,a0,t3
    1184:	41d787b3          	sub	a5,a5,t4
    1188:	01055e93          	srl	t4,a0,0x10
    118c:	02de03b3          	mul	t2,t3,a3
    1190:	03cf84b3          	mul	s1,t6,t3
    1194:	02de86b3          	mul	a3,t4,a3
    1198:	00968f33          	add	t5,a3,s1
    119c:	0103d693          	srl	a3,t2,0x10
    11a0:	01e686b3          	add	a3,a3,t5
    11a4:	03df8fb3          	mul	t6,t6,t4
    11a8:	0096f463          	bgeu	a3,s1,11b0 <__divdf3+0x330>
    11ac:	008f8fb3          	add	t6,t6,s0
    11b0:	0106df13          	srl	t5,a3,0x10
    11b4:	01ff0f33          	add	t5,t5,t6
    11b8:	00010fb7          	lui	t6,0x10
    11bc:	ffff8f93          	add	t6,t6,-1 # ffff <_realloc_r+0x57>
    11c0:	01f6f6b3          	and	a3,a3,t6
    11c4:	01069693          	sll	a3,a3,0x10
    11c8:	01f3f3b3          	and	t2,t2,t6
    11cc:	007686b3          	add	a3,a3,t2
    11d0:	01e7e863          	bltu	a5,t5,11e0 <__divdf3+0x360>
    11d4:	00028493          	mv	s1,t0
    11d8:	05e79863          	bne	a5,t5,1228 <__divdf3+0x3a8>
    11dc:	04d77663          	bgeu	a4,a3,1228 <__divdf3+0x3a8>
    11e0:	00a70fb3          	add	t6,a4,a0
    11e4:	00efb3b3          	sltu	t2,t6,a4
    11e8:	00b38433          	add	s0,t2,a1
    11ec:	008787b3          	add	a5,a5,s0
    11f0:	fff28493          	add	s1,t0,-1 # 547 <memset+0xb3>
    11f4:	000f8713          	mv	a4,t6
    11f8:	00f5e663          	bltu	a1,a5,1204 <__divdf3+0x384>
    11fc:	02f59663          	bne	a1,a5,1228 <__divdf3+0x3a8>
    1200:	02039463          	bnez	t2,1228 <__divdf3+0x3a8>
    1204:	01e7e663          	bltu	a5,t5,1210 <__divdf3+0x390>
    1208:	02ff1063          	bne	t5,a5,1228 <__divdf3+0x3a8>
    120c:	00dffe63          	bgeu	t6,a3,1228 <__divdf3+0x3a8>
    1210:	01f50fb3          	add	t6,a0,t6
    1214:	000f8713          	mv	a4,t6
    1218:	00afbfb3          	sltu	t6,t6,a0
    121c:	00bf8fb3          	add	t6,t6,a1
    1220:	ffe28493          	add	s1,t0,-2
    1224:	01f787b3          	add	a5,a5,t6
    1228:	40d706b3          	sub	a3,a4,a3
    122c:	41e787b3          	sub	a5,a5,t5
    1230:	00d73733          	sltu	a4,a4,a3
    1234:	40e787b3          	sub	a5,a5,a4
    1238:	fff00f13          	li	t5,-1
    123c:	12f58663          	beq	a1,a5,1368 <__divdf3+0x4e8>
    1240:	0317dfb3          	divu	t6,a5,a7
    1244:	0106d713          	srl	a4,a3,0x10
    1248:	0317f7b3          	remu	a5,a5,a7
    124c:	03f30f33          	mul	t5,t1,t6
    1250:	01079793          	sll	a5,a5,0x10
    1254:	00f767b3          	or	a5,a4,a5
    1258:	000f8713          	mv	a4,t6
    125c:	01e7fe63          	bgeu	a5,t5,1278 <__divdf3+0x3f8>
    1260:	00f587b3          	add	a5,a1,a5
    1264:	ffff8713          	add	a4,t6,-1
    1268:	00b7e863          	bltu	a5,a1,1278 <__divdf3+0x3f8>
    126c:	01e7f663          	bgeu	a5,t5,1278 <__divdf3+0x3f8>
    1270:	ffef8713          	add	a4,t6,-2
    1274:	00b787b3          	add	a5,a5,a1
    1278:	41e787b3          	sub	a5,a5,t5
    127c:	0317df33          	divu	t5,a5,a7
    1280:	01069693          	sll	a3,a3,0x10
    1284:	0106d693          	srl	a3,a3,0x10
    1288:	0317f7b3          	remu	a5,a5,a7
    128c:	000f0893          	mv	a7,t5
    1290:	03e30333          	mul	t1,t1,t5
    1294:	01079793          	sll	a5,a5,0x10
    1298:	00f6e7b3          	or	a5,a3,a5
    129c:	0067fe63          	bgeu	a5,t1,12b8 <__divdf3+0x438>
    12a0:	00f587b3          	add	a5,a1,a5
    12a4:	ffff0893          	add	a7,t5,-1
    12a8:	00b7e863          	bltu	a5,a1,12b8 <__divdf3+0x438>
    12ac:	0067f663          	bgeu	a5,t1,12b8 <__divdf3+0x438>
    12b0:	ffef0893          	add	a7,t5,-2
    12b4:	00b787b3          	add	a5,a5,a1
    12b8:	01071693          	sll	a3,a4,0x10
    12bc:	0116e6b3          	or	a3,a3,a7
    12c0:	01069713          	sll	a4,a3,0x10
    12c4:	01075713          	srl	a4,a4,0x10
    12c8:	406787b3          	sub	a5,a5,t1
    12cc:	0106d313          	srl	t1,a3,0x10
    12d0:	03c70f33          	mul	t5,a4,t3
    12d4:	03c30e33          	mul	t3,t1,t3
    12d8:	026e8333          	mul	t1,t4,t1
    12dc:	02ee8eb3          	mul	t4,t4,a4
    12e0:	010f5713          	srl	a4,t5,0x10
    12e4:	01ce8eb3          	add	t4,t4,t3
    12e8:	01d70733          	add	a4,a4,t4
    12ec:	01c77663          	bgeu	a4,t3,12f8 <__divdf3+0x478>
    12f0:	000108b7          	lui	a7,0x10
    12f4:	01130333          	add	t1,t1,a7
    12f8:	01075893          	srl	a7,a4,0x10
    12fc:	006888b3          	add	a7,a7,t1
    1300:	00010337          	lui	t1,0x10
    1304:	fff30313          	add	t1,t1,-1 # ffff <_realloc_r+0x57>
    1308:	00677733          	and	a4,a4,t1
    130c:	01071713          	sll	a4,a4,0x10
    1310:	006f7f33          	and	t5,t5,t1
    1314:	01e70733          	add	a4,a4,t5
    1318:	0117e863          	bltu	a5,a7,1328 <__divdf3+0x4a8>
    131c:	23179c63          	bne	a5,a7,1554 <__divdf3+0x6d4>
    1320:	00068f13          	mv	t5,a3
    1324:	04070263          	beqz	a4,1368 <__divdf3+0x4e8>
    1328:	00f587b3          	add	a5,a1,a5
    132c:	fff68f13          	add	t5,a3,-1
    1330:	00078313          	mv	t1,a5
    1334:	02b7e463          	bltu	a5,a1,135c <__divdf3+0x4dc>
    1338:	0117e663          	bltu	a5,a7,1344 <__divdf3+0x4c4>
    133c:	21179a63          	bne	a5,a7,1550 <__divdf3+0x6d0>
    1340:	02e57063          	bgeu	a0,a4,1360 <__divdf3+0x4e0>
    1344:	ffe68f13          	add	t5,a3,-2
    1348:	00151693          	sll	a3,a0,0x1
    134c:	00a6b333          	sltu	t1,a3,a0
    1350:	00b30333          	add	t1,t1,a1
    1354:	00678333          	add	t1,a5,t1
    1358:	00068513          	mv	a0,a3
    135c:	01131463          	bne	t1,a7,1364 <__divdf3+0x4e4>
    1360:	00a70463          	beq	a4,a0,1368 <__divdf3+0x4e8>
    1364:	001f6f13          	or	t5,t5,1
    1368:	3ff80713          	add	a4,a6,1023
    136c:	10e05263          	blez	a4,1470 <__divdf3+0x5f0>
    1370:	007f7793          	and	a5,t5,7
    1374:	02078063          	beqz	a5,1394 <__divdf3+0x514>
    1378:	00ff7793          	and	a5,t5,15
    137c:	00400693          	li	a3,4
    1380:	00d78a63          	beq	a5,a3,1394 <__divdf3+0x514>
    1384:	004f0793          	add	a5,t5,4
    1388:	01e7b6b3          	sltu	a3,a5,t5
    138c:	00d484b3          	add	s1,s1,a3
    1390:	00078f13          	mv	t5,a5
    1394:	00749793          	sll	a5,s1,0x7
    1398:	0007da63          	bgez	a5,13ac <__divdf3+0x52c>
    139c:	ff0007b7          	lui	a5,0xff000
    13a0:	fff78793          	add	a5,a5,-1 # feffffff <_end+0xfefead9b>
    13a4:	00f4f4b3          	and	s1,s1,a5
    13a8:	40080713          	add	a4,a6,1024
    13ac:	7fe00793          	li	a5,2046
    13b0:	08e7ca63          	blt	a5,a4,1444 <__divdf3+0x5c4>
    13b4:	003f5f13          	srl	t5,t5,0x3
    13b8:	01d49793          	sll	a5,s1,0x1d
    13bc:	01e7ef33          	or	t5,a5,t5
    13c0:	0034d513          	srl	a0,s1,0x3
    13c4:	00c51513          	sll	a0,a0,0xc
    13c8:	02c12083          	lw	ra,44(sp)
    13cc:	02812403          	lw	s0,40(sp)
    13d0:	00c55513          	srl	a0,a0,0xc
    13d4:	01471713          	sll	a4,a4,0x14
    13d8:	00a76733          	or	a4,a4,a0
    13dc:	01f61613          	sll	a2,a2,0x1f
    13e0:	00c767b3          	or	a5,a4,a2
    13e4:	02412483          	lw	s1,36(sp)
    13e8:	02012903          	lw	s2,32(sp)
    13ec:	01c12983          	lw	s3,28(sp)
    13f0:	01812a03          	lw	s4,24(sp)
    13f4:	01412a83          	lw	s5,20(sp)
    13f8:	01012b03          	lw	s6,16(sp)
    13fc:	00c12b83          	lw	s7,12(sp)
    1400:	000f0513          	mv	a0,t5
    1404:	00078593          	mv	a1,a5
    1408:	03010113          	add	sp,sp,48
    140c:	00008067          	ret
    1410:	fff80813          	add	a6,a6,-1
    1414:	00000713          	li	a4,0
    1418:	cbdff06f          	j	10d4 <__divdf3+0x254>
    141c:	00098613          	mv	a2,s3
    1420:	000a0493          	mv	s1,s4
    1424:	00040f13          	mv	t5,s0
    1428:	000b0793          	mv	a5,s6
    142c:	00300713          	li	a4,3
    1430:	0ee78863          	beq	a5,a4,1520 <__divdf3+0x6a0>
    1434:	00100713          	li	a4,1
    1438:	0ee78e63          	beq	a5,a4,1534 <__divdf3+0x6b4>
    143c:	00200713          	li	a4,2
    1440:	f2e794e3          	bne	a5,a4,1368 <__divdf3+0x4e8>
    1444:	00000513          	li	a0,0
    1448:	00000f13          	li	t5,0
    144c:	7ff00713          	li	a4,2047
    1450:	f75ff06f          	j	13c4 <__divdf3+0x544>
    1454:	00090613          	mv	a2,s2
    1458:	fd5ff06f          	j	142c <__divdf3+0x5ac>
    145c:	000804b7          	lui	s1,0x80
    1460:	00000f13          	li	t5,0
    1464:	00000613          	li	a2,0
    1468:	00300793          	li	a5,3
    146c:	fc1ff06f          	j	142c <__divdf3+0x5ac>
    1470:	00100513          	li	a0,1
    1474:	40e50533          	sub	a0,a0,a4
    1478:	03800793          	li	a5,56
    147c:	0aa7cc63          	blt	a5,a0,1534 <__divdf3+0x6b4>
    1480:	01f00793          	li	a5,31
    1484:	06a7c463          	blt	a5,a0,14ec <__divdf3+0x66c>
    1488:	41e80813          	add	a6,a6,1054
    148c:	010497b3          	sll	a5,s1,a6
    1490:	00af5733          	srl	a4,t5,a0
    1494:	010f1833          	sll	a6,t5,a6
    1498:	00e7e7b3          	or	a5,a5,a4
    149c:	01003833          	snez	a6,a6
    14a0:	0107e7b3          	or	a5,a5,a6
    14a4:	00a4d533          	srl	a0,s1,a0
    14a8:	0077f713          	and	a4,a5,7
    14ac:	02070063          	beqz	a4,14cc <__divdf3+0x64c>
    14b0:	00f7f713          	and	a4,a5,15
    14b4:	00400693          	li	a3,4
    14b8:	00d70a63          	beq	a4,a3,14cc <__divdf3+0x64c>
    14bc:	00478713          	add	a4,a5,4
    14c0:	00f736b3          	sltu	a3,a4,a5
    14c4:	00d50533          	add	a0,a0,a3
    14c8:	00070793          	mv	a5,a4
    14cc:	00851713          	sll	a4,a0,0x8
    14d0:	06074863          	bltz	a4,1540 <__divdf3+0x6c0>
    14d4:	01d51f13          	sll	t5,a0,0x1d
    14d8:	0037d793          	srl	a5,a5,0x3
    14dc:	00ff6f33          	or	t5,t5,a5
    14e0:	00355513          	srl	a0,a0,0x3
    14e4:	00000713          	li	a4,0
    14e8:	eddff06f          	j	13c4 <__divdf3+0x544>
    14ec:	fe100793          	li	a5,-31
    14f0:	40e787b3          	sub	a5,a5,a4
    14f4:	02000693          	li	a3,32
    14f8:	00f4d7b3          	srl	a5,s1,a5
    14fc:	00000713          	li	a4,0
    1500:	00d50663          	beq	a0,a3,150c <__divdf3+0x68c>
    1504:	43e80713          	add	a4,a6,1086
    1508:	00e49733          	sll	a4,s1,a4
    150c:	01e76733          	or	a4,a4,t5
    1510:	00e03733          	snez	a4,a4
    1514:	00e7e7b3          	or	a5,a5,a4
    1518:	00000513          	li	a0,0
    151c:	f8dff06f          	j	14a8 <__divdf3+0x628>
    1520:	00080537          	lui	a0,0x80
    1524:	00000f13          	li	t5,0
    1528:	7ff00713          	li	a4,2047
    152c:	00000613          	li	a2,0
    1530:	e95ff06f          	j	13c4 <__divdf3+0x544>
    1534:	00000513          	li	a0,0
    1538:	00000f13          	li	t5,0
    153c:	fa9ff06f          	j	14e4 <__divdf3+0x664>
    1540:	00000513          	li	a0,0
    1544:	00000f13          	li	t5,0
    1548:	00100713          	li	a4,1
    154c:	e79ff06f          	j	13c4 <__divdf3+0x544>
    1550:	000f0693          	mv	a3,t5
    1554:	00068f13          	mv	t5,a3
    1558:	e0dff06f          	j	1364 <__divdf3+0x4e4>

0000155c <__eqdf2>:
    155c:	0145d713          	srl	a4,a1,0x14
    1560:	001007b7          	lui	a5,0x100
    1564:	fff78793          	add	a5,a5,-1 # fffff <_end+0xead9b>
    1568:	0146d813          	srl	a6,a3,0x14
    156c:	00050313          	mv	t1,a0
    1570:	00050e93          	mv	t4,a0
    1574:	7ff77713          	and	a4,a4,2047
    1578:	7ff00513          	li	a0,2047
    157c:	00b7f8b3          	and	a7,a5,a1
    1580:	00060f13          	mv	t5,a2
    1584:	00d7f7b3          	and	a5,a5,a3
    1588:	01f5d593          	srl	a1,a1,0x1f
    158c:	7ff87813          	and	a6,a6,2047
    1590:	01f6d693          	srl	a3,a3,0x1f
    1594:	00a71c63          	bne	a4,a0,15ac <__eqdf2+0x50>
    1598:	0068ee33          	or	t3,a7,t1
    159c:	00100513          	li	a0,1
    15a0:	000e1463          	bnez	t3,15a8 <__eqdf2+0x4c>
    15a4:	00e80663          	beq	a6,a4,15b0 <__eqdf2+0x54>
    15a8:	00008067          	ret
    15ac:	00a81863          	bne	a6,a0,15bc <__eqdf2+0x60>
    15b0:	00c7e633          	or	a2,a5,a2
    15b4:	00100513          	li	a0,1
    15b8:	fe0618e3          	bnez	a2,15a8 <__eqdf2+0x4c>
    15bc:	00100513          	li	a0,1
    15c0:	ff0714e3          	bne	a4,a6,15a8 <__eqdf2+0x4c>
    15c4:	fef892e3          	bne	a7,a5,15a8 <__eqdf2+0x4c>
    15c8:	ffee90e3          	bne	t4,t5,15a8 <__eqdf2+0x4c>
    15cc:	00d58a63          	beq	a1,a3,15e0 <__eqdf2+0x84>
    15d0:	fc071ce3          	bnez	a4,15a8 <__eqdf2+0x4c>
    15d4:	0068e8b3          	or	a7,a7,t1
    15d8:	01103533          	snez	a0,a7
    15dc:	00008067          	ret
    15e0:	00000513          	li	a0,0
    15e4:	00008067          	ret

000015e8 <__gedf2>:
    15e8:	0146d793          	srl	a5,a3,0x14
    15ec:	0145d893          	srl	a7,a1,0x14
    15f0:	00100737          	lui	a4,0x100
    15f4:	fff70713          	add	a4,a4,-1 # fffff <_end+0xead9b>
    15f8:	00050813          	mv	a6,a0
    15fc:	00050e13          	mv	t3,a0
    1600:	7ff8f893          	and	a7,a7,2047
    1604:	7ff7f513          	and	a0,a5,2047
    1608:	7ff00793          	li	a5,2047
    160c:	00b77333          	and	t1,a4,a1
    1610:	00060e93          	mv	t4,a2
    1614:	00d77733          	and	a4,a4,a3
    1618:	01f5d593          	srl	a1,a1,0x1f
    161c:	01f6d693          	srl	a3,a3,0x1f
    1620:	00f89663          	bne	a7,a5,162c <__gedf2+0x44>
    1624:	010367b3          	or	a5,t1,a6
    1628:	06079c63          	bnez	a5,16a0 <__gedf2+0xb8>
    162c:	7ff00793          	li	a5,2047
    1630:	00f51663          	bne	a0,a5,163c <__gedf2+0x54>
    1634:	00c767b3          	or	a5,a4,a2
    1638:	06079463          	bnez	a5,16a0 <__gedf2+0xb8>
    163c:	00000793          	li	a5,0
    1640:	00089663          	bnez	a7,164c <__gedf2+0x64>
    1644:	01036833          	or	a6,t1,a6
    1648:	00183793          	seqz	a5,a6
    164c:	04051e63          	bnez	a0,16a8 <__gedf2+0xc0>
    1650:	00c76633          	or	a2,a4,a2
    1654:	00078c63          	beqz	a5,166c <__gedf2+0x84>
    1658:	02060063          	beqz	a2,1678 <__gedf2+0x90>
    165c:	00100513          	li	a0,1
    1660:	00069c63          	bnez	a3,1678 <__gedf2+0x90>
    1664:	fff00513          	li	a0,-1
    1668:	00008067          	ret
    166c:	04061063          	bnez	a2,16ac <__gedf2+0xc4>
    1670:	fff00513          	li	a0,-1
    1674:	04058463          	beqz	a1,16bc <__gedf2+0xd4>
    1678:	00008067          	ret
    167c:	fea8c0e3          	blt	a7,a0,165c <__gedf2+0x74>
    1680:	fe6768e3          	bltu	a4,t1,1670 <__gedf2+0x88>
    1684:	00e31863          	bne	t1,a4,1694 <__gedf2+0xac>
    1688:	ffcee4e3          	bltu	t4,t3,1670 <__gedf2+0x88>
    168c:	00000513          	li	a0,0
    1690:	ffde74e3          	bgeu	t3,t4,1678 <__gedf2+0x90>
    1694:	00100513          	li	a0,1
    1698:	fe0590e3          	bnez	a1,1678 <__gedf2+0x90>
    169c:	fc9ff06f          	j	1664 <__gedf2+0x7c>
    16a0:	ffe00513          	li	a0,-2
    16a4:	00008067          	ret
    16a8:	fa079ae3          	bnez	a5,165c <__gedf2+0x74>
    16ac:	fcb692e3          	bne	a3,a1,1670 <__gedf2+0x88>
    16b0:	fd1556e3          	bge	a0,a7,167c <__gedf2+0x94>
    16b4:	fff00513          	li	a0,-1
    16b8:	fc0690e3          	bnez	a3,1678 <__gedf2+0x90>
    16bc:	00100513          	li	a0,1
    16c0:	00008067          	ret

000016c4 <__ledf2>:
    16c4:	0146d793          	srl	a5,a3,0x14
    16c8:	0145d893          	srl	a7,a1,0x14
    16cc:	00100737          	lui	a4,0x100
    16d0:	fff70713          	add	a4,a4,-1 # fffff <_end+0xead9b>
    16d4:	00050813          	mv	a6,a0
    16d8:	00050e13          	mv	t3,a0
    16dc:	7ff8f893          	and	a7,a7,2047
    16e0:	7ff7f513          	and	a0,a5,2047
    16e4:	7ff00793          	li	a5,2047
    16e8:	00b77333          	and	t1,a4,a1
    16ec:	00060e93          	mv	t4,a2
    16f0:	00d77733          	and	a4,a4,a3
    16f4:	01f5d593          	srl	a1,a1,0x1f
    16f8:	01f6d693          	srl	a3,a3,0x1f
    16fc:	00f89663          	bne	a7,a5,1708 <__ledf2+0x44>
    1700:	010367b3          	or	a5,t1,a6
    1704:	06079c63          	bnez	a5,177c <__ledf2+0xb8>
    1708:	7ff00793          	li	a5,2047
    170c:	00f51663          	bne	a0,a5,1718 <__ledf2+0x54>
    1710:	00c767b3          	or	a5,a4,a2
    1714:	06079463          	bnez	a5,177c <__ledf2+0xb8>
    1718:	00000793          	li	a5,0
    171c:	00089663          	bnez	a7,1728 <__ledf2+0x64>
    1720:	01036833          	or	a6,t1,a6
    1724:	00183793          	seqz	a5,a6
    1728:	04051e63          	bnez	a0,1784 <__ledf2+0xc0>
    172c:	00c76633          	or	a2,a4,a2
    1730:	00078c63          	beqz	a5,1748 <__ledf2+0x84>
    1734:	02060063          	beqz	a2,1754 <__ledf2+0x90>
    1738:	00100513          	li	a0,1
    173c:	00069c63          	bnez	a3,1754 <__ledf2+0x90>
    1740:	fff00513          	li	a0,-1
    1744:	00008067          	ret
    1748:	04061063          	bnez	a2,1788 <__ledf2+0xc4>
    174c:	fff00513          	li	a0,-1
    1750:	04058463          	beqz	a1,1798 <__ledf2+0xd4>
    1754:	00008067          	ret
    1758:	fea8c0e3          	blt	a7,a0,1738 <__ledf2+0x74>
    175c:	fe6768e3          	bltu	a4,t1,174c <__ledf2+0x88>
    1760:	00e31863          	bne	t1,a4,1770 <__ledf2+0xac>
    1764:	ffcee4e3          	bltu	t4,t3,174c <__ledf2+0x88>
    1768:	00000513          	li	a0,0
    176c:	ffde74e3          	bgeu	t3,t4,1754 <__ledf2+0x90>
    1770:	00100513          	li	a0,1
    1774:	fe0590e3          	bnez	a1,1754 <__ledf2+0x90>
    1778:	fc9ff06f          	j	1740 <__ledf2+0x7c>
    177c:	00200513          	li	a0,2
    1780:	00008067          	ret
    1784:	fa079ae3          	bnez	a5,1738 <__ledf2+0x74>
    1788:	fcb692e3          	bne	a3,a1,174c <__ledf2+0x88>
    178c:	fd1556e3          	bge	a0,a7,1758 <__ledf2+0x94>
    1790:	fff00513          	li	a0,-1
    1794:	fc0690e3          	bnez	a3,1754 <__ledf2+0x90>
    1798:	00100513          	li	a0,1
    179c:	00008067          	ret

000017a0 <__muldf3>:
    17a0:	fd010113          	add	sp,sp,-48
    17a4:	01512a23          	sw	s5,20(sp)
    17a8:	0145da93          	srl	s5,a1,0x14
    17ac:	02812423          	sw	s0,40(sp)
    17b0:	02912223          	sw	s1,36(sp)
    17b4:	01312e23          	sw	s3,28(sp)
    17b8:	01412c23          	sw	s4,24(sp)
    17bc:	01612823          	sw	s6,16(sp)
    17c0:	00c59493          	sll	s1,a1,0xc
    17c4:	02112623          	sw	ra,44(sp)
    17c8:	03212023          	sw	s2,32(sp)
    17cc:	01712623          	sw	s7,12(sp)
    17d0:	7ffafa93          	and	s5,s5,2047
    17d4:	00050413          	mv	s0,a0
    17d8:	00060b13          	mv	s6,a2
    17dc:	00068993          	mv	s3,a3
    17e0:	00c4d493          	srl	s1,s1,0xc
    17e4:	01f5da13          	srl	s4,a1,0x1f
    17e8:	240a8e63          	beqz	s5,1a44 <__muldf3+0x2a4>
    17ec:	7ff00793          	li	a5,2047
    17f0:	2cfa8063          	beq	s5,a5,1ab0 <__muldf3+0x310>
    17f4:	00349493          	sll	s1,s1,0x3
    17f8:	01d55793          	srl	a5,a0,0x1d
    17fc:	0097e7b3          	or	a5,a5,s1
    1800:	008004b7          	lui	s1,0x800
    1804:	0097e4b3          	or	s1,a5,s1
    1808:	00351913          	sll	s2,a0,0x3
    180c:	c01a8a93          	add	s5,s5,-1023
    1810:	00000b93          	li	s7,0
    1814:	0149d713          	srl	a4,s3,0x14
    1818:	00c99413          	sll	s0,s3,0xc
    181c:	7ff77713          	and	a4,a4,2047
    1820:	00c45413          	srl	s0,s0,0xc
    1824:	01f9d993          	srl	s3,s3,0x1f
    1828:	2c070063          	beqz	a4,1ae8 <__muldf3+0x348>
    182c:	7ff00793          	li	a5,2047
    1830:	32f70463          	beq	a4,a5,1b58 <__muldf3+0x3b8>
    1834:	00341413          	sll	s0,s0,0x3
    1838:	01db5793          	srl	a5,s6,0x1d
    183c:	0087e7b3          	or	a5,a5,s0
    1840:	00800437          	lui	s0,0x800
    1844:	0087e433          	or	s0,a5,s0
    1848:	c0170693          	add	a3,a4,-1023
    184c:	003b1793          	sll	a5,s6,0x3
    1850:	00000713          	li	a4,0
    1854:	00da8ab3          	add	s5,s5,a3
    1858:	002b9693          	sll	a3,s7,0x2
    185c:	00e6e6b3          	or	a3,a3,a4
    1860:	00a00613          	li	a2,10
    1864:	001a8513          	add	a0,s5,1
    1868:	40d64663          	blt	a2,a3,1c74 <__muldf3+0x4d4>
    186c:	00200613          	li	a2,2
    1870:	013a45b3          	xor	a1,s4,s3
    1874:	30d64e63          	blt	a2,a3,1b90 <__muldf3+0x3f0>
    1878:	fff68693          	add	a3,a3,-1
    187c:	00100613          	li	a2,1
    1880:	32d67a63          	bgeu	a2,a3,1bb4 <__muldf3+0x414>
    1884:	00010337          	lui	t1,0x10
    1888:	fff30e13          	add	t3,t1,-1 # ffff <_realloc_r+0x57>
    188c:	01095713          	srl	a4,s2,0x10
    1890:	0107d893          	srl	a7,a5,0x10
    1894:	01c97933          	and	s2,s2,t3
    1898:	01c7ff33          	and	t5,a5,t3
    189c:	03e907b3          	mul	a5,s2,t5
    18a0:	03e70eb3          	mul	t4,a4,t5
    18a4:	0107d813          	srl	a6,a5,0x10
    18a8:	03288633          	mul	a2,a7,s2
    18ac:	01d60633          	add	a2,a2,t4
    18b0:	00c80833          	add	a6,a6,a2
    18b4:	031706b3          	mul	a3,a4,a7
    18b8:	01d87463          	bgeu	a6,t4,18c0 <__muldf3+0x120>
    18bc:	006686b3          	add	a3,a3,t1
    18c0:	01085293          	srl	t0,a6,0x10
    18c4:	01c87833          	and	a6,a6,t3
    18c8:	01c7f7b3          	and	a5,a5,t3
    18cc:	01045613          	srl	a2,s0,0x10
    18d0:	01c47e33          	and	t3,s0,t3
    18d4:	01081813          	sll	a6,a6,0x10
    18d8:	00f80833          	add	a6,a6,a5
    18dc:	03c90eb3          	mul	t4,s2,t3
    18e0:	03c707b3          	mul	a5,a4,t3
    18e4:	03260933          	mul	s2,a2,s2
    18e8:	02c70333          	mul	t1,a4,a2
    18ec:	00f90933          	add	s2,s2,a5
    18f0:	010ed713          	srl	a4,t4,0x10
    18f4:	01270733          	add	a4,a4,s2
    18f8:	00f77663          	bgeu	a4,a5,1904 <__muldf3+0x164>
    18fc:	000107b7          	lui	a5,0x10
    1900:	00f30333          	add	t1,t1,a5
    1904:	00010437          	lui	s0,0x10
    1908:	01075793          	srl	a5,a4,0x10
    190c:	fff40f93          	add	t6,s0,-1 # ffff <_realloc_r+0x57>
    1910:	00678333          	add	t1,a5,t1
    1914:	01f777b3          	and	a5,a4,t6
    1918:	01fefeb3          	and	t4,t4,t6
    191c:	01079793          	sll	a5,a5,0x10
    1920:	01f4ffb3          	and	t6,s1,t6
    1924:	01d787b3          	add	a5,a5,t4
    1928:	0104de93          	srl	t4,s1,0x10
    192c:	03ff03b3          	mul	t2,t5,t6
    1930:	00f282b3          	add	t0,t0,a5
    1934:	03ee8f33          	mul	t5,t4,t5
    1938:	0103d713          	srl	a4,t2,0x10
    193c:	03d884b3          	mul	s1,a7,t4
    1940:	03f888b3          	mul	a7,a7,t6
    1944:	01e888b3          	add	a7,a7,t5
    1948:	01170733          	add	a4,a4,a7
    194c:	01e77463          	bgeu	a4,t5,1954 <__muldf3+0x1b4>
    1950:	008484b3          	add	s1,s1,s0
    1954:	01075f13          	srl	t5,a4,0x10
    1958:	009f0f33          	add	t5,t5,s1
    195c:	000104b7          	lui	s1,0x10
    1960:	fff48413          	add	s0,s1,-1 # ffff <_realloc_r+0x57>
    1964:	00877733          	and	a4,a4,s0
    1968:	0083f3b3          	and	t2,t2,s0
    196c:	01071713          	sll	a4,a4,0x10
    1970:	007708b3          	add	a7,a4,t2
    1974:	03fe03b3          	mul	t2,t3,t6
    1978:	03ce8e33          	mul	t3,t4,t3
    197c:	03d60eb3          	mul	t4,a2,t4
    1980:	03f60633          	mul	a2,a2,t6
    1984:	0103df93          	srl	t6,t2,0x10
    1988:	01c60633          	add	a2,a2,t3
    198c:	00cf8fb3          	add	t6,t6,a2
    1990:	01cff463          	bgeu	t6,t3,1998 <__muldf3+0x1f8>
    1994:	009e8eb3          	add	t4,t4,s1
    1998:	008ff733          	and	a4,t6,s0
    199c:	0083f3b3          	and	t2,t2,s0
    19a0:	01071713          	sll	a4,a4,0x10
    19a4:	005686b3          	add	a3,a3,t0
    19a8:	00770733          	add	a4,a4,t2
    19ac:	00670333          	add	t1,a4,t1
    19b0:	00f6b7b3          	sltu	a5,a3,a5
    19b4:	00f307b3          	add	a5,t1,a5
    19b8:	00e33633          	sltu	a2,t1,a4
    19bc:	011688b3          	add	a7,a3,a7
    19c0:	0067b333          	sltu	t1,a5,t1
    19c4:	00666633          	or	a2,a2,t1
    19c8:	00d8b6b3          	sltu	a3,a7,a3
    19cc:	01e78333          	add	t1,a5,t5
    19d0:	00d306b3          	add	a3,t1,a3
    19d4:	00f33733          	sltu	a4,t1,a5
    19d8:	010fdf93          	srl	t6,t6,0x10
    19dc:	0066b333          	sltu	t1,a3,t1
    19e0:	00989793          	sll	a5,a7,0x9
    19e4:	01f60633          	add	a2,a2,t6
    19e8:	00676733          	or	a4,a4,t1
    19ec:	00c70733          	add	a4,a4,a2
    19f0:	0107e7b3          	or	a5,a5,a6
    19f4:	01d70733          	add	a4,a4,t4
    19f8:	00f037b3          	snez	a5,a5
    19fc:	0178d893          	srl	a7,a7,0x17
    1a00:	00971713          	sll	a4,a4,0x9
    1a04:	0176d413          	srl	s0,a3,0x17
    1a08:	0117e7b3          	or	a5,a5,a7
    1a0c:	00969693          	sll	a3,a3,0x9
    1a10:	00d7e7b3          	or	a5,a5,a3
    1a14:	00771693          	sll	a3,a4,0x7
    1a18:	00876433          	or	s0,a4,s0
    1a1c:	0206d063          	bgez	a3,1a3c <__muldf3+0x29c>
    1a20:	0017d713          	srl	a4,a5,0x1
    1a24:	0017f793          	and	a5,a5,1
    1a28:	00f76733          	or	a4,a4,a5
    1a2c:	01f41793          	sll	a5,s0,0x1f
    1a30:	00f767b3          	or	a5,a4,a5
    1a34:	00145413          	srl	s0,s0,0x1
    1a38:	00050a93          	mv	s5,a0
    1a3c:	000a8513          	mv	a0,s5
    1a40:	18c0006f          	j	1bcc <__muldf3+0x42c>
    1a44:	00a4e933          	or	s2,s1,a0
    1a48:	08090063          	beqz	s2,1ac8 <__muldf3+0x328>
    1a4c:	04048063          	beqz	s1,1a8c <__muldf3+0x2ec>
    1a50:	00048513          	mv	a0,s1
    1a54:	0b1030ef          	jal	5304 <__clzsi2>
    1a58:	ff550713          	add	a4,a0,-11 # 7fff5 <_end+0x6ad91>
    1a5c:	01d00793          	li	a5,29
    1a60:	ff850693          	add	a3,a0,-8
    1a64:	40e787b3          	sub	a5,a5,a4
    1a68:	00d494b3          	sll	s1,s1,a3
    1a6c:	00f457b3          	srl	a5,s0,a5
    1a70:	0097e7b3          	or	a5,a5,s1
    1a74:	00d414b3          	sll	s1,s0,a3
    1a78:	c0d00a93          	li	s5,-1011
    1a7c:	00048913          	mv	s2,s1
    1a80:	40aa8ab3          	sub	s5,s5,a0
    1a84:	00078493          	mv	s1,a5
    1a88:	d89ff06f          	j	1810 <__muldf3+0x70>
    1a8c:	079030ef          	jal	5304 <__clzsi2>
    1a90:	00050793          	mv	a5,a0
    1a94:	01578713          	add	a4,a5,21 # 10015 <_realloc_r+0x6d>
    1a98:	01c00693          	li	a3,28
    1a9c:	02050513          	add	a0,a0,32
    1aa0:	fae6dee3          	bge	a3,a4,1a5c <__muldf3+0x2bc>
    1aa4:	ff878793          	add	a5,a5,-8
    1aa8:	00f417b3          	sll	a5,s0,a5
    1aac:	fcdff06f          	j	1a78 <__muldf3+0x2d8>
    1ab0:	00a4e933          	or	s2,s1,a0
    1ab4:	02091263          	bnez	s2,1ad8 <__muldf3+0x338>
    1ab8:	00000493          	li	s1,0
    1abc:	7ff00a93          	li	s5,2047
    1ac0:	00200b93          	li	s7,2
    1ac4:	d51ff06f          	j	1814 <__muldf3+0x74>
    1ac8:	00000493          	li	s1,0
    1acc:	00000a93          	li	s5,0
    1ad0:	00100b93          	li	s7,1
    1ad4:	d41ff06f          	j	1814 <__muldf3+0x74>
    1ad8:	00050913          	mv	s2,a0
    1adc:	7ff00a93          	li	s5,2047
    1ae0:	00300b93          	li	s7,3
    1ae4:	d31ff06f          	j	1814 <__muldf3+0x74>
    1ae8:	016467b3          	or	a5,s0,s6
    1aec:	08078263          	beqz	a5,1b70 <__muldf3+0x3d0>
    1af0:	04040063          	beqz	s0,1b30 <__muldf3+0x390>
    1af4:	00040513          	mv	a0,s0
    1af8:	00d030ef          	jal	5304 <__clzsi2>
    1afc:	ff550693          	add	a3,a0,-11
    1b00:	01d00713          	li	a4,29
    1b04:	ff850793          	add	a5,a0,-8
    1b08:	40d70733          	sub	a4,a4,a3
    1b0c:	00f41433          	sll	s0,s0,a5
    1b10:	00eb5733          	srl	a4,s6,a4
    1b14:	00876733          	or	a4,a4,s0
    1b18:	00fb1433          	sll	s0,s6,a5
    1b1c:	c0d00693          	li	a3,-1011
    1b20:	00040793          	mv	a5,s0
    1b24:	40a686b3          	sub	a3,a3,a0
    1b28:	00070413          	mv	s0,a4
    1b2c:	d25ff06f          	j	1850 <__muldf3+0xb0>
    1b30:	000b0513          	mv	a0,s6
    1b34:	7d0030ef          	jal	5304 <__clzsi2>
    1b38:	00050793          	mv	a5,a0
    1b3c:	01578693          	add	a3,a5,21
    1b40:	01c00713          	li	a4,28
    1b44:	02050513          	add	a0,a0,32
    1b48:	fad75ce3          	bge	a4,a3,1b00 <__muldf3+0x360>
    1b4c:	ff878793          	add	a5,a5,-8
    1b50:	00fb1733          	sll	a4,s6,a5
    1b54:	fc9ff06f          	j	1b1c <__muldf3+0x37c>
    1b58:	016467b3          	or	a5,s0,s6
    1b5c:	02079263          	bnez	a5,1b80 <__muldf3+0x3e0>
    1b60:	00000413          	li	s0,0
    1b64:	7ff00693          	li	a3,2047
    1b68:	00200713          	li	a4,2
    1b6c:	ce9ff06f          	j	1854 <__muldf3+0xb4>
    1b70:	00000413          	li	s0,0
    1b74:	00000693          	li	a3,0
    1b78:	00100713          	li	a4,1
    1b7c:	cd9ff06f          	j	1854 <__muldf3+0xb4>
    1b80:	000b0793          	mv	a5,s6
    1b84:	7ff00693          	li	a3,2047
    1b88:	00300713          	li	a4,3
    1b8c:	cc9ff06f          	j	1854 <__muldf3+0xb4>
    1b90:	00100613          	li	a2,1
    1b94:	00d61633          	sll	a2,a2,a3
    1b98:	53067693          	and	a3,a2,1328
    1b9c:	0e069663          	bnez	a3,1c88 <__muldf3+0x4e8>
    1ba0:	24067813          	and	a6,a2,576
    1ba4:	1a081a63          	bnez	a6,1d58 <__muldf3+0x5b8>
    1ba8:	08867613          	and	a2,a2,136
    1bac:	cc060ce3          	beqz	a2,1884 <__muldf3+0xe4>
    1bb0:	00098593          	mv	a1,s3
    1bb4:	00200693          	li	a3,2
    1bb8:	18d70863          	beq	a4,a3,1d48 <__muldf3+0x5a8>
    1bbc:	00300693          	li	a3,3
    1bc0:	1ad70463          	beq	a4,a3,1d68 <__muldf3+0x5c8>
    1bc4:	00100693          	li	a3,1
    1bc8:	1ad70663          	beq	a4,a3,1d74 <__muldf3+0x5d4>
    1bcc:	3ff50613          	add	a2,a0,1023
    1bd0:	0cc05463          	blez	a2,1c98 <__muldf3+0x4f8>
    1bd4:	0077f713          	and	a4,a5,7
    1bd8:	02070063          	beqz	a4,1bf8 <__muldf3+0x458>
    1bdc:	00f7f713          	and	a4,a5,15
    1be0:	00400693          	li	a3,4
    1be4:	00d70a63          	beq	a4,a3,1bf8 <__muldf3+0x458>
    1be8:	00478713          	add	a4,a5,4
    1bec:	00f736b3          	sltu	a3,a4,a5
    1bf0:	00d40433          	add	s0,s0,a3
    1bf4:	00070793          	mv	a5,a4
    1bf8:	00741713          	sll	a4,s0,0x7
    1bfc:	00075a63          	bgez	a4,1c10 <__muldf3+0x470>
    1c00:	ff000737          	lui	a4,0xff000
    1c04:	fff70713          	add	a4,a4,-1 # feffffff <_end+0xfefead9b>
    1c08:	00e47433          	and	s0,s0,a4
    1c0c:	40050613          	add	a2,a0,1024
    1c10:	7fe00713          	li	a4,2046
    1c14:	12c74a63          	blt	a4,a2,1d48 <__muldf3+0x5a8>
    1c18:	0037d793          	srl	a5,a5,0x3
    1c1c:	01d41693          	sll	a3,s0,0x1d
    1c20:	00f6e6b3          	or	a3,a3,a5
    1c24:	00345713          	srl	a4,s0,0x3
    1c28:	00c71713          	sll	a4,a4,0xc
    1c2c:	02c12083          	lw	ra,44(sp)
    1c30:	02812403          	lw	s0,40(sp)
    1c34:	01461613          	sll	a2,a2,0x14
    1c38:	00c75713          	srl	a4,a4,0xc
    1c3c:	01f59593          	sll	a1,a1,0x1f
    1c40:	00e66633          	or	a2,a2,a4
    1c44:	00b667b3          	or	a5,a2,a1
    1c48:	02412483          	lw	s1,36(sp)
    1c4c:	02012903          	lw	s2,32(sp)
    1c50:	01c12983          	lw	s3,28(sp)
    1c54:	01812a03          	lw	s4,24(sp)
    1c58:	01412a83          	lw	s5,20(sp)
    1c5c:	01012b03          	lw	s6,16(sp)
    1c60:	00c12b83          	lw	s7,12(sp)
    1c64:	00068513          	mv	a0,a3
    1c68:	00078593          	mv	a1,a5
    1c6c:	03010113          	add	sp,sp,48
    1c70:	00008067          	ret
    1c74:	00f00613          	li	a2,15
    1c78:	0ec68863          	beq	a3,a2,1d68 <__muldf3+0x5c8>
    1c7c:	00b00613          	li	a2,11
    1c80:	000a0593          	mv	a1,s4
    1c84:	f2c686e3          	beq	a3,a2,1bb0 <__muldf3+0x410>
    1c88:	00048413          	mv	s0,s1
    1c8c:	00090793          	mv	a5,s2
    1c90:	000b8713          	mv	a4,s7
    1c94:	f21ff06f          	j	1bb4 <__muldf3+0x414>
    1c98:	00100713          	li	a4,1
    1c9c:	40c70733          	sub	a4,a4,a2
    1ca0:	03800693          	li	a3,56
    1ca4:	0ce6c863          	blt	a3,a4,1d74 <__muldf3+0x5d4>
    1ca8:	01f00693          	li	a3,31
    1cac:	06e6c463          	blt	a3,a4,1d14 <__muldf3+0x574>
    1cb0:	41e50513          	add	a0,a0,1054
    1cb4:	00e7d633          	srl	a2,a5,a4
    1cb8:	00a416b3          	sll	a3,s0,a0
    1cbc:	00a79533          	sll	a0,a5,a0
    1cc0:	00c6e6b3          	or	a3,a3,a2
    1cc4:	00a03533          	snez	a0,a0
    1cc8:	00a6e7b3          	or	a5,a3,a0
    1ccc:	00e45733          	srl	a4,s0,a4
    1cd0:	0077f693          	and	a3,a5,7
    1cd4:	02068063          	beqz	a3,1cf4 <__muldf3+0x554>
    1cd8:	00f7f693          	and	a3,a5,15
    1cdc:	00400613          	li	a2,4
    1ce0:	00c68a63          	beq	a3,a2,1cf4 <__muldf3+0x554>
    1ce4:	00478693          	add	a3,a5,4
    1ce8:	00f6b633          	sltu	a2,a3,a5
    1cec:	00c70733          	add	a4,a4,a2
    1cf0:	00068793          	mv	a5,a3
    1cf4:	00871693          	sll	a3,a4,0x8
    1cf8:	0806c463          	bltz	a3,1d80 <__muldf3+0x5e0>
    1cfc:	01d71693          	sll	a3,a4,0x1d
    1d00:	0037d793          	srl	a5,a5,0x3
    1d04:	00f6e6b3          	or	a3,a3,a5
    1d08:	00375713          	srl	a4,a4,0x3
    1d0c:	00000613          	li	a2,0
    1d10:	f19ff06f          	j	1c28 <__muldf3+0x488>
    1d14:	fe100693          	li	a3,-31
    1d18:	40c686b3          	sub	a3,a3,a2
    1d1c:	02000813          	li	a6,32
    1d20:	00d456b3          	srl	a3,s0,a3
    1d24:	00000613          	li	a2,0
    1d28:	01070663          	beq	a4,a6,1d34 <__muldf3+0x594>
    1d2c:	43e50613          	add	a2,a0,1086
    1d30:	00c41633          	sll	a2,s0,a2
    1d34:	00f66633          	or	a2,a2,a5
    1d38:	00c03633          	snez	a2,a2
    1d3c:	00c6e7b3          	or	a5,a3,a2
    1d40:	00000713          	li	a4,0
    1d44:	f8dff06f          	j	1cd0 <__muldf3+0x530>
    1d48:	00000713          	li	a4,0
    1d4c:	00000693          	li	a3,0
    1d50:	7ff00613          	li	a2,2047
    1d54:	ed5ff06f          	j	1c28 <__muldf3+0x488>
    1d58:	00080737          	lui	a4,0x80
    1d5c:	7ff00613          	li	a2,2047
    1d60:	00000593          	li	a1,0
    1d64:	ec5ff06f          	j	1c28 <__muldf3+0x488>
    1d68:	00080737          	lui	a4,0x80
    1d6c:	00000693          	li	a3,0
    1d70:	fedff06f          	j	1d5c <__muldf3+0x5bc>
    1d74:	00000713          	li	a4,0
    1d78:	00000693          	li	a3,0
    1d7c:	f91ff06f          	j	1d0c <__muldf3+0x56c>
    1d80:	00000713          	li	a4,0
    1d84:	00000693          	li	a3,0
    1d88:	00100613          	li	a2,1
    1d8c:	e9dff06f          	j	1c28 <__muldf3+0x488>

00001d90 <__subdf3>:
    1d90:	00100837          	lui	a6,0x100
    1d94:	fff80813          	add	a6,a6,-1 # fffff <_end+0xead9b>
    1d98:	fe010113          	add	sp,sp,-32
    1d9c:	00b878b3          	and	a7,a6,a1
    1da0:	0145d713          	srl	a4,a1,0x14
    1da4:	01d55793          	srl	a5,a0,0x1d
    1da8:	00d87833          	and	a6,a6,a3
    1dac:	01212823          	sw	s2,16(sp)
    1db0:	7ff77913          	and	s2,a4,2047
    1db4:	00389713          	sll	a4,a7,0x3
    1db8:	0146d893          	srl	a7,a3,0x14
    1dbc:	00912a23          	sw	s1,20(sp)
    1dc0:	00e7e7b3          	or	a5,a5,a4
    1dc4:	01f5d493          	srl	s1,a1,0x1f
    1dc8:	01d65713          	srl	a4,a2,0x1d
    1dcc:	00381813          	sll	a6,a6,0x3
    1dd0:	00112e23          	sw	ra,28(sp)
    1dd4:	00812c23          	sw	s0,24(sp)
    1dd8:	01312623          	sw	s3,12(sp)
    1ddc:	7ff8f893          	and	a7,a7,2047
    1de0:	7ff00593          	li	a1,2047
    1de4:	00351513          	sll	a0,a0,0x3
    1de8:	01f6d693          	srl	a3,a3,0x1f
    1dec:	01076733          	or	a4,a4,a6
    1df0:	00361613          	sll	a2,a2,0x3
    1df4:	00b89663          	bne	a7,a1,1e00 <__subdf3+0x70>
    1df8:	00c765b3          	or	a1,a4,a2
    1dfc:	00059463          	bnez	a1,1e04 <__subdf3+0x74>
    1e00:	0016c693          	xor	a3,a3,1
    1e04:	41190833          	sub	a6,s2,a7
    1e08:	2a969a63          	bne	a3,s1,20bc <__subdf3+0x32c>
    1e0c:	11005c63          	blez	a6,1f24 <__subdf3+0x194>
    1e10:	04089063          	bnez	a7,1e50 <__subdf3+0xc0>
    1e14:	00c766b3          	or	a3,a4,a2
    1e18:	66068063          	beqz	a3,2478 <__subdf3+0x6e8>
    1e1c:	fff80593          	add	a1,a6,-1
    1e20:	02059063          	bnez	a1,1e40 <__subdf3+0xb0>
    1e24:	00c50633          	add	a2,a0,a2
    1e28:	00a636b3          	sltu	a3,a2,a0
    1e2c:	00e78733          	add	a4,a5,a4
    1e30:	00060513          	mv	a0,a2
    1e34:	00d707b3          	add	a5,a4,a3
    1e38:	00100913          	li	s2,1
    1e3c:	06c0006f          	j	1ea8 <__subdf3+0x118>
    1e40:	7ff00693          	li	a3,2047
    1e44:	02d81063          	bne	a6,a3,1e64 <__subdf3+0xd4>
    1e48:	7ff00913          	li	s2,2047
    1e4c:	1f80006f          	j	2044 <__subdf3+0x2b4>
    1e50:	7ff00693          	li	a3,2047
    1e54:	1ed90863          	beq	s2,a3,2044 <__subdf3+0x2b4>
    1e58:	008006b7          	lui	a3,0x800
    1e5c:	00d76733          	or	a4,a4,a3
    1e60:	00080593          	mv	a1,a6
    1e64:	03800693          	li	a3,56
    1e68:	0ab6c863          	blt	a3,a1,1f18 <__subdf3+0x188>
    1e6c:	01f00693          	li	a3,31
    1e70:	06b6ca63          	blt	a3,a1,1ee4 <__subdf3+0x154>
    1e74:	02000813          	li	a6,32
    1e78:	40b80833          	sub	a6,a6,a1
    1e7c:	010716b3          	sll	a3,a4,a6
    1e80:	00b658b3          	srl	a7,a2,a1
    1e84:	01061833          	sll	a6,a2,a6
    1e88:	0116e6b3          	or	a3,a3,a7
    1e8c:	01003833          	snez	a6,a6
    1e90:	0106e6b3          	or	a3,a3,a6
    1e94:	00b755b3          	srl	a1,a4,a1
    1e98:	00a68533          	add	a0,a3,a0
    1e9c:	00f585b3          	add	a1,a1,a5
    1ea0:	00d536b3          	sltu	a3,a0,a3
    1ea4:	00d587b3          	add	a5,a1,a3
    1ea8:	00879713          	sll	a4,a5,0x8
    1eac:	18075c63          	bgez	a4,2044 <__subdf3+0x2b4>
    1eb0:	00190913          	add	s2,s2,1
    1eb4:	7ff00713          	li	a4,2047
    1eb8:	5ae90a63          	beq	s2,a4,246c <__subdf3+0x6dc>
    1ebc:	ff800737          	lui	a4,0xff800
    1ec0:	fff70713          	add	a4,a4,-1 # ff7fffff <_end+0xff7ead9b>
    1ec4:	00e7f733          	and	a4,a5,a4
    1ec8:	00155793          	srl	a5,a0,0x1
    1ecc:	00157513          	and	a0,a0,1
    1ed0:	00a7e7b3          	or	a5,a5,a0
    1ed4:	01f71513          	sll	a0,a4,0x1f
    1ed8:	00f56533          	or	a0,a0,a5
    1edc:	00175793          	srl	a5,a4,0x1
    1ee0:	1640006f          	j	2044 <__subdf3+0x2b4>
    1ee4:	fe058693          	add	a3,a1,-32
    1ee8:	02000893          	li	a7,32
    1eec:	00d756b3          	srl	a3,a4,a3
    1ef0:	00000813          	li	a6,0
    1ef4:	01158863          	beq	a1,a7,1f04 <__subdf3+0x174>
    1ef8:	04000813          	li	a6,64
    1efc:	40b80833          	sub	a6,a6,a1
    1f00:	01071833          	sll	a6,a4,a6
    1f04:	00c86833          	or	a6,a6,a2
    1f08:	01003833          	snez	a6,a6
    1f0c:	0106e6b3          	or	a3,a3,a6
    1f10:	00000593          	li	a1,0
    1f14:	f85ff06f          	j	1e98 <__subdf3+0x108>
    1f18:	00c766b3          	or	a3,a4,a2
    1f1c:	00d036b3          	snez	a3,a3
    1f20:	ff1ff06f          	j	1f10 <__subdf3+0x180>
    1f24:	0c080a63          	beqz	a6,1ff8 <__subdf3+0x268>
    1f28:	412886b3          	sub	a3,a7,s2
    1f2c:	02091463          	bnez	s2,1f54 <__subdf3+0x1c4>
    1f30:	00a7e5b3          	or	a1,a5,a0
    1f34:	50058e63          	beqz	a1,2450 <__subdf3+0x6c0>
    1f38:	fff68593          	add	a1,a3,-1 # 7fffff <_end+0x7ead9b>
    1f3c:	ee0584e3          	beqz	a1,1e24 <__subdf3+0x94>
    1f40:	7ff00813          	li	a6,2047
    1f44:	03069263          	bne	a3,a6,1f68 <__subdf3+0x1d8>
    1f48:	00070793          	mv	a5,a4
    1f4c:	00060513          	mv	a0,a2
    1f50:	ef9ff06f          	j	1e48 <__subdf3+0xb8>
    1f54:	7ff00593          	li	a1,2047
    1f58:	feb888e3          	beq	a7,a1,1f48 <__subdf3+0x1b8>
    1f5c:	008005b7          	lui	a1,0x800
    1f60:	00b7e7b3          	or	a5,a5,a1
    1f64:	00068593          	mv	a1,a3
    1f68:	03800693          	li	a3,56
    1f6c:	08b6c063          	blt	a3,a1,1fec <__subdf3+0x25c>
    1f70:	01f00693          	li	a3,31
    1f74:	04b6c263          	blt	a3,a1,1fb8 <__subdf3+0x228>
    1f78:	02000813          	li	a6,32
    1f7c:	40b80833          	sub	a6,a6,a1
    1f80:	010796b3          	sll	a3,a5,a6
    1f84:	00b55333          	srl	t1,a0,a1
    1f88:	01051833          	sll	a6,a0,a6
    1f8c:	0066e6b3          	or	a3,a3,t1
    1f90:	01003833          	snez	a6,a6
    1f94:	0106e6b3          	or	a3,a3,a6
    1f98:	00b7d5b3          	srl	a1,a5,a1
    1f9c:	00c68633          	add	a2,a3,a2
    1fa0:	00e585b3          	add	a1,a1,a4
    1fa4:	00d636b3          	sltu	a3,a2,a3
    1fa8:	00060513          	mv	a0,a2
    1fac:	00d587b3          	add	a5,a1,a3
    1fb0:	00088913          	mv	s2,a7
    1fb4:	ef5ff06f          	j	1ea8 <__subdf3+0x118>
    1fb8:	fe058693          	add	a3,a1,-32 # 7fffe0 <_end+0x7ead7c>
    1fbc:	02000313          	li	t1,32
    1fc0:	00d7d6b3          	srl	a3,a5,a3
    1fc4:	00000813          	li	a6,0
    1fc8:	00658863          	beq	a1,t1,1fd8 <__subdf3+0x248>
    1fcc:	04000813          	li	a6,64
    1fd0:	40b80833          	sub	a6,a6,a1
    1fd4:	01079833          	sll	a6,a5,a6
    1fd8:	00a86833          	or	a6,a6,a0
    1fdc:	01003833          	snez	a6,a6
    1fe0:	0106e6b3          	or	a3,a3,a6
    1fe4:	00000593          	li	a1,0
    1fe8:	fb5ff06f          	j	1f9c <__subdf3+0x20c>
    1fec:	00a7e6b3          	or	a3,a5,a0
    1ff0:	00d036b3          	snez	a3,a3
    1ff4:	ff1ff06f          	j	1fe4 <__subdf3+0x254>
    1ff8:	00190693          	add	a3,s2,1
    1ffc:	7fe6f593          	and	a1,a3,2046
    2000:	08059663          	bnez	a1,208c <__subdf3+0x2fc>
    2004:	00a7e6b3          	or	a3,a5,a0
    2008:	06091263          	bnez	s2,206c <__subdf3+0x2dc>
    200c:	44068863          	beqz	a3,245c <__subdf3+0x6cc>
    2010:	00c766b3          	or	a3,a4,a2
    2014:	02068863          	beqz	a3,2044 <__subdf3+0x2b4>
    2018:	00c50633          	add	a2,a0,a2
    201c:	00a636b3          	sltu	a3,a2,a0
    2020:	00e78733          	add	a4,a5,a4
    2024:	00d707b3          	add	a5,a4,a3
    2028:	00879713          	sll	a4,a5,0x8
    202c:	00060513          	mv	a0,a2
    2030:	00075a63          	bgez	a4,2044 <__subdf3+0x2b4>
    2034:	ff800737          	lui	a4,0xff800
    2038:	fff70713          	add	a4,a4,-1 # ff7fffff <_end+0xff7ead9b>
    203c:	00e7f7b3          	and	a5,a5,a4
    2040:	00100913          	li	s2,1
    2044:	00757713          	and	a4,a0,7
    2048:	44070863          	beqz	a4,2498 <__subdf3+0x708>
    204c:	00f57713          	and	a4,a0,15
    2050:	00400693          	li	a3,4
    2054:	44d70263          	beq	a4,a3,2498 <__subdf3+0x708>
    2058:	00450713          	add	a4,a0,4
    205c:	00a736b3          	sltu	a3,a4,a0
    2060:	00d787b3          	add	a5,a5,a3
    2064:	00070513          	mv	a0,a4
    2068:	4300006f          	j	2498 <__subdf3+0x708>
    206c:	ec068ee3          	beqz	a3,1f48 <__subdf3+0x1b8>
    2070:	00c76633          	or	a2,a4,a2
    2074:	dc060ae3          	beqz	a2,1e48 <__subdf3+0xb8>
    2078:	00000493          	li	s1,0
    207c:	004007b7          	lui	a5,0x400
    2080:	00000513          	li	a0,0
    2084:	7ff00913          	li	s2,2047
    2088:	4100006f          	j	2498 <__subdf3+0x708>
    208c:	7ff00593          	li	a1,2047
    2090:	3cb68c63          	beq	a3,a1,2468 <__subdf3+0x6d8>
    2094:	00c50633          	add	a2,a0,a2
    2098:	00a63533          	sltu	a0,a2,a0
    209c:	00e78733          	add	a4,a5,a4
    20a0:	00a70733          	add	a4,a4,a0
    20a4:	01f71513          	sll	a0,a4,0x1f
    20a8:	00165613          	srl	a2,a2,0x1
    20ac:	00c56533          	or	a0,a0,a2
    20b0:	00175793          	srl	a5,a4,0x1
    20b4:	00068913          	mv	s2,a3
    20b8:	f8dff06f          	j	2044 <__subdf3+0x2b4>
    20bc:	0f005c63          	blez	a6,21b4 <__subdf3+0x424>
    20c0:	08089e63          	bnez	a7,215c <__subdf3+0x3cc>
    20c4:	00c766b3          	or	a3,a4,a2
    20c8:	3a068863          	beqz	a3,2478 <__subdf3+0x6e8>
    20cc:	fff80693          	add	a3,a6,-1
    20d0:	02069063          	bnez	a3,20f0 <__subdf3+0x360>
    20d4:	40c50633          	sub	a2,a0,a2
    20d8:	00c536b3          	sltu	a3,a0,a2
    20dc:	40e78733          	sub	a4,a5,a4
    20e0:	00060513          	mv	a0,a2
    20e4:	40d707b3          	sub	a5,a4,a3
    20e8:	00100913          	li	s2,1
    20ec:	0540006f          	j	2140 <__subdf3+0x3b0>
    20f0:	7ff00593          	li	a1,2047
    20f4:	d4b80ae3          	beq	a6,a1,1e48 <__subdf3+0xb8>
    20f8:	03800593          	li	a1,56
    20fc:	0ad5c663          	blt	a1,a3,21a8 <__subdf3+0x418>
    2100:	01f00593          	li	a1,31
    2104:	06d5c863          	blt	a1,a3,2174 <__subdf3+0x3e4>
    2108:	02000813          	li	a6,32
    210c:	40d80833          	sub	a6,a6,a3
    2110:	00d658b3          	srl	a7,a2,a3
    2114:	010715b3          	sll	a1,a4,a6
    2118:	01061833          	sll	a6,a2,a6
    211c:	0115e5b3          	or	a1,a1,a7
    2120:	01003833          	snez	a6,a6
    2124:	0105e633          	or	a2,a1,a6
    2128:	00d756b3          	srl	a3,a4,a3
    212c:	40c50633          	sub	a2,a0,a2
    2130:	00c53733          	sltu	a4,a0,a2
    2134:	40d786b3          	sub	a3,a5,a3
    2138:	00060513          	mv	a0,a2
    213c:	40e687b3          	sub	a5,a3,a4
    2140:	00879713          	sll	a4,a5,0x8
    2144:	f00750e3          	bgez	a4,2044 <__subdf3+0x2b4>
    2148:	00800437          	lui	s0,0x800
    214c:	fff40413          	add	s0,s0,-1 # 7fffff <_end+0x7ead9b>
    2150:	0087f433          	and	s0,a5,s0
    2154:	00050993          	mv	s3,a0
    2158:	2100006f          	j	2368 <__subdf3+0x5d8>
    215c:	7ff00693          	li	a3,2047
    2160:	eed902e3          	beq	s2,a3,2044 <__subdf3+0x2b4>
    2164:	008006b7          	lui	a3,0x800
    2168:	00d76733          	or	a4,a4,a3
    216c:	00080693          	mv	a3,a6
    2170:	f89ff06f          	j	20f8 <__subdf3+0x368>
    2174:	fe068593          	add	a1,a3,-32 # 7fffe0 <_end+0x7ead7c>
    2178:	02000893          	li	a7,32
    217c:	00b755b3          	srl	a1,a4,a1
    2180:	00000813          	li	a6,0
    2184:	01168863          	beq	a3,a7,2194 <__subdf3+0x404>
    2188:	04000813          	li	a6,64
    218c:	40d80833          	sub	a6,a6,a3
    2190:	01071833          	sll	a6,a4,a6
    2194:	00c86833          	or	a6,a6,a2
    2198:	01003833          	snez	a6,a6
    219c:	0105e633          	or	a2,a1,a6
    21a0:	00000693          	li	a3,0
    21a4:	f89ff06f          	j	212c <__subdf3+0x39c>
    21a8:	00c76633          	or	a2,a4,a2
    21ac:	00c03633          	snez	a2,a2
    21b0:	ff1ff06f          	j	21a0 <__subdf3+0x410>
    21b4:	0e080863          	beqz	a6,22a4 <__subdf3+0x514>
    21b8:	41288833          	sub	a6,a7,s2
    21bc:	04091263          	bnez	s2,2200 <__subdf3+0x470>
    21c0:	00a7e5b3          	or	a1,a5,a0
    21c4:	2a058e63          	beqz	a1,2480 <__subdf3+0x6f0>
    21c8:	fff80593          	add	a1,a6,-1
    21cc:	00059e63          	bnez	a1,21e8 <__subdf3+0x458>
    21d0:	40a60533          	sub	a0,a2,a0
    21d4:	40f70733          	sub	a4,a4,a5
    21d8:	00a63633          	sltu	a2,a2,a0
    21dc:	40c707b3          	sub	a5,a4,a2
    21e0:	00068493          	mv	s1,a3
    21e4:	f05ff06f          	j	20e8 <__subdf3+0x358>
    21e8:	7ff00313          	li	t1,2047
    21ec:	02681463          	bne	a6,t1,2214 <__subdf3+0x484>
    21f0:	00070793          	mv	a5,a4
    21f4:	00060513          	mv	a0,a2
    21f8:	7ff00913          	li	s2,2047
    21fc:	0d00006f          	j	22cc <__subdf3+0x53c>
    2200:	7ff00593          	li	a1,2047
    2204:	feb886e3          	beq	a7,a1,21f0 <__subdf3+0x460>
    2208:	008005b7          	lui	a1,0x800
    220c:	00b7e7b3          	or	a5,a5,a1
    2210:	00080593          	mv	a1,a6
    2214:	03800813          	li	a6,56
    2218:	08b84063          	blt	a6,a1,2298 <__subdf3+0x508>
    221c:	01f00813          	li	a6,31
    2220:	04b84263          	blt	a6,a1,2264 <__subdf3+0x4d4>
    2224:	02000313          	li	t1,32
    2228:	40b30333          	sub	t1,t1,a1
    222c:	00b55e33          	srl	t3,a0,a1
    2230:	00679833          	sll	a6,a5,t1
    2234:	00651333          	sll	t1,a0,t1
    2238:	01c86833          	or	a6,a6,t3
    223c:	00603333          	snez	t1,t1
    2240:	00686533          	or	a0,a6,t1
    2244:	00b7d5b3          	srl	a1,a5,a1
    2248:	40a60533          	sub	a0,a2,a0
    224c:	40b705b3          	sub	a1,a4,a1
    2250:	00a63633          	sltu	a2,a2,a0
    2254:	40c587b3          	sub	a5,a1,a2
    2258:	00088913          	mv	s2,a7
    225c:	00068493          	mv	s1,a3
    2260:	ee1ff06f          	j	2140 <__subdf3+0x3b0>
    2264:	fe058813          	add	a6,a1,-32 # 7fffe0 <_end+0x7ead7c>
    2268:	02000e13          	li	t3,32
    226c:	0107d833          	srl	a6,a5,a6
    2270:	00000313          	li	t1,0
    2274:	01c58863          	beq	a1,t3,2284 <__subdf3+0x4f4>
    2278:	04000313          	li	t1,64
    227c:	40b30333          	sub	t1,t1,a1
    2280:	00679333          	sll	t1,a5,t1
    2284:	00a36333          	or	t1,t1,a0
    2288:	00603333          	snez	t1,t1
    228c:	00686533          	or	a0,a6,t1
    2290:	00000593          	li	a1,0
    2294:	fb5ff06f          	j	2248 <__subdf3+0x4b8>
    2298:	00a7e533          	or	a0,a5,a0
    229c:	00a03533          	snez	a0,a0
    22a0:	ff1ff06f          	j	2290 <__subdf3+0x500>
    22a4:	00190593          	add	a1,s2,1
    22a8:	7fe5f593          	and	a1,a1,2046
    22ac:	08059663          	bnez	a1,2338 <__subdf3+0x5a8>
    22b0:	00c765b3          	or	a1,a4,a2
    22b4:	00a7e833          	or	a6,a5,a0
    22b8:	06091063          	bnez	s2,2318 <__subdf3+0x588>
    22bc:	00081c63          	bnez	a6,22d4 <__subdf3+0x544>
    22c0:	10058e63          	beqz	a1,23dc <__subdf3+0x64c>
    22c4:	00070793          	mv	a5,a4
    22c8:	00060513          	mv	a0,a2
    22cc:	00068493          	mv	s1,a3
    22d0:	d75ff06f          	j	2044 <__subdf3+0x2b4>
    22d4:	d60588e3          	beqz	a1,2044 <__subdf3+0x2b4>
    22d8:	40c50833          	sub	a6,a0,a2
    22dc:	010538b3          	sltu	a7,a0,a6
    22e0:	40e785b3          	sub	a1,a5,a4
    22e4:	411585b3          	sub	a1,a1,a7
    22e8:	00859893          	sll	a7,a1,0x8
    22ec:	0008dc63          	bgez	a7,2304 <__subdf3+0x574>
    22f0:	40a60533          	sub	a0,a2,a0
    22f4:	40f70733          	sub	a4,a4,a5
    22f8:	00a63633          	sltu	a2,a2,a0
    22fc:	40c707b3          	sub	a5,a4,a2
    2300:	fcdff06f          	j	22cc <__subdf3+0x53c>
    2304:	00b86533          	or	a0,a6,a1
    2308:	18050463          	beqz	a0,2490 <__subdf3+0x700>
    230c:	00058793          	mv	a5,a1
    2310:	00080513          	mv	a0,a6
    2314:	d31ff06f          	j	2044 <__subdf3+0x2b4>
    2318:	00081c63          	bnez	a6,2330 <__subdf3+0x5a0>
    231c:	d4058ee3          	beqz	a1,2078 <__subdf3+0x2e8>
    2320:	00070793          	mv	a5,a4
    2324:	00060513          	mv	a0,a2
    2328:	00068493          	mv	s1,a3
    232c:	b1dff06f          	j	1e48 <__subdf3+0xb8>
    2330:	b0058ce3          	beqz	a1,1e48 <__subdf3+0xb8>
    2334:	d45ff06f          	j	2078 <__subdf3+0x2e8>
    2338:	40c505b3          	sub	a1,a0,a2
    233c:	00b53833          	sltu	a6,a0,a1
    2340:	40e78433          	sub	s0,a5,a4
    2344:	41040433          	sub	s0,s0,a6
    2348:	00841813          	sll	a6,s0,0x8
    234c:	00058993          	mv	s3,a1
    2350:	08085063          	bgez	a6,23d0 <__subdf3+0x640>
    2354:	40a609b3          	sub	s3,a2,a0
    2358:	40f70433          	sub	s0,a4,a5
    235c:	01363633          	sltu	a2,a2,s3
    2360:	40c40433          	sub	s0,s0,a2
    2364:	00068493          	mv	s1,a3
    2368:	06040e63          	beqz	s0,23e4 <__subdf3+0x654>
    236c:	00040513          	mv	a0,s0
    2370:	795020ef          	jal	5304 <__clzsi2>
    2374:	ff850693          	add	a3,a0,-8
    2378:	02000793          	li	a5,32
    237c:	40d787b3          	sub	a5,a5,a3
    2380:	00d41433          	sll	s0,s0,a3
    2384:	00f9d7b3          	srl	a5,s3,a5
    2388:	0087e7b3          	or	a5,a5,s0
    238c:	00d99433          	sll	s0,s3,a3
    2390:	0b26c463          	blt	a3,s2,2438 <__subdf3+0x6a8>
    2394:	412686b3          	sub	a3,a3,s2
    2398:	00168613          	add	a2,a3,1
    239c:	01f00713          	li	a4,31
    23a0:	06c74263          	blt	a4,a2,2404 <__subdf3+0x674>
    23a4:	02000713          	li	a4,32
    23a8:	40c70733          	sub	a4,a4,a2
    23ac:	00e79533          	sll	a0,a5,a4
    23b0:	00c456b3          	srl	a3,s0,a2
    23b4:	00e41733          	sll	a4,s0,a4
    23b8:	00d56533          	or	a0,a0,a3
    23bc:	00e03733          	snez	a4,a4
    23c0:	00e56533          	or	a0,a0,a4
    23c4:	00c7d7b3          	srl	a5,a5,a2
    23c8:	00000913          	li	s2,0
    23cc:	c79ff06f          	j	2044 <__subdf3+0x2b4>
    23d0:	0085e5b3          	or	a1,a1,s0
    23d4:	f8059ae3          	bnez	a1,2368 <__subdf3+0x5d8>
    23d8:	00000913          	li	s2,0
    23dc:	00000493          	li	s1,0
    23e0:	08c0006f          	j	246c <__subdf3+0x6dc>
    23e4:	00098513          	mv	a0,s3
    23e8:	71d020ef          	jal	5304 <__clzsi2>
    23ec:	01850693          	add	a3,a0,24
    23f0:	01f00793          	li	a5,31
    23f4:	f8d7d2e3          	bge	a5,a3,2378 <__subdf3+0x5e8>
    23f8:	ff850793          	add	a5,a0,-8
    23fc:	00f997b3          	sll	a5,s3,a5
    2400:	f91ff06f          	j	2390 <__subdf3+0x600>
    2404:	fe168693          	add	a3,a3,-31
    2408:	00d7d533          	srl	a0,a5,a3
    240c:	02000693          	li	a3,32
    2410:	00000713          	li	a4,0
    2414:	00d60863          	beq	a2,a3,2424 <__subdf3+0x694>
    2418:	04000713          	li	a4,64
    241c:	40c70733          	sub	a4,a4,a2
    2420:	00e79733          	sll	a4,a5,a4
    2424:	00e46733          	or	a4,s0,a4
    2428:	00e03733          	snez	a4,a4
    242c:	00e56533          	or	a0,a0,a4
    2430:	00000793          	li	a5,0
    2434:	f95ff06f          	j	23c8 <__subdf3+0x638>
    2438:	ff800737          	lui	a4,0xff800
    243c:	fff70713          	add	a4,a4,-1 # ff7fffff <_end+0xff7ead9b>
    2440:	40d90933          	sub	s2,s2,a3
    2444:	00e7f7b3          	and	a5,a5,a4
    2448:	00040513          	mv	a0,s0
    244c:	bf9ff06f          	j	2044 <__subdf3+0x2b4>
    2450:	00070793          	mv	a5,a4
    2454:	00060513          	mv	a0,a2
    2458:	c5dff06f          	j	20b4 <__subdf3+0x324>
    245c:	00070793          	mv	a5,a4
    2460:	00060513          	mv	a0,a2
    2464:	be1ff06f          	j	2044 <__subdf3+0x2b4>
    2468:	7ff00913          	li	s2,2047
    246c:	00000793          	li	a5,0
    2470:	00000513          	li	a0,0
    2474:	0240006f          	j	2498 <__subdf3+0x708>
    2478:	00080913          	mv	s2,a6
    247c:	bc9ff06f          	j	2044 <__subdf3+0x2b4>
    2480:	00070793          	mv	a5,a4
    2484:	00060513          	mv	a0,a2
    2488:	00080913          	mv	s2,a6
    248c:	e41ff06f          	j	22cc <__subdf3+0x53c>
    2490:	00000793          	li	a5,0
    2494:	00000493          	li	s1,0
    2498:	00879713          	sll	a4,a5,0x8
    249c:	00075e63          	bgez	a4,24b8 <__subdf3+0x728>
    24a0:	00190913          	add	s2,s2,1
    24a4:	7ff00713          	li	a4,2047
    24a8:	08e90263          	beq	s2,a4,252c <__subdf3+0x79c>
    24ac:	ff800737          	lui	a4,0xff800
    24b0:	fff70713          	add	a4,a4,-1 # ff7fffff <_end+0xff7ead9b>
    24b4:	00e7f7b3          	and	a5,a5,a4
    24b8:	01d79693          	sll	a3,a5,0x1d
    24bc:	00355513          	srl	a0,a0,0x3
    24c0:	7ff00713          	li	a4,2047
    24c4:	00a6e6b3          	or	a3,a3,a0
    24c8:	0037d793          	srl	a5,a5,0x3
    24cc:	00e91e63          	bne	s2,a4,24e8 <__subdf3+0x758>
    24d0:	00f6e6b3          	or	a3,a3,a5
    24d4:	00000793          	li	a5,0
    24d8:	00068863          	beqz	a3,24e8 <__subdf3+0x758>
    24dc:	000807b7          	lui	a5,0x80
    24e0:	00000693          	li	a3,0
    24e4:	00000493          	li	s1,0
    24e8:	01491713          	sll	a4,s2,0x14
    24ec:	7ff00637          	lui	a2,0x7ff00
    24f0:	00c79793          	sll	a5,a5,0xc
    24f4:	00c77733          	and	a4,a4,a2
    24f8:	01c12083          	lw	ra,28(sp)
    24fc:	01812403          	lw	s0,24(sp)
    2500:	00c7d793          	srl	a5,a5,0xc
    2504:	00f767b3          	or	a5,a4,a5
    2508:	01f49713          	sll	a4,s1,0x1f
    250c:	00e7e633          	or	a2,a5,a4
    2510:	01412483          	lw	s1,20(sp)
    2514:	01012903          	lw	s2,16(sp)
    2518:	00c12983          	lw	s3,12(sp)
    251c:	00068513          	mv	a0,a3
    2520:	00060593          	mv	a1,a2
    2524:	02010113          	add	sp,sp,32
    2528:	00008067          	ret
    252c:	00000793          	li	a5,0
    2530:	00000513          	li	a0,0
    2534:	f85ff06f          	j	24b8 <__subdf3+0x728>

00002538 <__fixdfsi>:
    2538:	0145d713          	srl	a4,a1,0x14
    253c:	001006b7          	lui	a3,0x100
    2540:	fff68793          	add	a5,a3,-1 # fffff <_end+0xead9b>
    2544:	7ff77713          	and	a4,a4,2047
    2548:	3fe00613          	li	a2,1022
    254c:	00b7f7b3          	and	a5,a5,a1
    2550:	01f5d593          	srl	a1,a1,0x1f
    2554:	04e65e63          	bge	a2,a4,25b0 <__fixdfsi+0x78>
    2558:	41d00613          	li	a2,1053
    255c:	00e65a63          	bge	a2,a4,2570 <__fixdfsi+0x38>
    2560:	80000537          	lui	a0,0x80000
    2564:	fff50513          	add	a0,a0,-1 # 7fffffff <_end+0x7ffead9b>
    2568:	00a58533          	add	a0,a1,a0
    256c:	00008067          	ret
    2570:	00d7e7b3          	or	a5,a5,a3
    2574:	43300693          	li	a3,1075
    2578:	40e686b3          	sub	a3,a3,a4
    257c:	01f00613          	li	a2,31
    2580:	02d64063          	blt	a2,a3,25a0 <__fixdfsi+0x68>
    2584:	bed70713          	add	a4,a4,-1043
    2588:	00e797b3          	sll	a5,a5,a4
    258c:	00d55533          	srl	a0,a0,a3
    2590:	00a7e533          	or	a0,a5,a0
    2594:	02058063          	beqz	a1,25b4 <__fixdfsi+0x7c>
    2598:	40a00533          	neg	a0,a0
    259c:	00008067          	ret
    25a0:	41300693          	li	a3,1043
    25a4:	40e68733          	sub	a4,a3,a4
    25a8:	00e7d533          	srl	a0,a5,a4
    25ac:	fe9ff06f          	j	2594 <__fixdfsi+0x5c>
    25b0:	00000513          	li	a0,0
    25b4:	00008067          	ret

000025b8 <__floatsidf>:
    25b8:	ff010113          	add	sp,sp,-16
    25bc:	00112623          	sw	ra,12(sp)
    25c0:	00812423          	sw	s0,8(sp)
    25c4:	00912223          	sw	s1,4(sp)
    25c8:	08050663          	beqz	a0,2654 <__floatsidf+0x9c>
    25cc:	41f55793          	sra	a5,a0,0x1f
    25d0:	00a7c433          	xor	s0,a5,a0
    25d4:	40f40433          	sub	s0,s0,a5
    25d8:	01f55493          	srl	s1,a0,0x1f
    25dc:	00040513          	mv	a0,s0
    25e0:	525020ef          	jal	5304 <__clzsi2>
    25e4:	41e00713          	li	a4,1054
    25e8:	00a00793          	li	a5,10
    25ec:	40a70733          	sub	a4,a4,a0
    25f0:	04a7c863          	blt	a5,a0,2640 <__floatsidf+0x88>
    25f4:	00b00793          	li	a5,11
    25f8:	40a787b3          	sub	a5,a5,a0
    25fc:	01550513          	add	a0,a0,21
    2600:	00f457b3          	srl	a5,s0,a5
    2604:	00a41433          	sll	s0,s0,a0
    2608:	00048513          	mv	a0,s1
    260c:	00c79793          	sll	a5,a5,0xc
    2610:	00c7d793          	srl	a5,a5,0xc
    2614:	01471713          	sll	a4,a4,0x14
    2618:	01f51513          	sll	a0,a0,0x1f
    261c:	00f76733          	or	a4,a4,a5
    2620:	00c12083          	lw	ra,12(sp)
    2624:	00a767b3          	or	a5,a4,a0
    2628:	00040513          	mv	a0,s0
    262c:	00812403          	lw	s0,8(sp)
    2630:	00412483          	lw	s1,4(sp)
    2634:	00078593          	mv	a1,a5
    2638:	01010113          	add	sp,sp,16
    263c:	00008067          	ret
    2640:	ff550513          	add	a0,a0,-11
    2644:	00a417b3          	sll	a5,s0,a0
    2648:	00048513          	mv	a0,s1
    264c:	00000413          	li	s0,0
    2650:	fbdff06f          	j	260c <__floatsidf+0x54>
    2654:	00000713          	li	a4,0
    2658:	00000793          	li	a5,0
    265c:	ff1ff06f          	j	264c <__floatsidf+0x94>

00002660 <__eqtf2>:
    2660:	00c52783          	lw	a5,12(a0)
    2664:	0005af03          	lw	t5,0(a1)
    2668:	0045af83          	lw	t6,4(a1)
    266c:	0085a283          	lw	t0,8(a1)
    2670:	00c5a583          	lw	a1,12(a1)
    2674:	00008737          	lui	a4,0x8
    2678:	0107d693          	srl	a3,a5,0x10
    267c:	fff70713          	add	a4,a4,-1 # 7fff <_vfprintf_r+0xc13>
    2680:	01079813          	sll	a6,a5,0x10
    2684:	01059e93          	sll	t4,a1,0x10
    2688:	01f7d613          	srl	a2,a5,0x1f
    268c:	00e6f6b3          	and	a3,a3,a4
    2690:	0105d793          	srl	a5,a1,0x10
    2694:	00052883          	lw	a7,0(a0)
    2698:	00452303          	lw	t1,4(a0)
    269c:	00852e03          	lw	t3,8(a0)
    26a0:	ff010113          	add	sp,sp,-16
    26a4:	01085813          	srl	a6,a6,0x10
    26a8:	010ede93          	srl	t4,t4,0x10
    26ac:	00e7f7b3          	and	a5,a5,a4
    26b0:	01f5d593          	srl	a1,a1,0x1f
    26b4:	02e69063          	bne	a3,a4,26d4 <__eqtf2+0x74>
    26b8:	0068e733          	or	a4,a7,t1
    26bc:	01c76733          	or	a4,a4,t3
    26c0:	01076733          	or	a4,a4,a6
    26c4:	00100513          	li	a0,1
    26c8:	04071a63          	bnez	a4,271c <__eqtf2+0xbc>
    26cc:	04d79863          	bne	a5,a3,271c <__eqtf2+0xbc>
    26d0:	0080006f          	j	26d8 <__eqtf2+0x78>
    26d4:	00e79c63          	bne	a5,a4,26ec <__eqtf2+0x8c>
    26d8:	01ff6733          	or	a4,t5,t6
    26dc:	00576733          	or	a4,a4,t0
    26e0:	01d76733          	or	a4,a4,t4
    26e4:	00100513          	li	a0,1
    26e8:	02071a63          	bnez	a4,271c <__eqtf2+0xbc>
    26ec:	00100513          	li	a0,1
    26f0:	02d79663          	bne	a5,a3,271c <__eqtf2+0xbc>
    26f4:	03e89463          	bne	a7,t5,271c <__eqtf2+0xbc>
    26f8:	03f31263          	bne	t1,t6,271c <__eqtf2+0xbc>
    26fc:	025e1063          	bne	t3,t0,271c <__eqtf2+0xbc>
    2700:	01d81e63          	bne	a6,t4,271c <__eqtf2+0xbc>
    2704:	02b60063          	beq	a2,a1,2724 <__eqtf2+0xc4>
    2708:	00079a63          	bnez	a5,271c <__eqtf2+0xbc>
    270c:	0068e533          	or	a0,a7,t1
    2710:	01c56533          	or	a0,a0,t3
    2714:	01056533          	or	a0,a0,a6
    2718:	00a03533          	snez	a0,a0
    271c:	01010113          	add	sp,sp,16
    2720:	00008067          	ret
    2724:	00000513          	li	a0,0
    2728:	ff5ff06f          	j	271c <__eqtf2+0xbc>

0000272c <__getf2>:
    272c:	00c52783          	lw	a5,12(a0)
    2730:	00c5a683          	lw	a3,12(a1)
    2734:	00008737          	lui	a4,0x8
    2738:	0107d613          	srl	a2,a5,0x10
    273c:	fff70713          	add	a4,a4,-1 # 7fff <_vfprintf_r+0xc13>
    2740:	01079813          	sll	a6,a5,0x10
    2744:	01069293          	sll	t0,a3,0x10
    2748:	00052883          	lw	a7,0(a0)
    274c:	00452303          	lw	t1,4(a0)
    2750:	00852e03          	lw	t3,8(a0)
    2754:	00e67633          	and	a2,a2,a4
    2758:	0106d513          	srl	a0,a3,0x10
    275c:	0005ae83          	lw	t4,0(a1)
    2760:	0045af03          	lw	t5,4(a1)
    2764:	0085af83          	lw	t6,8(a1)
    2768:	ff010113          	add	sp,sp,-16
    276c:	01085813          	srl	a6,a6,0x10
    2770:	01f7d793          	srl	a5,a5,0x1f
    2774:	0102d293          	srl	t0,t0,0x10
    2778:	00e57533          	and	a0,a0,a4
    277c:	01f6d693          	srl	a3,a3,0x1f
    2780:	00e61a63          	bne	a2,a4,2794 <__getf2+0x68>
    2784:	01136733          	or	a4,t1,a7
    2788:	01c76733          	or	a4,a4,t3
    278c:	01076733          	or	a4,a4,a6
    2790:	0a071463          	bnez	a4,2838 <__getf2+0x10c>
    2794:	00008737          	lui	a4,0x8
    2798:	fff70713          	add	a4,a4,-1 # 7fff <_vfprintf_r+0xc13>
    279c:	00e51a63          	bne	a0,a4,27b0 <__getf2+0x84>
    27a0:	01eee733          	or	a4,t4,t5
    27a4:	01f76733          	or	a4,a4,t6
    27a8:	00576733          	or	a4,a4,t0
    27ac:	08071663          	bnez	a4,2838 <__getf2+0x10c>
    27b0:	00000713          	li	a4,0
    27b4:	00061a63          	bnez	a2,27c8 <__getf2+0x9c>
    27b8:	01136733          	or	a4,t1,a7
    27bc:	01c76733          	or	a4,a4,t3
    27c0:	01076733          	or	a4,a4,a6
    27c4:	00173713          	seqz	a4,a4
    27c8:	06051c63          	bnez	a0,2840 <__getf2+0x114>
    27cc:	01eee5b3          	or	a1,t4,t5
    27d0:	01f5e5b3          	or	a1,a1,t6
    27d4:	0055e5b3          	or	a1,a1,t0
    27d8:	00070c63          	beqz	a4,27f0 <__getf2+0xc4>
    27dc:	02058063          	beqz	a1,27fc <__getf2+0xd0>
    27e0:	00100513          	li	a0,1
    27e4:	00069c63          	bnez	a3,27fc <__getf2+0xd0>
    27e8:	fff00513          	li	a0,-1
    27ec:	0100006f          	j	27fc <__getf2+0xd0>
    27f0:	04059a63          	bnez	a1,2844 <__getf2+0x118>
    27f4:	fff00513          	li	a0,-1
    27f8:	04078e63          	beqz	a5,2854 <__getf2+0x128>
    27fc:	01010113          	add	sp,sp,16
    2800:	00008067          	ret
    2804:	fca64ee3          	blt	a2,a0,27e0 <__getf2+0xb4>
    2808:	ff02e6e3          	bltu	t0,a6,27f4 <__getf2+0xc8>
    280c:	02581063          	bne	a6,t0,282c <__getf2+0x100>
    2810:	ffcfe2e3          	bltu	t6,t3,27f4 <__getf2+0xc8>
    2814:	01fe1c63          	bne	t3,t6,282c <__getf2+0x100>
    2818:	fc6f6ee3          	bltu	t5,t1,27f4 <__getf2+0xc8>
    281c:	01e31863          	bne	t1,t5,282c <__getf2+0x100>
    2820:	fd1eeae3          	bltu	t4,a7,27f4 <__getf2+0xc8>
    2824:	00000513          	li	a0,0
    2828:	fdd8fae3          	bgeu	a7,t4,27fc <__getf2+0xd0>
    282c:	00100513          	li	a0,1
    2830:	fc0796e3          	bnez	a5,27fc <__getf2+0xd0>
    2834:	fb5ff06f          	j	27e8 <__getf2+0xbc>
    2838:	ffe00513          	li	a0,-2
    283c:	fc1ff06f          	j	27fc <__getf2+0xd0>
    2840:	fa0710e3          	bnez	a4,27e0 <__getf2+0xb4>
    2844:	faf698e3          	bne	a3,a5,27f4 <__getf2+0xc8>
    2848:	fac55ee3          	bge	a0,a2,2804 <__getf2+0xd8>
    284c:	fff00513          	li	a0,-1
    2850:	fa0696e3          	bnez	a3,27fc <__getf2+0xd0>
    2854:	00100513          	li	a0,1
    2858:	fa5ff06f          	j	27fc <__getf2+0xd0>

0000285c <__letf2>:
    285c:	00c52783          	lw	a5,12(a0)
    2860:	00c5a683          	lw	a3,12(a1)
    2864:	00008737          	lui	a4,0x8
    2868:	0107d613          	srl	a2,a5,0x10
    286c:	fff70713          	add	a4,a4,-1 # 7fff <_vfprintf_r+0xc13>
    2870:	01079813          	sll	a6,a5,0x10
    2874:	01069293          	sll	t0,a3,0x10
    2878:	00052883          	lw	a7,0(a0)
    287c:	00452303          	lw	t1,4(a0)
    2880:	00852e03          	lw	t3,8(a0)
    2884:	00e67633          	and	a2,a2,a4
    2888:	0106d513          	srl	a0,a3,0x10
    288c:	0005ae83          	lw	t4,0(a1)
    2890:	0045af03          	lw	t5,4(a1)
    2894:	0085af83          	lw	t6,8(a1)
    2898:	ff010113          	add	sp,sp,-16
    289c:	01085813          	srl	a6,a6,0x10
    28a0:	01f7d793          	srl	a5,a5,0x1f
    28a4:	0102d293          	srl	t0,t0,0x10
    28a8:	00e57533          	and	a0,a0,a4
    28ac:	01f6d693          	srl	a3,a3,0x1f
    28b0:	00e61a63          	bne	a2,a4,28c4 <__letf2+0x68>
    28b4:	01136733          	or	a4,t1,a7
    28b8:	01c76733          	or	a4,a4,t3
    28bc:	01076733          	or	a4,a4,a6
    28c0:	0a071463          	bnez	a4,2968 <__letf2+0x10c>
    28c4:	00008737          	lui	a4,0x8
    28c8:	fff70713          	add	a4,a4,-1 # 7fff <_vfprintf_r+0xc13>
    28cc:	00e51a63          	bne	a0,a4,28e0 <__letf2+0x84>
    28d0:	01eee733          	or	a4,t4,t5
    28d4:	01f76733          	or	a4,a4,t6
    28d8:	00576733          	or	a4,a4,t0
    28dc:	08071663          	bnez	a4,2968 <__letf2+0x10c>
    28e0:	00000713          	li	a4,0
    28e4:	00061a63          	bnez	a2,28f8 <__letf2+0x9c>
    28e8:	01136733          	or	a4,t1,a7
    28ec:	01c76733          	or	a4,a4,t3
    28f0:	01076733          	or	a4,a4,a6
    28f4:	00173713          	seqz	a4,a4
    28f8:	06051c63          	bnez	a0,2970 <__letf2+0x114>
    28fc:	01eee5b3          	or	a1,t4,t5
    2900:	01f5e5b3          	or	a1,a1,t6
    2904:	0055e5b3          	or	a1,a1,t0
    2908:	00070c63          	beqz	a4,2920 <__letf2+0xc4>
    290c:	02058063          	beqz	a1,292c <__letf2+0xd0>
    2910:	00100513          	li	a0,1
    2914:	00069c63          	bnez	a3,292c <__letf2+0xd0>
    2918:	fff00513          	li	a0,-1
    291c:	0100006f          	j	292c <__letf2+0xd0>
    2920:	04059a63          	bnez	a1,2974 <__letf2+0x118>
    2924:	fff00513          	li	a0,-1
    2928:	04078e63          	beqz	a5,2984 <__letf2+0x128>
    292c:	01010113          	add	sp,sp,16
    2930:	00008067          	ret
    2934:	fca64ee3          	blt	a2,a0,2910 <__letf2+0xb4>
    2938:	ff02e6e3          	bltu	t0,a6,2924 <__letf2+0xc8>
    293c:	02581063          	bne	a6,t0,295c <__letf2+0x100>
    2940:	ffcfe2e3          	bltu	t6,t3,2924 <__letf2+0xc8>
    2944:	01fe1c63          	bne	t3,t6,295c <__letf2+0x100>
    2948:	fc6f6ee3          	bltu	t5,t1,2924 <__letf2+0xc8>
    294c:	01e31863          	bne	t1,t5,295c <__letf2+0x100>
    2950:	fd1eeae3          	bltu	t4,a7,2924 <__letf2+0xc8>
    2954:	00000513          	li	a0,0
    2958:	fdd8fae3          	bgeu	a7,t4,292c <__letf2+0xd0>
    295c:	00100513          	li	a0,1
    2960:	fc0796e3          	bnez	a5,292c <__letf2+0xd0>
    2964:	fb5ff06f          	j	2918 <__letf2+0xbc>
    2968:	00200513          	li	a0,2
    296c:	fc1ff06f          	j	292c <__letf2+0xd0>
    2970:	fa0710e3          	bnez	a4,2910 <__letf2+0xb4>
    2974:	faf698e3          	bne	a3,a5,2924 <__letf2+0xc8>
    2978:	fac55ee3          	bge	a0,a2,2934 <__letf2+0xd8>
    297c:	fff00513          	li	a0,-1
    2980:	fa0696e3          	bnez	a3,292c <__letf2+0xd0>
    2984:	00100513          	li	a0,1
    2988:	fa5ff06f          	j	292c <__letf2+0xd0>

0000298c <__multf3>:
    298c:	f5010113          	add	sp,sp,-176
    2990:	09412c23          	sw	s4,152(sp)
    2994:	00c5aa03          	lw	s4,12(a1)
    2998:	0005a783          	lw	a5,0(a1)
    299c:	0085a683          	lw	a3,8(a1)
    29a0:	0a812423          	sw	s0,168(sp)
    29a4:	00050413          	mv	s0,a0
    29a8:	0045a503          	lw	a0,4(a1)
    29ac:	010a1713          	sll	a4,s4,0x10
    29b0:	0b212023          	sw	s2,160(sp)
    29b4:	09312e23          	sw	s3,156(sp)
    29b8:	00062903          	lw	s2,0(a2) # 7ff00000 <_end+0x7feead9c>
    29bc:	00c62983          	lw	s3,12(a2)
    29c0:	09512a23          	sw	s5,148(sp)
    29c4:	09612823          	sw	s6,144(sp)
    29c8:	00862a83          	lw	s5,8(a2)
    29cc:	00462b03          	lw	s6,4(a2)
    29d0:	00008637          	lui	a2,0x8
    29d4:	0a912223          	sw	s1,164(sp)
    29d8:	01075713          	srl	a4,a4,0x10
    29dc:	010a5493          	srl	s1,s4,0x10
    29e0:	fff60613          	add	a2,a2,-1 # 7fff <_vfprintf_r+0xc13>
    29e4:	05412e23          	sw	s4,92(sp)
    29e8:	0a112623          	sw	ra,172(sp)
    29ec:	09712623          	sw	s7,140(sp)
    29f0:	09812423          	sw	s8,136(sp)
    29f4:	09912223          	sw	s9,132(sp)
    29f8:	09a12023          	sw	s10,128(sp)
    29fc:	07b12e23          	sw	s11,124(sp)
    2a00:	04f12823          	sw	a5,80(sp)
    2a04:	04a12a23          	sw	a0,84(sp)
    2a08:	04d12c23          	sw	a3,88(sp)
    2a0c:	02f12023          	sw	a5,32(sp)
    2a10:	02a12223          	sw	a0,36(sp)
    2a14:	02d12423          	sw	a3,40(sp)
    2a18:	02e12623          	sw	a4,44(sp)
    2a1c:	00c4f4b3          	and	s1,s1,a2
    2a20:	01fa5a13          	srl	s4,s4,0x1f
    2a24:	080482e3          	beqz	s1,32a8 <__multf3+0x91c>
    2a28:	1ac48ce3          	beq	s1,a2,33e0 <__multf3+0xa54>
    2a2c:	000106b7          	lui	a3,0x10
    2a30:	00d76733          	or	a4,a4,a3
    2a34:	02e12623          	sw	a4,44(sp)
    2a38:	02010593          	add	a1,sp,32
    2a3c:	02c10713          	add	a4,sp,44
    2a40:	00072683          	lw	a3,0(a4)
    2a44:	ffc72603          	lw	a2,-4(a4)
    2a48:	ffc70713          	add	a4,a4,-4
    2a4c:	00369693          	sll	a3,a3,0x3
    2a50:	01d65613          	srl	a2,a2,0x1d
    2a54:	00c6e6b3          	or	a3,a3,a2
    2a58:	00d72223          	sw	a3,4(a4)
    2a5c:	fee592e3          	bne	a1,a4,2a40 <__multf3+0xb4>
    2a60:	00379793          	sll	a5,a5,0x3
    2a64:	02f12023          	sw	a5,32(sp)
    2a68:	ffffc7b7          	lui	a5,0xffffc
    2a6c:	00178793          	add	a5,a5,1 # ffffc001 <_end+0xfffe6d9d>
    2a70:	00f484b3          	add	s1,s1,a5
    2a74:	00000b93          	li	s7,0
    2a78:	01099513          	sll	a0,s3,0x10
    2a7c:	00008737          	lui	a4,0x8
    2a80:	0109d793          	srl	a5,s3,0x10
    2a84:	01055513          	srl	a0,a0,0x10
    2a88:	fff70713          	add	a4,a4,-1 # 7fff <_vfprintf_r+0xc13>
    2a8c:	05312e23          	sw	s3,92(sp)
    2a90:	05212823          	sw	s2,80(sp)
    2a94:	05612a23          	sw	s6,84(sp)
    2a98:	05512c23          	sw	s5,88(sp)
    2a9c:	03212823          	sw	s2,48(sp)
    2aa0:	03612a23          	sw	s6,52(sp)
    2aa4:	03512c23          	sw	s5,56(sp)
    2aa8:	02a12e23          	sw	a0,60(sp)
    2aac:	00e7f7b3          	and	a5,a5,a4
    2ab0:	01f9d993          	srl	s3,s3,0x1f
    2ab4:	14078ae3          	beqz	a5,3408 <__multf3+0xa7c>
    2ab8:	28e784e3          	beq	a5,a4,3540 <__multf3+0xbb4>
    2abc:	00010737          	lui	a4,0x10
    2ac0:	00e56533          	or	a0,a0,a4
    2ac4:	02a12e23          	sw	a0,60(sp)
    2ac8:	03010593          	add	a1,sp,48
    2acc:	03c10713          	add	a4,sp,60
    2ad0:	00072683          	lw	a3,0(a4) # 10000 <_realloc_r+0x58>
    2ad4:	ffc72603          	lw	a2,-4(a4)
    2ad8:	ffc70713          	add	a4,a4,-4
    2adc:	00369693          	sll	a3,a3,0x3
    2ae0:	01d65613          	srl	a2,a2,0x1d
    2ae4:	00c6e6b3          	or	a3,a3,a2
    2ae8:	00d72223          	sw	a3,4(a4)
    2aec:	fee592e3          	bne	a1,a4,2ad0 <__multf3+0x144>
    2af0:	ffffc737          	lui	a4,0xffffc
    2af4:	00391913          	sll	s2,s2,0x3
    2af8:	00170713          	add	a4,a4,1 # ffffc001 <_end+0xfffe6d9d>
    2afc:	03212823          	sw	s2,48(sp)
    2b00:	00e787b3          	add	a5,a5,a4
    2b04:	00000693          	li	a3,0
    2b08:	009787b3          	add	a5,a5,s1
    2b0c:	00f12623          	sw	a5,12(sp)
    2b10:	00178793          	add	a5,a5,1
    2b14:	00f12423          	sw	a5,8(sp)
    2b18:	002b9793          	sll	a5,s7,0x2
    2b1c:	00d7e7b3          	or	a5,a5,a3
    2b20:	00a00713          	li	a4,10
    2b24:	28f742e3          	blt	a4,a5,35a8 <__multf3+0xc1c>
    2b28:	013a4733          	xor	a4,s4,s3
    2b2c:	00e12223          	sw	a4,4(sp)
    2b30:	00200713          	li	a4,2
    2b34:	22f74ae3          	blt	a4,a5,3568 <__multf3+0xbdc>
    2b38:	fff78793          	add	a5,a5,-1
    2b3c:	00100713          	li	a4,1
    2b40:	28f770e3          	bgeu	a4,a5,35c0 <__multf3+0xc34>
    2b44:	02012883          	lw	a7,32(sp)
    2b48:	03012f03          	lw	t5,48(sp)
    2b4c:	000105b7          	lui	a1,0x10
    2b50:	fff58713          	add	a4,a1,-1 # ffff <_realloc_r+0x57>
    2b54:	0108d913          	srl	s2,a7,0x10
    2b58:	010f5493          	srl	s1,t5,0x10
    2b5c:	00e8f8b3          	and	a7,a7,a4
    2b60:	00ef7f33          	and	t5,t5,a4
    2b64:	031f0633          	mul	a2,t5,a7
    2b68:	03e90533          	mul	a0,s2,t5
    2b6c:	01065793          	srl	a5,a2,0x10
    2b70:	031486b3          	mul	a3,s1,a7
    2b74:	00a686b3          	add	a3,a3,a0
    2b78:	00d787b3          	add	a5,a5,a3
    2b7c:	02990bb3          	mul	s7,s2,s1
    2b80:	00a7f463          	bgeu	a5,a0,2b88 <__multf3+0x1fc>
    2b84:	00bb8bb3          	add	s7,s7,a1
    2b88:	03412e83          	lw	t4,52(sp)
    2b8c:	0107d693          	srl	a3,a5,0x10
    2b90:	00e7f7b3          	and	a5,a5,a4
    2b94:	00e67633          	and	a2,a2,a4
    2b98:	01079793          	sll	a5,a5,0x10
    2b9c:	00c787b3          	add	a5,a5,a2
    2ba0:	010ed293          	srl	t0,t4,0x10
    2ba4:	00eefeb3          	and	t4,t4,a4
    2ba8:	03d90633          	mul	a2,s2,t4
    2bac:	00f12823          	sw	a5,16(sp)
    2bb0:	04f12823          	sw	a5,80(sp)
    2bb4:	03128733          	mul	a4,t0,a7
    2bb8:	031e87b3          	mul	a5,t4,a7
    2bbc:	00c70733          	add	a4,a4,a2
    2bc0:	0107d313          	srl	t1,a5,0x10
    2bc4:	00e30333          	add	t1,t1,a4
    2bc8:	02590b33          	mul	s6,s2,t0
    2bcc:	00c37663          	bgeu	t1,a2,2bd8 <__multf3+0x24c>
    2bd0:	00010737          	lui	a4,0x10
    2bd4:	00eb0b33          	add	s6,s6,a4
    2bd8:	02412803          	lw	a6,36(sp)
    2bdc:	00010737          	lui	a4,0x10
    2be0:	fff70613          	add	a2,a4,-1 # ffff <_realloc_r+0x57>
    2be4:	01035513          	srl	a0,t1,0x10
    2be8:	00c37333          	and	t1,t1,a2
    2bec:	00c7f7b3          	and	a5,a5,a2
    2bf0:	01085393          	srl	t2,a6,0x10
    2bf4:	01031313          	sll	t1,t1,0x10
    2bf8:	00c87833          	and	a6,a6,a2
    2bfc:	00f30333          	add	t1,t1,a5
    2c00:	03e38fb3          	mul	t6,t2,t5
    2c04:	006686b3          	add	a3,a3,t1
    2c08:	03e807b3          	mul	a5,a6,t5
    2c0c:	03048e33          	mul	t3,s1,a6
    2c10:	0107d613          	srl	a2,a5,0x10
    2c14:	01fe0e33          	add	t3,t3,t6
    2c18:	01c60633          	add	a2,a2,t3
    2c1c:	027485b3          	mul	a1,s1,t2
    2c20:	01f67463          	bgeu	a2,t6,2c28 <__multf3+0x29c>
    2c24:	00e585b3          	add	a1,a1,a4
    2c28:	01065a93          	srl	s5,a2,0x10
    2c2c:	00010737          	lui	a4,0x10
    2c30:	00ba8ab3          	add	s5,s5,a1
    2c34:	fff70593          	add	a1,a4,-1 # ffff <_realloc_r+0x57>
    2c38:	00b7f7b3          	and	a5,a5,a1
    2c3c:	00b67633          	and	a2,a2,a1
    2c40:	01061613          	sll	a2,a2,0x10
    2c44:	030e85b3          	mul	a1,t4,a6
    2c48:	00f60633          	add	a2,a2,a5
    2c4c:	03d38fb3          	mul	t6,t2,t4
    2c50:	0105d793          	srl	a5,a1,0x10
    2c54:	03028e33          	mul	t3,t0,a6
    2c58:	01fe0e33          	add	t3,t3,t6
    2c5c:	01c787b3          	add	a5,a5,t3
    2c60:	027289b3          	mul	s3,t0,t2
    2c64:	01f7f463          	bgeu	a5,t6,2c6c <__multf3+0x2e0>
    2c68:	00e989b3          	add	s3,s3,a4
    2c6c:	0107d713          	srl	a4,a5,0x10
    2c70:	01370733          	add	a4,a4,s3
    2c74:	00010a37          	lui	s4,0x10
    2c78:	00e12a23          	sw	a4,20(sp)
    2c7c:	fffa0713          	add	a4,s4,-1 # ffff <_realloc_r+0x57>
    2c80:	03812e03          	lw	t3,56(sp)
    2c84:	00e7f7b3          	and	a5,a5,a4
    2c88:	00e5f5b3          	and	a1,a1,a4
    2c8c:	01079793          	sll	a5,a5,0x10
    2c90:	00b787b3          	add	a5,a5,a1
    2c94:	00f12c23          	sw	a5,24(sp)
    2c98:	010e5793          	srl	a5,t3,0x10
    2c9c:	00ee7e33          	and	t3,t3,a4
    2ca0:	031e05b3          	mul	a1,t3,a7
    2ca4:	03c90c33          	mul	s8,s2,t3
    2ca8:	0105d713          	srl	a4,a1,0x10
    2cac:	031789b3          	mul	s3,a5,a7
    2cb0:	018989b3          	add	s3,s3,s8
    2cb4:	01370733          	add	a4,a4,s3
    2cb8:	02f90fb3          	mul	t6,s2,a5
    2cbc:	01877463          	bgeu	a4,s8,2cc4 <__multf3+0x338>
    2cc0:	014f8fb3          	add	t6,t6,s4
    2cc4:	01075993          	srl	s3,a4,0x10
    2cc8:	00010cb7          	lui	s9,0x10
    2ccc:	01f98fb3          	add	t6,s3,t6
    2cd0:	fffc8993          	add	s3,s9,-1 # ffff <_realloc_r+0x57>
    2cd4:	01377733          	and	a4,a4,s3
    2cd8:	0135f5b3          	and	a1,a1,s3
    2cdc:	01071713          	sll	a4,a4,0x10
    2ce0:	00b70733          	add	a4,a4,a1
    2ce4:	02812583          	lw	a1,40(sp)
    2ce8:	01f12e23          	sw	t6,28(sp)
    2cec:	0105df93          	srl	t6,a1,0x10
    2cf0:	0135f5b3          	and	a1,a1,s3
    2cf4:	03e58a33          	mul	s4,a1,t5
    2cf8:	03ef8d33          	mul	s10,t6,t5
    2cfc:	010a5d93          	srl	s11,s4,0x10
    2d00:	02b489b3          	mul	s3,s1,a1
    2d04:	01a989b3          	add	s3,s3,s10
    2d08:	013d89b3          	add	s3,s11,s3
    2d0c:	03f48c33          	mul	s8,s1,t6
    2d10:	01a9f463          	bgeu	s3,s10,2d18 <__multf3+0x38c>
    2d14:	019c0c33          	add	s8,s8,s9
    2d18:	00db86b3          	add	a3,s7,a3
    2d1c:	0066b333          	sltu	t1,a3,t1
    2d20:	0109dd13          	srl	s10,s3,0x10
    2d24:	00650533          	add	a0,a0,t1
    2d28:	00010cb7          	lui	s9,0x10
    2d2c:	01650533          	add	a0,a0,s6
    2d30:	018d0d33          	add	s10,s10,s8
    2d34:	00c68633          	add	a2,a3,a2
    2d38:	fffc8c13          	add	s8,s9,-1 # ffff <_realloc_r+0x57>
    2d3c:	01550ab3          	add	s5,a0,s5
    2d40:	0189f9b3          	and	s3,s3,s8
    2d44:	00d636b3          	sltu	a3,a2,a3
    2d48:	00da86b3          	add	a3,s5,a3
    2d4c:	01099993          	sll	s3,s3,0x10
    2d50:	018a7a33          	and	s4,s4,s8
    2d54:	01498a33          	add	s4,s3,s4
    2d58:	00aab9b3          	sltu	s3,s5,a0
    2d5c:	0156bab3          	sltu	s5,a3,s5
    2d60:	0159e9b3          	or	s3,s3,s5
    2d64:	00653533          	sltu	a0,a0,t1
    2d68:	00a98533          	add	a0,s3,a0
    2d6c:	01812303          	lw	t1,24(sp)
    2d70:	01412983          	lw	s3,20(sp)
    2d74:	04c12a23          	sw	a2,84(sp)
    2d78:	00668333          	add	t1,a3,t1
    2d7c:	01350ab3          	add	s5,a0,s3
    2d80:	01c12983          	lw	s3,28(sp)
    2d84:	00d336b3          	sltu	a3,t1,a3
    2d88:	00da86b3          	add	a3,s5,a3
    2d8c:	00e30733          	add	a4,t1,a4
    2d90:	01368b33          	add	s6,a3,s3
    2d94:	00673333          	sltu	t1,a4,t1
    2d98:	006b0333          	add	t1,s6,t1
    2d9c:	01470a33          	add	s4,a4,s4
    2da0:	01a30d33          	add	s10,t1,s10
    2da4:	00ea3733          	sltu	a4,s4,a4
    2da8:	00aab533          	sltu	a0,s5,a0
    2dac:	00ed0733          	add	a4,s10,a4
    2db0:	0156bab3          	sltu	s5,a3,s5
    2db4:	00db36b3          	sltu	a3,s6,a3
    2db8:	01633b33          	sltu	s6,t1,s6
    2dbc:	0166e6b3          	or	a3,a3,s6
    2dc0:	006d39b3          	sltu	s3,s10,t1
    2dc4:	01556ab3          	or	s5,a0,s5
    2dc8:	01a73d33          	sltu	s10,a4,s10
    2dcc:	00da8ab3          	add	s5,s5,a3
    2dd0:	01a9e9b3          	or	s3,s3,s10
    2dd4:	015989b3          	add	s3,s3,s5
    2dd8:	03c12a83          	lw	s5,60(sp)
    2ddc:	05412c23          	sw	s4,88(sp)
    2de0:	010adb13          	srl	s6,s5,0x10
    2de4:	018afab3          	and	s5,s5,s8
    2de8:	031a86b3          	mul	a3,s5,a7
    2dec:	03590533          	mul	a0,s2,s5
    2df0:	031b08b3          	mul	a7,s6,a7
    2df4:	00a88333          	add	t1,a7,a0
    2df8:	0106d893          	srl	a7,a3,0x10
    2dfc:	006888b3          	add	a7,a7,t1
    2e00:	03690933          	mul	s2,s2,s6
    2e04:	00a8f463          	bgeu	a7,a0,2e0c <__multf3+0x480>
    2e08:	01990933          	add	s2,s2,s9
    2e0c:	02c12b83          	lw	s7,44(sp)
    2e10:	0108d513          	srl	a0,a7,0x10
    2e14:	01250533          	add	a0,a0,s2
    2e18:	00010c37          	lui	s8,0x10
    2e1c:	00a12a23          	sw	a0,20(sp)
    2e20:	fffc0513          	add	a0,s8,-1 # ffff <_realloc_r+0x57>
    2e24:	010bd913          	srl	s2,s7,0x10
    2e28:	00abfbb3          	and	s7,s7,a0
    2e2c:	00a6f6b3          	and	a3,a3,a0
    2e30:	00a8f8b3          	and	a7,a7,a0
    2e34:	03248333          	mul	t1,s1,s2
    2e38:	01089893          	sll	a7,a7,0x10
    2e3c:	00d888b3          	add	a7,a7,a3
    2e40:	03eb8533          	mul	a0,s7,t5
    2e44:	037484b3          	mul	s1,s1,s7
    2e48:	01055693          	srl	a3,a0,0x10
    2e4c:	03e90f33          	mul	t5,s2,t5
    2e50:	01e484b3          	add	s1,s1,t5
    2e54:	009686b3          	add	a3,a3,s1
    2e58:	01e6f463          	bgeu	a3,t5,2e60 <__multf3+0x4d4>
    2e5c:	01830333          	add	t1,t1,s8
    2e60:	0106df13          	srl	t5,a3,0x10
    2e64:	006f0333          	add	t1,t5,t1
    2e68:	00010cb7          	lui	s9,0x10
    2e6c:	00612c23          	sw	t1,24(sp)
    2e70:	fffc8313          	add	t1,s9,-1 # ffff <_realloc_r+0x57>
    2e74:	00657533          	and	a0,a0,t1
    2e78:	0066f6b3          	and	a3,a3,t1
    2e7c:	03c38f33          	mul	t5,t2,t3
    2e80:	01069693          	sll	a3,a3,0x10
    2e84:	00a686b3          	add	a3,a3,a0
    2e88:	03c80333          	mul	t1,a6,t3
    2e8c:	030784b3          	mul	s1,a5,a6
    2e90:	01035513          	srl	a0,t1,0x10
    2e94:	01e484b3          	add	s1,s1,t5
    2e98:	00950533          	add	a0,a0,s1
    2e9c:	02f38c33          	mul	s8,t2,a5
    2ea0:	01e57463          	bgeu	a0,t5,2ea8 <__multf3+0x51c>
    2ea4:	019c0c33          	add	s8,s8,s9
    2ea8:	00010d37          	lui	s10,0x10
    2eac:	fffd0f13          	add	t5,s10,-1 # ffff <_realloc_r+0x57>
    2eb0:	01055493          	srl	s1,a0,0x10
    2eb4:	01e57533          	and	a0,a0,t5
    2eb8:	01e37333          	and	t1,t1,t5
    2ebc:	01051513          	sll	a0,a0,0x10
    2ec0:	018484b3          	add	s1,s1,s8
    2ec4:	02b28f33          	mul	t5,t0,a1
    2ec8:	00650533          	add	a0,a0,t1
    2ecc:	03df8c33          	mul	s8,t6,t4
    2ed0:	02be8333          	mul	t1,t4,a1
    2ed4:	018f0f33          	add	t5,t5,s8
    2ed8:	01035d93          	srl	s11,t1,0x10
    2edc:	01ed8f33          	add	t5,s11,t5
    2ee0:	03f28cb3          	mul	s9,t0,t6
    2ee4:	018f7463          	bgeu	t5,s8,2eec <__multf3+0x560>
    2ee8:	01ac8cb3          	add	s9,s9,s10
    2eec:	010f5c13          	srl	s8,t5,0x10
    2ef0:	019c0c33          	add	s8,s8,s9
    2ef4:	00010cb7          	lui	s9,0x10
    2ef8:	fffc8d13          	add	s10,s9,-1 # ffff <_realloc_r+0x57>
    2efc:	01af7f33          	and	t5,t5,s10
    2f00:	010f1f13          	sll	t5,t5,0x10
    2f04:	01a37333          	and	t1,t1,s10
    2f08:	006f0333          	add	t1,t5,t1
    2f0c:	01412f03          	lw	t5,20(sp)
    2f10:	011708b3          	add	a7,a4,a7
    2f14:	01812d03          	lw	s10,24(sp)
    2f18:	01e98f33          	add	t5,s3,t5
    2f1c:	00e8b733          	sltu	a4,a7,a4
    2f20:	00ef0733          	add	a4,t5,a4
    2f24:	00d886b3          	add	a3,a7,a3
    2f28:	01a70d33          	add	s10,a4,s10
    2f2c:	0116b8b3          	sltu	a7,a3,a7
    2f30:	011d08b3          	add	a7,s10,a7
    2f34:	00a68533          	add	a0,a3,a0
    2f38:	009884b3          	add	s1,a7,s1
    2f3c:	00d536b3          	sltu	a3,a0,a3
    2f40:	00d486b3          	add	a3,s1,a3
    2f44:	013f39b3          	sltu	s3,t5,s3
    2f48:	01e73f33          	sltu	t5,a4,t5
    2f4c:	00ed3733          	sltu	a4,s10,a4
    2f50:	01a8bd33          	sltu	s10,a7,s10
    2f54:	01e9ef33          	or	t5,s3,t5
    2f58:	0114b8b3          	sltu	a7,s1,a7
    2f5c:	01a76733          	or	a4,a4,s10
    2f60:	0096b4b3          	sltu	s1,a3,s1
    2f64:	01868c33          	add	s8,a3,s8
    2f68:	00ef0733          	add	a4,t5,a4
    2f6c:	0098e8b3          	or	a7,a7,s1
    2f70:	00e884b3          	add	s1,a7,a4
    2f74:	03cf8f33          	mul	t5,t6,t3
    2f78:	00dc38b3          	sltu	a7,s8,a3
    2f7c:	00650333          	add	t1,a0,t1
    2f80:	00a33533          	sltu	a0,t1,a0
    2f84:	00ac0533          	add	a0,s8,a0
    2f88:	01853c33          	sltu	s8,a0,s8
    2f8c:	0188e8b3          	or	a7,a7,s8
    2f90:	04612e23          	sw	t1,92(sp)
    2f94:	009888b3          	add	a7,a7,s1
    2f98:	02be06b3          	mul	a3,t3,a1
    2f9c:	02b789b3          	mul	s3,a5,a1
    2fa0:	0106d713          	srl	a4,a3,0x10
    2fa4:	01e989b3          	add	s3,s3,t5
    2fa8:	01370733          	add	a4,a4,s3
    2fac:	03f784b3          	mul	s1,a5,t6
    2fb0:	01e77463          	bgeu	a4,t5,2fb8 <__multf3+0x62c>
    2fb4:	019484b3          	add	s1,s1,s9
    2fb8:	01075f13          	srl	t5,a4,0x10
    2fbc:	009f0f33          	add	t5,t5,s1
    2fc0:	000104b7          	lui	s1,0x10
    2fc4:	fff48993          	add	s3,s1,-1 # ffff <_realloc_r+0x57>
    2fc8:	01377733          	and	a4,a4,s3
    2fcc:	0136f6b3          	and	a3,a3,s3
    2fd0:	01071713          	sll	a4,a4,0x10
    2fd4:	035389b3          	mul	s3,t2,s5
    2fd8:	00d70733          	add	a4,a4,a3
    2fdc:	030a86b3          	mul	a3,s5,a6
    2fe0:	030b0833          	mul	a6,s6,a6
    2fe4:	01380c33          	add	s8,a6,s3
    2fe8:	0106d813          	srl	a6,a3,0x10
    2fec:	01880833          	add	a6,a6,s8
    2ff0:	036383b3          	mul	t2,t2,s6
    2ff4:	01387463          	bgeu	a6,s3,2ffc <__multf3+0x670>
    2ff8:	009383b3          	add	t2,t2,s1
    2ffc:	01085493          	srl	s1,a6,0x10
    3000:	00010c37          	lui	s8,0x10
    3004:	007483b3          	add	t2,s1,t2
    3008:	fffc0493          	add	s1,s8,-1 # ffff <_realloc_r+0x57>
    300c:	0096f6b3          	and	a3,a3,s1
    3010:	00987833          	and	a6,a6,s1
    3014:	01081813          	sll	a6,a6,0x10
    3018:	03db89b3          	mul	s3,s7,t4
    301c:	00d80833          	add	a6,a6,a3
    3020:	03d90eb3          	mul	t4,s2,t4
    3024:	0109d693          	srl	a3,s3,0x10
    3028:	032284b3          	mul	s1,t0,s2
    302c:	037282b3          	mul	t0,t0,s7
    3030:	01d282b3          	add	t0,t0,t4
    3034:	005686b3          	add	a3,a3,t0
    3038:	01d6f463          	bgeu	a3,t4,3040 <__multf3+0x6b4>
    303c:	018484b3          	add	s1,s1,s8
    3040:	0106de93          	srl	t4,a3,0x10
    3044:	009e8eb3          	add	t4,t4,s1
    3048:	000104b7          	lui	s1,0x10
    304c:	fff48293          	add	t0,s1,-1 # ffff <_realloc_r+0x57>
    3050:	0056f6b3          	and	a3,a3,t0
    3054:	0059f9b3          	and	s3,s3,t0
    3058:	01069693          	sll	a3,a3,0x10
    305c:	02ba82b3          	mul	t0,s5,a1
    3060:	013686b3          	add	a3,a3,s3
    3064:	02bb05b3          	mul	a1,s6,a1
    3068:	035f89b3          	mul	s3,t6,s5
    306c:	01358c33          	add	s8,a1,s3
    3070:	0102d593          	srl	a1,t0,0x10
    3074:	018585b3          	add	a1,a1,s8
    3078:	036f8fb3          	mul	t6,t6,s6
    307c:	0135f463          	bgeu	a1,s3,3084 <__multf3+0x6f8>
    3080:	009f8fb3          	add	t6,t6,s1
    3084:	0105d493          	srl	s1,a1,0x10
    3088:	01f48fb3          	add	t6,s1,t6
    308c:	000104b7          	lui	s1,0x10
    3090:	fff48993          	add	s3,s1,-1 # ffff <_realloc_r+0x57>
    3094:	0135f5b3          	and	a1,a1,s3
    3098:	0132f2b3          	and	t0,t0,s3
    309c:	01059593          	sll	a1,a1,0x10
    30a0:	032789b3          	mul	s3,a5,s2
    30a4:	005585b3          	add	a1,a1,t0
    30a8:	037787b3          	mul	a5,a5,s7
    30ac:	03cb82b3          	mul	t0,s7,t3
    30b0:	03c90e33          	mul	t3,s2,t3
    30b4:	0102dc13          	srl	s8,t0,0x10
    30b8:	01c787b3          	add	a5,a5,t3
    30bc:	00fc07b3          	add	a5,s8,a5
    30c0:	01c7f463          	bgeu	a5,t3,30c8 <__multf3+0x73c>
    30c4:	009989b3          	add	s3,s3,s1
    30c8:	00e50733          	add	a4,a0,a4
    30cc:	01070833          	add	a6,a4,a6
    30d0:	01e88f33          	add	t5,a7,t5
    30d4:	00a73533          	sltu	a0,a4,a0
    30d8:	00af0533          	add	a0,t5,a0
    30dc:	00d806b3          	add	a3,a6,a3
    30e0:	007503b3          	add	t2,a0,t2
    30e4:	00e83733          	sltu	a4,a6,a4
    30e8:	06d12023          	sw	a3,96(sp)
    30ec:	0106b6b3          	sltu	a3,a3,a6
    30f0:	037a8833          	mul	a6,s5,s7
    30f4:	00e38733          	add	a4,t2,a4
    30f8:	01d70eb3          	add	t4,a4,t4
    30fc:	00de86b3          	add	a3,t4,a3
    3100:	0107de13          	srl	t3,a5,0x10
    3104:	011f38b3          	sltu	a7,t5,a7
    3108:	000104b7          	lui	s1,0x10
    310c:	01e53f33          	sltu	t5,a0,t5
    3110:	00a3b533          	sltu	a0,t2,a0
    3114:	007733b3          	sltu	t2,a4,t2
    3118:	03590ab3          	mul	s5,s2,s5
    311c:	013e0e33          	add	t3,t3,s3
    3120:	00756533          	or	a0,a0,t2
    3124:	fff48993          	add	s3,s1,-1 # ffff <_realloc_r+0x57>
    3128:	00eeb733          	sltu	a4,t4,a4
    312c:	01e8e8b3          	or	a7,a7,t5
    3130:	01d6beb3          	sltu	t4,a3,t4
    3134:	00a888b3          	add	a7,a7,a0
    3138:	0137f7b3          	and	a5,a5,s3
    313c:	01d76733          	or	a4,a4,t4
    3140:	032b0933          	mul	s2,s6,s2
    3144:	00b685b3          	add	a1,a3,a1
    3148:	01170733          	add	a4,a4,a7
    314c:	01079793          	sll	a5,a5,0x10
    3150:	0132f2b3          	and	t0,t0,s3
    3154:	01f70fb3          	add	t6,a4,t6
    3158:	005787b3          	add	a5,a5,t0
    315c:	00d5b6b3          	sltu	a3,a1,a3
    3160:	00df86b3          	add	a3,t6,a3
    3164:	00f587b3          	add	a5,a1,a5
    3168:	037b0b33          	mul	s6,s6,s7
    316c:	00efb733          	sltu	a4,t6,a4
    3170:	01c68e33          	add	t3,a3,t3
    3174:	01f6bfb3          	sltu	t6,a3,t6
    3178:	06f12223          	sw	a5,100(sp)
    317c:	00b7b7b3          	sltu	a5,a5,a1
    3180:	01f76533          	or	a0,a4,t6
    3184:	00fe07b3          	add	a5,t3,a5
    3188:	01085713          	srl	a4,a6,0x10
    318c:	00de36b3          	sltu	a3,t3,a3
    3190:	015b0b33          	add	s6,s6,s5
    3194:	01c7be33          	sltu	t3,a5,t3
    3198:	01670733          	add	a4,a4,s6
    319c:	01c6e6b3          	or	a3,a3,t3
    31a0:	01577463          	bgeu	a4,s5,31a8 <__multf3+0x81c>
    31a4:	00990933          	add	s2,s2,s1
    31a8:	01075593          	srl	a1,a4,0x10
    31ac:	00a585b3          	add	a1,a1,a0
    31b0:	00010537          	lui	a0,0x10
    31b4:	fff50513          	add	a0,a0,-1 # ffff <_realloc_r+0x57>
    31b8:	00a77733          	and	a4,a4,a0
    31bc:	01071713          	sll	a4,a4,0x10
    31c0:	00a87833          	and	a6,a6,a0
    31c4:	01070733          	add	a4,a4,a6
    31c8:	00e78733          	add	a4,a5,a4
    31cc:	00d586b3          	add	a3,a1,a3
    31d0:	00f737b3          	sltu	a5,a4,a5
    31d4:	00f687b3          	add	a5,a3,a5
    31d8:	012787b3          	add	a5,a5,s2
    31dc:	06f12623          	sw	a5,108(sp)
    31e0:	01012783          	lw	a5,16(sp)
    31e4:	00d31313          	sll	t1,t1,0xd
    31e8:	06e12423          	sw	a4,104(sp)
    31ec:	00c7e7b3          	or	a5,a5,a2
    31f0:	0147e7b3          	or	a5,a5,s4
    31f4:	00f36333          	or	t1,t1,a5
    31f8:	06010613          	add	a2,sp,96
    31fc:	05010793          	add	a5,sp,80
    3200:	00c7a703          	lw	a4,12(a5)
    3204:	0107a683          	lw	a3,16(a5)
    3208:	00478793          	add	a5,a5,4
    320c:	01375713          	srl	a4,a4,0x13
    3210:	00d69693          	sll	a3,a3,0xd
    3214:	00d76733          	or	a4,a4,a3
    3218:	fee7ae23          	sw	a4,-4(a5)
    321c:	fef612e3          	bne	a2,a5,3200 <__multf3+0x874>
    3220:	05012783          	lw	a5,80(sp)
    3224:	00603333          	snez	t1,t1
    3228:	05c12703          	lw	a4,92(sp)
    322c:	00f36333          	or	t1,t1,a5
    3230:	05812783          	lw	a5,88(sp)
    3234:	04e12623          	sw	a4,76(sp)
    3238:	04612023          	sw	t1,64(sp)
    323c:	04f12423          	sw	a5,72(sp)
    3240:	05412783          	lw	a5,84(sp)
    3244:	04f12223          	sw	a5,68(sp)
    3248:	00b71793          	sll	a5,a4,0xb
    324c:	0407d863          	bgez	a5,329c <__multf3+0x910>
    3250:	01f31313          	sll	t1,t1,0x1f
    3254:	04010793          	add	a5,sp,64
    3258:	04c10593          	add	a1,sp,76
    325c:	0007a683          	lw	a3,0(a5)
    3260:	0047a603          	lw	a2,4(a5)
    3264:	00478793          	add	a5,a5,4
    3268:	0016d693          	srl	a3,a3,0x1
    326c:	01f61613          	sll	a2,a2,0x1f
    3270:	00c6e6b3          	or	a3,a3,a2
    3274:	fed7ae23          	sw	a3,-4(a5)
    3278:	fef592e3          	bne	a1,a5,325c <__multf3+0x8d0>
    327c:	04012783          	lw	a5,64(sp)
    3280:	00603333          	snez	t1,t1
    3284:	00175713          	srl	a4,a4,0x1
    3288:	0067e7b3          	or	a5,a5,t1
    328c:	04f12023          	sw	a5,64(sp)
    3290:	00812783          	lw	a5,8(sp)
    3294:	04e12623          	sw	a4,76(sp)
    3298:	00f12623          	sw	a5,12(sp)
    329c:	00c12783          	lw	a5,12(sp)
    32a0:	00f12423          	sw	a5,8(sp)
    32a4:	3780006f          	j	361c <__multf3+0xc90>
    32a8:	00a7e633          	or	a2,a5,a0
    32ac:	00d66633          	or	a2,a2,a3
    32b0:	00e66633          	or	a2,a2,a4
    32b4:	14060463          	beqz	a2,33fc <__multf3+0xa70>
    32b8:	0a070063          	beqz	a4,3358 <__multf3+0x9cc>
    32bc:	00070513          	mv	a0,a4
    32c0:	044020ef          	jal	5304 <__clzsi2>
    32c4:	ff450713          	add	a4,a0,-12
    32c8:	40575593          	sra	a1,a4,0x5
    32cc:	01f77713          	and	a4,a4,31
    32d0:	0a070e63          	beqz	a4,338c <__multf3+0xa00>
    32d4:	ffc00693          	li	a3,-4
    32d8:	02d586b3          	mul	a3,a1,a3
    32dc:	02000813          	li	a6,32
    32e0:	02010313          	add	t1,sp,32
    32e4:	40e80833          	sub	a6,a6,a4
    32e8:	00c68793          	add	a5,a3,12 # 1000c <_realloc_r+0x64>
    32ec:	00f307b3          	add	a5,t1,a5
    32f0:	40d006b3          	neg	a3,a3
    32f4:	0cf31463          	bne	t1,a5,33bc <__multf3+0xa30>
    32f8:	fff58793          	add	a5,a1,-1
    32fc:	00259593          	sll	a1,a1,0x2
    3300:	05058693          	add	a3,a1,80
    3304:	02010613          	add	a2,sp,32
    3308:	00c685b3          	add	a1,a3,a2
    330c:	02012683          	lw	a3,32(sp)
    3310:	00e69733          	sll	a4,a3,a4
    3314:	fae5a823          	sw	a4,-80(a1)
    3318:	00178793          	add	a5,a5,1
    331c:	00279793          	sll	a5,a5,0x2
    3320:	00800693          	li	a3,8
    3324:	02010713          	add	a4,sp,32
    3328:	00d7ea63          	bltu	a5,a3,333c <__multf3+0x9b0>
    332c:	02012023          	sw	zero,32(sp)
    3330:	00072223          	sw	zero,4(a4)
    3334:	ff878793          	add	a5,a5,-8
    3338:	02810713          	add	a4,sp,40
    333c:	00400693          	li	a3,4
    3340:	00d7e463          	bltu	a5,a3,3348 <__multf3+0x9bc>
    3344:	00072023          	sw	zero,0(a4)
    3348:	ffffc4b7          	lui	s1,0xffffc
    334c:	01148493          	add	s1,s1,17 # ffffc011 <_end+0xfffe6dad>
    3350:	40a484b3          	sub	s1,s1,a0
    3354:	f20ff06f          	j	2a74 <__multf3+0xe8>
    3358:	00068a63          	beqz	a3,336c <__multf3+0x9e0>
    335c:	00068513          	mv	a0,a3
    3360:	7a5010ef          	jal	5304 <__clzsi2>
    3364:	02050513          	add	a0,a0,32
    3368:	f5dff06f          	j	32c4 <__multf3+0x938>
    336c:	00050863          	beqz	a0,337c <__multf3+0x9f0>
    3370:	795010ef          	jal	5304 <__clzsi2>
    3374:	04050513          	add	a0,a0,64
    3378:	f4dff06f          	j	32c4 <__multf3+0x938>
    337c:	00078513          	mv	a0,a5
    3380:	785010ef          	jal	5304 <__clzsi2>
    3384:	06050513          	add	a0,a0,96
    3388:	f3dff06f          	j	32c4 <__multf3+0x938>
    338c:	ffc00693          	li	a3,-4
    3390:	02d586b3          	mul	a3,a1,a3
    3394:	02c10793          	add	a5,sp,44
    3398:	00300713          	li	a4,3
    339c:	00d78633          	add	a2,a5,a3
    33a0:	00062603          	lw	a2,0(a2)
    33a4:	fff70713          	add	a4,a4,-1
    33a8:	ffc78793          	add	a5,a5,-4
    33ac:	00c7a223          	sw	a2,4(a5)
    33b0:	feb756e3          	bge	a4,a1,339c <__multf3+0xa10>
    33b4:	fff58793          	add	a5,a1,-1
    33b8:	f61ff06f          	j	3318 <__multf3+0x98c>
    33bc:	0007a603          	lw	a2,0(a5)
    33c0:	ffc7a883          	lw	a7,-4(a5)
    33c4:	00d78e33          	add	t3,a5,a3
    33c8:	00e61633          	sll	a2,a2,a4
    33cc:	0108d8b3          	srl	a7,a7,a6
    33d0:	01166633          	or	a2,a2,a7
    33d4:	00ce2023          	sw	a2,0(t3)
    33d8:	ffc78793          	add	a5,a5,-4
    33dc:	f19ff06f          	j	32f4 <__multf3+0x968>
    33e0:	00a7e7b3          	or	a5,a5,a0
    33e4:	00d7e7b3          	or	a5,a5,a3
    33e8:	00e7e7b3          	or	a5,a5,a4
    33ec:	00200b93          	li	s7,2
    33f0:	e8078463          	beqz	a5,2a78 <__multf3+0xec>
    33f4:	00300b93          	li	s7,3
    33f8:	e80ff06f          	j	2a78 <__multf3+0xec>
    33fc:	00000493          	li	s1,0
    3400:	00100b93          	li	s7,1
    3404:	e74ff06f          	j	2a78 <__multf3+0xec>
    3408:	016967b3          	or	a5,s2,s6
    340c:	0157e7b3          	or	a5,a5,s5
    3410:	00a7e7b3          	or	a5,a5,a0
    3414:	14078463          	beqz	a5,355c <__multf3+0xbd0>
    3418:	08050e63          	beqz	a0,34b4 <__multf3+0xb28>
    341c:	6e9010ef          	jal	5304 <__clzsi2>
    3420:	ff450693          	add	a3,a0,-12
    3424:	4056d793          	sra	a5,a3,0x5
    3428:	01f6f693          	and	a3,a3,31
    342c:	0c068063          	beqz	a3,34ec <__multf3+0xb60>
    3430:	ffc00613          	li	a2,-4
    3434:	02c78633          	mul	a2,a5,a2
    3438:	02000813          	li	a6,32
    343c:	03010313          	add	t1,sp,48
    3440:	40d80833          	sub	a6,a6,a3
    3444:	00c60713          	add	a4,a2,12
    3448:	00e30733          	add	a4,t1,a4
    344c:	40c00633          	neg	a2,a2
    3450:	0ce31663          	bne	t1,a4,351c <__multf3+0xb90>
    3454:	fff78713          	add	a4,a5,-1
    3458:	00279793          	sll	a5,a5,0x2
    345c:	02010613          	add	a2,sp,32
    3460:	05078793          	add	a5,a5,80
    3464:	00c787b3          	add	a5,a5,a2
    3468:	03012603          	lw	a2,48(sp)
    346c:	00d616b3          	sll	a3,a2,a3
    3470:	fcd7a023          	sw	a3,-64(a5)
    3474:	00170793          	add	a5,a4,1
    3478:	00279793          	sll	a5,a5,0x2
    347c:	00800693          	li	a3,8
    3480:	03010713          	add	a4,sp,48
    3484:	00d7ea63          	bltu	a5,a3,3498 <__multf3+0xb0c>
    3488:	02012823          	sw	zero,48(sp)
    348c:	00072223          	sw	zero,4(a4)
    3490:	ff878793          	add	a5,a5,-8
    3494:	03810713          	add	a4,sp,56
    3498:	00400693          	li	a3,4
    349c:	00d7e463          	bltu	a5,a3,34a4 <__multf3+0xb18>
    34a0:	00072023          	sw	zero,0(a4)
    34a4:	ffffc7b7          	lui	a5,0xffffc
    34a8:	01178793          	add	a5,a5,17 # ffffc011 <_end+0xfffe6dad>
    34ac:	40a787b3          	sub	a5,a5,a0
    34b0:	e54ff06f          	j	2b04 <__multf3+0x178>
    34b4:	000a8a63          	beqz	s5,34c8 <__multf3+0xb3c>
    34b8:	000a8513          	mv	a0,s5
    34bc:	649010ef          	jal	5304 <__clzsi2>
    34c0:	02050513          	add	a0,a0,32
    34c4:	f5dff06f          	j	3420 <__multf3+0xa94>
    34c8:	000b0a63          	beqz	s6,34dc <__multf3+0xb50>
    34cc:	000b0513          	mv	a0,s6
    34d0:	635010ef          	jal	5304 <__clzsi2>
    34d4:	04050513          	add	a0,a0,64
    34d8:	f49ff06f          	j	3420 <__multf3+0xa94>
    34dc:	00090513          	mv	a0,s2
    34e0:	625010ef          	jal	5304 <__clzsi2>
    34e4:	06050513          	add	a0,a0,96
    34e8:	f39ff06f          	j	3420 <__multf3+0xa94>
    34ec:	ffc00613          	li	a2,-4
    34f0:	02c78633          	mul	a2,a5,a2
    34f4:	03c10713          	add	a4,sp,60
    34f8:	00300693          	li	a3,3
    34fc:	00c705b3          	add	a1,a4,a2
    3500:	0005a583          	lw	a1,0(a1)
    3504:	fff68693          	add	a3,a3,-1
    3508:	ffc70713          	add	a4,a4,-4
    350c:	00b72223          	sw	a1,4(a4)
    3510:	fef6d6e3          	bge	a3,a5,34fc <__multf3+0xb70>
    3514:	fff78713          	add	a4,a5,-1
    3518:	f5dff06f          	j	3474 <__multf3+0xae8>
    351c:	00072583          	lw	a1,0(a4)
    3520:	ffc72883          	lw	a7,-4(a4)
    3524:	00c70e33          	add	t3,a4,a2
    3528:	00d595b3          	sll	a1,a1,a3
    352c:	0108d8b3          	srl	a7,a7,a6
    3530:	0115e5b3          	or	a1,a1,a7
    3534:	00be2023          	sw	a1,0(t3)
    3538:	ffc70713          	add	a4,a4,-4
    353c:	f15ff06f          	j	3450 <__multf3+0xac4>
    3540:	01696933          	or	s2,s2,s6
    3544:	01596933          	or	s2,s2,s5
    3548:	00a96933          	or	s2,s2,a0
    354c:	00200693          	li	a3,2
    3550:	da090c63          	beqz	s2,2b08 <__multf3+0x17c>
    3554:	00300693          	li	a3,3
    3558:	db0ff06f          	j	2b08 <__multf3+0x17c>
    355c:	00000793          	li	a5,0
    3560:	00100693          	li	a3,1
    3564:	da4ff06f          	j	2b08 <__multf3+0x17c>
    3568:	00100713          	li	a4,1
    356c:	00f717b3          	sll	a5,a4,a5
    3570:	5307f713          	and	a4,a5,1328
    3574:	06071863          	bnez	a4,35e4 <__multf3+0xc58>
    3578:	0887f713          	and	a4,a5,136
    357c:	04071063          	bnez	a4,35bc <__multf3+0xc30>
    3580:	2407f793          	and	a5,a5,576
    3584:	dc078063          	beqz	a5,2b44 <__multf3+0x1b8>
    3588:	000087b7          	lui	a5,0x8
    358c:	04f12623          	sw	a5,76(sp)
    3590:	04012423          	sw	zero,72(sp)
    3594:	04012223          	sw	zero,68(sp)
    3598:	04012023          	sw	zero,64(sp)
    359c:	fff78793          	add	a5,a5,-1 # 7fff <_vfprintf_r+0xc13>
    35a0:	00012223          	sw	zero,4(sp)
    35a4:	1440006f          	j	36e8 <__multf3+0xd5c>
    35a8:	00f00713          	li	a4,15
    35ac:	fce78ee3          	beq	a5,a4,3588 <__multf3+0xbfc>
    35b0:	00b00713          	li	a4,11
    35b4:	01412223          	sw	s4,4(sp)
    35b8:	02e79663          	bne	a5,a4,35e4 <__multf3+0xc58>
    35bc:	01312223          	sw	s3,4(sp)
    35c0:	03012783          	lw	a5,48(sp)
    35c4:	00068b93          	mv	s7,a3
    35c8:	04f12023          	sw	a5,64(sp)
    35cc:	03412783          	lw	a5,52(sp)
    35d0:	04f12223          	sw	a5,68(sp)
    35d4:	03812783          	lw	a5,56(sp)
    35d8:	04f12423          	sw	a5,72(sp)
    35dc:	03c12783          	lw	a5,60(sp)
    35e0:	0200006f          	j	3600 <__multf3+0xc74>
    35e4:	02012783          	lw	a5,32(sp)
    35e8:	04f12023          	sw	a5,64(sp)
    35ec:	02412783          	lw	a5,36(sp)
    35f0:	04f12223          	sw	a5,68(sp)
    35f4:	02812783          	lw	a5,40(sp)
    35f8:	04f12423          	sw	a5,72(sp)
    35fc:	02c12783          	lw	a5,44(sp)
    3600:	04f12623          	sw	a5,76(sp)
    3604:	00200793          	li	a5,2
    3608:	36fb8663          	beq	s7,a5,3974 <__multf3+0xfe8>
    360c:	00300793          	li	a5,3
    3610:	f6fb8ce3          	beq	s7,a5,3588 <__multf3+0xbfc>
    3614:	00100793          	li	a5,1
    3618:	34fb8463          	beq	s7,a5,3960 <__multf3+0xfd4>
    361c:	00812703          	lw	a4,8(sp)
    3620:	000047b7          	lui	a5,0x4
    3624:	fff78793          	add	a5,a5,-1 # 3fff <__subtf3+0x66f>
    3628:	00f707b3          	add	a5,a4,a5
    362c:	12f05a63          	blez	a5,3760 <__multf3+0xdd4>
    3630:	04012703          	lw	a4,64(sp)
    3634:	00777693          	and	a3,a4,7
    3638:	04068463          	beqz	a3,3680 <__multf3+0xcf4>
    363c:	00f77693          	and	a3,a4,15
    3640:	00400613          	li	a2,4
    3644:	02c68e63          	beq	a3,a2,3680 <__multf3+0xcf4>
    3648:	00470713          	add	a4,a4,4
    364c:	00473693          	sltiu	a3,a4,4
    3650:	04e12023          	sw	a4,64(sp)
    3654:	04412703          	lw	a4,68(sp)
    3658:	00e68733          	add	a4,a3,a4
    365c:	04e12223          	sw	a4,68(sp)
    3660:	00d73733          	sltu	a4,a4,a3
    3664:	04812683          	lw	a3,72(sp)
    3668:	00e68733          	add	a4,a3,a4
    366c:	04e12423          	sw	a4,72(sp)
    3670:	00d73733          	sltu	a4,a4,a3
    3674:	04c12683          	lw	a3,76(sp)
    3678:	00d70733          	add	a4,a4,a3
    367c:	04e12623          	sw	a4,76(sp)
    3680:	04c12703          	lw	a4,76(sp)
    3684:	00b71693          	sll	a3,a4,0xb
    3688:	0206d063          	bgez	a3,36a8 <__multf3+0xd1c>
    368c:	fff007b7          	lui	a5,0xfff00
    3690:	fff78793          	add	a5,a5,-1 # ffefffff <_end+0xffeead9b>
    3694:	00f77733          	and	a4,a4,a5
    3698:	04e12623          	sw	a4,76(sp)
    369c:	00812703          	lw	a4,8(sp)
    36a0:	000047b7          	lui	a5,0x4
    36a4:	00f707b3          	add	a5,a4,a5
    36a8:	04010713          	add	a4,sp,64
    36ac:	04c10593          	add	a1,sp,76
    36b0:	00072683          	lw	a3,0(a4)
    36b4:	00472603          	lw	a2,4(a4)
    36b8:	00470713          	add	a4,a4,4
    36bc:	0036d693          	srl	a3,a3,0x3
    36c0:	01d61613          	sll	a2,a2,0x1d
    36c4:	00c6e6b3          	or	a3,a3,a2
    36c8:	fed72e23          	sw	a3,-4(a4)
    36cc:	fee592e3          	bne	a1,a4,36b0 <__multf3+0xd24>
    36d0:	000086b7          	lui	a3,0x8
    36d4:	ffe68693          	add	a3,a3,-2 # 7ffe <_vfprintf_r+0xc12>
    36d8:	04c12703          	lw	a4,76(sp)
    36dc:	28f6cc63          	blt	a3,a5,3974 <__multf3+0xfe8>
    36e0:	00375713          	srl	a4,a4,0x3
    36e4:	04e12623          	sw	a4,76(sp)
    36e8:	04c12703          	lw	a4,76(sp)
    36ec:	0ac12083          	lw	ra,172(sp)
    36f0:	00040513          	mv	a0,s0
    36f4:	04e11e23          	sh	a4,92(sp)
    36f8:	00412703          	lw	a4,4(sp)
    36fc:	0a412483          	lw	s1,164(sp)
    3700:	0a012903          	lw	s2,160(sp)
    3704:	00f71713          	sll	a4,a4,0xf
    3708:	00f767b3          	or	a5,a4,a5
    370c:	04f11f23          	sh	a5,94(sp)
    3710:	04012783          	lw	a5,64(sp)
    3714:	09c12983          	lw	s3,156(sp)
    3718:	09812a03          	lw	s4,152(sp)
    371c:	00f42023          	sw	a5,0(s0)
    3720:	04412783          	lw	a5,68(sp)
    3724:	09412a83          	lw	s5,148(sp)
    3728:	09012b03          	lw	s6,144(sp)
    372c:	00f42223          	sw	a5,4(s0)
    3730:	04812783          	lw	a5,72(sp)
    3734:	08c12b83          	lw	s7,140(sp)
    3738:	08812c03          	lw	s8,136(sp)
    373c:	00f42423          	sw	a5,8(s0)
    3740:	05c12783          	lw	a5,92(sp)
    3744:	08412c83          	lw	s9,132(sp)
    3748:	08012d03          	lw	s10,128(sp)
    374c:	00f42623          	sw	a5,12(s0)
    3750:	0a812403          	lw	s0,168(sp)
    3754:	07c12d83          	lw	s11,124(sp)
    3758:	0b010113          	add	sp,sp,176
    375c:	00008067          	ret
    3760:	00100693          	li	a3,1
    3764:	40f686b3          	sub	a3,a3,a5
    3768:	07400793          	li	a5,116
    376c:	1cd7ca63          	blt	a5,a3,3940 <__multf3+0xfb4>
    3770:	04010613          	add	a2,sp,64
    3774:	4056d713          	sra	a4,a3,0x5
    3778:	00060513          	mv	a0,a2
    377c:	01f6f693          	and	a3,a3,31
    3780:	00000793          	li	a5,0
    3784:	00000593          	li	a1,0
    3788:	02e59e63          	bne	a1,a4,37c4 <__multf3+0xe38>
    378c:	00300593          	li	a1,3
    3790:	40e585b3          	sub	a1,a1,a4
    3794:	00271513          	sll	a0,a4,0x2
    3798:	04069063          	bnez	a3,37d8 <__multf3+0xe4c>
    379c:	00060813          	mv	a6,a2
    37a0:	00a808b3          	add	a7,a6,a0
    37a4:	0008a883          	lw	a7,0(a7) # 10000 <_realloc_r+0x58>
    37a8:	00168693          	add	a3,a3,1
    37ac:	00480813          	add	a6,a6,4
    37b0:	ff182e23          	sw	a7,-4(a6)
    37b4:	fed5d6e3          	bge	a1,a3,37a0 <__multf3+0xe14>
    37b8:	00400693          	li	a3,4
    37bc:	40e68733          	sub	a4,a3,a4
    37c0:	06c0006f          	j	382c <__multf3+0xea0>
    37c4:	00052803          	lw	a6,0(a0)
    37c8:	00158593          	add	a1,a1,1
    37cc:	00450513          	add	a0,a0,4
    37d0:	0107e7b3          	or	a5,a5,a6
    37d4:	fb5ff06f          	j	3788 <__multf3+0xdfc>
    37d8:	05050813          	add	a6,a0,80
    37dc:	02010893          	add	a7,sp,32
    37e0:	01180833          	add	a6,a6,a7
    37e4:	fd082803          	lw	a6,-48(a6)
    37e8:	02000313          	li	t1,32
    37ec:	40d30333          	sub	t1,t1,a3
    37f0:	00681833          	sll	a6,a6,t1
    37f4:	0107e7b3          	or	a5,a5,a6
    37f8:	00000e13          	li	t3,0
    37fc:	00a60833          	add	a6,a2,a0
    3800:	40a00533          	neg	a0,a0
    3804:	0ebe4063          	blt	t3,a1,38e4 <__multf3+0xf58>
    3808:	00400513          	li	a0,4
    380c:	00259593          	sll	a1,a1,0x2
    3810:	40e50733          	sub	a4,a0,a4
    3814:	05058593          	add	a1,a1,80
    3818:	02010513          	add	a0,sp,32
    381c:	00a585b3          	add	a1,a1,a0
    3820:	04c12503          	lw	a0,76(sp)
    3824:	00d556b3          	srl	a3,a0,a3
    3828:	fcd5a823          	sw	a3,-48(a1)
    382c:	00400693          	li	a3,4
    3830:	40e686b3          	sub	a3,a3,a4
    3834:	00269693          	sll	a3,a3,0x2
    3838:	00271713          	sll	a4,a4,0x2
    383c:	00800593          	li	a1,8
    3840:	00e60733          	add	a4,a2,a4
    3844:	00b6ea63          	bltu	a3,a1,3858 <__multf3+0xecc>
    3848:	00072023          	sw	zero,0(a4)
    384c:	00072223          	sw	zero,4(a4)
    3850:	ff868693          	add	a3,a3,-8
    3854:	00870713          	add	a4,a4,8
    3858:	00400593          	li	a1,4
    385c:	00b6e463          	bltu	a3,a1,3864 <__multf3+0xed8>
    3860:	00072023          	sw	zero,0(a4)
    3864:	04012703          	lw	a4,64(sp)
    3868:	00f037b3          	snez	a5,a5
    386c:	00e7e7b3          	or	a5,a5,a4
    3870:	04f12023          	sw	a5,64(sp)
    3874:	0077f713          	and	a4,a5,7
    3878:	04070463          	beqz	a4,38c0 <__multf3+0xf34>
    387c:	00f7f713          	and	a4,a5,15
    3880:	00400693          	li	a3,4
    3884:	02d70e63          	beq	a4,a3,38c0 <__multf3+0xf34>
    3888:	04412703          	lw	a4,68(sp)
    388c:	00478793          	add	a5,a5,4 # 4004 <__subtf3+0x674>
    3890:	04f12023          	sw	a5,64(sp)
    3894:	0047b793          	sltiu	a5,a5,4
    3898:	00f707b3          	add	a5,a4,a5
    389c:	04f12223          	sw	a5,68(sp)
    38a0:	00e7b7b3          	sltu	a5,a5,a4
    38a4:	04812703          	lw	a4,72(sp)
    38a8:	00f707b3          	add	a5,a4,a5
    38ac:	04f12423          	sw	a5,72(sp)
    38b0:	00e7b7b3          	sltu	a5,a5,a4
    38b4:	04c12703          	lw	a4,76(sp)
    38b8:	00e787b3          	add	a5,a5,a4
    38bc:	04f12623          	sw	a5,76(sp)
    38c0:	04c12703          	lw	a4,76(sp)
    38c4:	00c71793          	sll	a5,a4,0xc
    38c8:	0407d263          	bgez	a5,390c <__multf3+0xf80>
    38cc:	04012623          	sw	zero,76(sp)
    38d0:	04012423          	sw	zero,72(sp)
    38d4:	04012223          	sw	zero,68(sp)
    38d8:	04012023          	sw	zero,64(sp)
    38dc:	00100793          	li	a5,1
    38e0:	e09ff06f          	j	36e8 <__multf3+0xd5c>
    38e4:	00082883          	lw	a7,0(a6)
    38e8:	00482e83          	lw	t4,4(a6)
    38ec:	00a80f33          	add	t5,a6,a0
    38f0:	00d8d8b3          	srl	a7,a7,a3
    38f4:	006e9eb3          	sll	t4,t4,t1
    38f8:	01d8e8b3          	or	a7,a7,t4
    38fc:	011f2023          	sw	a7,0(t5)
    3900:	001e0e13          	add	t3,t3,1
    3904:	00480813          	add	a6,a6,4
    3908:	efdff06f          	j	3804 <__multf3+0xe78>
    390c:	00c60593          	add	a1,a2,12
    3910:	00062783          	lw	a5,0(a2)
    3914:	00462683          	lw	a3,4(a2)
    3918:	00460613          	add	a2,a2,4
    391c:	0037d793          	srl	a5,a5,0x3
    3920:	01d69693          	sll	a3,a3,0x1d
    3924:	00d7e7b3          	or	a5,a5,a3
    3928:	fef62e23          	sw	a5,-4(a2)
    392c:	fec592e3          	bne	a1,a2,3910 <__multf3+0xf84>
    3930:	00375713          	srl	a4,a4,0x3
    3934:	04e12623          	sw	a4,76(sp)
    3938:	00000793          	li	a5,0
    393c:	dadff06f          	j	36e8 <__multf3+0xd5c>
    3940:	04412703          	lw	a4,68(sp)
    3944:	04012783          	lw	a5,64(sp)
    3948:	00e7e7b3          	or	a5,a5,a4
    394c:	04812703          	lw	a4,72(sp)
    3950:	00e7e7b3          	or	a5,a5,a4
    3954:	04c12703          	lw	a4,76(sp)
    3958:	00e7e7b3          	or	a5,a5,a4
    395c:	fc078ee3          	beqz	a5,3938 <__multf3+0xfac>
    3960:	04012623          	sw	zero,76(sp)
    3964:	04012423          	sw	zero,72(sp)
    3968:	04012223          	sw	zero,68(sp)
    396c:	04012023          	sw	zero,64(sp)
    3970:	fc9ff06f          	j	3938 <__multf3+0xfac>
    3974:	000087b7          	lui	a5,0x8
    3978:	04012623          	sw	zero,76(sp)
    397c:	04012423          	sw	zero,72(sp)
    3980:	04012223          	sw	zero,68(sp)
    3984:	04012023          	sw	zero,64(sp)
    3988:	fff78793          	add	a5,a5,-1 # 7fff <_vfprintf_r+0xc13>
    398c:	d5dff06f          	j	36e8 <__multf3+0xd5c>

00003990 <__subtf3>:
    3990:	f9010113          	add	sp,sp,-112
    3994:	0085a703          	lw	a4,8(a1)
    3998:	05512a23          	sw	s5,84(sp)
    399c:	00c5aa83          	lw	s5,12(a1)
    39a0:	0005a783          	lw	a5,0(a1)
    39a4:	0045a683          	lw	a3,4(a1)
    39a8:	02e12c23          	sw	a4,56(sp)
    39ac:	00e12c23          	sw	a4,24(sp)
    39b0:	010a9713          	sll	a4,s5,0x10
    39b4:	06912223          	sw	s1,100(sp)
    39b8:	01075713          	srl	a4,a4,0x10
    39bc:	001a9493          	sll	s1,s5,0x1
    39c0:	00462803          	lw	a6,4(a2)
    39c4:	00862583          	lw	a1,8(a2)
    39c8:	06812423          	sw	s0,104(sp)
    39cc:	07212023          	sw	s2,96(sp)
    39d0:	00062403          	lw	s0,0(a2)
    39d4:	00c62903          	lw	s2,12(a2)
    39d8:	05412c23          	sw	s4,88(sp)
    39dc:	03512e23          	sw	s5,60(sp)
    39e0:	00050a13          	mv	s4,a0
    39e4:	06112623          	sw	ra,108(sp)
    39e8:	05312e23          	sw	s3,92(sp)
    39ec:	05612823          	sw	s6,80(sp)
    39f0:	05712623          	sw	s7,76(sp)
    39f4:	05812423          	sw	s8,72(sp)
    39f8:	02f12823          	sw	a5,48(sp)
    39fc:	02d12a23          	sw	a3,52(sp)
    3a00:	00f12823          	sw	a5,16(sp)
    3a04:	00d12a23          	sw	a3,20(sp)
    3a08:	00e12e23          	sw	a4,28(sp)
    3a0c:	0114d493          	srl	s1,s1,0x11
    3a10:	01fada93          	srl	s5,s5,0x1f
    3a14:	01010513          	add	a0,sp,16
    3a18:	01c10613          	add	a2,sp,28
    3a1c:	00062703          	lw	a4,0(a2)
    3a20:	ffc62683          	lw	a3,-4(a2)
    3a24:	ffc60613          	add	a2,a2,-4
    3a28:	00371713          	sll	a4,a4,0x3
    3a2c:	01d6d693          	srl	a3,a3,0x1d
    3a30:	00d76733          	or	a4,a4,a3
    3a34:	00e62223          	sw	a4,4(a2)
    3a38:	fec512e3          	bne	a0,a2,3a1c <__subtf3+0x8c>
    3a3c:	01091713          	sll	a4,s2,0x10
    3a40:	00191b93          	sll	s7,s2,0x1
    3a44:	00379793          	sll	a5,a5,0x3
    3a48:	01075713          	srl	a4,a4,0x10
    3a4c:	03012a23          	sw	a6,52(sp)
    3a50:	03212e23          	sw	s2,60(sp)
    3a54:	03012223          	sw	a6,36(sp)
    3a58:	00f12823          	sw	a5,16(sp)
    3a5c:	02812823          	sw	s0,48(sp)
    3a60:	02b12c23          	sw	a1,56(sp)
    3a64:	02812023          	sw	s0,32(sp)
    3a68:	02b12423          	sw	a1,40(sp)
    3a6c:	02e12623          	sw	a4,44(sp)
    3a70:	011bdb93          	srl	s7,s7,0x11
    3a74:	01f95913          	srl	s2,s2,0x1f
    3a78:	02010813          	add	a6,sp,32
    3a7c:	02c10313          	add	t1,sp,44
    3a80:	00032703          	lw	a4,0(t1)
    3a84:	ffc32683          	lw	a3,-4(t1)
    3a88:	ffc30313          	add	t1,t1,-4
    3a8c:	00371713          	sll	a4,a4,0x3
    3a90:	01d6d693          	srl	a3,a3,0x1d
    3a94:	00d76733          	or	a4,a4,a3
    3a98:	00e32223          	sw	a4,4(t1)
    3a9c:	fe6812e3          	bne	a6,t1,3a80 <__subtf3+0xf0>
    3aa0:	00341413          	sll	s0,s0,0x3
    3aa4:	00008737          	lui	a4,0x8
    3aa8:	02812023          	sw	s0,32(sp)
    3aac:	fff70713          	add	a4,a4,-1 # 7fff <_vfprintf_r+0xc13>
    3ab0:	02eb9063          	bne	s7,a4,3ad0 <__subtf3+0x140>
    3ab4:	02812683          	lw	a3,40(sp)
    3ab8:	02412703          	lw	a4,36(sp)
    3abc:	00d76733          	or	a4,a4,a3
    3ac0:	02c12683          	lw	a3,44(sp)
    3ac4:	00d76733          	or	a4,a4,a3
    3ac8:	00876733          	or	a4,a4,s0
    3acc:	00071463          	bnez	a4,3ad4 <__subtf3+0x144>
    3ad0:	00194913          	xor	s2,s2,1
    3ad4:	417488b3          	sub	a7,s1,s7
    3ad8:	095916e3          	bne	s2,s5,4364 <__subtf3+0x9d4>
    3adc:	45105263          	blez	a7,3f20 <__subtf3+0x590>
    3ae0:	01412903          	lw	s2,20(sp)
    3ae4:	01812983          	lw	s3,24(sp)
    3ae8:	01c12b03          	lw	s6,28(sp)
    3aec:	0a0b9263          	bnez	s7,3b90 <__subtf3+0x200>
    3af0:	02412683          	lw	a3,36(sp)
    3af4:	02812703          	lw	a4,40(sp)
    3af8:	02c12583          	lw	a1,44(sp)
    3afc:	00e6e633          	or	a2,a3,a4
    3b00:	00b66633          	or	a2,a2,a1
    3b04:	00866633          	or	a2,a2,s0
    3b08:	00061e63          	bnez	a2,3b24 <__subtf3+0x194>
    3b0c:	02f12823          	sw	a5,48(sp)
    3b10:	03212a23          	sw	s2,52(sp)
    3b14:	03312c23          	sw	s3,56(sp)
    3b18:	03612e23          	sw	s6,60(sp)
    3b1c:	00088493          	mv	s1,a7
    3b20:	08c0006f          	j	3bac <__subtf3+0x21c>
    3b24:	fff88613          	add	a2,a7,-1
    3b28:	04061863          	bnez	a2,3b78 <__subtf3+0x1e8>
    3b2c:	00878433          	add	s0,a5,s0
    3b30:	01268933          	add	s2,a3,s2
    3b34:	02812823          	sw	s0,48(sp)
    3b38:	00f43433          	sltu	s0,s0,a5
    3b3c:	00890433          	add	s0,s2,s0
    3b40:	02812a23          	sw	s0,52(sp)
    3b44:	00d936b3          	sltu	a3,s2,a3
    3b48:	01243433          	sltu	s0,s0,s2
    3b4c:	013709b3          	add	s3,a4,s3
    3b50:	0086e6b3          	or	a3,a3,s0
    3b54:	00d986b3          	add	a3,s3,a3
    3b58:	02d12c23          	sw	a3,56(sp)
    3b5c:	00e9b7b3          	sltu	a5,s3,a4
    3b60:	0136b6b3          	sltu	a3,a3,s3
    3b64:	00d7e7b3          	or	a5,a5,a3
    3b68:	016585b3          	add	a1,a1,s6
    3b6c:	00b787b3          	add	a5,a5,a1
    3b70:	00100493          	li	s1,1
    3b74:	2fc0006f          	j	3e70 <__subtf3+0x4e0>
    3b78:	00008737          	lui	a4,0x8
    3b7c:	fff70713          	add	a4,a4,-1 # 7fff <_vfprintf_r+0xc13>
    3b80:	00e88463          	beq	a7,a4,3b88 <__subtf3+0x1f8>
    3b84:	2500106f          	j	4dd4 <__subtf3+0x1444>
    3b88:	02f12823          	sw	a5,48(sp)
    3b8c:	4400006f          	j	3fcc <__subtf3+0x63c>
    3b90:	00008737          	lui	a4,0x8
    3b94:	fff70713          	add	a4,a4,-1 # 7fff <_vfprintf_r+0xc13>
    3b98:	16e49a63          	bne	s1,a4,3d0c <__subtf3+0x37c>
    3b9c:	02f12823          	sw	a5,48(sp)
    3ba0:	03212a23          	sw	s2,52(sp)
    3ba4:	03312c23          	sw	s3,56(sp)
    3ba8:	03612e23          	sw	s6,60(sp)
    3bac:	03012783          	lw	a5,48(sp)
    3bb0:	0077f713          	and	a4,a5,7
    3bb4:	04070463          	beqz	a4,3bfc <__subtf3+0x26c>
    3bb8:	00f7f713          	and	a4,a5,15
    3bbc:	00400693          	li	a3,4
    3bc0:	02d70e63          	beq	a4,a3,3bfc <__subtf3+0x26c>
    3bc4:	03412703          	lw	a4,52(sp)
    3bc8:	00478793          	add	a5,a5,4
    3bcc:	02f12823          	sw	a5,48(sp)
    3bd0:	0047b793          	sltiu	a5,a5,4
    3bd4:	00f707b3          	add	a5,a4,a5
    3bd8:	02f12a23          	sw	a5,52(sp)
    3bdc:	00e7b7b3          	sltu	a5,a5,a4
    3be0:	03812703          	lw	a4,56(sp)
    3be4:	00f707b3          	add	a5,a4,a5
    3be8:	02f12c23          	sw	a5,56(sp)
    3bec:	00e7b7b3          	sltu	a5,a5,a4
    3bf0:	03c12703          	lw	a4,60(sp)
    3bf4:	00e787b3          	add	a5,a5,a4
    3bf8:	02f12e23          	sw	a5,60(sp)
    3bfc:	03c12783          	lw	a5,60(sp)
    3c00:	00c79713          	sll	a4,a5,0xc
    3c04:	02075463          	bgez	a4,3c2c <__subtf3+0x29c>
    3c08:	00008737          	lui	a4,0x8
    3c0c:	00148493          	add	s1,s1,1
    3c10:	fff70713          	add	a4,a4,-1 # 7fff <_vfprintf_r+0xc13>
    3c14:	00e49463          	bne	s1,a4,3c1c <__subtf3+0x28c>
    3c18:	1a80106f          	j	4dc0 <__subtf3+0x1430>
    3c1c:	fff80737          	lui	a4,0xfff80
    3c20:	fff70713          	add	a4,a4,-1 # fff7ffff <_end+0xfff6ad9b>
    3c24:	00e7f7b3          	and	a5,a5,a4
    3c28:	02f12e23          	sw	a5,60(sp)
    3c2c:	03010793          	add	a5,sp,48
    3c30:	03c10613          	add	a2,sp,60
    3c34:	0007a703          	lw	a4,0(a5)
    3c38:	0047a683          	lw	a3,4(a5)
    3c3c:	00478793          	add	a5,a5,4
    3c40:	00375713          	srl	a4,a4,0x3
    3c44:	01d69693          	sll	a3,a3,0x1d
    3c48:	00d76733          	or	a4,a4,a3
    3c4c:	fee7ae23          	sw	a4,-4(a5)
    3c50:	fec792e3          	bne	a5,a2,3c34 <__subtf3+0x2a4>
    3c54:	03c12703          	lw	a4,60(sp)
    3c58:	000086b7          	lui	a3,0x8
    3c5c:	fff68793          	add	a5,a3,-1 # 7fff <_vfprintf_r+0xc13>
    3c60:	00375713          	srl	a4,a4,0x3
    3c64:	02e12e23          	sw	a4,60(sp)
    3c68:	02f49a63          	bne	s1,a5,3c9c <__subtf3+0x30c>
    3c6c:	03412603          	lw	a2,52(sp)
    3c70:	03012783          	lw	a5,48(sp)
    3c74:	00c7e7b3          	or	a5,a5,a2
    3c78:	03812603          	lw	a2,56(sp)
    3c7c:	00c7e7b3          	or	a5,a5,a2
    3c80:	00e7e7b3          	or	a5,a5,a4
    3c84:	00078c63          	beqz	a5,3c9c <__subtf3+0x30c>
    3c88:	02d12e23          	sw	a3,60(sp)
    3c8c:	02012c23          	sw	zero,56(sp)
    3c90:	02012a23          	sw	zero,52(sp)
    3c94:	02012823          	sw	zero,48(sp)
    3c98:	00000a93          	li	s5,0
    3c9c:	03c12783          	lw	a5,60(sp)
    3ca0:	01149493          	sll	s1,s1,0x11
    3ca4:	0114d493          	srl	s1,s1,0x11
    3ca8:	00f11623          	sh	a5,12(sp)
    3cac:	03012783          	lw	a5,48(sp)
    3cb0:	00fa9a93          	sll	s5,s5,0xf
    3cb4:	009aeab3          	or	s5,s5,s1
    3cb8:	00fa2023          	sw	a5,0(s4)
    3cbc:	03412783          	lw	a5,52(sp)
    3cc0:	01511723          	sh	s5,14(sp)
    3cc4:	06c12083          	lw	ra,108(sp)
    3cc8:	00fa2223          	sw	a5,4(s4)
    3ccc:	03812783          	lw	a5,56(sp)
    3cd0:	06812403          	lw	s0,104(sp)
    3cd4:	06412483          	lw	s1,100(sp)
    3cd8:	00fa2423          	sw	a5,8(s4)
    3cdc:	00c12783          	lw	a5,12(sp)
    3ce0:	06012903          	lw	s2,96(sp)
    3ce4:	05c12983          	lw	s3,92(sp)
    3ce8:	00fa2623          	sw	a5,12(s4)
    3cec:	05412a83          	lw	s5,84(sp)
    3cf0:	05012b03          	lw	s6,80(sp)
    3cf4:	04c12b83          	lw	s7,76(sp)
    3cf8:	04812c03          	lw	s8,72(sp)
    3cfc:	000a0513          	mv	a0,s4
    3d00:	05812a03          	lw	s4,88(sp)
    3d04:	07010113          	add	sp,sp,112
    3d08:	00008067          	ret
    3d0c:	02c12703          	lw	a4,44(sp)
    3d10:	000806b7          	lui	a3,0x80
    3d14:	00d76733          	or	a4,a4,a3
    3d18:	02e12623          	sw	a4,44(sp)
    3d1c:	07400713          	li	a4,116
    3d20:	01175463          	bge	a4,a7,3d28 <__subtf3+0x398>
    3d24:	0bc0106f          	j	4de0 <__subtf3+0x1450>
    3d28:	00088613          	mv	a2,a7
    3d2c:	40565693          	sra	a3,a2,0x5
    3d30:	00030513          	mv	a0,t1
    3d34:	01f67613          	and	a2,a2,31
    3d38:	00000713          	li	a4,0
    3d3c:	00000593          	li	a1,0
    3d40:	02d59c63          	bne	a1,a3,3d78 <__subtf3+0x3e8>
    3d44:	00300593          	li	a1,3
    3d48:	40d585b3          	sub	a1,a1,a3
    3d4c:	00269513          	sll	a0,a3,0x2
    3d50:	02061e63          	bnez	a2,3d8c <__subtf3+0x3fc>
    3d54:	00a308b3          	add	a7,t1,a0
    3d58:	0008a883          	lw	a7,0(a7)
    3d5c:	00160613          	add	a2,a2,1
    3d60:	00430313          	add	t1,t1,4
    3d64:	ff132e23          	sw	a7,-4(t1)
    3d68:	fec5d6e3          	bge	a1,a2,3d54 <__subtf3+0x3c4>
    3d6c:	00400613          	li	a2,4
    3d70:	40d606b3          	sub	a3,a2,a3
    3d74:	0640006f          	j	3dd8 <__subtf3+0x448>
    3d78:	00052883          	lw	a7,0(a0)
    3d7c:	00158593          	add	a1,a1,1
    3d80:	00450513          	add	a0,a0,4
    3d84:	01176733          	or	a4,a4,a7
    3d88:	fb9ff06f          	j	3d40 <__subtf3+0x3b0>
    3d8c:	04050893          	add	a7,a0,64
    3d90:	002888b3          	add	a7,a7,sp
    3d94:	fe08a883          	lw	a7,-32(a7)
    3d98:	02000e13          	li	t3,32
    3d9c:	40ce0e33          	sub	t3,t3,a2
    3da0:	01c898b3          	sll	a7,a7,t3
    3da4:	01176733          	or	a4,a4,a7
    3da8:	00000e93          	li	t4,0
    3dac:	00a808b3          	add	a7,a6,a0
    3db0:	40a00533          	neg	a0,a0
    3db4:	14bec263          	blt	t4,a1,3ef8 <__subtf3+0x568>
    3db8:	00400513          	li	a0,4
    3dbc:	40d506b3          	sub	a3,a0,a3
    3dc0:	02c12503          	lw	a0,44(sp)
    3dc4:	00259593          	sll	a1,a1,0x2
    3dc8:	04058593          	add	a1,a1,64
    3dcc:	002585b3          	add	a1,a1,sp
    3dd0:	00c55633          	srl	a2,a0,a2
    3dd4:	fec5a023          	sw	a2,-32(a1)
    3dd8:	00400613          	li	a2,4
    3ddc:	40d60633          	sub	a2,a2,a3
    3de0:	00261613          	sll	a2,a2,0x2
    3de4:	00269693          	sll	a3,a3,0x2
    3de8:	00800593          	li	a1,8
    3dec:	00d806b3          	add	a3,a6,a3
    3df0:	00b66a63          	bltu	a2,a1,3e04 <__subtf3+0x474>
    3df4:	0006a023          	sw	zero,0(a3) # 80000 <_end+0x6ad9c>
    3df8:	0006a223          	sw	zero,4(a3)
    3dfc:	ff860613          	add	a2,a2,-8
    3e00:	00868693          	add	a3,a3,8
    3e04:	00400593          	li	a1,4
    3e08:	00b66463          	bltu	a2,a1,3e10 <__subtf3+0x480>
    3e0c:	0006a023          	sw	zero,0(a3)
    3e10:	02012683          	lw	a3,32(sp)
    3e14:	00e03733          	snez	a4,a4
    3e18:	00d76733          	or	a4,a4,a3
    3e1c:	02412683          	lw	a3,36(sp)
    3e20:	02e12023          	sw	a4,32(sp)
    3e24:	00e78733          	add	a4,a5,a4
    3e28:	01268933          	add	s2,a3,s2
    3e2c:	02e12823          	sw	a4,48(sp)
    3e30:	00f73733          	sltu	a4,a4,a5
    3e34:	02812783          	lw	a5,40(sp)
    3e38:	00e90733          	add	a4,s2,a4
    3e3c:	02e12a23          	sw	a4,52(sp)
    3e40:	00d936b3          	sltu	a3,s2,a3
    3e44:	01273733          	sltu	a4,a4,s2
    3e48:	013789b3          	add	s3,a5,s3
    3e4c:	00e6e733          	or	a4,a3,a4
    3e50:	00e98733          	add	a4,s3,a4
    3e54:	02e12c23          	sw	a4,56(sp)
    3e58:	00f9b7b3          	sltu	a5,s3,a5
    3e5c:	01373733          	sltu	a4,a4,s3
    3e60:	00e7e7b3          	or	a5,a5,a4
    3e64:	02c12703          	lw	a4,44(sp)
    3e68:	00eb0733          	add	a4,s6,a4
    3e6c:	00e787b3          	add	a5,a5,a4
    3e70:	02f12e23          	sw	a5,60(sp)
    3e74:	00c79713          	sll	a4,a5,0xc
    3e78:	d2075ae3          	bgez	a4,3bac <__subtf3+0x21c>
    3e7c:	03012683          	lw	a3,48(sp)
    3e80:	fff80737          	lui	a4,0xfff80
    3e84:	fff70713          	add	a4,a4,-1 # fff7ffff <_end+0xfff6ad9b>
    3e88:	00e7f7b3          	and	a5,a5,a4
    3e8c:	02f12e23          	sw	a5,60(sp)
    3e90:	00148493          	add	s1,s1,1
    3e94:	01f69693          	sll	a3,a3,0x1f
    3e98:	03010713          	add	a4,sp,48
    3e9c:	03c10513          	add	a0,sp,60
    3ea0:	00072603          	lw	a2,0(a4)
    3ea4:	00472583          	lw	a1,4(a4)
    3ea8:	00470713          	add	a4,a4,4
    3eac:	00165613          	srl	a2,a2,0x1
    3eb0:	01f59593          	sll	a1,a1,0x1f
    3eb4:	00b66633          	or	a2,a2,a1
    3eb8:	fec72e23          	sw	a2,-4(a4)
    3ebc:	fee512e3          	bne	a0,a4,3ea0 <__subtf3+0x510>
    3ec0:	03012703          	lw	a4,48(sp)
    3ec4:	0017d793          	srl	a5,a5,0x1
    3ec8:	02f12e23          	sw	a5,60(sp)
    3ecc:	00d037b3          	snez	a5,a3
    3ed0:	00f767b3          	or	a5,a4,a5
    3ed4:	02f12823          	sw	a5,48(sp)
    3ed8:	000087b7          	lui	a5,0x8
    3edc:	fff78793          	add	a5,a5,-1 # 7fff <_vfprintf_r+0xc13>
    3ee0:	ccf496e3          	bne	s1,a5,3bac <__subtf3+0x21c>
    3ee4:	02012e23          	sw	zero,60(sp)
    3ee8:	02012c23          	sw	zero,56(sp)
    3eec:	02012a23          	sw	zero,52(sp)
    3ef0:	02012823          	sw	zero,48(sp)
    3ef4:	cb9ff06f          	j	3bac <__subtf3+0x21c>
    3ef8:	0008a303          	lw	t1,0(a7)
    3efc:	0048af03          	lw	t5,4(a7)
    3f00:	00a88fb3          	add	t6,a7,a0
    3f04:	00c35333          	srl	t1,t1,a2
    3f08:	01cf1f33          	sll	t5,t5,t3
    3f0c:	01e36333          	or	t1,t1,t5
    3f10:	006fa023          	sw	t1,0(t6)
    3f14:	001e8e93          	add	t4,t4,1
    3f18:	00488893          	add	a7,a7,4
    3f1c:	e99ff06f          	j	3db4 <__subtf3+0x424>
    3f20:	02412903          	lw	s2,36(sp)
    3f24:	02812983          	lw	s3,40(sp)
    3f28:	02c12b03          	lw	s6,44(sp)
    3f2c:	26088263          	beqz	a7,4190 <__subtf3+0x800>
    3f30:	409b8833          	sub	a6,s7,s1
    3f34:	0a049c63          	bnez	s1,3fec <__subtf3+0x65c>
    3f38:	01412683          	lw	a3,20(sp)
    3f3c:	01812703          	lw	a4,24(sp)
    3f40:	01c12883          	lw	a7,28(sp)
    3f44:	00e6e5b3          	or	a1,a3,a4
    3f48:	0115e5b3          	or	a1,a1,a7
    3f4c:	00f5e5b3          	or	a1,a1,a5
    3f50:	00059e63          	bnez	a1,3f6c <__subtf3+0x5dc>
    3f54:	02812823          	sw	s0,48(sp)
    3f58:	03212a23          	sw	s2,52(sp)
    3f5c:	03312c23          	sw	s3,56(sp)
    3f60:	03612e23          	sw	s6,60(sp)
    3f64:	00080493          	mv	s1,a6
    3f68:	c45ff06f          	j	3bac <__subtf3+0x21c>
    3f6c:	fff80593          	add	a1,a6,-1
    3f70:	04059663          	bnez	a1,3fbc <__subtf3+0x62c>
    3f74:	00878433          	add	s0,a5,s0
    3f78:	01268933          	add	s2,a3,s2
    3f7c:	02812823          	sw	s0,48(sp)
    3f80:	00f43433          	sltu	s0,s0,a5
    3f84:	00890433          	add	s0,s2,s0
    3f88:	02812a23          	sw	s0,52(sp)
    3f8c:	00d936b3          	sltu	a3,s2,a3
    3f90:	01243433          	sltu	s0,s0,s2
    3f94:	013709b3          	add	s3,a4,s3
    3f98:	0086e6b3          	or	a3,a3,s0
    3f9c:	00d986b3          	add	a3,s3,a3
    3fa0:	02d12c23          	sw	a3,56(sp)
    3fa4:	00e9b7b3          	sltu	a5,s3,a4
    3fa8:	0136b6b3          	sltu	a3,a3,s3
    3fac:	00d7e7b3          	or	a5,a5,a3
    3fb0:	016888b3          	add	a7,a7,s6
    3fb4:	011787b3          	add	a5,a5,a7
    3fb8:	bb9ff06f          	j	3b70 <__subtf3+0x1e0>
    3fbc:	000087b7          	lui	a5,0x8
    3fc0:	fff78793          	add	a5,a5,-1 # 7fff <_vfprintf_r+0xc13>
    3fc4:	62f818e3          	bne	a6,a5,4df4 <__subtf3+0x1464>
    3fc8:	02812823          	sw	s0,48(sp)
    3fcc:	03212a23          	sw	s2,52(sp)
    3fd0:	03312c23          	sw	s3,56(sp)
    3fd4:	03612e23          	sw	s6,60(sp)
    3fd8:	000084b7          	lui	s1,0x8
    3fdc:	fff48493          	add	s1,s1,-1 # 7fff <_vfprintf_r+0xc13>
    3fe0:	bcdff06f          	j	3bac <__subtf3+0x21c>
    3fe4:	00078413          	mv	s0,a5
    3fe8:	fe1ff06f          	j	3fc8 <__subtf3+0x638>
    3fec:	000087b7          	lui	a5,0x8
    3ff0:	fff78793          	add	a5,a5,-1 # 7fff <_vfprintf_r+0xc13>
    3ff4:	fcfb8ae3          	beq	s7,a5,3fc8 <__subtf3+0x638>
    3ff8:	01c12783          	lw	a5,28(sp)
    3ffc:	00080737          	lui	a4,0x80
    4000:	00e7e7b3          	or	a5,a5,a4
    4004:	00f12e23          	sw	a5,28(sp)
    4008:	07400793          	li	a5,116
    400c:	5f07c8e3          	blt	a5,a6,4dfc <__subtf3+0x146c>
    4010:	00080593          	mv	a1,a6
    4014:	02000713          	li	a4,32
    4018:	02e5c733          	div	a4,a1,a4
    401c:	00060693          	mv	a3,a2
    4020:	00000493          	li	s1,0
    4024:	00000793          	li	a5,0
    4028:	02e7ce63          	blt	a5,a4,4064 <__subtf3+0x6d4>
    402c:	00300793          	li	a5,3
    4030:	01f5f893          	and	a7,a1,31
    4034:	40e787b3          	sub	a5,a5,a4
    4038:	00271813          	sll	a6,a4,0x2
    403c:	02089e63          	bnez	a7,4078 <__subtf3+0x6e8>
    4040:	010606b3          	add	a3,a2,a6
    4044:	0006a683          	lw	a3,0(a3)
    4048:	00188893          	add	a7,a7,1
    404c:	00460613          	add	a2,a2,4
    4050:	fed62e23          	sw	a3,-4(a2)
    4054:	ff17d6e3          	bge	a5,a7,4040 <__subtf3+0x6b0>
    4058:	00400793          	li	a5,4
    405c:	40e78733          	sub	a4,a5,a4
    4060:	0780006f          	j	40d8 <__subtf3+0x748>
    4064:	0006a803          	lw	a6,0(a3)
    4068:	00178793          	add	a5,a5,1
    406c:	00468693          	add	a3,a3,4
    4070:	0104e4b3          	or	s1,s1,a6
    4074:	fb5ff06f          	j	4028 <__subtf3+0x698>
    4078:	02000693          	li	a3,32
    407c:	02d5e5b3          	rem	a1,a1,a3
    4080:	40b685b3          	sub	a1,a3,a1
    4084:	00070693          	mv	a3,a4
    4088:	00075463          	bgez	a4,4090 <__subtf3+0x700>
    408c:	00000693          	li	a3,0
    4090:	00269693          	sll	a3,a3,0x2
    4094:	04068693          	add	a3,a3,64
    4098:	002686b3          	add	a3,a3,sp
    409c:	fd06a683          	lw	a3,-48(a3)
    40a0:	00000313          	li	t1,0
    40a4:	00b696b3          	sll	a3,a3,a1
    40a8:	00d4e4b3          	or	s1,s1,a3
    40ac:	010506b3          	add	a3,a0,a6
    40b0:	41000833          	neg	a6,a6
    40b4:	0af34a63          	blt	t1,a5,4168 <__subtf3+0x7d8>
    40b8:	00400693          	li	a3,4
    40bc:	40e68733          	sub	a4,a3,a4
    40c0:	01c12683          	lw	a3,28(sp)
    40c4:	00279793          	sll	a5,a5,0x2
    40c8:	04078793          	add	a5,a5,64
    40cc:	002787b3          	add	a5,a5,sp
    40d0:	0116d6b3          	srl	a3,a3,a7
    40d4:	fcd7a823          	sw	a3,-48(a5)
    40d8:	00572793          	slti	a5,a4,5
    40dc:	00000613          	li	a2,0
    40e0:	00078863          	beqz	a5,40f0 <__subtf3+0x760>
    40e4:	00400613          	li	a2,4
    40e8:	40e60633          	sub	a2,a2,a4
    40ec:	00261613          	sll	a2,a2,0x2
    40f0:	00271713          	sll	a4,a4,0x2
    40f4:	00e50533          	add	a0,a0,a4
    40f8:	00000593          	li	a1,0
    40fc:	b98fc0ef          	jal	494 <memset>
    4100:	01012703          	lw	a4,16(sp)
    4104:	009037b3          	snez	a5,s1
    4108:	00e7e7b3          	or	a5,a5,a4
    410c:	01412683          	lw	a3,20(sp)
    4110:	00f12823          	sw	a5,16(sp)
    4114:	00f407b3          	add	a5,s0,a5
    4118:	01268933          	add	s2,a3,s2
    411c:	02f12823          	sw	a5,48(sp)
    4120:	0087b7b3          	sltu	a5,a5,s0
    4124:	00f90733          	add	a4,s2,a5
    4128:	01812783          	lw	a5,24(sp)
    412c:	02e12a23          	sw	a4,52(sp)
    4130:	00d936b3          	sltu	a3,s2,a3
    4134:	01273733          	sltu	a4,a4,s2
    4138:	013789b3          	add	s3,a5,s3
    413c:	00e6e733          	or	a4,a3,a4
    4140:	00e98733          	add	a4,s3,a4
    4144:	02e12c23          	sw	a4,56(sp)
    4148:	00f9b7b3          	sltu	a5,s3,a5
    414c:	01373733          	sltu	a4,a4,s3
    4150:	00e7e7b3          	or	a5,a5,a4
    4154:	01c12703          	lw	a4,28(sp)
    4158:	000b8493          	mv	s1,s7
    415c:	00eb0733          	add	a4,s6,a4
    4160:	00e787b3          	add	a5,a5,a4
    4164:	d0dff06f          	j	3e70 <__subtf3+0x4e0>
    4168:	0006a603          	lw	a2,0(a3)
    416c:	0046ae03          	lw	t3,4(a3)
    4170:	01068eb3          	add	t4,a3,a6
    4174:	01165633          	srl	a2,a2,a7
    4178:	00be1e33          	sll	t3,t3,a1
    417c:	01c66633          	or	a2,a2,t3
    4180:	00cea023          	sw	a2,0(t4)
    4184:	00130313          	add	t1,t1,1
    4188:	00468693          	add	a3,a3,4
    418c:	f29ff06f          	j	40b4 <__subtf3+0x724>
    4190:	00148813          	add	a6,s1,1
    4194:	01181893          	sll	a7,a6,0x11
    4198:	0128d893          	srl	a7,a7,0x12
    419c:	01412683          	lw	a3,20(sp)
    41a0:	01812703          	lw	a4,24(sp)
    41a4:	01c12603          	lw	a2,28(sp)
    41a8:	03010593          	add	a1,sp,48
    41ac:	03c10513          	add	a0,sp,60
    41b0:	10089e63          	bnez	a7,42cc <__subtf3+0x93c>
    41b4:	00e6e833          	or	a6,a3,a4
    41b8:	00c86833          	or	a6,a6,a2
    41bc:	00f86833          	or	a6,a6,a5
    41c0:	0a049863          	bnez	s1,4270 <__subtf3+0x8e0>
    41c4:	00081e63          	bnez	a6,41e0 <__subtf3+0x850>
    41c8:	02812823          	sw	s0,48(sp)
    41cc:	03212a23          	sw	s2,52(sp)
    41d0:	03312c23          	sw	s3,56(sp)
    41d4:	03612e23          	sw	s6,60(sp)
    41d8:	00000493          	li	s1,0
    41dc:	9d1ff06f          	j	3bac <__subtf3+0x21c>
    41e0:	013965b3          	or	a1,s2,s3
    41e4:	0165e5b3          	or	a1,a1,s6
    41e8:	0085e5b3          	or	a1,a1,s0
    41ec:	00059c63          	bnez	a1,4204 <__subtf3+0x874>
    41f0:	02f12823          	sw	a5,48(sp)
    41f4:	02d12a23          	sw	a3,52(sp)
    41f8:	02e12c23          	sw	a4,56(sp)
    41fc:	02c12e23          	sw	a2,60(sp)
    4200:	9adff06f          	j	3bac <__subtf3+0x21c>
    4204:	00878433          	add	s0,a5,s0
    4208:	01268933          	add	s2,a3,s2
    420c:	02812823          	sw	s0,48(sp)
    4210:	00f43433          	sltu	s0,s0,a5
    4214:	00890433          	add	s0,s2,s0
    4218:	02812a23          	sw	s0,52(sp)
    421c:	00d936b3          	sltu	a3,s2,a3
    4220:	01243433          	sltu	s0,s0,s2
    4224:	013709b3          	add	s3,a4,s3
    4228:	0086e6b3          	or	a3,a3,s0
    422c:	00d986b3          	add	a3,s3,a3
    4230:	02d12c23          	sw	a3,56(sp)
    4234:	00e9b733          	sltu	a4,s3,a4
    4238:	0136b6b3          	sltu	a3,a3,s3
    423c:	00d76733          	or	a4,a4,a3
    4240:	01660633          	add	a2,a2,s6
    4244:	00c70733          	add	a4,a4,a2
    4248:	00c71793          	sll	a5,a4,0xc
    424c:	0007c663          	bltz	a5,4258 <__subtf3+0x8c8>
    4250:	02e12e23          	sw	a4,60(sp)
    4254:	959ff06f          	j	3bac <__subtf3+0x21c>
    4258:	fff807b7          	lui	a5,0xfff80
    425c:	fff78793          	add	a5,a5,-1 # fff7ffff <_end+0xfff6ad9b>
    4260:	00f77733          	and	a4,a4,a5
    4264:	02e12e23          	sw	a4,60(sp)
    4268:	00100493          	li	s1,1
    426c:	941ff06f          	j	3bac <__subtf3+0x21c>
    4270:	1a080463          	beqz	a6,4418 <__subtf3+0xa88>
    4274:	01396933          	or	s2,s2,s3
    4278:	01696933          	or	s2,s2,s6
    427c:	00896933          	or	s2,s2,s0
    4280:	1a090063          	beqz	s2,4420 <__subtf3+0xa90>
    4284:	000087b7          	lui	a5,0x8
    4288:	02f12e23          	sw	a5,60(sp)
    428c:	02012c23          	sw	zero,56(sp)
    4290:	02012a23          	sw	zero,52(sp)
    4294:	02012823          	sw	zero,48(sp)
    4298:	00050793          	mv	a5,a0
    429c:	0007a703          	lw	a4,0(a5) # 8000 <_vfprintf_r+0xc14>
    42a0:	ffc7a683          	lw	a3,-4(a5)
    42a4:	ffc78793          	add	a5,a5,-4
    42a8:	00371713          	sll	a4,a4,0x3
    42ac:	01d6d693          	srl	a3,a3,0x1d
    42b0:	00d76733          	or	a4,a4,a3
    42b4:	00e7a223          	sw	a4,4(a5)
    42b8:	fef592e3          	bne	a1,a5,429c <__subtf3+0x90c>
    42bc:	000084b7          	lui	s1,0x8
    42c0:	fff48493          	add	s1,s1,-1 # 7fff <_vfprintf_r+0xc13>
    42c4:	00000a93          	li	s5,0
    42c8:	8e5ff06f          	j	3bac <__subtf3+0x21c>
    42cc:	00878433          	add	s0,a5,s0
    42d0:	01268933          	add	s2,a3,s2
    42d4:	02812823          	sw	s0,48(sp)
    42d8:	00f43433          	sltu	s0,s0,a5
    42dc:	00890433          	add	s0,s2,s0
    42e0:	02812a23          	sw	s0,52(sp)
    42e4:	00d936b3          	sltu	a3,s2,a3
    42e8:	01243433          	sltu	s0,s0,s2
    42ec:	013709b3          	add	s3,a4,s3
    42f0:	0086e6b3          	or	a3,a3,s0
    42f4:	00d986b3          	add	a3,s3,a3
    42f8:	02d12c23          	sw	a3,56(sp)
    42fc:	00e9b733          	sltu	a4,s3,a4
    4300:	0136b6b3          	sltu	a3,a3,s3
    4304:	00d76733          	or	a4,a4,a3
    4308:	01660633          	add	a2,a2,s6
    430c:	00c70733          	add	a4,a4,a2
    4310:	02e12e23          	sw	a4,60(sp)
    4314:	00058793          	mv	a5,a1
    4318:	0007a683          	lw	a3,0(a5)
    431c:	0047a603          	lw	a2,4(a5)
    4320:	00478793          	add	a5,a5,4
    4324:	0016d693          	srl	a3,a3,0x1
    4328:	01f61613          	sll	a2,a2,0x1f
    432c:	00c6e6b3          	or	a3,a3,a2
    4330:	fed7ae23          	sw	a3,-4(a5)
    4334:	fef512e3          	bne	a0,a5,4318 <__subtf3+0x988>
    4338:	000087b7          	lui	a5,0x8
    433c:	fff78793          	add	a5,a5,-1 # 7fff <_vfprintf_r+0xc13>
    4340:	00f80863          	beq	a6,a5,4350 <__subtf3+0x9c0>
    4344:	00175713          	srl	a4,a4,0x1
    4348:	02e12e23          	sw	a4,60(sp)
    434c:	c19ff06f          	j	3f64 <__subtf3+0x5d4>
    4350:	02012e23          	sw	zero,60(sp)
    4354:	02012c23          	sw	zero,56(sp)
    4358:	02012a23          	sw	zero,52(sp)
    435c:	02012823          	sw	zero,48(sp)
    4360:	c05ff06f          	j	3f64 <__subtf3+0x5d4>
    4364:	29105c63          	blez	a7,45fc <__subtf3+0xc6c>
    4368:	01412903          	lw	s2,20(sp)
    436c:	01812983          	lw	s3,24(sp)
    4370:	01c12b03          	lw	s6,28(sp)
    4374:	0a0b9e63          	bnez	s7,4430 <__subtf3+0xaa0>
    4378:	02412e03          	lw	t3,36(sp)
    437c:	02812503          	lw	a0,40(sp)
    4380:	02c12683          	lw	a3,44(sp)
    4384:	00ae6733          	or	a4,t3,a0
    4388:	00d76733          	or	a4,a4,a3
    438c:	00876733          	or	a4,a4,s0
    4390:	f6070e63          	beqz	a4,3b0c <__subtf3+0x17c>
    4394:	fff88e93          	add	t4,a7,-1
    4398:	040e9c63          	bnez	t4,43f0 <__subtf3+0xa60>
    439c:	40878733          	sub	a4,a5,s0
    43a0:	41c90633          	sub	a2,s2,t3
    43a4:	00e7b5b3          	sltu	a1,a5,a4
    43a8:	00c93833          	sltu	a6,s2,a2
    43ac:	40b60633          	sub	a2,a2,a1
    43b0:	00000593          	li	a1,0
    43b4:	00e7f663          	bgeu	a5,a4,43c0 <__subtf3+0xa30>
    43b8:	412e0e33          	sub	t3,t3,s2
    43bc:	001e3593          	seqz	a1,t3
    43c0:	0105e7b3          	or	a5,a1,a6
    43c4:	40a985b3          	sub	a1,s3,a0
    43c8:	00b9b833          	sltu	a6,s3,a1
    43cc:	40f585b3          	sub	a1,a1,a5
    43d0:	00078663          	beqz	a5,43dc <__subtf3+0xa4c>
    43d4:	41350533          	sub	a0,a0,s3
    43d8:	00153e93          	seqz	t4,a0
    43dc:	40db07b3          	sub	a5,s6,a3
    43e0:	010ee6b3          	or	a3,t4,a6
    43e4:	40d787b3          	sub	a5,a5,a3
    43e8:	00100493          	li	s1,1
    43ec:	1bc0006f          	j	45a8 <__subtf3+0xc18>
    43f0:	00008737          	lui	a4,0x8
    43f4:	fff70713          	add	a4,a4,-1 # 7fff <_vfprintf_r+0xc13>
    43f8:	f8e88863          	beq	a7,a4,3b88 <__subtf3+0x1f8>
    43fc:	07400713          	li	a4,116
    4400:	05d75c63          	bge	a4,t4,4458 <__subtf3+0xac8>
    4404:	02012623          	sw	zero,44(sp)
    4408:	02012423          	sw	zero,40(sp)
    440c:	02012223          	sw	zero,36(sp)
    4410:	00100713          	li	a4,1
    4414:	1340006f          	j	4548 <__subtf3+0xbb8>
    4418:	00040793          	mv	a5,s0
    441c:	f6cff06f          	j	3b88 <__subtf3+0x1f8>
    4420:	00068913          	mv	s2,a3
    4424:	00070993          	mv	s3,a4
    4428:	00060b13          	mv	s6,a2
    442c:	f5cff06f          	j	3b88 <__subtf3+0x1f8>
    4430:	00008737          	lui	a4,0x8
    4434:	fff70713          	add	a4,a4,-1 # 7fff <_vfprintf_r+0xc13>
    4438:	bae486e3          	beq	s1,a4,3fe4 <__subtf3+0x654>
    443c:	02c12703          	lw	a4,44(sp)
    4440:	000806b7          	lui	a3,0x80
    4444:	00d76733          	or	a4,a4,a3
    4448:	02e12623          	sw	a4,44(sp)
    444c:	07400713          	li	a4,116
    4450:	fb174ae3          	blt	a4,a7,4404 <__subtf3+0xa74>
    4454:	00088e93          	mv	t4,a7
    4458:	405ed693          	sra	a3,t4,0x5
    445c:	00030593          	mv	a1,t1
    4460:	01fefe93          	and	t4,t4,31
    4464:	00000713          	li	a4,0
    4468:	00000613          	li	a2,0
    446c:	02d61c63          	bne	a2,a3,44a4 <__subtf3+0xb14>
    4470:	00300613          	li	a2,3
    4474:	40d60633          	sub	a2,a2,a3
    4478:	00269593          	sll	a1,a3,0x2
    447c:	020e9e63          	bnez	t4,44b8 <__subtf3+0xb28>
    4480:	00b30533          	add	a0,t1,a1
    4484:	00052503          	lw	a0,0(a0)
    4488:	001e8e93          	add	t4,t4,1
    448c:	00430313          	add	t1,t1,4
    4490:	fea32e23          	sw	a0,-4(t1)
    4494:	ffd656e3          	bge	a2,t4,4480 <__subtf3+0xaf0>
    4498:	00400613          	li	a2,4
    449c:	40d606b3          	sub	a3,a2,a3
    44a0:	0640006f          	j	4504 <__subtf3+0xb74>
    44a4:	0005a503          	lw	a0,0(a1)
    44a8:	00160613          	add	a2,a2,1
    44ac:	00458593          	add	a1,a1,4
    44b0:	00a76733          	or	a4,a4,a0
    44b4:	fb9ff06f          	j	446c <__subtf3+0xadc>
    44b8:	04058513          	add	a0,a1,64
    44bc:	00250533          	add	a0,a0,sp
    44c0:	fe052503          	lw	a0,-32(a0)
    44c4:	02000313          	li	t1,32
    44c8:	41d30333          	sub	t1,t1,t4
    44cc:	00651533          	sll	a0,a0,t1
    44d0:	00a76733          	or	a4,a4,a0
    44d4:	00000e13          	li	t3,0
    44d8:	00b80533          	add	a0,a6,a1
    44dc:	40b005b3          	neg	a1,a1
    44e0:	0ece4a63          	blt	t3,a2,45d4 <__subtf3+0xc44>
    44e4:	00400593          	li	a1,4
    44e8:	40d586b3          	sub	a3,a1,a3
    44ec:	02c12583          	lw	a1,44(sp)
    44f0:	00261613          	sll	a2,a2,0x2
    44f4:	04060613          	add	a2,a2,64
    44f8:	00260633          	add	a2,a2,sp
    44fc:	01d5d5b3          	srl	a1,a1,t4
    4500:	feb62023          	sw	a1,-32(a2)
    4504:	00400613          	li	a2,4
    4508:	40d60633          	sub	a2,a2,a3
    450c:	00261613          	sll	a2,a2,0x2
    4510:	00269693          	sll	a3,a3,0x2
    4514:	00800593          	li	a1,8
    4518:	00d806b3          	add	a3,a6,a3
    451c:	00b66a63          	bltu	a2,a1,4530 <__subtf3+0xba0>
    4520:	0006a023          	sw	zero,0(a3) # 80000 <_end+0x6ad9c>
    4524:	0006a223          	sw	zero,4(a3)
    4528:	ff860613          	add	a2,a2,-8
    452c:	00868693          	add	a3,a3,8
    4530:	00400593          	li	a1,4
    4534:	00b66463          	bltu	a2,a1,453c <__subtf3+0xbac>
    4538:	0006a023          	sw	zero,0(a3)
    453c:	02012683          	lw	a3,32(sp)
    4540:	00e03733          	snez	a4,a4
    4544:	00d76733          	or	a4,a4,a3
    4548:	02412583          	lw	a1,36(sp)
    454c:	02e12023          	sw	a4,32(sp)
    4550:	40e78733          	sub	a4,a5,a4
    4554:	40b90633          	sub	a2,s2,a1
    4558:	00e7b6b3          	sltu	a3,a5,a4
    455c:	00c93533          	sltu	a0,s2,a2
    4560:	40d60633          	sub	a2,a2,a3
    4564:	00000693          	li	a3,0
    4568:	00e7f663          	bgeu	a5,a4,4574 <__subtf3+0xbe4>
    456c:	412585b3          	sub	a1,a1,s2
    4570:	0015b693          	seqz	a3,a1
    4574:	00a6e7b3          	or	a5,a3,a0
    4578:	02812503          	lw	a0,40(sp)
    457c:	00000693          	li	a3,0
    4580:	40a985b3          	sub	a1,s3,a0
    4584:	00b9b833          	sltu	a6,s3,a1
    4588:	40f585b3          	sub	a1,a1,a5
    458c:	00078663          	beqz	a5,4598 <__subtf3+0xc08>
    4590:	41350533          	sub	a0,a0,s3
    4594:	00153693          	seqz	a3,a0
    4598:	02c12783          	lw	a5,44(sp)
    459c:	0106e6b3          	or	a3,a3,a6
    45a0:	40fb07b3          	sub	a5,s6,a5
    45a4:	40d787b3          	sub	a5,a5,a3
    45a8:	02e12823          	sw	a4,48(sp)
    45ac:	02f12e23          	sw	a5,60(sp)
    45b0:	02b12c23          	sw	a1,56(sp)
    45b4:	02c12a23          	sw	a2,52(sp)
    45b8:	00c79713          	sll	a4,a5,0xc
    45bc:	de075863          	bgez	a4,3bac <__subtf3+0x21c>
    45c0:	00080737          	lui	a4,0x80
    45c4:	fff70713          	add	a4,a4,-1 # 7ffff <_end+0x6ad9b>
    45c8:	00e7f7b3          	and	a5,a5,a4
    45cc:	02f12e23          	sw	a5,60(sp)
    45d0:	5700006f          	j	4b40 <__subtf3+0x11b0>
    45d4:	00052883          	lw	a7,0(a0)
    45d8:	00452f03          	lw	t5,4(a0)
    45dc:	00b50fb3          	add	t6,a0,a1
    45e0:	01d8d8b3          	srl	a7,a7,t4
    45e4:	006f1f33          	sll	t5,t5,t1
    45e8:	01e8e8b3          	or	a7,a7,t5
    45ec:	011fa023          	sw	a7,0(t6)
    45f0:	001e0e13          	add	t3,t3,1
    45f4:	00450513          	add	a0,a0,4
    45f8:	ee9ff06f          	j	44e0 <__subtf3+0xb50>
    45fc:	02412c03          	lw	s8,36(sp)
    4600:	02812b03          	lw	s6,40(sp)
    4604:	02c12983          	lw	s3,44(sp)
    4608:	28088463          	beqz	a7,4890 <__subtf3+0xf00>
    460c:	409b8333          	sub	t1,s7,s1
    4610:	0a049e63          	bnez	s1,46cc <__subtf3+0xd3c>
    4614:	01412583          	lw	a1,20(sp)
    4618:	01812803          	lw	a6,24(sp)
    461c:	01c12683          	lw	a3,28(sp)
    4620:	0105e8b3          	or	a7,a1,a6
    4624:	00d8e8b3          	or	a7,a7,a3
    4628:	00f8e8b3          	or	a7,a7,a5
    462c:	02089063          	bnez	a7,464c <__subtf3+0xcbc>
    4630:	02812823          	sw	s0,48(sp)
    4634:	03812a23          	sw	s8,52(sp)
    4638:	03612c23          	sw	s6,56(sp)
    463c:	03312e23          	sw	s3,60(sp)
    4640:	00030493          	mv	s1,t1
    4644:	00090a93          	mv	s5,s2
    4648:	d64ff06f          	j	3bac <__subtf3+0x21c>
    464c:	fff30893          	add	a7,t1,-1
    4650:	04089c63          	bnez	a7,46a8 <__subtf3+0xd18>
    4654:	40f40733          	sub	a4,s0,a5
    4658:	40bc0633          	sub	a2,s8,a1
    465c:	00e437b3          	sltu	a5,s0,a4
    4660:	00cc3533          	sltu	a0,s8,a2
    4664:	40f60633          	sub	a2,a2,a5
    4668:	00000793          	li	a5,0
    466c:	00e47663          	bgeu	s0,a4,4678 <__subtf3+0xce8>
    4670:	418585b3          	sub	a1,a1,s8
    4674:	0015b793          	seqz	a5,a1
    4678:	00a7e7b3          	or	a5,a5,a0
    467c:	410b05b3          	sub	a1,s6,a6
    4680:	00bb3533          	sltu	a0,s6,a1
    4684:	40f585b3          	sub	a1,a1,a5
    4688:	00078663          	beqz	a5,4694 <__subtf3+0xd04>
    468c:	41680833          	sub	a6,a6,s6
    4690:	00183893          	seqz	a7,a6
    4694:	40d987b3          	sub	a5,s3,a3
    4698:	00a8e6b3          	or	a3,a7,a0
    469c:	40d787b3          	sub	a5,a5,a3
    46a0:	00090a93          	mv	s5,s2
    46a4:	d45ff06f          	j	43e8 <__subtf3+0xa58>
    46a8:	000087b7          	lui	a5,0x8
    46ac:	fff78793          	add	a5,a5,-1 # 7fff <_vfprintf_r+0xc13>
    46b0:	76f31063          	bne	t1,a5,4e10 <__subtf3+0x1480>
    46b4:	02812823          	sw	s0,48(sp)
    46b8:	03812a23          	sw	s8,52(sp)
    46bc:	03612c23          	sw	s6,56(sp)
    46c0:	03312e23          	sw	s3,60(sp)
    46c4:	00090a93          	mv	s5,s2
    46c8:	911ff06f          	j	3fd8 <__subtf3+0x648>
    46cc:	000087b7          	lui	a5,0x8
    46d0:	fff78793          	add	a5,a5,-1 # 7fff <_vfprintf_r+0xc13>
    46d4:	fefb80e3          	beq	s7,a5,46b4 <__subtf3+0xd24>
    46d8:	01c12783          	lw	a5,28(sp)
    46dc:	00080737          	lui	a4,0x80
    46e0:	00e7e7b3          	or	a5,a5,a4
    46e4:	00f12e23          	sw	a5,28(sp)
    46e8:	07400793          	li	a5,116
    46ec:	1867c863          	blt	a5,t1,487c <__subtf3+0xeec>
    46f0:	02000793          	li	a5,32
    46f4:	02f347b3          	div	a5,t1,a5
    46f8:	00060693          	mv	a3,a2
    46fc:	00000493          	li	s1,0
    4700:	00000713          	li	a4,0
    4704:	02f74e63          	blt	a4,a5,4740 <__subtf3+0xdb0>
    4708:	00300713          	li	a4,3
    470c:	01f37893          	and	a7,t1,31
    4710:	40f70e33          	sub	t3,a4,a5
    4714:	00279593          	sll	a1,a5,0x2
    4718:	02089e63          	bnez	a7,4754 <__subtf3+0xdc4>
    471c:	00b60733          	add	a4,a2,a1
    4720:	00072703          	lw	a4,0(a4) # 80000 <_end+0x6ad9c>
    4724:	00188893          	add	a7,a7,1
    4728:	00460613          	add	a2,a2,4
    472c:	fee62e23          	sw	a4,-4(a2)
    4730:	ff1e56e3          	bge	t3,a7,471c <__subtf3+0xd8c>
    4734:	00400713          	li	a4,4
    4738:	40f707b3          	sub	a5,a4,a5
    473c:	0780006f          	j	47b4 <__subtf3+0xe24>
    4740:	0006a583          	lw	a1,0(a3)
    4744:	00170713          	add	a4,a4,1
    4748:	00468693          	add	a3,a3,4
    474c:	00b4e4b3          	or	s1,s1,a1
    4750:	fb5ff06f          	j	4704 <__subtf3+0xd74>
    4754:	02000613          	li	a2,32
    4758:	02c36733          	rem	a4,t1,a2
    475c:	00078693          	mv	a3,a5
    4760:	40e60633          	sub	a2,a2,a4
    4764:	0007d463          	bgez	a5,476c <__subtf3+0xddc>
    4768:	00000693          	li	a3,0
    476c:	00269693          	sll	a3,a3,0x2
    4770:	04068713          	add	a4,a3,64
    4774:	002706b3          	add	a3,a4,sp
    4778:	fd06a703          	lw	a4,-48(a3)
    477c:	00b506b3          	add	a3,a0,a1
    4780:	40b005b3          	neg	a1,a1
    4784:	00c71733          	sll	a4,a4,a2
    4788:	00e4e4b3          	or	s1,s1,a4
    478c:	00000713          	li	a4,0
    4790:	0dc74263          	blt	a4,t3,4854 <__subtf3+0xec4>
    4794:	01c12683          	lw	a3,28(sp)
    4798:	00400713          	li	a4,4
    479c:	40f707b3          	sub	a5,a4,a5
    47a0:	002e1713          	sll	a4,t3,0x2
    47a4:	04070713          	add	a4,a4,64
    47a8:	00270733          	add	a4,a4,sp
    47ac:	0116d6b3          	srl	a3,a3,a7
    47b0:	fcd72823          	sw	a3,-48(a4)
    47b4:	0057a713          	slti	a4,a5,5
    47b8:	00000613          	li	a2,0
    47bc:	00070863          	beqz	a4,47cc <__subtf3+0xe3c>
    47c0:	00400613          	li	a2,4
    47c4:	40f60633          	sub	a2,a2,a5
    47c8:	00261613          	sll	a2,a2,0x2
    47cc:	00279793          	sll	a5,a5,0x2
    47d0:	00f50533          	add	a0,a0,a5
    47d4:	00000593          	li	a1,0
    47d8:	cbdfb0ef          	jal	494 <memset>
    47dc:	01012783          	lw	a5,16(sp)
    47e0:	00903733          	snez	a4,s1
    47e4:	00f76733          	or	a4,a4,a5
    47e8:	01412683          	lw	a3,20(sp)
    47ec:	00e12823          	sw	a4,16(sp)
    47f0:	40e40733          	sub	a4,s0,a4
    47f4:	40dc0633          	sub	a2,s8,a3
    47f8:	00e437b3          	sltu	a5,s0,a4
    47fc:	00cc35b3          	sltu	a1,s8,a2
    4800:	40f60633          	sub	a2,a2,a5
    4804:	00000793          	li	a5,0
    4808:	00e47663          	bgeu	s0,a4,4814 <__subtf3+0xe84>
    480c:	418686b3          	sub	a3,a3,s8
    4810:	0016b793          	seqz	a5,a3
    4814:	01812503          	lw	a0,24(sp)
    4818:	00b7e7b3          	or	a5,a5,a1
    481c:	00000693          	li	a3,0
    4820:	40ab05b3          	sub	a1,s6,a0
    4824:	00bb3833          	sltu	a6,s6,a1
    4828:	40f585b3          	sub	a1,a1,a5
    482c:	00078663          	beqz	a5,4838 <__subtf3+0xea8>
    4830:	41650533          	sub	a0,a0,s6
    4834:	00153693          	seqz	a3,a0
    4838:	01c12783          	lw	a5,28(sp)
    483c:	0106e6b3          	or	a3,a3,a6
    4840:	000b8493          	mv	s1,s7
    4844:	40f987b3          	sub	a5,s3,a5
    4848:	40d787b3          	sub	a5,a5,a3
    484c:	00090a93          	mv	s5,s2
    4850:	d59ff06f          	j	45a8 <__subtf3+0xc18>
    4854:	0006a803          	lw	a6,0(a3)
    4858:	0046a303          	lw	t1,4(a3)
    485c:	00b68eb3          	add	t4,a3,a1
    4860:	01185833          	srl	a6,a6,a7
    4864:	00c31333          	sll	t1,t1,a2
    4868:	00686833          	or	a6,a6,t1
    486c:	010ea023          	sw	a6,0(t4)
    4870:	00170713          	add	a4,a4,1
    4874:	00468693          	add	a3,a3,4
    4878:	f19ff06f          	j	4790 <__subtf3+0xe00>
    487c:	00012e23          	sw	zero,28(sp)
    4880:	00012c23          	sw	zero,24(sp)
    4884:	00012a23          	sw	zero,20(sp)
    4888:	00100713          	li	a4,1
    488c:	f5dff06f          	j	47e8 <__subtf3+0xe58>
    4890:	00148593          	add	a1,s1,1
    4894:	01159513          	sll	a0,a1,0x11
    4898:	01255513          	srl	a0,a0,0x12
    489c:	01412683          	lw	a3,20(sp)
    48a0:	01812603          	lw	a2,24(sp)
    48a4:	01c12703          	lw	a4,28(sp)
    48a8:	00008837          	lui	a6,0x8
    48ac:	1c051e63          	bnez	a0,4a88 <__subtf3+0x10f8>
    48b0:	016c6533          	or	a0,s8,s6
    48b4:	00c6e5b3          	or	a1,a3,a2
    48b8:	01356533          	or	a0,a0,s3
    48bc:	00e5e5b3          	or	a1,a1,a4
    48c0:	00856533          	or	a0,a0,s0
    48c4:	00f5e5b3          	or	a1,a1,a5
    48c8:	10049863          	bnez	s1,49d8 <__subtf3+0x1048>
    48cc:	02059263          	bnez	a1,48f0 <__subtf3+0xf60>
    48d0:	02812823          	sw	s0,48(sp)
    48d4:	03812a23          	sw	s8,52(sp)
    48d8:	03612c23          	sw	s6,56(sp)
    48dc:	03312e23          	sw	s3,60(sp)
    48e0:	00090a93          	mv	s5,s2
    48e4:	ac051463          	bnez	a0,3bac <__subtf3+0x21c>
    48e8:	00000493          	li	s1,0
    48ec:	9d9ff06f          	j	42c4 <__subtf3+0x934>
    48f0:	00051c63          	bnez	a0,4908 <__subtf3+0xf78>
    48f4:	02f12823          	sw	a5,48(sp)
    48f8:	02d12a23          	sw	a3,52(sp)
    48fc:	02c12c23          	sw	a2,56(sp)
    4900:	02e12e23          	sw	a4,60(sp)
    4904:	8d5ff06f          	j	41d8 <__subtf3+0x848>
    4908:	40878533          	sub	a0,a5,s0
    490c:	41868e33          	sub	t3,a3,s8
    4910:	00a7b833          	sltu	a6,a5,a0
    4914:	01c6b8b3          	sltu	a7,a3,t3
    4918:	410e0833          	sub	a6,t3,a6
    491c:	00000593          	li	a1,0
    4920:	00a7f463          	bgeu	a5,a0,4928 <__subtf3+0xf98>
    4924:	001e3593          	seqz	a1,t3
    4928:	0115e5b3          	or	a1,a1,a7
    492c:	416608b3          	sub	a7,a2,s6
    4930:	01163f33          	sltu	t5,a2,a7
    4934:	40b88eb3          	sub	t4,a7,a1
    4938:	00000313          	li	t1,0
    493c:	00058463          	beqz	a1,4944 <__subtf3+0xfb4>
    4940:	0018b313          	seqz	t1,a7
    4944:	01e36333          	or	t1,t1,t5
    4948:	413705b3          	sub	a1,a4,s3
    494c:	406585b3          	sub	a1,a1,t1
    4950:	02b12e23          	sw	a1,60(sp)
    4954:	03d12c23          	sw	t4,56(sp)
    4958:	03012a23          	sw	a6,52(sp)
    495c:	02a12823          	sw	a0,48(sp)
    4960:	00c59313          	sll	t1,a1,0xc
    4964:	06035063          	bgez	t1,49c4 <__subtf3+0x1034>
    4968:	40f407b3          	sub	a5,s0,a5
    496c:	40dc06b3          	sub	a3,s8,a3
    4970:	00f435b3          	sltu	a1,s0,a5
    4974:	00dc3c33          	sltu	s8,s8,a3
    4978:	40b686b3          	sub	a3,a3,a1
    497c:	00000593          	li	a1,0
    4980:	00f47463          	bgeu	s0,a5,4988 <__subtf3+0xff8>
    4984:	001e3593          	seqz	a1,t3
    4988:	40cb0633          	sub	a2,s6,a2
    498c:	0185ec33          	or	s8,a1,s8
    4990:	00cb3b33          	sltu	s6,s6,a2
    4994:	00000513          	li	a0,0
    4998:	41860633          	sub	a2,a2,s8
    499c:	000c0463          	beqz	s8,49a4 <__subtf3+0x1014>
    49a0:	0018b513          	seqz	a0,a7
    49a4:	40e98733          	sub	a4,s3,a4
    49a8:	01656533          	or	a0,a0,s6
    49ac:	40a70733          	sub	a4,a4,a0
    49b0:	02e12e23          	sw	a4,60(sp)
    49b4:	02c12c23          	sw	a2,56(sp)
    49b8:	02d12a23          	sw	a3,52(sp)
    49bc:	02f12823          	sw	a5,48(sp)
    49c0:	c85ff06f          	j	4644 <__subtf3+0xcb4>
    49c4:	01056533          	or	a0,a0,a6
    49c8:	01d56533          	or	a0,a0,t4
    49cc:	00b56533          	or	a0,a0,a1
    49d0:	f0050ce3          	beqz	a0,48e8 <__subtf3+0xf58>
    49d4:	805ff06f          	j	41d8 <__subtf3+0x848>
    49d8:	03010893          	add	a7,sp,48
    49dc:	04059e63          	bnez	a1,4a38 <__subtf3+0x10a8>
    49e0:	02051e63          	bnez	a0,4a1c <__subtf3+0x108c>
    49e4:	03012e23          	sw	a6,60(sp)
    49e8:	02012c23          	sw	zero,56(sp)
    49ec:	02012a23          	sw	zero,52(sp)
    49f0:	02012823          	sw	zero,48(sp)
    49f4:	03c10793          	add	a5,sp,60
    49f8:	0007a703          	lw	a4,0(a5)
    49fc:	ffc7a683          	lw	a3,-4(a5)
    4a00:	ffc78793          	add	a5,a5,-4
    4a04:	00371713          	sll	a4,a4,0x3
    4a08:	01d6d693          	srl	a3,a3,0x1d
    4a0c:	00d76733          	or	a4,a4,a3
    4a10:	00e7a223          	sw	a4,4(a5)
    4a14:	fef892e3          	bne	a7,a5,49f8 <__subtf3+0x1068>
    4a18:	8a5ff06f          	j	42bc <__subtf3+0x92c>
    4a1c:	02812823          	sw	s0,48(sp)
    4a20:	03812a23          	sw	s8,52(sp)
    4a24:	03612c23          	sw	s6,56(sp)
    4a28:	03312e23          	sw	s3,60(sp)
    4a2c:	00090a93          	mv	s5,s2
    4a30:	fff80493          	add	s1,a6,-1 # 7fff <_vfprintf_r+0xc13>
    4a34:	978ff06f          	j	3bac <__subtf3+0x21c>
    4a38:	00051c63          	bnez	a0,4a50 <__subtf3+0x10c0>
    4a3c:	02f12823          	sw	a5,48(sp)
    4a40:	02d12a23          	sw	a3,52(sp)
    4a44:	02c12c23          	sw	a2,56(sp)
    4a48:	02e12e23          	sw	a4,60(sp)
    4a4c:	fe5ff06f          	j	4a30 <__subtf3+0x10a0>
    4a50:	03012e23          	sw	a6,60(sp)
    4a54:	02012c23          	sw	zero,56(sp)
    4a58:	02012a23          	sw	zero,52(sp)
    4a5c:	02012823          	sw	zero,48(sp)
    4a60:	03c10793          	add	a5,sp,60
    4a64:	0007a703          	lw	a4,0(a5)
    4a68:	ffc7a683          	lw	a3,-4(a5)
    4a6c:	ffc78793          	add	a5,a5,-4
    4a70:	00371713          	sll	a4,a4,0x3
    4a74:	01d6d693          	srl	a3,a3,0x1d
    4a78:	00d76733          	or	a4,a4,a3
    4a7c:	00e7a223          	sw	a4,4(a5)
    4a80:	fef892e3          	bne	a7,a5,4a64 <__subtf3+0x10d4>
    4a84:	839ff06f          	j	42bc <__subtf3+0x92c>
    4a88:	40878533          	sub	a0,a5,s0
    4a8c:	41868eb3          	sub	t4,a3,s8
    4a90:	00a7b833          	sltu	a6,a5,a0
    4a94:	01d6b333          	sltu	t1,a3,t4
    4a98:	410e8833          	sub	a6,t4,a6
    4a9c:	00000593          	li	a1,0
    4aa0:	00a7f463          	bgeu	a5,a0,4aa8 <__subtf3+0x1118>
    4aa4:	001eb593          	seqz	a1,t4
    4aa8:	0065e5b3          	or	a1,a1,t1
    4aac:	41660333          	sub	t1,a2,s6
    4ab0:	00663fb3          	sltu	t6,a2,t1
    4ab4:	40b30f33          	sub	t5,t1,a1
    4ab8:	00000e13          	li	t3,0
    4abc:	00058463          	beqz	a1,4ac4 <__subtf3+0x1134>
    4ac0:	00133e13          	seqz	t3,t1
    4ac4:	01fe6e33          	or	t3,t3,t6
    4ac8:	413705b3          	sub	a1,a4,s3
    4acc:	41c585b3          	sub	a1,a1,t3
    4ad0:	02b12e23          	sw	a1,60(sp)
    4ad4:	03e12c23          	sw	t5,56(sp)
    4ad8:	03012a23          	sw	a6,52(sp)
    4adc:	02a12823          	sw	a0,48(sp)
    4ae0:	00c59e13          	sll	t3,a1,0xc
    4ae4:	140e5663          	bgez	t3,4c30 <__subtf3+0x12a0>
    4ae8:	40f407b3          	sub	a5,s0,a5
    4aec:	40dc06b3          	sub	a3,s8,a3
    4af0:	00f435b3          	sltu	a1,s0,a5
    4af4:	00dc3c33          	sltu	s8,s8,a3
    4af8:	40b686b3          	sub	a3,a3,a1
    4afc:	00000593          	li	a1,0
    4b00:	00f47463          	bgeu	s0,a5,4b08 <__subtf3+0x1178>
    4b04:	001eb593          	seqz	a1,t4
    4b08:	40cb0633          	sub	a2,s6,a2
    4b0c:	0185ec33          	or	s8,a1,s8
    4b10:	00cb3b33          	sltu	s6,s6,a2
    4b14:	41860633          	sub	a2,a2,s8
    4b18:	000c0463          	beqz	s8,4b20 <__subtf3+0x1190>
    4b1c:	00133893          	seqz	a7,t1
    4b20:	40e985b3          	sub	a1,s3,a4
    4b24:	0168e733          	or	a4,a7,s6
    4b28:	40e58733          	sub	a4,a1,a4
    4b2c:	02e12e23          	sw	a4,60(sp)
    4b30:	02c12c23          	sw	a2,56(sp)
    4b34:	02d12a23          	sw	a3,52(sp)
    4b38:	02f12823          	sw	a5,48(sp)
    4b3c:	00090a93          	mv	s5,s2
    4b40:	03c12503          	lw	a0,60(sp)
    4b44:	10050063          	beqz	a0,4c44 <__subtf3+0x12b4>
    4b48:	7bc000ef          	jal	5304 <__clzsi2>
    4b4c:	ff450513          	add	a0,a0,-12
    4b50:	02000713          	li	a4,32
    4b54:	01f57813          	and	a6,a0,31
    4b58:	02e547b3          	div	a5,a0,a4
    4b5c:	12080063          	beqz	a6,4c7c <__subtf3+0x12ec>
    4b60:	03010313          	add	t1,sp,48
    4b64:	02e566b3          	rem	a3,a0,a4
    4b68:	40d70633          	sub	a2,a4,a3
    4b6c:	ffc00693          	li	a3,-4
    4b70:	02d786b3          	mul	a3,a5,a3
    4b74:	00c68713          	add	a4,a3,12
    4b78:	00e30733          	add	a4,t1,a4
    4b7c:	40d006b3          	neg	a3,a3
    4b80:	12e31663          	bne	t1,a4,4cac <__subtf3+0x131c>
    4b84:	03012683          	lw	a3,48(sp)
    4b88:	fff78713          	add	a4,a5,-1
    4b8c:	00279793          	sll	a5,a5,0x2
    4b90:	04078793          	add	a5,a5,64
    4b94:	002787b3          	add	a5,a5,sp
    4b98:	010696b3          	sll	a3,a3,a6
    4b9c:	fed7a823          	sw	a3,-16(a5)
    4ba0:	00170713          	add	a4,a4,1
    4ba4:	03010793          	add	a5,sp,48
    4ba8:	00271713          	sll	a4,a4,0x2
    4bac:	00800693          	li	a3,8
    4bb0:	00078893          	mv	a7,a5
    4bb4:	00d76a63          	bltu	a4,a3,4bc8 <__subtf3+0x1238>
    4bb8:	02012823          	sw	zero,48(sp)
    4bbc:	0007a223          	sw	zero,4(a5)
    4bc0:	ff870713          	add	a4,a4,-8
    4bc4:	03810793          	add	a5,sp,56
    4bc8:	00400693          	li	a3,4
    4bcc:	00d76463          	bltu	a4,a3,4bd4 <__subtf3+0x1244>
    4bd0:	0007a023          	sw	zero,0(a5)
    4bd4:	1c954863          	blt	a0,s1,4da4 <__subtf3+0x1414>
    4bd8:	40950533          	sub	a0,a0,s1
    4bdc:	00150513          	add	a0,a0,1
    4be0:	40555713          	sra	a4,a0,0x5
    4be4:	01f57793          	and	a5,a0,31
    4be8:	00088593          	mv	a1,a7
    4bec:	00088613          	mv	a2,a7
    4bf0:	00000313          	li	t1,0
    4bf4:	00000693          	li	a3,0
    4bf8:	0ce69c63          	bne	a3,a4,4cd0 <__subtf3+0x1340>
    4bfc:	00300693          	li	a3,3
    4c00:	40e686b3          	sub	a3,a3,a4
    4c04:	00271613          	sll	a2,a4,0x2
    4c08:	0c079e63          	bnez	a5,4ce4 <__subtf3+0x1354>
    4c0c:	00c58533          	add	a0,a1,a2
    4c10:	00052503          	lw	a0,0(a0)
    4c14:	00178793          	add	a5,a5,1
    4c18:	00458593          	add	a1,a1,4
    4c1c:	fea5ae23          	sw	a0,-4(a1)
    4c20:	fef6d6e3          	bge	a3,a5,4c0c <__subtf3+0x127c>
    4c24:	00400793          	li	a5,4
    4c28:	40e78733          	sub	a4,a5,a4
    4c2c:	1040006f          	j	4d30 <__subtf3+0x13a0>
    4c30:	01056533          	or	a0,a0,a6
    4c34:	01e56533          	or	a0,a0,t5
    4c38:	00b56533          	or	a0,a0,a1
    4c3c:	ca0506e3          	beqz	a0,48e8 <__subtf3+0xf58>
    4c40:	f01ff06f          	j	4b40 <__subtf3+0x11b0>
    4c44:	03812503          	lw	a0,56(sp)
    4c48:	00050863          	beqz	a0,4c58 <__subtf3+0x12c8>
    4c4c:	6b8000ef          	jal	5304 <__clzsi2>
    4c50:	02050513          	add	a0,a0,32
    4c54:	ef9ff06f          	j	4b4c <__subtf3+0x11bc>
    4c58:	03412503          	lw	a0,52(sp)
    4c5c:	00050863          	beqz	a0,4c6c <__subtf3+0x12dc>
    4c60:	6a4000ef          	jal	5304 <__clzsi2>
    4c64:	04050513          	add	a0,a0,64
    4c68:	ee5ff06f          	j	4b4c <__subtf3+0x11bc>
    4c6c:	03012503          	lw	a0,48(sp)
    4c70:	694000ef          	jal	5304 <__clzsi2>
    4c74:	06050513          	add	a0,a0,96
    4c78:	ed5ff06f          	j	4b4c <__subtf3+0x11bc>
    4c7c:	ffc00613          	li	a2,-4
    4c80:	02c78633          	mul	a2,a5,a2
    4c84:	03c10713          	add	a4,sp,60
    4c88:	00300693          	li	a3,3
    4c8c:	00c705b3          	add	a1,a4,a2
    4c90:	0005a583          	lw	a1,0(a1)
    4c94:	fff68693          	add	a3,a3,-1
    4c98:	ffc70713          	add	a4,a4,-4
    4c9c:	00b72223          	sw	a1,4(a4)
    4ca0:	fef6d6e3          	bge	a3,a5,4c8c <__subtf3+0x12fc>
    4ca4:	fff78713          	add	a4,a5,-1
    4ca8:	ef9ff06f          	j	4ba0 <__subtf3+0x1210>
    4cac:	00072583          	lw	a1,0(a4)
    4cb0:	ffc72883          	lw	a7,-4(a4)
    4cb4:	00d70e33          	add	t3,a4,a3
    4cb8:	010595b3          	sll	a1,a1,a6
    4cbc:	00c8d8b3          	srl	a7,a7,a2
    4cc0:	0115e5b3          	or	a1,a1,a7
    4cc4:	00be2023          	sw	a1,0(t3)
    4cc8:	ffc70713          	add	a4,a4,-4
    4ccc:	eb5ff06f          	j	4b80 <__subtf3+0x11f0>
    4cd0:	00062503          	lw	a0,0(a2)
    4cd4:	00168693          	add	a3,a3,1
    4cd8:	00460613          	add	a2,a2,4
    4cdc:	00a36333          	or	t1,t1,a0
    4ce0:	f19ff06f          	j	4bf8 <__subtf3+0x1268>
    4ce4:	04060593          	add	a1,a2,64
    4ce8:	002585b3          	add	a1,a1,sp
    4cec:	ff05a583          	lw	a1,-16(a1)
    4cf0:	02000813          	li	a6,32
    4cf4:	40f80833          	sub	a6,a6,a5
    4cf8:	010595b3          	sll	a1,a1,a6
    4cfc:	00b36333          	or	t1,t1,a1
    4d00:	00000e13          	li	t3,0
    4d04:	00c885b3          	add	a1,a7,a2
    4d08:	40c00633          	neg	a2,a2
    4d0c:	06de4863          	blt	t3,a3,4d7c <__subtf3+0x13ec>
    4d10:	00400613          	li	a2,4
    4d14:	40e60733          	sub	a4,a2,a4
    4d18:	03c12603          	lw	a2,60(sp)
    4d1c:	00269693          	sll	a3,a3,0x2
    4d20:	04068693          	add	a3,a3,64
    4d24:	002686b3          	add	a3,a3,sp
    4d28:	00f657b3          	srl	a5,a2,a5
    4d2c:	fef6a823          	sw	a5,-16(a3)
    4d30:	00400693          	li	a3,4
    4d34:	40e686b3          	sub	a3,a3,a4
    4d38:	00271713          	sll	a4,a4,0x2
    4d3c:	00e887b3          	add	a5,a7,a4
    4d40:	00269713          	sll	a4,a3,0x2
    4d44:	00800693          	li	a3,8
    4d48:	00d76a63          	bltu	a4,a3,4d5c <__subtf3+0x13cc>
    4d4c:	0007a023          	sw	zero,0(a5)
    4d50:	0007a223          	sw	zero,4(a5)
    4d54:	ff870713          	add	a4,a4,-8
    4d58:	00878793          	add	a5,a5,8
    4d5c:	00400693          	li	a3,4
    4d60:	00d76463          	bltu	a4,a3,4d68 <__subtf3+0x13d8>
    4d64:	0007a023          	sw	zero,0(a5)
    4d68:	03012703          	lw	a4,48(sp)
    4d6c:	006037b3          	snez	a5,t1
    4d70:	00f767b3          	or	a5,a4,a5
    4d74:	02f12823          	sw	a5,48(sp)
    4d78:	c60ff06f          	j	41d8 <__subtf3+0x848>
    4d7c:	0005a503          	lw	a0,0(a1)
    4d80:	0045ae83          	lw	t4,4(a1)
    4d84:	00c58f33          	add	t5,a1,a2
    4d88:	00f55533          	srl	a0,a0,a5
    4d8c:	010e9eb3          	sll	t4,t4,a6
    4d90:	01d56533          	or	a0,a0,t4
    4d94:	00af2023          	sw	a0,0(t5)
    4d98:	001e0e13          	add	t3,t3,1
    4d9c:	00458593          	add	a1,a1,4
    4da0:	f6dff06f          	j	4d0c <__subtf3+0x137c>
    4da4:	03c12783          	lw	a5,60(sp)
    4da8:	fff80737          	lui	a4,0xfff80
    4dac:	fff70713          	add	a4,a4,-1 # fff7ffff <_end+0xfff6ad9b>
    4db0:	00e7f7b3          	and	a5,a5,a4
    4db4:	40a484b3          	sub	s1,s1,a0
    4db8:	02f12e23          	sw	a5,60(sp)
    4dbc:	df1fe06f          	j	3bac <__subtf3+0x21c>
    4dc0:	02012e23          	sw	zero,60(sp)
    4dc4:	02012c23          	sw	zero,56(sp)
    4dc8:	02012a23          	sw	zero,52(sp)
    4dcc:	02012823          	sw	zero,48(sp)
    4dd0:	e5dfe06f          	j	3c2c <__subtf3+0x29c>
    4dd4:	07400713          	li	a4,116
    4dd8:	00c74463          	blt	a4,a2,4de0 <__subtf3+0x1450>
    4ddc:	f51fe06f          	j	3d2c <__subtf3+0x39c>
    4de0:	02012623          	sw	zero,44(sp)
    4de4:	02012423          	sw	zero,40(sp)
    4de8:	02012223          	sw	zero,36(sp)
    4dec:	00100713          	li	a4,1
    4df0:	82cff06f          	j	3e1c <__subtf3+0x48c>
    4df4:	07400793          	li	a5,116
    4df8:	a0b7de63          	bge	a5,a1,4014 <__subtf3+0x684>
    4dfc:	00012e23          	sw	zero,28(sp)
    4e00:	00012c23          	sw	zero,24(sp)
    4e04:	00012a23          	sw	zero,20(sp)
    4e08:	00100793          	li	a5,1
    4e0c:	b00ff06f          	j	410c <__subtf3+0x77c>
    4e10:	07400793          	li	a5,116
    4e14:	a717c4e3          	blt	a5,a7,487c <__subtf3+0xeec>
    4e18:	00088313          	mv	t1,a7
    4e1c:	8d5ff06f          	j	46f0 <__subtf3+0xd60>

00004e20 <__unordtf2>:
    4e20:	00052703          	lw	a4,0(a0)
    4e24:	00452e83          	lw	t4,4(a0)
    4e28:	00852e03          	lw	t3,8(a0)
    4e2c:	00c52503          	lw	a0,12(a0)
    4e30:	00c5a603          	lw	a2,12(a1)
    4e34:	000086b7          	lui	a3,0x8
    4e38:	fff68693          	add	a3,a3,-1 # 7fff <_vfprintf_r+0xc13>
    4e3c:	01055813          	srl	a6,a0,0x10
    4e40:	0005a783          	lw	a5,0(a1)
    4e44:	0045a303          	lw	t1,4(a1)
    4e48:	0085a883          	lw	a7,8(a1)
    4e4c:	00d87833          	and	a6,a6,a3
    4e50:	01065593          	srl	a1,a2,0x10
    4e54:	ff010113          	add	sp,sp,-16
    4e58:	00d5f5b3          	and	a1,a1,a3
    4e5c:	02d81063          	bne	a6,a3,4e7c <__unordtf2+0x5c>
    4e60:	01d76733          	or	a4,a4,t4
    4e64:	01051513          	sll	a0,a0,0x10
    4e68:	01055513          	srl	a0,a0,0x10
    4e6c:	01c76733          	or	a4,a4,t3
    4e70:	00a76733          	or	a4,a4,a0
    4e74:	00100513          	li	a0,1
    4e78:	02071663          	bnez	a4,4ea4 <__unordtf2+0x84>
    4e7c:	00008737          	lui	a4,0x8
    4e80:	fff70713          	add	a4,a4,-1 # 7fff <_vfprintf_r+0xc13>
    4e84:	00000513          	li	a0,0
    4e88:	00e59e63          	bne	a1,a4,4ea4 <__unordtf2+0x84>
    4e8c:	0067e533          	or	a0,a5,t1
    4e90:	01061613          	sll	a2,a2,0x10
    4e94:	01156533          	or	a0,a0,a7
    4e98:	01065613          	srl	a2,a2,0x10
    4e9c:	00c56533          	or	a0,a0,a2
    4ea0:	00a03533          	snez	a0,a0
    4ea4:	01010113          	add	sp,sp,16
    4ea8:	00008067          	ret

00004eac <__fixtfsi>:
    4eac:	00052703          	lw	a4,0(a0)
    4eb0:	00452683          	lw	a3,4(a0)
    4eb4:	00c52783          	lw	a5,12(a0)
    4eb8:	00852583          	lw	a1,8(a0)
    4ebc:	fe010113          	add	sp,sp,-32
    4ec0:	00e12023          	sw	a4,0(sp)
    4ec4:	00d12223          	sw	a3,4(sp)
    4ec8:	00e12823          	sw	a4,16(sp)
    4ecc:	00179693          	sll	a3,a5,0x1
    4ed0:	00004737          	lui	a4,0x4
    4ed4:	00b12423          	sw	a1,8(sp)
    4ed8:	00f12623          	sw	a5,12(sp)
    4edc:	00b12c23          	sw	a1,24(sp)
    4ee0:	0116d693          	srl	a3,a3,0x11
    4ee4:	ffe70713          	add	a4,a4,-2 # 3ffe <__subtf3+0x66e>
    4ee8:	00000513          	li	a0,0
    4eec:	02d75063          	bge	a4,a3,4f0c <__fixtfsi+0x60>
    4ef0:	00004737          	lui	a4,0x4
    4ef4:	01d70713          	add	a4,a4,29 # 401d <__subtf3+0x68d>
    4ef8:	01f7d813          	srl	a6,a5,0x1f
    4efc:	00d75c63          	bge	a4,a3,4f14 <__fixtfsi+0x68>
    4f00:	80000537          	lui	a0,0x80000
    4f04:	fff50513          	add	a0,a0,-1 # 7fffffff <_end+0x7ffead9b>
    4f08:	00a80533          	add	a0,a6,a0
    4f0c:	02010113          	add	sp,sp,32
    4f10:	00008067          	ret
    4f14:	01079793          	sll	a5,a5,0x10
    4f18:	00010737          	lui	a4,0x10
    4f1c:	0107d793          	srl	a5,a5,0x10
    4f20:	00e7e7b3          	or	a5,a5,a4
    4f24:	00004737          	lui	a4,0x4
    4f28:	06f70713          	add	a4,a4,111 # 406f <__subtf3+0x6df>
    4f2c:	40d70733          	sub	a4,a4,a3
    4f30:	40575613          	sra	a2,a4,0x5
    4f34:	00f12e23          	sw	a5,28(sp)
    4f38:	01f77713          	and	a4,a4,31
    4f3c:	02071463          	bnez	a4,4f64 <__fixtfsi+0xb8>
    4f40:	00261613          	sll	a2,a2,0x2
    4f44:	02060793          	add	a5,a2,32
    4f48:	00278633          	add	a2,a5,sp
    4f4c:	ff062783          	lw	a5,-16(a2)
    4f50:	00f12823          	sw	a5,16(sp)
    4f54:	01012503          	lw	a0,16(sp)
    4f58:	fa080ae3          	beqz	a6,4f0c <__fixtfsi+0x60>
    4f5c:	40a00533          	neg	a0,a0
    4f60:	fadff06f          	j	4f0c <__fixtfsi+0x60>
    4f64:	00200513          	li	a0,2
    4f68:	00000693          	li	a3,0
    4f6c:	02a61063          	bne	a2,a0,4f8c <__fixtfsi+0xe0>
    4f70:	02000693          	li	a3,32
    4f74:	40e686b3          	sub	a3,a3,a4
    4f78:	00d796b3          	sll	a3,a5,a3
    4f7c:	00e5d5b3          	srl	a1,a1,a4
    4f80:	00b6e6b3          	or	a3,a3,a1
    4f84:	00d12823          	sw	a3,16(sp)
    4f88:	00100693          	li	a3,1
    4f8c:	00269693          	sll	a3,a3,0x2
    4f90:	02068693          	add	a3,a3,32
    4f94:	002686b3          	add	a3,a3,sp
    4f98:	00e7d7b3          	srl	a5,a5,a4
    4f9c:	fef6a823          	sw	a5,-16(a3)
    4fa0:	fb5ff06f          	j	4f54 <__fixtfsi+0xa8>

00004fa4 <__floatsitf>:
    4fa4:	fd010113          	add	sp,sp,-48
    4fa8:	02912223          	sw	s1,36(sp)
    4fac:	02112623          	sw	ra,44(sp)
    4fb0:	02812423          	sw	s0,40(sp)
    4fb4:	03212023          	sw	s2,32(sp)
    4fb8:	00050493          	mv	s1,a0
    4fbc:	12058263          	beqz	a1,50e0 <__floatsitf+0x13c>
    4fc0:	41f5d793          	sra	a5,a1,0x1f
    4fc4:	00b7c433          	xor	s0,a5,a1
    4fc8:	40f40433          	sub	s0,s0,a5
    4fcc:	00040513          	mv	a0,s0
    4fd0:	01f5d913          	srl	s2,a1,0x1f
    4fd4:	330000ef          	jal	5304 <__clzsi2>
    4fd8:	00004737          	lui	a4,0x4
    4fdc:	01e70713          	add	a4,a4,30 # 401e <__subtf3+0x68e>
    4fe0:	05150793          	add	a5,a0,81
    4fe4:	40a70633          	sub	a2,a4,a0
    4fe8:	00812823          	sw	s0,16(sp)
    4fec:	4057d713          	sra	a4,a5,0x5
    4ff0:	00012a23          	sw	zero,20(sp)
    4ff4:	00012c23          	sw	zero,24(sp)
    4ff8:	00012e23          	sw	zero,28(sp)
    4ffc:	01f7f793          	and	a5,a5,31
    5000:	02078c63          	beqz	a5,5038 <__floatsitf+0x94>
    5004:	00200693          	li	a3,2
    5008:	0cd71863          	bne	a4,a3,50d8 <__floatsitf+0x134>
    500c:	02000693          	li	a3,32
    5010:	40f686b3          	sub	a3,a3,a5
    5014:	00d456b3          	srl	a3,s0,a3
    5018:	00d12e23          	sw	a3,28(sp)
    501c:	fff70693          	add	a3,a4,-1
    5020:	00271713          	sll	a4,a4,0x2
    5024:	02070713          	add	a4,a4,32
    5028:	00270733          	add	a4,a4,sp
    502c:	00f41433          	sll	s0,s0,a5
    5030:	fe872823          	sw	s0,-16(a4)
    5034:	0340006f          	j	5068 <__floatsitf+0xc4>
    5038:	00300793          	li	a5,3
    503c:	40e787b3          	sub	a5,a5,a4
    5040:	00279793          	sll	a5,a5,0x2
    5044:	02078793          	add	a5,a5,32
    5048:	002787b3          	add	a5,a5,sp
    504c:	ff07a783          	lw	a5,-16(a5)
    5050:	00200693          	li	a3,2
    5054:	00f12e23          	sw	a5,28(sp)
    5058:	00200793          	li	a5,2
    505c:	00f71663          	bne	a4,a5,5068 <__floatsitf+0xc4>
    5060:	00812c23          	sw	s0,24(sp)
    5064:	00100693          	li	a3,1
    5068:	00269693          	sll	a3,a3,0x2
    506c:	00012823          	sw	zero,16(sp)
    5070:	00012a23          	sw	zero,20(sp)
    5074:	ffc68693          	add	a3,a3,-4
    5078:	00400793          	li	a5,4
    507c:	00f6e463          	bltu	a3,a5,5084 <__floatsitf+0xe0>
    5080:	00012c23          	sw	zero,24(sp)
    5084:	00090593          	mv	a1,s2
    5088:	01c12783          	lw	a5,28(sp)
    508c:	00f59413          	sll	s0,a1,0xf
    5090:	00c46433          	or	s0,s0,a2
    5094:	00f11623          	sh	a5,12(sp)
    5098:	01012783          	lw	a5,16(sp)
    509c:	00811723          	sh	s0,14(sp)
    50a0:	02c12083          	lw	ra,44(sp)
    50a4:	00f4a023          	sw	a5,0(s1)
    50a8:	01412783          	lw	a5,20(sp)
    50ac:	02812403          	lw	s0,40(sp)
    50b0:	02012903          	lw	s2,32(sp)
    50b4:	00f4a223          	sw	a5,4(s1)
    50b8:	01812783          	lw	a5,24(sp)
    50bc:	00048513          	mv	a0,s1
    50c0:	00f4a423          	sw	a5,8(s1)
    50c4:	00c12783          	lw	a5,12(sp)
    50c8:	00f4a623          	sw	a5,12(s1)
    50cc:	02412483          	lw	s1,36(sp)
    50d0:	03010113          	add	sp,sp,48
    50d4:	00008067          	ret
    50d8:	00300713          	li	a4,3
    50dc:	f41ff06f          	j	501c <__floatsitf+0x78>
    50e0:	00012e23          	sw	zero,28(sp)
    50e4:	00012c23          	sw	zero,24(sp)
    50e8:	00012a23          	sw	zero,20(sp)
    50ec:	00012823          	sw	zero,16(sp)
    50f0:	00000613          	li	a2,0
    50f4:	f95ff06f          	j	5088 <__floatsitf+0xe4>

000050f8 <__extenddftf2>:
    50f8:	01465713          	srl	a4,a2,0x14
    50fc:	00c61793          	sll	a5,a2,0xc
    5100:	7ff77713          	and	a4,a4,2047
    5104:	fd010113          	add	sp,sp,-48
    5108:	00c7d793          	srl	a5,a5,0xc
    510c:	00170693          	add	a3,a4,1
    5110:	02812423          	sw	s0,40(sp)
    5114:	02912223          	sw	s1,36(sp)
    5118:	03212023          	sw	s2,32(sp)
    511c:	02112623          	sw	ra,44(sp)
    5120:	00b12823          	sw	a1,16(sp)
    5124:	00f12a23          	sw	a5,20(sp)
    5128:	00012e23          	sw	zero,28(sp)
    512c:	00012c23          	sw	zero,24(sp)
    5130:	7fe6f693          	and	a3,a3,2046
    5134:	00050913          	mv	s2,a0
    5138:	00058413          	mv	s0,a1
    513c:	01f65493          	srl	s1,a2,0x1f
    5140:	08068263          	beqz	a3,51c4 <__extenddftf2+0xcc>
    5144:	000046b7          	lui	a3,0x4
    5148:	c0068693          	add	a3,a3,-1024 # 3c00 <__subtf3+0x270>
    514c:	00d70733          	add	a4,a4,a3
    5150:	0047d693          	srl	a3,a5,0x4
    5154:	00d12e23          	sw	a3,28(sp)
    5158:	01c79793          	sll	a5,a5,0x1c
    515c:	0045d693          	srl	a3,a1,0x4
    5160:	00d7e7b3          	or	a5,a5,a3
    5164:	01c59413          	sll	s0,a1,0x1c
    5168:	00f12c23          	sw	a5,24(sp)
    516c:	00812a23          	sw	s0,20(sp)
    5170:	00012823          	sw	zero,16(sp)
    5174:	01c12783          	lw	a5,28(sp)
    5178:	00f49493          	sll	s1,s1,0xf
    517c:	00e4e4b3          	or	s1,s1,a4
    5180:	00f11623          	sh	a5,12(sp)
    5184:	01012783          	lw	a5,16(sp)
    5188:	00911723          	sh	s1,14(sp)
    518c:	02c12083          	lw	ra,44(sp)
    5190:	00f92023          	sw	a5,0(s2)
    5194:	01412783          	lw	a5,20(sp)
    5198:	02812403          	lw	s0,40(sp)
    519c:	02412483          	lw	s1,36(sp)
    51a0:	00f92223          	sw	a5,4(s2)
    51a4:	01812783          	lw	a5,24(sp)
    51a8:	00090513          	mv	a0,s2
    51ac:	00f92423          	sw	a5,8(s2)
    51b0:	00c12783          	lw	a5,12(sp)
    51b4:	00f92623          	sw	a5,12(s2)
    51b8:	02012903          	lw	s2,32(sp)
    51bc:	03010113          	add	sp,sp,48
    51c0:	00008067          	ret
    51c4:	00b7e533          	or	a0,a5,a1
    51c8:	10071063          	bnez	a4,52c8 <__extenddftf2+0x1d0>
    51cc:	fa0504e3          	beqz	a0,5174 <__extenddftf2+0x7c>
    51d0:	04078e63          	beqz	a5,522c <__extenddftf2+0x134>
    51d4:	00078513          	mv	a0,a5
    51d8:	12c000ef          	jal	5304 <__clzsi2>
    51dc:	03150693          	add	a3,a0,49
    51e0:	4056d793          	sra	a5,a3,0x5
    51e4:	01f6f693          	and	a3,a3,31
    51e8:	04068863          	beqz	a3,5238 <__extenddftf2+0x140>
    51ec:	ffc00613          	li	a2,-4
    51f0:	02c78633          	mul	a2,a5,a2
    51f4:	02000813          	li	a6,32
    51f8:	01010313          	add	t1,sp,16
    51fc:	40d80833          	sub	a6,a6,a3
    5200:	00c60713          	add	a4,a2,12
    5204:	00e30733          	add	a4,t1,a4
    5208:	40c00633          	neg	a2,a2
    520c:	08e31c63          	bne	t1,a4,52a4 <__extenddftf2+0x1ac>
    5210:	fff78713          	add	a4,a5,-1
    5214:	00279793          	sll	a5,a5,0x2
    5218:	02078793          	add	a5,a5,32
    521c:	002787b3          	add	a5,a5,sp
    5220:	00d416b3          	sll	a3,s0,a3
    5224:	fed7a823          	sw	a3,-16(a5)
    5228:	03c0006f          	j	5264 <__extenddftf2+0x16c>
    522c:	0d8000ef          	jal	5304 <__clzsi2>
    5230:	02050513          	add	a0,a0,32
    5234:	fa9ff06f          	j	51dc <__extenddftf2+0xe4>
    5238:	ffc00613          	li	a2,-4
    523c:	02c78633          	mul	a2,a5,a2
    5240:	01c10713          	add	a4,sp,28
    5244:	00300693          	li	a3,3
    5248:	00c705b3          	add	a1,a4,a2
    524c:	0005a583          	lw	a1,0(a1)
    5250:	fff68693          	add	a3,a3,-1
    5254:	ffc70713          	add	a4,a4,-4
    5258:	00b72223          	sw	a1,4(a4)
    525c:	fef6d6e3          	bge	a3,a5,5248 <__extenddftf2+0x150>
    5260:	fff78713          	add	a4,a5,-1
    5264:	00170793          	add	a5,a4,1
    5268:	00279793          	sll	a5,a5,0x2
    526c:	00800693          	li	a3,8
    5270:	01010713          	add	a4,sp,16
    5274:	00d7ea63          	bltu	a5,a3,5288 <__extenddftf2+0x190>
    5278:	00012823          	sw	zero,16(sp)
    527c:	00072223          	sw	zero,4(a4)
    5280:	ff878793          	add	a5,a5,-8
    5284:	01810713          	add	a4,sp,24
    5288:	00400693          	li	a3,4
    528c:	00d7e463          	bltu	a5,a3,5294 <__extenddftf2+0x19c>
    5290:	00072023          	sw	zero,0(a4)
    5294:	00004737          	lui	a4,0x4
    5298:	c0c70713          	add	a4,a4,-1012 # 3c0c <__subtf3+0x27c>
    529c:	40a70733          	sub	a4,a4,a0
    52a0:	ed5ff06f          	j	5174 <__extenddftf2+0x7c>
    52a4:	00072583          	lw	a1,0(a4)
    52a8:	ffc72883          	lw	a7,-4(a4)
    52ac:	00c70e33          	add	t3,a4,a2
    52b0:	00d595b3          	sll	a1,a1,a3
    52b4:	0108d8b3          	srl	a7,a7,a6
    52b8:	0115e5b3          	or	a1,a1,a7
    52bc:	00be2023          	sw	a1,0(t3)
    52c0:	ffc70713          	add	a4,a4,-4
    52c4:	f49ff06f          	j	520c <__extenddftf2+0x114>
    52c8:	02050863          	beqz	a0,52f8 <__extenddftf2+0x200>
    52cc:	01c79713          	sll	a4,a5,0x1c
    52d0:	0045d693          	srl	a3,a1,0x4
    52d4:	00d76733          	or	a4,a4,a3
    52d8:	00e12c23          	sw	a4,24(sp)
    52dc:	0047d793          	srl	a5,a5,0x4
    52e0:	00008737          	lui	a4,0x8
    52e4:	01c59413          	sll	s0,a1,0x1c
    52e8:	00e7e7b3          	or	a5,a5,a4
    52ec:	00812a23          	sw	s0,20(sp)
    52f0:	00012823          	sw	zero,16(sp)
    52f4:	00f12e23          	sw	a5,28(sp)
    52f8:	00008737          	lui	a4,0x8
    52fc:	fff70713          	add	a4,a4,-1 # 7fff <_vfprintf_r+0xc13>
    5300:	e75ff06f          	j	5174 <__extenddftf2+0x7c>

00005304 <__clzsi2>:
    5304:	000107b7          	lui	a5,0x10
    5308:	02f57a63          	bgeu	a0,a5,533c <__clzsi2+0x38>
    530c:	10053793          	sltiu	a5,a0,256
    5310:	0017b793          	seqz	a5,a5
    5314:	00379793          	sll	a5,a5,0x3
    5318:	00012737          	lui	a4,0x12
    531c:	02000693          	li	a3,32
    5320:	40f686b3          	sub	a3,a3,a5
    5324:	00f55533          	srl	a0,a0,a5
    5328:	e3070793          	add	a5,a4,-464 # 11e30 <__clz_tab>
    532c:	00a787b3          	add	a5,a5,a0
    5330:	0007c503          	lbu	a0,0(a5) # 10000 <_realloc_r+0x58>
    5334:	40a68533          	sub	a0,a3,a0
    5338:	00008067          	ret
    533c:	01000737          	lui	a4,0x1000
    5340:	01800793          	li	a5,24
    5344:	fce57ae3          	bgeu	a0,a4,5318 <__clzsi2+0x14>
    5348:	01000793          	li	a5,16
    534c:	fcdff06f          	j	5318 <__clzsi2+0x14>

00005350 <exit>:
    5350:	ff010113          	add	sp,sp,-16
    5354:	00000593          	li	a1,0
    5358:	00812423          	sw	s0,8(sp)
    535c:	00112623          	sw	ra,12(sp)
    5360:	00050413          	mv	s0,a0
    5364:	2fd010ef          	jal	6e60 <__call_exitprocs>
    5368:	8b81a783          	lw	a5,-1864(gp) # 12770 <__stdio_exit_handler>
    536c:	00078463          	beqz	a5,5374 <exit+0x24>
    5370:	000780e7          	jalr	a5
    5374:	00040513          	mv	a0,s0
    5378:	918fb0ef          	jal	490 <_exit>

0000537c <main>:
    537c:	f5010113          	add	sp,sp,-176
    5380:	03000513          	li	a0,48
    5384:	0a112623          	sw	ra,172(sp)
    5388:	0a812423          	sw	s0,168(sp)
    538c:	09612823          	sw	s6,144(sp)
    5390:	09812423          	sw	s8,136(sp)
    5394:	0a912223          	sw	s1,164(sp)
    5398:	0b212023          	sw	s2,160(sp)
    539c:	09312e23          	sw	s3,156(sp)
    53a0:	09412c23          	sw	s4,152(sp)
    53a4:	09512a23          	sw	s5,148(sp)
    53a8:	09712623          	sw	s7,140(sp)
    53ac:	09912223          	sw	s9,132(sp)
    53b0:	09a12023          	sw	s10,128(sp)
    53b4:	07b12e23          	sw	s11,124(sp)
    53b8:	7b0000ef          	jal	5b68 <malloc>
    53bc:	00050413          	mv	s0,a0
    53c0:	03000513          	li	a0,48
    53c4:	8a81a023          	sw	s0,-1888(gp) # 12758 <Next_Ptr_Glob>
    53c8:	7a0000ef          	jal	5b68 <malloc>
    53cc:	000117b7          	lui	a5,0x11
    53d0:	00011737          	lui	a4,0x11
    53d4:	12078793          	add	a5,a5,288 # 11120 <_getpid_r+0x4>
    53d8:	67c70713          	add	a4,a4,1660 # 1167c <_getpid_r+0x560>
    53dc:	0007a383          	lw	t2,0(a5)
    53e0:	0047af03          	lw	t5,4(a5)
    53e4:	0087ae83          	lw	t4,8(a5)
    53e8:	00c7ae03          	lw	t3,12(a5)
    53ec:	0107a303          	lw	t1,16(a5)
    53f0:	00072283          	lw	t0,0(a4)
    53f4:	00472f83          	lw	t6,4(a4)
    53f8:	0147a883          	lw	a7,20(a5)
    53fc:	0187a803          	lw	a6,24(a5)
    5400:	01c7d583          	lhu	a1,28(a5)
    5404:	01e7c603          	lbu	a2,30(a5)
    5408:	00852023          	sw	s0,0(a0)
    540c:	00050793          	mv	a5,a0
    5410:	00052223          	sw	zero,4(a0)
    5414:	00872683          	lw	a3,8(a4)
    5418:	00200513          	li	a0,2
    541c:	00a7a423          	sw	a0,8(a5)
    5420:	02800513          	li	a0,40
    5424:	0077a823          	sw	t2,16(a5)
    5428:	01e7aa23          	sw	t5,20(a5)
    542c:	01d7ac23          	sw	t4,24(a5)
    5430:	01c7ae23          	sw	t3,28(a5)
    5434:	0267a023          	sw	t1,32(a5)
    5438:	02512823          	sw	t0,48(sp)
    543c:	03f12a23          	sw	t6,52(sp)
    5440:	00a7a623          	sw	a0,12(a5)
    5444:	0317a223          	sw	a7,36(a5)
    5448:	0307a423          	sw	a6,40(a5)
    544c:	02b79623          	sh	a1,44(a5)
    5450:	02c78723          	sb	a2,46(a5)
    5454:	8af1a223          	sw	a5,-1884(gp) # 1275c <Ptr_Glob>
    5458:	00c72883          	lw	a7,12(a4)
    545c:	01072803          	lw	a6,16(a4)
    5460:	01472583          	lw	a1,20(a4)
    5464:	01872603          	lw	a2,24(a4)
    5468:	02d12c23          	sw	a3,56(sp)
    546c:	01e74783          	lbu	a5,30(a4)
    5470:	01c75683          	lhu	a3,28(a4)
    5474:	00013c37          	lui	s8,0x13
    5478:	864c0713          	add	a4,s8,-1948 # 12864 <Arr_2_Glob>
    547c:	04f10723          	sb	a5,78(sp)
    5480:	00a00513          	li	a0,10
    5484:	00a00793          	li	a5,10
    5488:	64f72e23          	sw	a5,1628(a4)
    548c:	03112e23          	sw	a7,60(sp)
    5490:	05012023          	sw	a6,64(sp)
    5494:	04b12223          	sw	a1,68(sp)
    5498:	04c12423          	sw	a2,72(sp)
    549c:	04d11623          	sh	a3,76(sp)
    54a0:	380010ef          	jal	6820 <putchar>
    54a4:	00011537          	lui	a0,0x11
    54a8:	14050513          	add	a0,a0,320 # 11140 <_getpid_r+0x24>
    54ac:	458010ef          	jal	6904 <puts>
    54b0:	00a00513          	li	a0,10
    54b4:	36c010ef          	jal	6820 <putchar>
    54b8:	8901a783          	lw	a5,-1904(gp) # 12748 <Reg>
    54bc:	66078e63          	beqz	a5,5b38 <main+0x7bc>
    54c0:	00011537          	lui	a0,0x11
    54c4:	17050513          	add	a0,a0,368 # 11170 <_getpid_r+0x54>
    54c8:	43c010ef          	jal	6904 <puts>
    54cc:	00a00513          	li	a0,10
    54d0:	350010ef          	jal	6820 <putchar>
    54d4:	00011537          	lui	a0,0x11
    54d8:	1cc50513          	add	a0,a0,460 # 111cc <_getpid_r+0xb0>
    54dc:	2f0010ef          	jal	67cc <printf>
    54e0:	00a00513          	li	a0,10
    54e4:	33c010ef          	jal	6820 <putchar>
    54e8:	00011537          	lui	a0,0x11
    54ec:	06400593          	li	a1,100
    54f0:	20450513          	add	a0,a0,516 # 11204 <_getpid_r+0xe8>
    54f4:	2d8010ef          	jal	67cc <printf>
    54f8:	00000513          	li	a0,0
    54fc:	eddfa0ef          	jal	3d8 <time>
    5500:	00050793          	mv	a5,a0
    5504:	00000513          	li	a0,0
    5508:	88f1a623          	sw	a5,-1908(gp) # 12744 <Begin_Time>
    550c:	ed5fa0ef          	jal	3e0 <insn>
    5510:	000117b7          	lui	a5,0x11
    5514:	69c78793          	add	a5,a5,1692 # 1169c <_getpid_r+0x580>
    5518:	0047a703          	lw	a4,4(a5)
    551c:	0007ad83          	lw	s11,0(a5)
    5520:	00011837          	lui	a6,0x11
    5524:	00e12023          	sw	a4,0(sp)
    5528:	0087a703          	lw	a4,8(a5)
    552c:	00100493          	li	s1,1
    5530:	00e12223          	sw	a4,4(sp)
    5534:	00c7a703          	lw	a4,12(a5)
    5538:	00e12423          	sw	a4,8(sp)
    553c:	0107a703          	lw	a4,16(a5)
    5540:	00e12623          	sw	a4,12(sp)
    5544:	0147a703          	lw	a4,20(a5)
    5548:	6bc80c93          	add	s9,a6,1724 # 116bc <_getpid_r+0x5a0>
    554c:	00e12823          	sw	a4,16(sp)
    5550:	0187a703          	lw	a4,24(a5)
    5554:	00e12a23          	sw	a4,20(sp)
    5558:	01c7d703          	lhu	a4,28(a5)
    555c:	01e7c783          	lbu	a5,30(a5)
    5560:	00e12c23          	sw	a4,24(sp)
    5564:	00f12e23          	sw	a5,28(sp)
    5568:	88a1a023          	sw	a0,-1920(gp) # 12738 <Begin_Insn>
    556c:	04100713          	li	a4,65
    5570:	88e18aa3          	sb	a4,-1899(gp) # 1274d <Ch_1_Glob>
    5574:	04200713          	li	a4,66
    5578:	88e18a23          	sb	a4,-1900(gp) # 1274c <Ch_2_Glob>
    557c:	00012703          	lw	a4,0(sp)
    5580:	00100793          	li	a5,1
    5584:	05010593          	add	a1,sp,80
    5588:	04e12a23          	sw	a4,84(sp)
    558c:	00412703          	lw	a4,4(sp)
    5590:	03010513          	add	a0,sp,48
    5594:	88f1ac23          	sw	a5,-1896(gp) # 12750 <Bool_Glob>
    5598:	04e12c23          	sw	a4,88(sp)
    559c:	00812703          	lw	a4,8(sp)
    55a0:	02f12623          	sw	a5,44(sp)
    55a4:	05b12823          	sw	s11,80(sp)
    55a8:	04e12e23          	sw	a4,92(sp)
    55ac:	00c12703          	lw	a4,12(sp)
    55b0:	06e12023          	sw	a4,96(sp)
    55b4:	01012703          	lw	a4,16(sp)
    55b8:	06e12223          	sw	a4,100(sp)
    55bc:	01412703          	lw	a4,20(sp)
    55c0:	06e12423          	sw	a4,104(sp)
    55c4:	01812703          	lw	a4,24(sp)
    55c8:	06e11623          	sh	a4,108(sp)
    55cc:	01c12703          	lw	a4,28(sp)
    55d0:	06e10723          	sb	a4,110(sp)
    55d4:	db5fa0ef          	jal	388 <Func_2>
    55d8:	00153793          	seqz	a5,a0
    55dc:	02810613          	add	a2,sp,40
    55e0:	00300593          	li	a1,3
    55e4:	88f1ac23          	sw	a5,-1896(gp) # 12750 <Bool_Glob>
    55e8:	00200513          	li	a0,2
    55ec:	00700793          	li	a5,7
    55f0:	02f12423          	sw	a5,40(sp)
    55f4:	d01fa0ef          	jal	2f4 <Proc_7>
    55f8:	02812683          	lw	a3,40(sp)
    55fc:	00300613          	li	a2,3
    5600:	864c0593          	add	a1,s8,-1948
    5604:	8e418513          	add	a0,gp,-1820 # 1279c <Arr_1_Glob>
    5608:	cfdfa0ef          	jal	304 <Proc_8>
    560c:	8a41a503          	lw	a0,-1884(gp) # 1275c <Ptr_Glob>
    5610:	aa5fa0ef          	jal	b4 <Proc_1>
    5614:	8941c703          	lbu	a4,-1900(gp) # 1274c <Ch_2_Glob>
    5618:	04000793          	li	a5,64
    561c:	50e7fa63          	bgeu	a5,a4,5b30 <main+0x7b4>
    5620:	04100d13          	li	s10,65
    5624:	00300913          	li	s2,3
    5628:	04300593          	li	a1,67
    562c:	000d0513          	mv	a0,s10
    5630:	d39fa0ef          	jal	368 <Func_1>
    5634:	02c12783          	lw	a5,44(sp)
    5638:	001d0713          	add	a4,s10,1
    563c:	48f50263          	beq	a0,a5,5ac0 <main+0x744>
    5640:	8941c783          	lbu	a5,-1900(gp) # 1274c <Ch_2_Glob>
    5644:	0ff77d13          	zext.b	s10,a4
    5648:	ffa7f0e3          	bgeu	a5,s10,5628 <main+0x2ac>
    564c:	00191793          	sll	a5,s2,0x1
    5650:	01278933          	add	s2,a5,s2
    5654:	02812883          	lw	a7,40(sp)
    5658:	8951c683          	lbu	a3,-1899(gp) # 1274d <Ch_1_Glob>
    565c:	04100713          	li	a4,65
    5660:	03194633          	div	a2,s2,a7
    5664:	00060793          	mv	a5,a2
    5668:	00e69863          	bne	a3,a4,5678 <main+0x2fc>
    566c:	89c1a703          	lw	a4,-1892(gp) # 12754 <Int_Glob>
    5670:	00960793          	add	a5,a2,9
    5674:	40e787b3          	sub	a5,a5,a4
    5678:	00148493          	add	s1,s1,1
    567c:	06500713          	li	a4,101
    5680:	eee496e3          	bne	s1,a4,556c <main+0x1f0>
    5684:	00000513          	li	a0,0
    5688:	01112423          	sw	a7,8(sp)
    568c:	00c12223          	sw	a2,4(sp)
    5690:	00f12023          	sw	a5,0(sp)
    5694:	d45fa0ef          	jal	3d8 <time>
    5698:	00050713          	mv	a4,a0
    569c:	00000513          	li	a0,0
    56a0:	88e1a423          	sw	a4,-1912(gp) # 12740 <End_Time>
    56a4:	d3dfa0ef          	jal	3e0 <insn>
    56a8:	00050713          	mv	a4,a0
    56ac:	00011537          	lui	a0,0x11
    56b0:	23450513          	add	a0,a0,564 # 11234 <_getpid_r+0x118>
    56b4:	86e1ae23          	sw	a4,-1924(gp) # 12734 <End_Insn>
    56b8:	24c010ef          	jal	6904 <puts>
    56bc:	00a00513          	li	a0,10
    56c0:	160010ef          	jal	6820 <putchar>
    56c4:	00011537          	lui	a0,0x11
    56c8:	24450513          	add	a0,a0,580 # 11244 <_getpid_r+0x128>
    56cc:	238010ef          	jal	6904 <puts>
    56d0:	00a00513          	li	a0,10
    56d4:	14c010ef          	jal	6820 <putchar>
    56d8:	89c1a583          	lw	a1,-1892(gp) # 12754 <Int_Glob>
    56dc:	00011537          	lui	a0,0x11
    56e0:	27c50513          	add	a0,a0,636 # 1127c <_getpid_r+0x160>
    56e4:	000114b7          	lui	s1,0x11
    56e8:	0e4010ef          	jal	67cc <printf>
    56ec:	00500593          	li	a1,5
    56f0:	29848513          	add	a0,s1,664 # 11298 <_getpid_r+0x17c>
    56f4:	0d8010ef          	jal	67cc <printf>
    56f8:	8981a583          	lw	a1,-1896(gp) # 12750 <Bool_Glob>
    56fc:	00011537          	lui	a0,0x11
    5700:	2b450513          	add	a0,a0,692 # 112b4 <_getpid_r+0x198>
    5704:	0c8010ef          	jal	67cc <printf>
    5708:	00100593          	li	a1,1
    570c:	29848513          	add	a0,s1,664
    5710:	0bc010ef          	jal	67cc <printf>
    5714:	8951c583          	lbu	a1,-1899(gp) # 1274d <Ch_1_Glob>
    5718:	00011537          	lui	a0,0x11
    571c:	2d050513          	add	a0,a0,720 # 112d0 <_getpid_r+0x1b4>
    5720:	0ac010ef          	jal	67cc <printf>
    5724:	000119b7          	lui	s3,0x11
    5728:	04100593          	li	a1,65
    572c:	2ec98513          	add	a0,s3,748 # 112ec <_getpid_r+0x1d0>
    5730:	09c010ef          	jal	67cc <printf>
    5734:	8941c583          	lbu	a1,-1900(gp) # 1274c <Ch_2_Glob>
    5738:	00011537          	lui	a0,0x11
    573c:	30850513          	add	a0,a0,776 # 11308 <_getpid_r+0x1ec>
    5740:	08c010ef          	jal	67cc <printf>
    5744:	04200593          	li	a1,66
    5748:	2ec98513          	add	a0,s3,748
    574c:	080010ef          	jal	67cc <printf>
    5750:	8e418b93          	add	s7,gp,-1820 # 1279c <Arr_1_Glob>
    5754:	020ba583          	lw	a1,32(s7)
    5758:	00011537          	lui	a0,0x11
    575c:	32450513          	add	a0,a0,804 # 11324 <_getpid_r+0x208>
    5760:	06c010ef          	jal	67cc <printf>
    5764:	00700593          	li	a1,7
    5768:	29848513          	add	a0,s1,664
    576c:	060010ef          	jal	67cc <printf>
    5770:	000137b7          	lui	a5,0x13
    5774:	86478793          	add	a5,a5,-1948 # 12864 <Arr_2_Glob>
    5778:	65c7a583          	lw	a1,1628(a5)
    577c:	00011537          	lui	a0,0x11
    5780:	34050513          	add	a0,a0,832 # 11340 <_getpid_r+0x224>
    5784:	048010ef          	jal	67cc <printf>
    5788:	00011537          	lui	a0,0x11
    578c:	35c50513          	add	a0,a0,860 # 1135c <_getpid_r+0x240>
    5790:	174010ef          	jal	6904 <puts>
    5794:	00011537          	lui	a0,0x11
    5798:	38850513          	add	a0,a0,904 # 11388 <_getpid_r+0x26c>
    579c:	168010ef          	jal	6904 <puts>
    57a0:	8a41a703          	lw	a4,-1884(gp) # 1275c <Ptr_Glob>
    57a4:	00011d37          	lui	s10,0x11
    57a8:	394d0513          	add	a0,s10,916 # 11394 <_getpid_r+0x278>
    57ac:	00072583          	lw	a1,0(a4)
    57b0:	00011bb7          	lui	s7,0x11
    57b4:	00011ab7          	lui	s5,0x11
    57b8:	014010ef          	jal	67cc <printf>
    57bc:	00011537          	lui	a0,0x11
    57c0:	3b050513          	add	a0,a0,944 # 113b0 <_getpid_r+0x294>
    57c4:	140010ef          	jal	6904 <puts>
    57c8:	8a41a703          	lw	a4,-1884(gp) # 1275c <Ptr_Glob>
    57cc:	3e0b8513          	add	a0,s7,992 # 113e0 <_getpid_r+0x2c4>
    57d0:	00011a37          	lui	s4,0x11
    57d4:	00472583          	lw	a1,4(a4)
    57d8:	000119b7          	lui	s3,0x11
    57dc:	00011437          	lui	s0,0x11
    57e0:	7ed000ef          	jal	67cc <printf>
    57e4:	00000593          	li	a1,0
    57e8:	29848513          	add	a0,s1,664
    57ec:	7e1000ef          	jal	67cc <printf>
    57f0:	8a41a703          	lw	a4,-1884(gp) # 1275c <Ptr_Glob>
    57f4:	3fca8513          	add	a0,s5,1020 # 113fc <_getpid_r+0x2e0>
    57f8:	00872583          	lw	a1,8(a4)
    57fc:	7d1000ef          	jal	67cc <printf>
    5800:	00200593          	li	a1,2
    5804:	29848513          	add	a0,s1,664
    5808:	7c5000ef          	jal	67cc <printf>
    580c:	8a41a703          	lw	a4,-1884(gp) # 1275c <Ptr_Glob>
    5810:	418a0513          	add	a0,s4,1048 # 11418 <_getpid_r+0x2fc>
    5814:	00c72583          	lw	a1,12(a4)
    5818:	7b5000ef          	jal	67cc <printf>
    581c:	01100593          	li	a1,17
    5820:	29848513          	add	a0,s1,664
    5824:	7a9000ef          	jal	67cc <printf>
    5828:	8a41a583          	lw	a1,-1884(gp) # 1275c <Ptr_Glob>
    582c:	43498513          	add	a0,s3,1076 # 11434 <_getpid_r+0x318>
    5830:	01058593          	add	a1,a1,16
    5834:	799000ef          	jal	67cc <printf>
    5838:	45040513          	add	a0,s0,1104 # 11450 <_getpid_r+0x334>
    583c:	0c8010ef          	jal	6904 <puts>
    5840:	00011537          	lui	a0,0x11
    5844:	48450513          	add	a0,a0,1156 # 11484 <_getpid_r+0x368>
    5848:	0bc010ef          	jal	6904 <puts>
    584c:	8a01a703          	lw	a4,-1888(gp) # 12758 <Next_Ptr_Glob>
    5850:	394d0513          	add	a0,s10,916
    5854:	00072583          	lw	a1,0(a4)
    5858:	775000ef          	jal	67cc <printf>
    585c:	00011537          	lui	a0,0x11
    5860:	49450513          	add	a0,a0,1172 # 11494 <_getpid_r+0x378>
    5864:	0a0010ef          	jal	6904 <puts>
    5868:	8a01a703          	lw	a4,-1888(gp) # 12758 <Next_Ptr_Glob>
    586c:	3e0b8513          	add	a0,s7,992
    5870:	00472583          	lw	a1,4(a4)
    5874:	759000ef          	jal	67cc <printf>
    5878:	00000593          	li	a1,0
    587c:	29848513          	add	a0,s1,664
    5880:	74d000ef          	jal	67cc <printf>
    5884:	8a01a703          	lw	a4,-1888(gp) # 12758 <Next_Ptr_Glob>
    5888:	3fca8513          	add	a0,s5,1020
    588c:	00872583          	lw	a1,8(a4)
    5890:	73d000ef          	jal	67cc <printf>
    5894:	00100593          	li	a1,1
    5898:	29848513          	add	a0,s1,664
    589c:	731000ef          	jal	67cc <printf>
    58a0:	8a01a703          	lw	a4,-1888(gp) # 12758 <Next_Ptr_Glob>
    58a4:	418a0513          	add	a0,s4,1048
    58a8:	00c72583          	lw	a1,12(a4)
    58ac:	721000ef          	jal	67cc <printf>
    58b0:	01200593          	li	a1,18
    58b4:	29848513          	add	a0,s1,664
    58b8:	715000ef          	jal	67cc <printf>
    58bc:	8a01a583          	lw	a1,-1888(gp) # 12758 <Next_Ptr_Glob>
    58c0:	43498513          	add	a0,s3,1076
    58c4:	01058593          	add	a1,a1,16
    58c8:	705000ef          	jal	67cc <printf>
    58cc:	45040513          	add	a0,s0,1104
    58d0:	034010ef          	jal	6904 <puts>
    58d4:	00012783          	lw	a5,0(sp)
    58d8:	00011537          	lui	a0,0x11
    58dc:	4d450513          	add	a0,a0,1236 # 114d4 <_getpid_r+0x3b8>
    58e0:	00078593          	mv	a1,a5
    58e4:	6e9000ef          	jal	67cc <printf>
    58e8:	00500593          	li	a1,5
    58ec:	29848513          	add	a0,s1,664
    58f0:	6dd000ef          	jal	67cc <printf>
    58f4:	00812883          	lw	a7,8(sp)
    58f8:	00412603          	lw	a2,4(sp)
    58fc:	00011537          	lui	a0,0x11
    5900:	41190933          	sub	s2,s2,a7
    5904:	00391593          	sll	a1,s2,0x3
    5908:	412585b3          	sub	a1,a1,s2
    590c:	40c585b3          	sub	a1,a1,a2
    5910:	4f050513          	add	a0,a0,1264 # 114f0 <_getpid_r+0x3d4>
    5914:	6b9000ef          	jal	67cc <printf>
    5918:	00d00593          	li	a1,13
    591c:	29848513          	add	a0,s1,664
    5920:	6ad000ef          	jal	67cc <printf>
    5924:	02812583          	lw	a1,40(sp)
    5928:	00011537          	lui	a0,0x11
    592c:	50c50513          	add	a0,a0,1292 # 1150c <_getpid_r+0x3f0>
    5930:	69d000ef          	jal	67cc <printf>
    5934:	00700593          	li	a1,7
    5938:	29848513          	add	a0,s1,664
    593c:	691000ef          	jal	67cc <printf>
    5940:	02c12583          	lw	a1,44(sp)
    5944:	00011537          	lui	a0,0x11
    5948:	52850513          	add	a0,a0,1320 # 11528 <_getpid_r+0x40c>
    594c:	681000ef          	jal	67cc <printf>
    5950:	00100593          	li	a1,1
    5954:	29848513          	add	a0,s1,664
    5958:	675000ef          	jal	67cc <printf>
    595c:	00011537          	lui	a0,0x11
    5960:	03010593          	add	a1,sp,48
    5964:	54450513          	add	a0,a0,1348 # 11544 <_getpid_r+0x428>
    5968:	665000ef          	jal	67cc <printf>
    596c:	00011537          	lui	a0,0x11
    5970:	56050513          	add	a0,a0,1376 # 11560 <_getpid_r+0x444>
    5974:	791000ef          	jal	6904 <puts>
    5978:	00011537          	lui	a0,0x11
    597c:	05010593          	add	a1,sp,80
    5980:	59450513          	add	a0,a0,1428 # 11594 <_getpid_r+0x478>
    5984:	649000ef          	jal	67cc <printf>
    5988:	00011537          	lui	a0,0x11
    598c:	5b050513          	add	a0,a0,1456 # 115b0 <_getpid_r+0x494>
    5990:	775000ef          	jal	6904 <puts>
    5994:	00a00513          	li	a0,10
    5998:	689000ef          	jal	6820 <putchar>
    599c:	88c1a603          	lw	a2,-1908(gp) # 12744 <Begin_Time>
    59a0:	8801a683          	lw	a3,-1920(gp) # 12738 <Begin_Insn>
    59a4:	8881a703          	lw	a4,-1912(gp) # 12740 <End_Time>
    59a8:	87c1a783          	lw	a5,-1924(gp) # 12734 <End_Insn>
    59ac:	00011537          	lui	a0,0x11
    59b0:	40c70733          	sub	a4,a4,a2
    59b4:	40d787b3          	sub	a5,a5,a3
    59b8:	06400593          	li	a1,100
    59bc:	5e450513          	add	a0,a0,1508 # 115e4 <_getpid_r+0x4c8>
    59c0:	88e1a223          	sw	a4,-1916(gp) # 1273c <User_Time>
    59c4:	86f1ac23          	sw	a5,-1928(gp) # 12730 <User_Insn>
    59c8:	605000ef          	jal	67cc <printf>
    59cc:	8781a603          	lw	a2,-1928(gp) # 12730 <User_Insn>
    59d0:	8841a583          	lw	a1,-1916(gp) # 1273c <User_Time>
    59d4:	00011537          	lui	a0,0x11
    59d8:	5f850513          	add	a0,a0,1528 # 115f8 <_getpid_r+0x4dc>
    59dc:	5f1000ef          	jal	67cc <printf>
    59e0:	8841a583          	lw	a1,-1916(gp) # 1273c <User_Time>
    59e4:	3e800913          	li	s2,1000
    59e8:	8781a783          	lw	a5,-1928(gp) # 12730 <User_Insn>
    59ec:	02b905b3          	mul	a1,s2,a1
    59f0:	00a00493          	li	s1,10
    59f4:	06400613          	li	a2,100
    59f8:	00011537          	lui	a0,0x11
    59fc:	61850513          	add	a0,a0,1560 # 11618 <_getpid_r+0x4fc>
    5a00:	02f5c5b3          	div	a1,a1,a5
    5a04:	0295c6b3          	div	a3,a1,s1
    5a08:	02c5c633          	div	a2,a1,a2
    5a0c:	0295e733          	rem	a4,a1,s1
    5a10:	0296e6b3          	rem	a3,a3,s1
    5a14:	02966633          	rem	a2,a2,s1
    5a18:	0325c5b3          	div	a1,a1,s2
    5a1c:	5b1000ef          	jal	67cc <printf>
    5a20:	8841a703          	lw	a4,-1916(gp) # 1273c <User_Time>
    5a24:	05f5e7b7          	lui	a5,0x5f5e
    5a28:	10078793          	add	a5,a5,256 # 5f5e100 <_end+0x5f48e9c>
    5a2c:	02e7c433          	div	s0,a5,a4
    5a30:	00011537          	lui	a0,0x11
    5a34:	63c50513          	add	a0,a0,1596 # 1163c <_getpid_r+0x520>
    5a38:	00040593          	mv	a1,s0
    5a3c:	03240433          	mul	s0,s0,s2
    5a40:	58d000ef          	jal	67cc <printf>
    5a44:	6dd00713          	li	a4,1757
    5a48:	0002b6b7          	lui	a3,0x2b
    5a4c:	e5468693          	add	a3,a3,-428 # 2ae54 <_end+0x15bf0>
    5a50:	001ad5b7          	lui	a1,0x1ad
    5a54:	f4858593          	add	a1,a1,-184 # 1acf48 <_end+0x197ce4>
    5a58:	00011537          	lui	a0,0x11
    5a5c:	66050513          	add	a0,a0,1632 # 11660 <_getpid_r+0x544>
    5a60:	02e44733          	div	a4,s0,a4
    5a64:	02d44633          	div	a2,s0,a3
    5a68:	029746b3          	div	a3,a4,s1
    5a6c:	02966633          	rem	a2,a2,s1
    5a70:	02976733          	rem	a4,a4,s1
    5a74:	0296e6b3          	rem	a3,a3,s1
    5a78:	02b445b3          	div	a1,s0,a1
    5a7c:	551000ef          	jal	67cc <printf>
    5a80:	0ac12083          	lw	ra,172(sp)
    5a84:	0a812403          	lw	s0,168(sp)
    5a88:	0a412483          	lw	s1,164(sp)
    5a8c:	0a012903          	lw	s2,160(sp)
    5a90:	09c12983          	lw	s3,156(sp)
    5a94:	09812a03          	lw	s4,152(sp)
    5a98:	09412a83          	lw	s5,148(sp)
    5a9c:	09012b03          	lw	s6,144(sp)
    5aa0:	08c12b83          	lw	s7,140(sp)
    5aa4:	08812c03          	lw	s8,136(sp)
    5aa8:	08412c83          	lw	s9,132(sp)
    5aac:	08012d03          	lw	s10,128(sp)
    5ab0:	07c12d83          	lw	s11,124(sp)
    5ab4:	00000513          	li	a0,0
    5ab8:	0b010113          	add	sp,sp,176
    5abc:	00008067          	ret
    5ac0:	02c10593          	add	a1,sp,44
    5ac4:	00000513          	li	a0,0
    5ac8:	fdcfa0ef          	jal	2a4 <Proc_6>
    5acc:	000cae03          	lw	t3,0(s9)
    5ad0:	004ca303          	lw	t1,4(s9)
    5ad4:	008ca883          	lw	a7,8(s9)
    5ad8:	00cca803          	lw	a6,12(s9)
    5adc:	010ca503          	lw	a0,16(s9)
    5ae0:	014ca583          	lw	a1,20(s9)
    5ae4:	018ca603          	lw	a2,24(s9)
    5ae8:	01ccd703          	lhu	a4,28(s9)
    5aec:	01ecc783          	lbu	a5,30(s9)
    5af0:	8941c683          	lbu	a3,-1900(gp) # 1274c <Ch_2_Glob>
    5af4:	001d0d13          	add	s10,s10,1
    5af8:	05c12823          	sw	t3,80(sp)
    5afc:	04612a23          	sw	t1,84(sp)
    5b00:	05112c23          	sw	a7,88(sp)
    5b04:	05012e23          	sw	a6,92(sp)
    5b08:	06a12023          	sw	a0,96(sp)
    5b0c:	06b12223          	sw	a1,100(sp)
    5b10:	06c12423          	sw	a2,104(sp)
    5b14:	06e11623          	sh	a4,108(sp)
    5b18:	06f10723          	sb	a5,110(sp)
    5b1c:	8891ae23          	sw	s1,-1892(gp) # 12754 <Int_Glob>
    5b20:	0ffd7d13          	zext.b	s10,s10
    5b24:	00048913          	mv	s2,s1
    5b28:	b1a6f0e3          	bgeu	a3,s10,5628 <main+0x2ac>
    5b2c:	b21ff06f          	j	564c <main+0x2d0>
    5b30:	00900913          	li	s2,9
    5b34:	b21ff06f          	j	5654 <main+0x2d8>
    5b38:	00011537          	lui	a0,0x11
    5b3c:	19c50513          	add	a0,a0,412 # 1119c <_getpid_r+0x80>
    5b40:	5c5000ef          	jal	6904 <puts>
    5b44:	00a00513          	li	a0,10
    5b48:	4d9000ef          	jal	6820 <putchar>
    5b4c:	989ff06f          	j	54d4 <main+0x158>

00005b50 <register_fini>:
    5b50:	00000793          	li	a5,0
    5b54:	00078863          	beqz	a5,5b64 <register_fini+0x14>
    5b58:	0000c537          	lui	a0,0xc
    5b5c:	45050513          	add	a0,a0,1104 # c450 <__libc_fini_array>
    5b60:	4340106f          	j	6f94 <atexit>
    5b64:	00008067          	ret

00005b68 <malloc>:
    5b68:	00050593          	mv	a1,a0
    5b6c:	86c1a503          	lw	a0,-1940(gp) # 12724 <_impure_ptr>
    5b70:	0100006f          	j	5b80 <_malloc_r>

00005b74 <free>:
    5b74:	00050593          	mv	a1,a0
    5b78:	86c1a503          	lw	a0,-1940(gp) # 12724 <_impure_ptr>
    5b7c:	56c0106f          	j	70e8 <_free_r>

00005b80 <_malloc_r>:
    5b80:	fd010113          	add	sp,sp,-48
    5b84:	01312e23          	sw	s3,28(sp)
    5b88:	02112623          	sw	ra,44(sp)
    5b8c:	02812423          	sw	s0,40(sp)
    5b90:	02912223          	sw	s1,36(sp)
    5b94:	03212023          	sw	s2,32(sp)
    5b98:	00b58793          	add	a5,a1,11
    5b9c:	01600713          	li	a4,22
    5ba0:	00050993          	mv	s3,a0
    5ba4:	08f76263          	bltu	a4,a5,5c28 <_malloc_r+0xa8>
    5ba8:	01000793          	li	a5,16
    5bac:	20b7e663          	bltu	a5,a1,5db8 <_malloc_r+0x238>
    5bb0:	794000ef          	jal	6344 <__malloc_lock>
    5bb4:	01800793          	li	a5,24
    5bb8:	00200593          	li	a1,2
    5bbc:	01000493          	li	s1,16
    5bc0:	00012937          	lui	s2,0x12
    5bc4:	01090913          	add	s2,s2,16 # 12010 <__malloc_av_>
    5bc8:	00f907b3          	add	a5,s2,a5
    5bcc:	0047a403          	lw	s0,4(a5)
    5bd0:	ff878713          	add	a4,a5,-8
    5bd4:	34e40663          	beq	s0,a4,5f20 <_malloc_r+0x3a0>
    5bd8:	00442783          	lw	a5,4(s0)
    5bdc:	00c42683          	lw	a3,12(s0)
    5be0:	00842603          	lw	a2,8(s0)
    5be4:	ffc7f793          	and	a5,a5,-4
    5be8:	00f407b3          	add	a5,s0,a5
    5bec:	0047a703          	lw	a4,4(a5)
    5bf0:	00d62623          	sw	a3,12(a2)
    5bf4:	00c6a423          	sw	a2,8(a3)
    5bf8:	00176713          	or	a4,a4,1
    5bfc:	00098513          	mv	a0,s3
    5c00:	00e7a223          	sw	a4,4(a5)
    5c04:	744000ef          	jal	6348 <__malloc_unlock>
    5c08:	00840513          	add	a0,s0,8
    5c0c:	02c12083          	lw	ra,44(sp)
    5c10:	02812403          	lw	s0,40(sp)
    5c14:	02412483          	lw	s1,36(sp)
    5c18:	02012903          	lw	s2,32(sp)
    5c1c:	01c12983          	lw	s3,28(sp)
    5c20:	03010113          	add	sp,sp,48
    5c24:	00008067          	ret
    5c28:	ff87f493          	and	s1,a5,-8
    5c2c:	1807c663          	bltz	a5,5db8 <_malloc_r+0x238>
    5c30:	18b4e463          	bltu	s1,a1,5db8 <_malloc_r+0x238>
    5c34:	710000ef          	jal	6344 <__malloc_lock>
    5c38:	1f700793          	li	a5,503
    5c3c:	3e97fc63          	bgeu	a5,s1,6034 <_malloc_r+0x4b4>
    5c40:	0094d793          	srl	a5,s1,0x9
    5c44:	18078263          	beqz	a5,5dc8 <_malloc_r+0x248>
    5c48:	00400713          	li	a4,4
    5c4c:	34f76263          	bltu	a4,a5,5f90 <_malloc_r+0x410>
    5c50:	0064d793          	srl	a5,s1,0x6
    5c54:	03978593          	add	a1,a5,57
    5c58:	03878813          	add	a6,a5,56
    5c5c:	00359613          	sll	a2,a1,0x3
    5c60:	00012937          	lui	s2,0x12
    5c64:	01090913          	add	s2,s2,16 # 12010 <__malloc_av_>
    5c68:	00c90633          	add	a2,s2,a2
    5c6c:	00462403          	lw	s0,4(a2)
    5c70:	ff860613          	add	a2,a2,-8
    5c74:	02860863          	beq	a2,s0,5ca4 <_malloc_r+0x124>
    5c78:	00f00513          	li	a0,15
    5c7c:	0140006f          	j	5c90 <_malloc_r+0x110>
    5c80:	00c42683          	lw	a3,12(s0)
    5c84:	28075a63          	bgez	a4,5f18 <_malloc_r+0x398>
    5c88:	00d60e63          	beq	a2,a3,5ca4 <_malloc_r+0x124>
    5c8c:	00068413          	mv	s0,a3
    5c90:	00442783          	lw	a5,4(s0)
    5c94:	ffc7f793          	and	a5,a5,-4
    5c98:	40978733          	sub	a4,a5,s1
    5c9c:	fee552e3          	bge	a0,a4,5c80 <_malloc_r+0x100>
    5ca0:	00080593          	mv	a1,a6
    5ca4:	01092403          	lw	s0,16(s2)
    5ca8:	00012837          	lui	a6,0x12
    5cac:	01880813          	add	a6,a6,24 # 12018 <__malloc_av_+0x8>
    5cb0:	27040063          	beq	s0,a6,5f10 <_malloc_r+0x390>
    5cb4:	00442783          	lw	a5,4(s0)
    5cb8:	00f00693          	li	a3,15
    5cbc:	ffc7f793          	and	a5,a5,-4
    5cc0:	40978733          	sub	a4,a5,s1
    5cc4:	36e6ce63          	blt	a3,a4,6040 <_malloc_r+0x4c0>
    5cc8:	01092a23          	sw	a6,20(s2)
    5ccc:	01092823          	sw	a6,16(s2)
    5cd0:	34075263          	bgez	a4,6014 <_malloc_r+0x494>
    5cd4:	1ff00713          	li	a4,511
    5cd8:	00492503          	lw	a0,4(s2)
    5cdc:	24f76a63          	bltu	a4,a5,5f30 <_malloc_r+0x3b0>
    5ce0:	ff87f713          	and	a4,a5,-8
    5ce4:	00870713          	add	a4,a4,8
    5ce8:	00e90733          	add	a4,s2,a4
    5cec:	00072683          	lw	a3,0(a4)
    5cf0:	0057d613          	srl	a2,a5,0x5
    5cf4:	00100793          	li	a5,1
    5cf8:	00c797b3          	sll	a5,a5,a2
    5cfc:	00f56533          	or	a0,a0,a5
    5d00:	ff870793          	add	a5,a4,-8
    5d04:	00f42623          	sw	a5,12(s0)
    5d08:	00d42423          	sw	a3,8(s0)
    5d0c:	00a92223          	sw	a0,4(s2)
    5d10:	00872023          	sw	s0,0(a4)
    5d14:	0086a623          	sw	s0,12(a3)
    5d18:	4025d793          	sra	a5,a1,0x2
    5d1c:	00100613          	li	a2,1
    5d20:	00f61633          	sll	a2,a2,a5
    5d24:	0ac56a63          	bltu	a0,a2,5dd8 <_malloc_r+0x258>
    5d28:	00a677b3          	and	a5,a2,a0
    5d2c:	02079463          	bnez	a5,5d54 <_malloc_r+0x1d4>
    5d30:	00161613          	sll	a2,a2,0x1
    5d34:	ffc5f593          	and	a1,a1,-4
    5d38:	00a677b3          	and	a5,a2,a0
    5d3c:	00458593          	add	a1,a1,4
    5d40:	00079a63          	bnez	a5,5d54 <_malloc_r+0x1d4>
    5d44:	00161613          	sll	a2,a2,0x1
    5d48:	00a677b3          	and	a5,a2,a0
    5d4c:	00458593          	add	a1,a1,4
    5d50:	fe078ae3          	beqz	a5,5d44 <_malloc_r+0x1c4>
    5d54:	00f00893          	li	a7,15
    5d58:	00359313          	sll	t1,a1,0x3
    5d5c:	00690333          	add	t1,s2,t1
    5d60:	00030513          	mv	a0,t1
    5d64:	00c52783          	lw	a5,12(a0)
    5d68:	00058e13          	mv	t3,a1
    5d6c:	24f50463          	beq	a0,a5,5fb4 <_malloc_r+0x434>
    5d70:	0047a703          	lw	a4,4(a5)
    5d74:	00078413          	mv	s0,a5
    5d78:	00c7a783          	lw	a5,12(a5)
    5d7c:	ffc77713          	and	a4,a4,-4
    5d80:	409706b3          	sub	a3,a4,s1
    5d84:	24d8c463          	blt	a7,a3,5fcc <_malloc_r+0x44c>
    5d88:	fe06c2e3          	bltz	a3,5d6c <_malloc_r+0x1ec>
    5d8c:	00e40733          	add	a4,s0,a4
    5d90:	00472683          	lw	a3,4(a4)
    5d94:	00842603          	lw	a2,8(s0)
    5d98:	00098513          	mv	a0,s3
    5d9c:	0016e693          	or	a3,a3,1
    5da0:	00d72223          	sw	a3,4(a4)
    5da4:	00f62623          	sw	a5,12(a2)
    5da8:	00c7a423          	sw	a2,8(a5)
    5dac:	59c000ef          	jal	6348 <__malloc_unlock>
    5db0:	00840513          	add	a0,s0,8
    5db4:	e59ff06f          	j	5c0c <_malloc_r+0x8c>
    5db8:	00c00793          	li	a5,12
    5dbc:	00f9a023          	sw	a5,0(s3)
    5dc0:	00000513          	li	a0,0
    5dc4:	e49ff06f          	j	5c0c <_malloc_r+0x8c>
    5dc8:	20000613          	li	a2,512
    5dcc:	04000593          	li	a1,64
    5dd0:	03f00813          	li	a6,63
    5dd4:	e8dff06f          	j	5c60 <_malloc_r+0xe0>
    5dd8:	00892403          	lw	s0,8(s2)
    5ddc:	01612823          	sw	s6,16(sp)
    5de0:	00442783          	lw	a5,4(s0)
    5de4:	ffc7fb13          	and	s6,a5,-4
    5de8:	009b6863          	bltu	s6,s1,5df8 <_malloc_r+0x278>
    5dec:	409b0733          	sub	a4,s6,s1
    5df0:	00f00793          	li	a5,15
    5df4:	0ce7cc63          	blt	a5,a4,5ecc <_malloc_r+0x34c>
    5df8:	01912223          	sw	s9,4(sp)
    5dfc:	01512a23          	sw	s5,20(sp)
    5e00:	8641a703          	lw	a4,-1948(gp) # 1271c <__malloc_sbrk_base>
    5e04:	8b41aa83          	lw	s5,-1868(gp) # 1276c <__malloc_top_pad>
    5e08:	01412c23          	sw	s4,24(sp)
    5e0c:	01712623          	sw	s7,12(sp)
    5e10:	fff00793          	li	a5,-1
    5e14:	01640a33          	add	s4,s0,s6
    5e18:	01548ab3          	add	s5,s1,s5
    5e1c:	3cf70a63          	beq	a4,a5,61f0 <_malloc_r+0x670>
    5e20:	000017b7          	lui	a5,0x1
    5e24:	00f78793          	add	a5,a5,15 # 100f <__divdf3+0x18f>
    5e28:	00fa8ab3          	add	s5,s5,a5
    5e2c:	fffff7b7          	lui	a5,0xfffff
    5e30:	00fafab3          	and	s5,s5,a5
    5e34:	000a8593          	mv	a1,s5
    5e38:	00098513          	mv	a0,s3
    5e3c:	631000ef          	jal	6c6c <_sbrk_r>
    5e40:	fff00793          	li	a5,-1
    5e44:	00050b93          	mv	s7,a0
    5e48:	44f50e63          	beq	a0,a5,62a4 <_malloc_r+0x724>
    5e4c:	01812423          	sw	s8,8(sp)
    5e50:	25456063          	bltu	a0,s4,6090 <_malloc_r+0x510>
    5e54:	00015c37          	lui	s8,0x15
    5e58:	f74c0c13          	add	s8,s8,-140 # 14f74 <__malloc_current_mallinfo>
    5e5c:	000c2583          	lw	a1,0(s8)
    5e60:	00ba85b3          	add	a1,s5,a1
    5e64:	00bc2023          	sw	a1,0(s8)
    5e68:	00058713          	mv	a4,a1
    5e6c:	2aaa1863          	bne	s4,a0,611c <_malloc_r+0x59c>
    5e70:	01451793          	sll	a5,a0,0x14
    5e74:	2a079463          	bnez	a5,611c <_malloc_r+0x59c>
    5e78:	00892b83          	lw	s7,8(s2)
    5e7c:	015b07b3          	add	a5,s6,s5
    5e80:	0017e793          	or	a5,a5,1
    5e84:	00fba223          	sw	a5,4(s7)
    5e88:	8b01a683          	lw	a3,-1872(gp) # 12768 <__malloc_max_sbrked_mem>
    5e8c:	00b6f463          	bgeu	a3,a1,5e94 <_malloc_r+0x314>
    5e90:	8ab1a823          	sw	a1,-1872(gp) # 12768 <__malloc_max_sbrked_mem>
    5e94:	8ac1a683          	lw	a3,-1876(gp) # 12764 <__malloc_max_total_mem>
    5e98:	00b6f463          	bgeu	a3,a1,5ea0 <_malloc_r+0x320>
    5e9c:	8ab1a623          	sw	a1,-1876(gp) # 12764 <__malloc_max_total_mem>
    5ea0:	00812c03          	lw	s8,8(sp)
    5ea4:	000b8413          	mv	s0,s7
    5ea8:	ffc7f793          	and	a5,a5,-4
    5eac:	40978733          	sub	a4,a5,s1
    5eb0:	3897ec63          	bltu	a5,s1,6248 <_malloc_r+0x6c8>
    5eb4:	00f00793          	li	a5,15
    5eb8:	38e7d863          	bge	a5,a4,6248 <_malloc_r+0x6c8>
    5ebc:	01812a03          	lw	s4,24(sp)
    5ec0:	01412a83          	lw	s5,20(sp)
    5ec4:	00c12b83          	lw	s7,12(sp)
    5ec8:	00412c83          	lw	s9,4(sp)
    5ecc:	0014e793          	or	a5,s1,1
    5ed0:	00f42223          	sw	a5,4(s0)
    5ed4:	009404b3          	add	s1,s0,s1
    5ed8:	00992423          	sw	s1,8(s2)
    5edc:	00176713          	or	a4,a4,1
    5ee0:	00098513          	mv	a0,s3
    5ee4:	00e4a223          	sw	a4,4(s1)
    5ee8:	460000ef          	jal	6348 <__malloc_unlock>
    5eec:	02c12083          	lw	ra,44(sp)
    5ef0:	00840513          	add	a0,s0,8
    5ef4:	02812403          	lw	s0,40(sp)
    5ef8:	01012b03          	lw	s6,16(sp)
    5efc:	02412483          	lw	s1,36(sp)
    5f00:	02012903          	lw	s2,32(sp)
    5f04:	01c12983          	lw	s3,28(sp)
    5f08:	03010113          	add	sp,sp,48
    5f0c:	00008067          	ret
    5f10:	00492503          	lw	a0,4(s2)
    5f14:	e05ff06f          	j	5d18 <_malloc_r+0x198>
    5f18:	00842603          	lw	a2,8(s0)
    5f1c:	ccdff06f          	j	5be8 <_malloc_r+0x68>
    5f20:	00c7a403          	lw	s0,12(a5) # fffff00c <_end+0xfffe9da8>
    5f24:	00258593          	add	a1,a1,2
    5f28:	d6878ee3          	beq	a5,s0,5ca4 <_malloc_r+0x124>
    5f2c:	cadff06f          	j	5bd8 <_malloc_r+0x58>
    5f30:	0097d713          	srl	a4,a5,0x9
    5f34:	00400693          	li	a3,4
    5f38:	14e6f263          	bgeu	a3,a4,607c <_malloc_r+0x4fc>
    5f3c:	01400693          	li	a3,20
    5f40:	32e6e663          	bltu	a3,a4,626c <_malloc_r+0x6ec>
    5f44:	05c70613          	add	a2,a4,92
    5f48:	05b70693          	add	a3,a4,91
    5f4c:	00361613          	sll	a2,a2,0x3
    5f50:	00c90633          	add	a2,s2,a2
    5f54:	00062703          	lw	a4,0(a2)
    5f58:	ff860613          	add	a2,a2,-8
    5f5c:	00e61863          	bne	a2,a4,5f6c <_malloc_r+0x3ec>
    5f60:	2980006f          	j	61f8 <_malloc_r+0x678>
    5f64:	00872703          	lw	a4,8(a4)
    5f68:	00e60863          	beq	a2,a4,5f78 <_malloc_r+0x3f8>
    5f6c:	00472683          	lw	a3,4(a4)
    5f70:	ffc6f693          	and	a3,a3,-4
    5f74:	fed7e8e3          	bltu	a5,a3,5f64 <_malloc_r+0x3e4>
    5f78:	00c72603          	lw	a2,12(a4)
    5f7c:	00c42623          	sw	a2,12(s0)
    5f80:	00e42423          	sw	a4,8(s0)
    5f84:	00862423          	sw	s0,8(a2)
    5f88:	00872623          	sw	s0,12(a4)
    5f8c:	d8dff06f          	j	5d18 <_malloc_r+0x198>
    5f90:	01400713          	li	a4,20
    5f94:	10f77863          	bgeu	a4,a5,60a4 <_malloc_r+0x524>
    5f98:	05400713          	li	a4,84
    5f9c:	2ef76663          	bltu	a4,a5,6288 <_malloc_r+0x708>
    5fa0:	00c4d793          	srl	a5,s1,0xc
    5fa4:	06f78593          	add	a1,a5,111
    5fa8:	06e78813          	add	a6,a5,110
    5fac:	00359613          	sll	a2,a1,0x3
    5fb0:	cb1ff06f          	j	5c60 <_malloc_r+0xe0>
    5fb4:	001e0e13          	add	t3,t3,1
    5fb8:	003e7793          	and	a5,t3,3
    5fbc:	00850513          	add	a0,a0,8
    5fc0:	10078063          	beqz	a5,60c0 <_malloc_r+0x540>
    5fc4:	00c52783          	lw	a5,12(a0)
    5fc8:	da5ff06f          	j	5d6c <_malloc_r+0x1ec>
    5fcc:	00842603          	lw	a2,8(s0)
    5fd0:	0014e593          	or	a1,s1,1
    5fd4:	00b42223          	sw	a1,4(s0)
    5fd8:	00f62623          	sw	a5,12(a2)
    5fdc:	00c7a423          	sw	a2,8(a5)
    5fe0:	009404b3          	add	s1,s0,s1
    5fe4:	00992a23          	sw	s1,20(s2)
    5fe8:	00992823          	sw	s1,16(s2)
    5fec:	0016e793          	or	a5,a3,1
    5ff0:	0104a623          	sw	a6,12(s1)
    5ff4:	0104a423          	sw	a6,8(s1)
    5ff8:	00f4a223          	sw	a5,4(s1)
    5ffc:	00e40733          	add	a4,s0,a4
    6000:	00098513          	mv	a0,s3
    6004:	00d72023          	sw	a3,0(a4)
    6008:	340000ef          	jal	6348 <__malloc_unlock>
    600c:	00840513          	add	a0,s0,8
    6010:	bfdff06f          	j	5c0c <_malloc_r+0x8c>
    6014:	00f407b3          	add	a5,s0,a5
    6018:	0047a703          	lw	a4,4(a5)
    601c:	00098513          	mv	a0,s3
    6020:	00176713          	or	a4,a4,1
    6024:	00e7a223          	sw	a4,4(a5)
    6028:	320000ef          	jal	6348 <__malloc_unlock>
    602c:	00840513          	add	a0,s0,8
    6030:	bddff06f          	j	5c0c <_malloc_r+0x8c>
    6034:	0034d593          	srl	a1,s1,0x3
    6038:	00848793          	add	a5,s1,8
    603c:	b85ff06f          	j	5bc0 <_malloc_r+0x40>
    6040:	0014e693          	or	a3,s1,1
    6044:	00d42223          	sw	a3,4(s0)
    6048:	009404b3          	add	s1,s0,s1
    604c:	00992a23          	sw	s1,20(s2)
    6050:	00992823          	sw	s1,16(s2)
    6054:	00176693          	or	a3,a4,1
    6058:	0104a623          	sw	a6,12(s1)
    605c:	0104a423          	sw	a6,8(s1)
    6060:	00d4a223          	sw	a3,4(s1)
    6064:	00f407b3          	add	a5,s0,a5
    6068:	00098513          	mv	a0,s3
    606c:	00e7a023          	sw	a4,0(a5)
    6070:	2d8000ef          	jal	6348 <__malloc_unlock>
    6074:	00840513          	add	a0,s0,8
    6078:	b95ff06f          	j	5c0c <_malloc_r+0x8c>
    607c:	0067d713          	srl	a4,a5,0x6
    6080:	03970613          	add	a2,a4,57
    6084:	03870693          	add	a3,a4,56
    6088:	00361613          	sll	a2,a2,0x3
    608c:	ec5ff06f          	j	5f50 <_malloc_r+0x3d0>
    6090:	07240c63          	beq	s0,s2,6108 <_malloc_r+0x588>
    6094:	00892403          	lw	s0,8(s2)
    6098:	00812c03          	lw	s8,8(sp)
    609c:	00442783          	lw	a5,4(s0)
    60a0:	e09ff06f          	j	5ea8 <_malloc_r+0x328>
    60a4:	05c78593          	add	a1,a5,92
    60a8:	05b78813          	add	a6,a5,91
    60ac:	00359613          	sll	a2,a1,0x3
    60b0:	bb1ff06f          	j	5c60 <_malloc_r+0xe0>
    60b4:	00832783          	lw	a5,8(t1)
    60b8:	fff58593          	add	a1,a1,-1
    60bc:	28679063          	bne	a5,t1,633c <_malloc_r+0x7bc>
    60c0:	0035f793          	and	a5,a1,3
    60c4:	ff830313          	add	t1,t1,-8
    60c8:	fe0796e3          	bnez	a5,60b4 <_malloc_r+0x534>
    60cc:	00492703          	lw	a4,4(s2)
    60d0:	fff64793          	not	a5,a2
    60d4:	00e7f7b3          	and	a5,a5,a4
    60d8:	00f92223          	sw	a5,4(s2)
    60dc:	00161613          	sll	a2,a2,0x1
    60e0:	cec7ece3          	bltu	a5,a2,5dd8 <_malloc_r+0x258>
    60e4:	ce060ae3          	beqz	a2,5dd8 <_malloc_r+0x258>
    60e8:	00f67733          	and	a4,a2,a5
    60ec:	00071a63          	bnez	a4,6100 <_malloc_r+0x580>
    60f0:	00161613          	sll	a2,a2,0x1
    60f4:	00f67733          	and	a4,a2,a5
    60f8:	004e0e13          	add	t3,t3,4
    60fc:	fe070ae3          	beqz	a4,60f0 <_malloc_r+0x570>
    6100:	000e0593          	mv	a1,t3
    6104:	c55ff06f          	j	5d58 <_malloc_r+0x1d8>
    6108:	00015c37          	lui	s8,0x15
    610c:	f74c0c13          	add	s8,s8,-140 # 14f74 <__malloc_current_mallinfo>
    6110:	000c2703          	lw	a4,0(s8)
    6114:	00ea8733          	add	a4,s5,a4
    6118:	00ec2023          	sw	a4,0(s8)
    611c:	8641a683          	lw	a3,-1948(gp) # 1271c <__malloc_sbrk_base>
    6120:	fff00793          	li	a5,-1
    6124:	18f68663          	beq	a3,a5,62b0 <_malloc_r+0x730>
    6128:	414b87b3          	sub	a5,s7,s4
    612c:	00e787b3          	add	a5,a5,a4
    6130:	00fc2023          	sw	a5,0(s8)
    6134:	007bfc93          	and	s9,s7,7
    6138:	0c0c8c63          	beqz	s9,6210 <_malloc_r+0x690>
    613c:	419b8bb3          	sub	s7,s7,s9
    6140:	000017b7          	lui	a5,0x1
    6144:	00878793          	add	a5,a5,8 # 1008 <__divdf3+0x188>
    6148:	008b8b93          	add	s7,s7,8
    614c:	419785b3          	sub	a1,a5,s9
    6150:	015b8ab3          	add	s5,s7,s5
    6154:	415585b3          	sub	a1,a1,s5
    6158:	01459593          	sll	a1,a1,0x14
    615c:	0145da13          	srl	s4,a1,0x14
    6160:	000a0593          	mv	a1,s4
    6164:	00098513          	mv	a0,s3
    6168:	305000ef          	jal	6c6c <_sbrk_r>
    616c:	fff00793          	li	a5,-1
    6170:	18f50063          	beq	a0,a5,62f0 <_malloc_r+0x770>
    6174:	41750533          	sub	a0,a0,s7
    6178:	01450ab3          	add	s5,a0,s4
    617c:	000c2703          	lw	a4,0(s8)
    6180:	01792423          	sw	s7,8(s2)
    6184:	001ae793          	or	a5,s5,1
    6188:	00ea05b3          	add	a1,s4,a4
    618c:	00bc2023          	sw	a1,0(s8)
    6190:	00fba223          	sw	a5,4(s7)
    6194:	cf240ae3          	beq	s0,s2,5e88 <_malloc_r+0x308>
    6198:	00f00693          	li	a3,15
    619c:	0b66f063          	bgeu	a3,s6,623c <_malloc_r+0x6bc>
    61a0:	00442703          	lw	a4,4(s0)
    61a4:	ff4b0793          	add	a5,s6,-12
    61a8:	ff87f793          	and	a5,a5,-8
    61ac:	00177713          	and	a4,a4,1
    61b0:	00f76733          	or	a4,a4,a5
    61b4:	00e42223          	sw	a4,4(s0)
    61b8:	00500613          	li	a2,5
    61bc:	00f40733          	add	a4,s0,a5
    61c0:	00c72223          	sw	a2,4(a4)
    61c4:	00c72423          	sw	a2,8(a4)
    61c8:	00f6e663          	bltu	a3,a5,61d4 <_malloc_r+0x654>
    61cc:	004ba783          	lw	a5,4(s7)
    61d0:	cb9ff06f          	j	5e88 <_malloc_r+0x308>
    61d4:	00840593          	add	a1,s0,8
    61d8:	00098513          	mv	a0,s3
    61dc:	70d000ef          	jal	70e8 <_free_r>
    61e0:	00892b83          	lw	s7,8(s2)
    61e4:	000c2583          	lw	a1,0(s8)
    61e8:	004ba783          	lw	a5,4(s7)
    61ec:	c9dff06f          	j	5e88 <_malloc_r+0x308>
    61f0:	010a8a93          	add	s5,s5,16
    61f4:	c41ff06f          	j	5e34 <_malloc_r+0x2b4>
    61f8:	4026d693          	sra	a3,a3,0x2
    61fc:	00100793          	li	a5,1
    6200:	00d797b3          	sll	a5,a5,a3
    6204:	00f56533          	or	a0,a0,a5
    6208:	00a92223          	sw	a0,4(s2)
    620c:	d71ff06f          	j	5f7c <_malloc_r+0x3fc>
    6210:	015b85b3          	add	a1,s7,s5
    6214:	40b005b3          	neg	a1,a1
    6218:	01459593          	sll	a1,a1,0x14
    621c:	0145da13          	srl	s4,a1,0x14
    6220:	000a0593          	mv	a1,s4
    6224:	00098513          	mv	a0,s3
    6228:	245000ef          	jal	6c6c <_sbrk_r>
    622c:	fff00793          	li	a5,-1
    6230:	f4f512e3          	bne	a0,a5,6174 <_malloc_r+0x5f4>
    6234:	00000a13          	li	s4,0
    6238:	f45ff06f          	j	617c <_malloc_r+0x5fc>
    623c:	00812c03          	lw	s8,8(sp)
    6240:	00100793          	li	a5,1
    6244:	00fba223          	sw	a5,4(s7)
    6248:	00098513          	mv	a0,s3
    624c:	0fc000ef          	jal	6348 <__malloc_unlock>
    6250:	00000513          	li	a0,0
    6254:	01812a03          	lw	s4,24(sp)
    6258:	01412a83          	lw	s5,20(sp)
    625c:	01012b03          	lw	s6,16(sp)
    6260:	00c12b83          	lw	s7,12(sp)
    6264:	00412c83          	lw	s9,4(sp)
    6268:	9a5ff06f          	j	5c0c <_malloc_r+0x8c>
    626c:	05400693          	li	a3,84
    6270:	04e6e463          	bltu	a3,a4,62b8 <_malloc_r+0x738>
    6274:	00c7d713          	srl	a4,a5,0xc
    6278:	06f70613          	add	a2,a4,111
    627c:	06e70693          	add	a3,a4,110
    6280:	00361613          	sll	a2,a2,0x3
    6284:	ccdff06f          	j	5f50 <_malloc_r+0x3d0>
    6288:	15400713          	li	a4,340
    628c:	04f76463          	bltu	a4,a5,62d4 <_malloc_r+0x754>
    6290:	00f4d793          	srl	a5,s1,0xf
    6294:	07878593          	add	a1,a5,120
    6298:	07778813          	add	a6,a5,119
    629c:	00359613          	sll	a2,a1,0x3
    62a0:	9c1ff06f          	j	5c60 <_malloc_r+0xe0>
    62a4:	00892403          	lw	s0,8(s2)
    62a8:	00442783          	lw	a5,4(s0)
    62ac:	bfdff06f          	j	5ea8 <_malloc_r+0x328>
    62b0:	8771a223          	sw	s7,-1948(gp) # 1271c <__malloc_sbrk_base>
    62b4:	e81ff06f          	j	6134 <_malloc_r+0x5b4>
    62b8:	15400693          	li	a3,340
    62bc:	04e6e463          	bltu	a3,a4,6304 <_malloc_r+0x784>
    62c0:	00f7d713          	srl	a4,a5,0xf
    62c4:	07870613          	add	a2,a4,120
    62c8:	07770693          	add	a3,a4,119
    62cc:	00361613          	sll	a2,a2,0x3
    62d0:	c81ff06f          	j	5f50 <_malloc_r+0x3d0>
    62d4:	55400713          	li	a4,1364
    62d8:	04f76463          	bltu	a4,a5,6320 <_malloc_r+0x7a0>
    62dc:	0124d793          	srl	a5,s1,0x12
    62e0:	07d78593          	add	a1,a5,125
    62e4:	07c78813          	add	a6,a5,124
    62e8:	00359613          	sll	a2,a1,0x3
    62ec:	975ff06f          	j	5c60 <_malloc_r+0xe0>
    62f0:	ff8c8c93          	add	s9,s9,-8
    62f4:	019a8ab3          	add	s5,s5,s9
    62f8:	417a8ab3          	sub	s5,s5,s7
    62fc:	00000a13          	li	s4,0
    6300:	e7dff06f          	j	617c <_malloc_r+0x5fc>
    6304:	55400693          	li	a3,1364
    6308:	02e6e463          	bltu	a3,a4,6330 <_malloc_r+0x7b0>
    630c:	0127d713          	srl	a4,a5,0x12
    6310:	07d70613          	add	a2,a4,125
    6314:	07c70693          	add	a3,a4,124
    6318:	00361613          	sll	a2,a2,0x3
    631c:	c35ff06f          	j	5f50 <_malloc_r+0x3d0>
    6320:	3f800613          	li	a2,1016
    6324:	07f00593          	li	a1,127
    6328:	07e00813          	li	a6,126
    632c:	935ff06f          	j	5c60 <_malloc_r+0xe0>
    6330:	3f800613          	li	a2,1016
    6334:	07e00693          	li	a3,126
    6338:	c19ff06f          	j	5f50 <_malloc_r+0x3d0>
    633c:	00492783          	lw	a5,4(s2)
    6340:	d9dff06f          	j	60dc <_malloc_r+0x55c>

00006344 <__malloc_lock>:
    6344:	00008067          	ret

00006348 <__malloc_unlock>:
    6348:	00008067          	ret

0000634c <__fp_lock>:
    634c:	00000513          	li	a0,0
    6350:	00008067          	ret

00006354 <stdio_exit_handler>:
    6354:	00012637          	lui	a2,0x12
    6358:	0000b5b7          	lui	a1,0xb
    635c:	00012537          	lui	a0,0x12
    6360:	41860613          	add	a2,a2,1048 # 12418 <__sglue>
    6364:	2ac58593          	add	a1,a1,684 # b2ac <_fclose_r>
    6368:	42850513          	add	a0,a0,1064 # 12428 <_impure_data>
    636c:	36c0006f          	j	66d8 <_fwalk_sglue>

00006370 <cleanup_stdio>:
    6370:	00452583          	lw	a1,4(a0)
    6374:	ff010113          	add	sp,sp,-16
    6378:	000157b7          	lui	a5,0x15
    637c:	00812423          	sw	s0,8(sp)
    6380:	00112623          	sw	ra,12(sp)
    6384:	f9c78793          	add	a5,a5,-100 # 14f9c <__sf>
    6388:	00050413          	mv	s0,a0
    638c:	00f58463          	beq	a1,a5,6394 <cleanup_stdio+0x24>
    6390:	71d040ef          	jal	b2ac <_fclose_r>
    6394:	00842583          	lw	a1,8(s0)
    6398:	000157b7          	lui	a5,0x15
    639c:	00478793          	add	a5,a5,4 # 15004 <__sf+0x68>
    63a0:	00f58663          	beq	a1,a5,63ac <cleanup_stdio+0x3c>
    63a4:	00040513          	mv	a0,s0
    63a8:	705040ef          	jal	b2ac <_fclose_r>
    63ac:	00c42583          	lw	a1,12(s0)
    63b0:	000157b7          	lui	a5,0x15
    63b4:	06c78793          	add	a5,a5,108 # 1506c <__sf+0xd0>
    63b8:	00f58c63          	beq	a1,a5,63d0 <cleanup_stdio+0x60>
    63bc:	00040513          	mv	a0,s0
    63c0:	00812403          	lw	s0,8(sp)
    63c4:	00c12083          	lw	ra,12(sp)
    63c8:	01010113          	add	sp,sp,16
    63cc:	6e10406f          	j	b2ac <_fclose_r>
    63d0:	00c12083          	lw	ra,12(sp)
    63d4:	00812403          	lw	s0,8(sp)
    63d8:	01010113          	add	sp,sp,16
    63dc:	00008067          	ret

000063e0 <__fp_unlock>:
    63e0:	00000513          	li	a0,0
    63e4:	00008067          	ret

000063e8 <global_stdio_init.part.0>:
    63e8:	fe010113          	add	sp,sp,-32
    63ec:	000067b7          	lui	a5,0x6
    63f0:	00812c23          	sw	s0,24(sp)
    63f4:	35478793          	add	a5,a5,852 # 6354 <stdio_exit_handler>
    63f8:	00015437          	lui	s0,0x15
    63fc:	00015537          	lui	a0,0x15
    6400:	f9c40413          	add	s0,s0,-100 # 14f9c <__sf>
    6404:	00112e23          	sw	ra,28(sp)
    6408:	00912a23          	sw	s1,20(sp)
    640c:	01212823          	sw	s2,16(sp)
    6410:	01312623          	sw	s3,12(sp)
    6414:	01412423          	sw	s4,8(sp)
    6418:	8af1ac23          	sw	a5,-1864(gp) # 12770 <__stdio_exit_handler>
    641c:	00800613          	li	a2,8
    6420:	00400793          	li	a5,4
    6424:	00000593          	li	a1,0
    6428:	ff850513          	add	a0,a0,-8 # 14ff8 <__sf+0x5c>
    642c:	00f42623          	sw	a5,12(s0)
    6430:	00042023          	sw	zero,0(s0)
    6434:	00042223          	sw	zero,4(s0)
    6438:	00042423          	sw	zero,8(s0)
    643c:	06042223          	sw	zero,100(s0)
    6440:	00042823          	sw	zero,16(s0)
    6444:	00042a23          	sw	zero,20(s0)
    6448:	00042c23          	sw	zero,24(s0)
    644c:	848fa0ef          	jal	494 <memset>
    6450:	000107b7          	lui	a5,0x10
    6454:	00007a37          	lui	s4,0x7
    6458:	000079b7          	lui	s3,0x7
    645c:	00007937          	lui	s2,0x7
    6460:	000074b7          	lui	s1,0x7
    6464:	00015537          	lui	a0,0x15
    6468:	910a0a13          	add	s4,s4,-1776 # 6910 <__sread>
    646c:	97498993          	add	s3,s3,-1676 # 6974 <__swrite>
    6470:	9fc90913          	add	s2,s2,-1540 # 69fc <__sseek>
    6474:	a7448493          	add	s1,s1,-1420 # 6a74 <__sclose>
    6478:	00978793          	add	a5,a5,9 # 10009 <_realloc_r+0x61>
    647c:	00800613          	li	a2,8
    6480:	00000593          	li	a1,0
    6484:	06050513          	add	a0,a0,96 # 15060 <__sf+0xc4>
    6488:	03442023          	sw	s4,32(s0)
    648c:	03342223          	sw	s3,36(s0)
    6490:	03242423          	sw	s2,40(s0)
    6494:	02942623          	sw	s1,44(s0)
    6498:	06f42a23          	sw	a5,116(s0)
    649c:	00842e23          	sw	s0,28(s0)
    64a0:	06042423          	sw	zero,104(s0)
    64a4:	06042623          	sw	zero,108(s0)
    64a8:	06042823          	sw	zero,112(s0)
    64ac:	0c042623          	sw	zero,204(s0)
    64b0:	06042c23          	sw	zero,120(s0)
    64b4:	06042e23          	sw	zero,124(s0)
    64b8:	08042023          	sw	zero,128(s0)
    64bc:	fd9f90ef          	jal	494 <memset>
    64c0:	000207b7          	lui	a5,0x20
    64c4:	00015537          	lui	a0,0x15
    64c8:	00015737          	lui	a4,0x15
    64cc:	01278793          	add	a5,a5,18 # 20012 <_end+0xadae>
    64d0:	00470713          	add	a4,a4,4 # 15004 <__sf+0x68>
    64d4:	00800613          	li	a2,8
    64d8:	00000593          	li	a1,0
    64dc:	0c850513          	add	a0,a0,200 # 150c8 <__sf+0x12c>
    64e0:	09442423          	sw	s4,136(s0)
    64e4:	09342623          	sw	s3,140(s0)
    64e8:	09242823          	sw	s2,144(s0)
    64ec:	08942a23          	sw	s1,148(s0)
    64f0:	0cf42e23          	sw	a5,220(s0)
    64f4:	08e42223          	sw	a4,132(s0)
    64f8:	0c042823          	sw	zero,208(s0)
    64fc:	0c042a23          	sw	zero,212(s0)
    6500:	0c042c23          	sw	zero,216(s0)
    6504:	12042a23          	sw	zero,308(s0)
    6508:	0e042023          	sw	zero,224(s0)
    650c:	0e042223          	sw	zero,228(s0)
    6510:	0e042423          	sw	zero,232(s0)
    6514:	f81f90ef          	jal	494 <memset>
    6518:	000157b7          	lui	a5,0x15
    651c:	06c78793          	add	a5,a5,108 # 1506c <__sf+0xd0>
    6520:	0f442823          	sw	s4,240(s0)
    6524:	0f342a23          	sw	s3,244(s0)
    6528:	0f242c23          	sw	s2,248(s0)
    652c:	0e942e23          	sw	s1,252(s0)
    6530:	01c12083          	lw	ra,28(sp)
    6534:	0ef42623          	sw	a5,236(s0)
    6538:	01812403          	lw	s0,24(sp)
    653c:	01412483          	lw	s1,20(sp)
    6540:	01012903          	lw	s2,16(sp)
    6544:	00c12983          	lw	s3,12(sp)
    6548:	00812a03          	lw	s4,8(sp)
    654c:	02010113          	add	sp,sp,32
    6550:	00008067          	ret

00006554 <__sfp>:
    6554:	8b81a783          	lw	a5,-1864(gp) # 12770 <__stdio_exit_handler>
    6558:	fe010113          	add	sp,sp,-32
    655c:	01312623          	sw	s3,12(sp)
    6560:	00112e23          	sw	ra,28(sp)
    6564:	00812c23          	sw	s0,24(sp)
    6568:	00912a23          	sw	s1,20(sp)
    656c:	01212823          	sw	s2,16(sp)
    6570:	00050993          	mv	s3,a0
    6574:	0e078863          	beqz	a5,6664 <__sfp+0x110>
    6578:	00012937          	lui	s2,0x12
    657c:	41890913          	add	s2,s2,1048 # 12418 <__sglue>
    6580:	fff00493          	li	s1,-1
    6584:	00492783          	lw	a5,4(s2)
    6588:	00892403          	lw	s0,8(s2)
    658c:	fff78793          	add	a5,a5,-1
    6590:	0007d863          	bgez	a5,65a0 <__sfp+0x4c>
    6594:	0800006f          	j	6614 <__sfp+0xc0>
    6598:	06840413          	add	s0,s0,104
    659c:	06978c63          	beq	a5,s1,6614 <__sfp+0xc0>
    65a0:	00c41703          	lh	a4,12(s0)
    65a4:	fff78793          	add	a5,a5,-1
    65a8:	fe0718e3          	bnez	a4,6598 <__sfp+0x44>
    65ac:	ffff07b7          	lui	a5,0xffff0
    65b0:	00178793          	add	a5,a5,1 # ffff0001 <_end+0xfffdad9d>
    65b4:	00f42623          	sw	a5,12(s0)
    65b8:	06042223          	sw	zero,100(s0)
    65bc:	00042023          	sw	zero,0(s0)
    65c0:	00042423          	sw	zero,8(s0)
    65c4:	00042223          	sw	zero,4(s0)
    65c8:	00042823          	sw	zero,16(s0)
    65cc:	00042a23          	sw	zero,20(s0)
    65d0:	00042c23          	sw	zero,24(s0)
    65d4:	00800613          	li	a2,8
    65d8:	00000593          	li	a1,0
    65dc:	05c40513          	add	a0,s0,92
    65e0:	eb5f90ef          	jal	494 <memset>
    65e4:	02042823          	sw	zero,48(s0)
    65e8:	02042a23          	sw	zero,52(s0)
    65ec:	04042223          	sw	zero,68(s0)
    65f0:	04042423          	sw	zero,72(s0)
    65f4:	01c12083          	lw	ra,28(sp)
    65f8:	00040513          	mv	a0,s0
    65fc:	01812403          	lw	s0,24(sp)
    6600:	01412483          	lw	s1,20(sp)
    6604:	01012903          	lw	s2,16(sp)
    6608:	00c12983          	lw	s3,12(sp)
    660c:	02010113          	add	sp,sp,32
    6610:	00008067          	ret
    6614:	00092403          	lw	s0,0(s2)
    6618:	00040663          	beqz	s0,6624 <__sfp+0xd0>
    661c:	00040913          	mv	s2,s0
    6620:	f65ff06f          	j	6584 <__sfp+0x30>
    6624:	1ac00593          	li	a1,428
    6628:	00098513          	mv	a0,s3
    662c:	d54ff0ef          	jal	5b80 <_malloc_r>
    6630:	00050413          	mv	s0,a0
    6634:	02050c63          	beqz	a0,666c <__sfp+0x118>
    6638:	00c50513          	add	a0,a0,12
    663c:	00400793          	li	a5,4
    6640:	00042023          	sw	zero,0(s0)
    6644:	00f42223          	sw	a5,4(s0)
    6648:	00a42423          	sw	a0,8(s0)
    664c:	1a000613          	li	a2,416
    6650:	00000593          	li	a1,0
    6654:	e41f90ef          	jal	494 <memset>
    6658:	00892023          	sw	s0,0(s2)
    665c:	00040913          	mv	s2,s0
    6660:	f25ff06f          	j	6584 <__sfp+0x30>
    6664:	d85ff0ef          	jal	63e8 <global_stdio_init.part.0>
    6668:	f11ff06f          	j	6578 <__sfp+0x24>
    666c:	00092023          	sw	zero,0(s2)
    6670:	00c00793          	li	a5,12
    6674:	00f9a023          	sw	a5,0(s3)
    6678:	f7dff06f          	j	65f4 <__sfp+0xa0>

0000667c <__sinit>:
    667c:	03452783          	lw	a5,52(a0)
    6680:	00078463          	beqz	a5,6688 <__sinit+0xc>
    6684:	00008067          	ret
    6688:	8b81a703          	lw	a4,-1864(gp) # 12770 <__stdio_exit_handler>
    668c:	000067b7          	lui	a5,0x6
    6690:	37078793          	add	a5,a5,880 # 6370 <cleanup_stdio>
    6694:	02f52a23          	sw	a5,52(a0)
    6698:	fe0716e3          	bnez	a4,6684 <__sinit+0x8>
    669c:	d4dff06f          	j	63e8 <global_stdio_init.part.0>

000066a0 <__sfp_lock_acquire>:
    66a0:	00008067          	ret

000066a4 <__sfp_lock_release>:
    66a4:	00008067          	ret

000066a8 <__fp_lock_all>:
    66a8:	00012637          	lui	a2,0x12
    66ac:	000065b7          	lui	a1,0x6
    66b0:	41860613          	add	a2,a2,1048 # 12418 <__sglue>
    66b4:	34c58593          	add	a1,a1,844 # 634c <__fp_lock>
    66b8:	00000513          	li	a0,0
    66bc:	01c0006f          	j	66d8 <_fwalk_sglue>

000066c0 <__fp_unlock_all>:
    66c0:	00012637          	lui	a2,0x12
    66c4:	000065b7          	lui	a1,0x6
    66c8:	41860613          	add	a2,a2,1048 # 12418 <__sglue>
    66cc:	3e058593          	add	a1,a1,992 # 63e0 <__fp_unlock>
    66d0:	00000513          	li	a0,0
    66d4:	0040006f          	j	66d8 <_fwalk_sglue>

000066d8 <_fwalk_sglue>:
    66d8:	fd010113          	add	sp,sp,-48
    66dc:	03212023          	sw	s2,32(sp)
    66e0:	01312e23          	sw	s3,28(sp)
    66e4:	01412c23          	sw	s4,24(sp)
    66e8:	01512a23          	sw	s5,20(sp)
    66ec:	01612823          	sw	s6,16(sp)
    66f0:	01712623          	sw	s7,12(sp)
    66f4:	02112623          	sw	ra,44(sp)
    66f8:	02812423          	sw	s0,40(sp)
    66fc:	02912223          	sw	s1,36(sp)
    6700:	00050b13          	mv	s6,a0
    6704:	00058b93          	mv	s7,a1
    6708:	00060a93          	mv	s5,a2
    670c:	00000a13          	li	s4,0
    6710:	00100993          	li	s3,1
    6714:	fff00913          	li	s2,-1
    6718:	004aa483          	lw	s1,4(s5)
    671c:	008aa403          	lw	s0,8(s5)
    6720:	fff48493          	add	s1,s1,-1
    6724:	0204c863          	bltz	s1,6754 <_fwalk_sglue+0x7c>
    6728:	00c45783          	lhu	a5,12(s0)
    672c:	00f9fe63          	bgeu	s3,a5,6748 <_fwalk_sglue+0x70>
    6730:	00e41783          	lh	a5,14(s0)
    6734:	00040593          	mv	a1,s0
    6738:	000b0513          	mv	a0,s6
    673c:	01278663          	beq	a5,s2,6748 <_fwalk_sglue+0x70>
    6740:	000b80e7          	jalr	s7
    6744:	00aa6a33          	or	s4,s4,a0
    6748:	fff48493          	add	s1,s1,-1
    674c:	06840413          	add	s0,s0,104
    6750:	fd249ce3          	bne	s1,s2,6728 <_fwalk_sglue+0x50>
    6754:	000aaa83          	lw	s5,0(s5)
    6758:	fc0a90e3          	bnez	s5,6718 <_fwalk_sglue+0x40>
    675c:	02c12083          	lw	ra,44(sp)
    6760:	02812403          	lw	s0,40(sp)
    6764:	02412483          	lw	s1,36(sp)
    6768:	02012903          	lw	s2,32(sp)
    676c:	01c12983          	lw	s3,28(sp)
    6770:	01412a83          	lw	s5,20(sp)
    6774:	01012b03          	lw	s6,16(sp)
    6778:	00c12b83          	lw	s7,12(sp)
    677c:	000a0513          	mv	a0,s4
    6780:	01812a03          	lw	s4,24(sp)
    6784:	03010113          	add	sp,sp,48
    6788:	00008067          	ret

0000678c <_printf_r>:
    678c:	fc010113          	add	sp,sp,-64
    6790:	02c12423          	sw	a2,40(sp)
    6794:	02d12623          	sw	a3,44(sp)
    6798:	02e12823          	sw	a4,48(sp)
    679c:	02f12a23          	sw	a5,52(sp)
    67a0:	03012c23          	sw	a6,56(sp)
    67a4:	03112e23          	sw	a7,60(sp)
    67a8:	00058613          	mv	a2,a1
    67ac:	00852583          	lw	a1,8(a0)
    67b0:	02810693          	add	a3,sp,40
    67b4:	00112e23          	sw	ra,28(sp)
    67b8:	00d12623          	sw	a3,12(sp)
    67bc:	431000ef          	jal	73ec <_vfprintf_r>
    67c0:	01c12083          	lw	ra,28(sp)
    67c4:	04010113          	add	sp,sp,64
    67c8:	00008067          	ret

000067cc <printf>:
    67cc:	86c1a303          	lw	t1,-1940(gp) # 12724 <_impure_ptr>
    67d0:	fc010113          	add	sp,sp,-64
    67d4:	02c12423          	sw	a2,40(sp)
    67d8:	02d12623          	sw	a3,44(sp)
    67dc:	02b12223          	sw	a1,36(sp)
    67e0:	02e12823          	sw	a4,48(sp)
    67e4:	02f12a23          	sw	a5,52(sp)
    67e8:	03012c23          	sw	a6,56(sp)
    67ec:	03112e23          	sw	a7,60(sp)
    67f0:	00832583          	lw	a1,8(t1)
    67f4:	02410693          	add	a3,sp,36
    67f8:	00050613          	mv	a2,a0
    67fc:	00030513          	mv	a0,t1
    6800:	00112e23          	sw	ra,28(sp)
    6804:	00d12623          	sw	a3,12(sp)
    6808:	3e5000ef          	jal	73ec <_vfprintf_r>
    680c:	01c12083          	lw	ra,28(sp)
    6810:	04010113          	add	sp,sp,64
    6814:	00008067          	ret

00006818 <_putchar_r>:
    6818:	00852603          	lw	a2,8(a0)
    681c:	3e40506f          	j	bc00 <_putc_r>

00006820 <putchar>:
    6820:	86c1a783          	lw	a5,-1940(gp) # 12724 <_impure_ptr>
    6824:	00050593          	mv	a1,a0
    6828:	0087a603          	lw	a2,8(a5)
    682c:	00078513          	mv	a0,a5
    6830:	3d00506f          	j	bc00 <_putc_r>

00006834 <_puts_r>:
    6834:	fc010113          	add	sp,sp,-64
    6838:	02812c23          	sw	s0,56(sp)
    683c:	00050413          	mv	s0,a0
    6840:	00058513          	mv	a0,a1
    6844:	02912a23          	sw	s1,52(sp)
    6848:	02112e23          	sw	ra,60(sp)
    684c:	00058493          	mv	s1,a1
    6850:	584000ef          	jal	6dd4 <strlen>
    6854:	000117b7          	lui	a5,0x11
    6858:	67878793          	add	a5,a5,1656 # 11678 <_getpid_r+0x55c>
    685c:	02f12423          	sw	a5,40(sp)
    6860:	00100793          	li	a5,1
    6864:	02f12623          	sw	a5,44(sp)
    6868:	03442703          	lw	a4,52(s0)
    686c:	02010793          	add	a5,sp,32
    6870:	00150693          	add	a3,a0,1
    6874:	00f12a23          	sw	a5,20(sp)
    6878:	00200793          	li	a5,2
    687c:	02912023          	sw	s1,32(sp)
    6880:	02a12223          	sw	a0,36(sp)
    6884:	00d12e23          	sw	a3,28(sp)
    6888:	00f12c23          	sw	a5,24(sp)
    688c:	00842583          	lw	a1,8(s0)
    6890:	06070063          	beqz	a4,68f0 <_puts_r+0xbc>
    6894:	00c59783          	lh	a5,12(a1)
    6898:	01279713          	sll	a4,a5,0x12
    689c:	02074263          	bltz	a4,68c0 <_puts_r+0x8c>
    68a0:	0645a703          	lw	a4,100(a1)
    68a4:	ffffe6b7          	lui	a3,0xffffe
    68a8:	fff68693          	add	a3,a3,-1 # ffffdfff <_end+0xfffe8d9b>
    68ac:	00002637          	lui	a2,0x2
    68b0:	00c7e7b3          	or	a5,a5,a2
    68b4:	00d77733          	and	a4,a4,a3
    68b8:	00f59623          	sh	a5,12(a1)
    68bc:	06e5a223          	sw	a4,100(a1)
    68c0:	01410613          	add	a2,sp,20
    68c4:	00040513          	mv	a0,s0
    68c8:	629040ef          	jal	b6f0 <__sfvwrite_r>
    68cc:	03c12083          	lw	ra,60(sp)
    68d0:	03812403          	lw	s0,56(sp)
    68d4:	00153513          	seqz	a0,a0
    68d8:	40a00533          	neg	a0,a0
    68dc:	00b57513          	and	a0,a0,11
    68e0:	03412483          	lw	s1,52(sp)
    68e4:	fff50513          	add	a0,a0,-1
    68e8:	04010113          	add	sp,sp,64
    68ec:	00008067          	ret
    68f0:	00040513          	mv	a0,s0
    68f4:	00b12623          	sw	a1,12(sp)
    68f8:	d85ff0ef          	jal	667c <__sinit>
    68fc:	00c12583          	lw	a1,12(sp)
    6900:	f95ff06f          	j	6894 <_puts_r+0x60>

00006904 <puts>:
    6904:	00050593          	mv	a1,a0
    6908:	86c1a503          	lw	a0,-1940(gp) # 12724 <_impure_ptr>
    690c:	f29ff06f          	j	6834 <_puts_r>

00006910 <__sread>:
    6910:	ff010113          	add	sp,sp,-16
    6914:	00812423          	sw	s0,8(sp)
    6918:	00058413          	mv	s0,a1
    691c:	00e59583          	lh	a1,14(a1)
    6920:	00112623          	sw	ra,12(sp)
    6924:	2e0000ef          	jal	6c04 <_read_r>
    6928:	02054063          	bltz	a0,6948 <__sread+0x38>
    692c:	05042783          	lw	a5,80(s0)
    6930:	00c12083          	lw	ra,12(sp)
    6934:	00a787b3          	add	a5,a5,a0
    6938:	04f42823          	sw	a5,80(s0)
    693c:	00812403          	lw	s0,8(sp)
    6940:	01010113          	add	sp,sp,16
    6944:	00008067          	ret
    6948:	00c45783          	lhu	a5,12(s0)
    694c:	fffff737          	lui	a4,0xfffff
    6950:	fff70713          	add	a4,a4,-1 # ffffefff <_end+0xfffe9d9b>
    6954:	00e7f7b3          	and	a5,a5,a4
    6958:	00c12083          	lw	ra,12(sp)
    695c:	00f41623          	sh	a5,12(s0)
    6960:	00812403          	lw	s0,8(sp)
    6964:	01010113          	add	sp,sp,16
    6968:	00008067          	ret

0000696c <__seofread>:
    696c:	00000513          	li	a0,0
    6970:	00008067          	ret

00006974 <__swrite>:
    6974:	00c59783          	lh	a5,12(a1)
    6978:	fe010113          	add	sp,sp,-32
    697c:	00812c23          	sw	s0,24(sp)
    6980:	00912a23          	sw	s1,20(sp)
    6984:	01212823          	sw	s2,16(sp)
    6988:	01312623          	sw	s3,12(sp)
    698c:	00112e23          	sw	ra,28(sp)
    6990:	1007f713          	and	a4,a5,256
    6994:	00058413          	mv	s0,a1
    6998:	00050493          	mv	s1,a0
    699c:	00060913          	mv	s2,a2
    69a0:	00068993          	mv	s3,a3
    69a4:	04071063          	bnez	a4,69e4 <__swrite+0x70>
    69a8:	fffff737          	lui	a4,0xfffff
    69ac:	fff70713          	add	a4,a4,-1 # ffffefff <_end+0xfffe9d9b>
    69b0:	00e7f7b3          	and	a5,a5,a4
    69b4:	00e41583          	lh	a1,14(s0)
    69b8:	00f41623          	sh	a5,12(s0)
    69bc:	01812403          	lw	s0,24(sp)
    69c0:	01c12083          	lw	ra,28(sp)
    69c4:	00098693          	mv	a3,s3
    69c8:	00090613          	mv	a2,s2
    69cc:	00c12983          	lw	s3,12(sp)
    69d0:	01012903          	lw	s2,16(sp)
    69d4:	00048513          	mv	a0,s1
    69d8:	01412483          	lw	s1,20(sp)
    69dc:	02010113          	add	sp,sp,32
    69e0:	2e80006f          	j	6cc8 <_write_r>
    69e4:	00e59583          	lh	a1,14(a1)
    69e8:	00200693          	li	a3,2
    69ec:	00000613          	li	a2,0
    69f0:	1ac000ef          	jal	6b9c <_lseek_r>
    69f4:	00c41783          	lh	a5,12(s0)
    69f8:	fb1ff06f          	j	69a8 <__swrite+0x34>

000069fc <__sseek>:
    69fc:	ff010113          	add	sp,sp,-16
    6a00:	00812423          	sw	s0,8(sp)
    6a04:	00058413          	mv	s0,a1
    6a08:	00e59583          	lh	a1,14(a1)
    6a0c:	00112623          	sw	ra,12(sp)
    6a10:	18c000ef          	jal	6b9c <_lseek_r>
    6a14:	fff00793          	li	a5,-1
    6a18:	02f50863          	beq	a0,a5,6a48 <__sseek+0x4c>
    6a1c:	00c45783          	lhu	a5,12(s0)
    6a20:	00001737          	lui	a4,0x1
    6a24:	00c12083          	lw	ra,12(sp)
    6a28:	00e7e7b3          	or	a5,a5,a4
    6a2c:	01079793          	sll	a5,a5,0x10
    6a30:	4107d793          	sra	a5,a5,0x10
    6a34:	04a42823          	sw	a0,80(s0)
    6a38:	00f41623          	sh	a5,12(s0)
    6a3c:	00812403          	lw	s0,8(sp)
    6a40:	01010113          	add	sp,sp,16
    6a44:	00008067          	ret
    6a48:	00c45783          	lhu	a5,12(s0)
    6a4c:	fffff737          	lui	a4,0xfffff
    6a50:	fff70713          	add	a4,a4,-1 # ffffefff <_end+0xfffe9d9b>
    6a54:	00e7f7b3          	and	a5,a5,a4
    6a58:	01079793          	sll	a5,a5,0x10
    6a5c:	4107d793          	sra	a5,a5,0x10
    6a60:	00c12083          	lw	ra,12(sp)
    6a64:	00f41623          	sh	a5,12(s0)
    6a68:	00812403          	lw	s0,8(sp)
    6a6c:	01010113          	add	sp,sp,16
    6a70:	00008067          	ret

00006a74 <__sclose>:
    6a74:	00e59583          	lh	a1,14(a1)
    6a78:	0040006f          	j	6a7c <_close_r>

00006a7c <_close_r>:
    6a7c:	ff010113          	add	sp,sp,-16
    6a80:	00812423          	sw	s0,8(sp)
    6a84:	00912223          	sw	s1,4(sp)
    6a88:	00050413          	mv	s0,a0
    6a8c:	00058513          	mv	a0,a1
    6a90:	00112623          	sw	ra,12(sp)
    6a94:	8a01ae23          	sw	zero,-1860(gp) # 12774 <errno>
    6a98:	9a5f90ef          	jal	43c <_close>
    6a9c:	fff00793          	li	a5,-1
    6aa0:	00f50c63          	beq	a0,a5,6ab8 <_close_r+0x3c>
    6aa4:	00c12083          	lw	ra,12(sp)
    6aa8:	00812403          	lw	s0,8(sp)
    6aac:	00412483          	lw	s1,4(sp)
    6ab0:	01010113          	add	sp,sp,16
    6ab4:	00008067          	ret
    6ab8:	8bc1a783          	lw	a5,-1860(gp) # 12774 <errno>
    6abc:	fe0784e3          	beqz	a5,6aa4 <_close_r+0x28>
    6ac0:	00c12083          	lw	ra,12(sp)
    6ac4:	00f42023          	sw	a5,0(s0)
    6ac8:	00812403          	lw	s0,8(sp)
    6acc:	00412483          	lw	s1,4(sp)
    6ad0:	01010113          	add	sp,sp,16
    6ad4:	00008067          	ret

00006ad8 <_reclaim_reent>:
    6ad8:	86c1a783          	lw	a5,-1940(gp) # 12724 <_impure_ptr>
    6adc:	0aa78e63          	beq	a5,a0,6b98 <_reclaim_reent+0xc0>
    6ae0:	04452583          	lw	a1,68(a0)
    6ae4:	fe010113          	add	sp,sp,-32
    6ae8:	00912a23          	sw	s1,20(sp)
    6aec:	00112e23          	sw	ra,28(sp)
    6af0:	00050493          	mv	s1,a0
    6af4:	04058c63          	beqz	a1,6b4c <_reclaim_reent+0x74>
    6af8:	01212823          	sw	s2,16(sp)
    6afc:	01312623          	sw	s3,12(sp)
    6b00:	00812c23          	sw	s0,24(sp)
    6b04:	00000913          	li	s2,0
    6b08:	08000993          	li	s3,128
    6b0c:	012587b3          	add	a5,a1,s2
    6b10:	0007a403          	lw	s0,0(a5)
    6b14:	00040e63          	beqz	s0,6b30 <_reclaim_reent+0x58>
    6b18:	00040593          	mv	a1,s0
    6b1c:	00042403          	lw	s0,0(s0)
    6b20:	00048513          	mv	a0,s1
    6b24:	5c4000ef          	jal	70e8 <_free_r>
    6b28:	fe0418e3          	bnez	s0,6b18 <_reclaim_reent+0x40>
    6b2c:	0444a583          	lw	a1,68(s1)
    6b30:	00490913          	add	s2,s2,4
    6b34:	fd391ce3          	bne	s2,s3,6b0c <_reclaim_reent+0x34>
    6b38:	00048513          	mv	a0,s1
    6b3c:	5ac000ef          	jal	70e8 <_free_r>
    6b40:	01812403          	lw	s0,24(sp)
    6b44:	01012903          	lw	s2,16(sp)
    6b48:	00c12983          	lw	s3,12(sp)
    6b4c:	0384a583          	lw	a1,56(s1)
    6b50:	00058663          	beqz	a1,6b5c <_reclaim_reent+0x84>
    6b54:	00048513          	mv	a0,s1
    6b58:	590000ef          	jal	70e8 <_free_r>
    6b5c:	04c4a583          	lw	a1,76(s1)
    6b60:	00058663          	beqz	a1,6b6c <_reclaim_reent+0x94>
    6b64:	00048513          	mv	a0,s1
    6b68:	580000ef          	jal	70e8 <_free_r>
    6b6c:	0344a783          	lw	a5,52(s1)
    6b70:	00078c63          	beqz	a5,6b88 <_reclaim_reent+0xb0>
    6b74:	01c12083          	lw	ra,28(sp)
    6b78:	00048513          	mv	a0,s1
    6b7c:	01412483          	lw	s1,20(sp)
    6b80:	02010113          	add	sp,sp,32
    6b84:	00078067          	jr	a5
    6b88:	01c12083          	lw	ra,28(sp)
    6b8c:	01412483          	lw	s1,20(sp)
    6b90:	02010113          	add	sp,sp,32
    6b94:	00008067          	ret
    6b98:	00008067          	ret

00006b9c <_lseek_r>:
    6b9c:	ff010113          	add	sp,sp,-16
    6ba0:	00058713          	mv	a4,a1
    6ba4:	00812423          	sw	s0,8(sp)
    6ba8:	00912223          	sw	s1,4(sp)
    6bac:	00060593          	mv	a1,a2
    6bb0:	00050413          	mv	s0,a0
    6bb4:	00068613          	mv	a2,a3
    6bb8:	00070513          	mv	a0,a4
    6bbc:	00112623          	sw	ra,12(sp)
    6bc0:	8a01ae23          	sw	zero,-1860(gp) # 12774 <errno>
    6bc4:	825f90ef          	jal	3e8 <_access>
    6bc8:	fff00793          	li	a5,-1
    6bcc:	00f50c63          	beq	a0,a5,6be4 <_lseek_r+0x48>
    6bd0:	00c12083          	lw	ra,12(sp)
    6bd4:	00812403          	lw	s0,8(sp)
    6bd8:	00412483          	lw	s1,4(sp)
    6bdc:	01010113          	add	sp,sp,16
    6be0:	00008067          	ret
    6be4:	8bc1a783          	lw	a5,-1860(gp) # 12774 <errno>
    6be8:	fe0784e3          	beqz	a5,6bd0 <_lseek_r+0x34>
    6bec:	00c12083          	lw	ra,12(sp)
    6bf0:	00f42023          	sw	a5,0(s0)
    6bf4:	00812403          	lw	s0,8(sp)
    6bf8:	00412483          	lw	s1,4(sp)
    6bfc:	01010113          	add	sp,sp,16
    6c00:	00008067          	ret

00006c04 <_read_r>:
    6c04:	ff010113          	add	sp,sp,-16
    6c08:	00058713          	mv	a4,a1
    6c0c:	00812423          	sw	s0,8(sp)
    6c10:	00912223          	sw	s1,4(sp)
    6c14:	00060593          	mv	a1,a2
    6c18:	00050413          	mv	s0,a0
    6c1c:	00068613          	mv	a2,a3
    6c20:	00070513          	mv	a0,a4
    6c24:	00112623          	sw	ra,12(sp)
    6c28:	8a01ae23          	sw	zero,-1860(gp) # 12774 <errno>
    6c2c:	fe4f90ef          	jal	410 <_read>
    6c30:	fff00793          	li	a5,-1
    6c34:	00f50c63          	beq	a0,a5,6c4c <_read_r+0x48>
    6c38:	00c12083          	lw	ra,12(sp)
    6c3c:	00812403          	lw	s0,8(sp)
    6c40:	00412483          	lw	s1,4(sp)
    6c44:	01010113          	add	sp,sp,16
    6c48:	00008067          	ret
    6c4c:	8bc1a783          	lw	a5,-1860(gp) # 12774 <errno>
    6c50:	fe0784e3          	beqz	a5,6c38 <_read_r+0x34>
    6c54:	00c12083          	lw	ra,12(sp)
    6c58:	00f42023          	sw	a5,0(s0)
    6c5c:	00812403          	lw	s0,8(sp)
    6c60:	00412483          	lw	s1,4(sp)
    6c64:	01010113          	add	sp,sp,16
    6c68:	00008067          	ret

00006c6c <_sbrk_r>:
    6c6c:	ff010113          	add	sp,sp,-16
    6c70:	00812423          	sw	s0,8(sp)
    6c74:	00912223          	sw	s1,4(sp)
    6c78:	00050413          	mv	s0,a0
    6c7c:	00058513          	mv	a0,a1
    6c80:	00112623          	sw	ra,12(sp)
    6c84:	8a01ae23          	sw	zero,-1860(gp) # 12774 <errno>
    6c88:	fe0f90ef          	jal	468 <_sbrk>
    6c8c:	fff00793          	li	a5,-1
    6c90:	00f50c63          	beq	a0,a5,6ca8 <_sbrk_r+0x3c>
    6c94:	00c12083          	lw	ra,12(sp)
    6c98:	00812403          	lw	s0,8(sp)
    6c9c:	00412483          	lw	s1,4(sp)
    6ca0:	01010113          	add	sp,sp,16
    6ca4:	00008067          	ret
    6ca8:	8bc1a783          	lw	a5,-1860(gp) # 12774 <errno>
    6cac:	fe0784e3          	beqz	a5,6c94 <_sbrk_r+0x28>
    6cb0:	00c12083          	lw	ra,12(sp)
    6cb4:	00f42023          	sw	a5,0(s0)
    6cb8:	00812403          	lw	s0,8(sp)
    6cbc:	00412483          	lw	s1,4(sp)
    6cc0:	01010113          	add	sp,sp,16
    6cc4:	00008067          	ret

00006cc8 <_write_r>:
    6cc8:	ff010113          	add	sp,sp,-16
    6ccc:	00058713          	mv	a4,a1
    6cd0:	00812423          	sw	s0,8(sp)
    6cd4:	00912223          	sw	s1,4(sp)
    6cd8:	00060593          	mv	a1,a2
    6cdc:	00050413          	mv	s0,a0
    6ce0:	00068613          	mv	a2,a3
    6ce4:	00070513          	mv	a0,a4
    6ce8:	00112623          	sw	ra,12(sp)
    6cec:	8a01ae23          	sw	zero,-1860(gp) # 12774 <errno>
    6cf0:	f28f90ef          	jal	418 <_write>
    6cf4:	fff00793          	li	a5,-1
    6cf8:	00f50c63          	beq	a0,a5,6d10 <_write_r+0x48>
    6cfc:	00c12083          	lw	ra,12(sp)
    6d00:	00812403          	lw	s0,8(sp)
    6d04:	00412483          	lw	s1,4(sp)
    6d08:	01010113          	add	sp,sp,16
    6d0c:	00008067          	ret
    6d10:	8bc1a783          	lw	a5,-1860(gp) # 12774 <errno>
    6d14:	fe0784e3          	beqz	a5,6cfc <_write_r+0x34>
    6d18:	00c12083          	lw	ra,12(sp)
    6d1c:	00f42023          	sw	a5,0(s0)
    6d20:	00812403          	lw	s0,8(sp)
    6d24:	00412483          	lw	s1,4(sp)
    6d28:	01010113          	add	sp,sp,16
    6d2c:	00008067          	ret

00006d30 <__errno>:
    6d30:	86c1a503          	lw	a0,-1940(gp) # 12724 <_impure_ptr>
    6d34:	00008067          	ret

00006d38 <__libc_init_array>:
    6d38:	ff010113          	add	sp,sp,-16
    6d3c:	00812423          	sw	s0,8(sp)
    6d40:	000127b7          	lui	a5,0x12
    6d44:	00012437          	lui	s0,0x12
    6d48:	01212023          	sw	s2,0(sp)
    6d4c:	00478793          	add	a5,a5,4 # 12004 <__init_array_start>
    6d50:	00440713          	add	a4,s0,4 # 12004 <__init_array_start>
    6d54:	00112623          	sw	ra,12(sp)
    6d58:	00912223          	sw	s1,4(sp)
    6d5c:	40e78933          	sub	s2,a5,a4
    6d60:	02e78263          	beq	a5,a4,6d84 <__libc_init_array+0x4c>
    6d64:	40295913          	sra	s2,s2,0x2
    6d68:	00440413          	add	s0,s0,4
    6d6c:	00000493          	li	s1,0
    6d70:	00042783          	lw	a5,0(s0)
    6d74:	00148493          	add	s1,s1,1
    6d78:	00440413          	add	s0,s0,4
    6d7c:	000780e7          	jalr	a5
    6d80:	ff24e8e3          	bltu	s1,s2,6d70 <__libc_init_array+0x38>
    6d84:	00012437          	lui	s0,0x12
    6d88:	000127b7          	lui	a5,0x12
    6d8c:	00c78793          	add	a5,a5,12 # 1200c <__do_global_dtors_aux_fini_array_entry>
    6d90:	00440713          	add	a4,s0,4 # 12004 <__init_array_start>
    6d94:	40e78933          	sub	s2,a5,a4
    6d98:	40295913          	sra	s2,s2,0x2
    6d9c:	02e78063          	beq	a5,a4,6dbc <__libc_init_array+0x84>
    6da0:	00440413          	add	s0,s0,4
    6da4:	00000493          	li	s1,0
    6da8:	00042783          	lw	a5,0(s0)
    6dac:	00148493          	add	s1,s1,1
    6db0:	00440413          	add	s0,s0,4
    6db4:	000780e7          	jalr	a5
    6db8:	ff24e8e3          	bltu	s1,s2,6da8 <__libc_init_array+0x70>
    6dbc:	00c12083          	lw	ra,12(sp)
    6dc0:	00812403          	lw	s0,8(sp)
    6dc4:	00412483          	lw	s1,4(sp)
    6dc8:	00012903          	lw	s2,0(sp)
    6dcc:	01010113          	add	sp,sp,16
    6dd0:	00008067          	ret

00006dd4 <strlen>:
    6dd4:	00357793          	and	a5,a0,3
    6dd8:	00050713          	mv	a4,a0
    6ddc:	04079c63          	bnez	a5,6e34 <strlen+0x60>
    6de0:	7f7f86b7          	lui	a3,0x7f7f8
    6de4:	f7f68693          	add	a3,a3,-129 # 7f7f7f7f <_end+0x7f7e2d1b>
    6de8:	fff00593          	li	a1,-1
    6dec:	00072603          	lw	a2,0(a4)
    6df0:	00470713          	add	a4,a4,4
    6df4:	00d677b3          	and	a5,a2,a3
    6df8:	00d787b3          	add	a5,a5,a3
    6dfc:	00c7e7b3          	or	a5,a5,a2
    6e00:	00d7e7b3          	or	a5,a5,a3
    6e04:	feb784e3          	beq	a5,a1,6dec <strlen+0x18>
    6e08:	ffc74683          	lbu	a3,-4(a4)
    6e0c:	40a707b3          	sub	a5,a4,a0
    6e10:	04068463          	beqz	a3,6e58 <strlen+0x84>
    6e14:	ffd74683          	lbu	a3,-3(a4)
    6e18:	02068c63          	beqz	a3,6e50 <strlen+0x7c>
    6e1c:	ffe74503          	lbu	a0,-2(a4)
    6e20:	00a03533          	snez	a0,a0
    6e24:	00f50533          	add	a0,a0,a5
    6e28:	ffe50513          	add	a0,a0,-2
    6e2c:	00008067          	ret
    6e30:	fa0688e3          	beqz	a3,6de0 <strlen+0xc>
    6e34:	00074783          	lbu	a5,0(a4)
    6e38:	00170713          	add	a4,a4,1
    6e3c:	00377693          	and	a3,a4,3
    6e40:	fe0798e3          	bnez	a5,6e30 <strlen+0x5c>
    6e44:	40a70733          	sub	a4,a4,a0
    6e48:	fff70513          	add	a0,a4,-1
    6e4c:	00008067          	ret
    6e50:	ffd78513          	add	a0,a5,-3
    6e54:	00008067          	ret
    6e58:	ffc78513          	add	a0,a5,-4
    6e5c:	00008067          	ret

00006e60 <__call_exitprocs>:
    6e60:	fd010113          	add	sp,sp,-48
    6e64:	01412c23          	sw	s4,24(sp)
    6e68:	03212023          	sw	s2,32(sp)
    6e6c:	8c01a903          	lw	s2,-1856(gp) # 12778 <__atexit>
    6e70:	02112623          	sw	ra,44(sp)
    6e74:	0a090863          	beqz	s2,6f24 <__call_exitprocs+0xc4>
    6e78:	01312e23          	sw	s3,28(sp)
    6e7c:	01512a23          	sw	s5,20(sp)
    6e80:	01612823          	sw	s6,16(sp)
    6e84:	01712623          	sw	s7,12(sp)
    6e88:	02812423          	sw	s0,40(sp)
    6e8c:	02912223          	sw	s1,36(sp)
    6e90:	01812423          	sw	s8,8(sp)
    6e94:	00050b13          	mv	s6,a0
    6e98:	00058b93          	mv	s7,a1
    6e9c:	fff00993          	li	s3,-1
    6ea0:	00100a93          	li	s5,1
    6ea4:	00492483          	lw	s1,4(s2)
    6ea8:	fff48413          	add	s0,s1,-1
    6eac:	04044e63          	bltz	s0,6f08 <__call_exitprocs+0xa8>
    6eb0:	00249493          	sll	s1,s1,0x2
    6eb4:	009904b3          	add	s1,s2,s1
    6eb8:	080b9063          	bnez	s7,6f38 <__call_exitprocs+0xd8>
    6ebc:	00492783          	lw	a5,4(s2)
    6ec0:	0044a683          	lw	a3,4(s1)
    6ec4:	fff78793          	add	a5,a5,-1
    6ec8:	0a878c63          	beq	a5,s0,6f80 <__call_exitprocs+0x120>
    6ecc:	0004a223          	sw	zero,4(s1)
    6ed0:	02068663          	beqz	a3,6efc <__call_exitprocs+0x9c>
    6ed4:	18892783          	lw	a5,392(s2)
    6ed8:	008a9733          	sll	a4,s5,s0
    6edc:	00492c03          	lw	s8,4(s2)
    6ee0:	00f777b3          	and	a5,a4,a5
    6ee4:	06079663          	bnez	a5,6f50 <__call_exitprocs+0xf0>
    6ee8:	000680e7          	jalr	a3
    6eec:	00492703          	lw	a4,4(s2)
    6ef0:	8c01a783          	lw	a5,-1856(gp) # 12778 <__atexit>
    6ef4:	09871063          	bne	a4,s8,6f74 <__call_exitprocs+0x114>
    6ef8:	07279e63          	bne	a5,s2,6f74 <__call_exitprocs+0x114>
    6efc:	fff40413          	add	s0,s0,-1
    6f00:	ffc48493          	add	s1,s1,-4
    6f04:	fb341ae3          	bne	s0,s3,6eb8 <__call_exitprocs+0x58>
    6f08:	02812403          	lw	s0,40(sp)
    6f0c:	02412483          	lw	s1,36(sp)
    6f10:	01c12983          	lw	s3,28(sp)
    6f14:	01412a83          	lw	s5,20(sp)
    6f18:	01012b03          	lw	s6,16(sp)
    6f1c:	00c12b83          	lw	s7,12(sp)
    6f20:	00812c03          	lw	s8,8(sp)
    6f24:	02c12083          	lw	ra,44(sp)
    6f28:	02012903          	lw	s2,32(sp)
    6f2c:	01812a03          	lw	s4,24(sp)
    6f30:	03010113          	add	sp,sp,48
    6f34:	00008067          	ret
    6f38:	1044a783          	lw	a5,260(s1)
    6f3c:	f97780e3          	beq	a5,s7,6ebc <__call_exitprocs+0x5c>
    6f40:	fff40413          	add	s0,s0,-1
    6f44:	ffc48493          	add	s1,s1,-4
    6f48:	ff3418e3          	bne	s0,s3,6f38 <__call_exitprocs+0xd8>
    6f4c:	fbdff06f          	j	6f08 <__call_exitprocs+0xa8>
    6f50:	18c92783          	lw	a5,396(s2)
    6f54:	0844a583          	lw	a1,132(s1)
    6f58:	00f77733          	and	a4,a4,a5
    6f5c:	02071663          	bnez	a4,6f88 <__call_exitprocs+0x128>
    6f60:	000b0513          	mv	a0,s6
    6f64:	000680e7          	jalr	a3
    6f68:	00492703          	lw	a4,4(s2)
    6f6c:	8c01a783          	lw	a5,-1856(gp) # 12778 <__atexit>
    6f70:	f98704e3          	beq	a4,s8,6ef8 <__call_exitprocs+0x98>
    6f74:	f8078ae3          	beqz	a5,6f08 <__call_exitprocs+0xa8>
    6f78:	00078913          	mv	s2,a5
    6f7c:	f29ff06f          	j	6ea4 <__call_exitprocs+0x44>
    6f80:	00892223          	sw	s0,4(s2)
    6f84:	f4dff06f          	j	6ed0 <__call_exitprocs+0x70>
    6f88:	00058513          	mv	a0,a1
    6f8c:	000680e7          	jalr	a3
    6f90:	f5dff06f          	j	6eec <__call_exitprocs+0x8c>

00006f94 <atexit>:
    6f94:	00050593          	mv	a1,a0
    6f98:	00000693          	li	a3,0
    6f9c:	00000613          	li	a2,0
    6fa0:	00000513          	li	a0,0
    6fa4:	13d0506f          	j	c8e0 <__register_exitproc>

00006fa8 <_malloc_trim_r>:
    6fa8:	fe010113          	add	sp,sp,-32
    6fac:	01312623          	sw	s3,12(sp)
    6fb0:	000129b7          	lui	s3,0x12
    6fb4:	00812c23          	sw	s0,24(sp)
    6fb8:	00912a23          	sw	s1,20(sp)
    6fbc:	01212823          	sw	s2,16(sp)
    6fc0:	01412423          	sw	s4,8(sp)
    6fc4:	00112e23          	sw	ra,28(sp)
    6fc8:	00058a13          	mv	s4,a1
    6fcc:	00050913          	mv	s2,a0
    6fd0:	01098993          	add	s3,s3,16 # 12010 <__malloc_av_>
    6fd4:	b70ff0ef          	jal	6344 <__malloc_lock>
    6fd8:	0089a703          	lw	a4,8(s3)
    6fdc:	000017b7          	lui	a5,0x1
    6fe0:	fef78793          	add	a5,a5,-17 # fef <__divdf3+0x16f>
    6fe4:	00472483          	lw	s1,4(a4)
    6fe8:	00001737          	lui	a4,0x1
    6fec:	ffc4f493          	and	s1,s1,-4
    6ff0:	00f48433          	add	s0,s1,a5
    6ff4:	41440433          	sub	s0,s0,s4
    6ff8:	00c45413          	srl	s0,s0,0xc
    6ffc:	fff40413          	add	s0,s0,-1
    7000:	00c41413          	sll	s0,s0,0xc
    7004:	00e44e63          	blt	s0,a4,7020 <_malloc_trim_r+0x78>
    7008:	00000593          	li	a1,0
    700c:	00090513          	mv	a0,s2
    7010:	c5dff0ef          	jal	6c6c <_sbrk_r>
    7014:	0089a783          	lw	a5,8(s3)
    7018:	009787b3          	add	a5,a5,s1
    701c:	02f50863          	beq	a0,a5,704c <_malloc_trim_r+0xa4>
    7020:	00090513          	mv	a0,s2
    7024:	b24ff0ef          	jal	6348 <__malloc_unlock>
    7028:	01c12083          	lw	ra,28(sp)
    702c:	01812403          	lw	s0,24(sp)
    7030:	01412483          	lw	s1,20(sp)
    7034:	01012903          	lw	s2,16(sp)
    7038:	00c12983          	lw	s3,12(sp)
    703c:	00812a03          	lw	s4,8(sp)
    7040:	00000513          	li	a0,0
    7044:	02010113          	add	sp,sp,32
    7048:	00008067          	ret
    704c:	408005b3          	neg	a1,s0
    7050:	00090513          	mv	a0,s2
    7054:	c19ff0ef          	jal	6c6c <_sbrk_r>
    7058:	fff00793          	li	a5,-1
    705c:	04f50a63          	beq	a0,a5,70b0 <_malloc_trim_r+0x108>
    7060:	000157b7          	lui	a5,0x15
    7064:	f7478793          	add	a5,a5,-140 # 14f74 <__malloc_current_mallinfo>
    7068:	0007a703          	lw	a4,0(a5)
    706c:	0089a683          	lw	a3,8(s3)
    7070:	408484b3          	sub	s1,s1,s0
    7074:	0014e493          	or	s1,s1,1
    7078:	40870733          	sub	a4,a4,s0
    707c:	00090513          	mv	a0,s2
    7080:	0096a223          	sw	s1,4(a3)
    7084:	00e7a023          	sw	a4,0(a5)
    7088:	ac0ff0ef          	jal	6348 <__malloc_unlock>
    708c:	01c12083          	lw	ra,28(sp)
    7090:	01812403          	lw	s0,24(sp)
    7094:	01412483          	lw	s1,20(sp)
    7098:	01012903          	lw	s2,16(sp)
    709c:	00c12983          	lw	s3,12(sp)
    70a0:	00812a03          	lw	s4,8(sp)
    70a4:	00100513          	li	a0,1
    70a8:	02010113          	add	sp,sp,32
    70ac:	00008067          	ret
    70b0:	00000593          	li	a1,0
    70b4:	00090513          	mv	a0,s2
    70b8:	bb5ff0ef          	jal	6c6c <_sbrk_r>
    70bc:	0089a703          	lw	a4,8(s3)
    70c0:	00f00693          	li	a3,15
    70c4:	40e507b3          	sub	a5,a0,a4
    70c8:	f4f6dce3          	bge	a3,a5,7020 <_malloc_trim_r+0x78>
    70cc:	8641a683          	lw	a3,-1948(gp) # 1271c <__malloc_sbrk_base>
    70d0:	0017e793          	or	a5,a5,1
    70d4:	00f72223          	sw	a5,4(a4) # 1004 <__divdf3+0x184>
    70d8:	40d50533          	sub	a0,a0,a3
    70dc:	000156b7          	lui	a3,0x15
    70e0:	f6a6aa23          	sw	a0,-140(a3) # 14f74 <__malloc_current_mallinfo>
    70e4:	f3dff06f          	j	7020 <_malloc_trim_r+0x78>

000070e8 <_free_r>:
    70e8:	18058263          	beqz	a1,726c <_free_r+0x184>
    70ec:	ff010113          	add	sp,sp,-16
    70f0:	00812423          	sw	s0,8(sp)
    70f4:	00912223          	sw	s1,4(sp)
    70f8:	00058413          	mv	s0,a1
    70fc:	00050493          	mv	s1,a0
    7100:	00112623          	sw	ra,12(sp)
    7104:	a40ff0ef          	jal	6344 <__malloc_lock>
    7108:	ffc42503          	lw	a0,-4(s0)
    710c:	ff840713          	add	a4,s0,-8
    7110:	000125b7          	lui	a1,0x12
    7114:	ffe57793          	and	a5,a0,-2
    7118:	00f70633          	add	a2,a4,a5
    711c:	01058593          	add	a1,a1,16 # 12010 <__malloc_av_>
    7120:	00462683          	lw	a3,4(a2) # 2004 <__subdf3+0x274>
    7124:	0085a803          	lw	a6,8(a1)
    7128:	ffc6f693          	and	a3,a3,-4
    712c:	1ac80263          	beq	a6,a2,72d0 <_free_r+0x1e8>
    7130:	00d62223          	sw	a3,4(a2)
    7134:	00157513          	and	a0,a0,1
    7138:	00d60833          	add	a6,a2,a3
    713c:	0a051063          	bnez	a0,71dc <_free_r+0xf4>
    7140:	ff842303          	lw	t1,-8(s0)
    7144:	00482803          	lw	a6,4(a6)
    7148:	00012537          	lui	a0,0x12
    714c:	40670733          	sub	a4,a4,t1
    7150:	00872883          	lw	a7,8(a4)
    7154:	01850513          	add	a0,a0,24 # 12018 <__malloc_av_+0x8>
    7158:	006787b3          	add	a5,a5,t1
    715c:	00187813          	and	a6,a6,1
    7160:	14a88263          	beq	a7,a0,72a4 <_free_r+0x1bc>
    7164:	00c72303          	lw	t1,12(a4)
    7168:	0068a623          	sw	t1,12(a7)
    716c:	01132423          	sw	a7,8(t1)
    7170:	1a080663          	beqz	a6,731c <_free_r+0x234>
    7174:	0017e693          	or	a3,a5,1
    7178:	00d72223          	sw	a3,4(a4)
    717c:	00f62023          	sw	a5,0(a2)
    7180:	1ff00693          	li	a3,511
    7184:	06f6ec63          	bltu	a3,a5,71fc <_free_r+0x114>
    7188:	ff87f693          	and	a3,a5,-8
    718c:	00868693          	add	a3,a3,8
    7190:	0045a503          	lw	a0,4(a1)
    7194:	00d586b3          	add	a3,a1,a3
    7198:	0006a603          	lw	a2,0(a3)
    719c:	0057d813          	srl	a6,a5,0x5
    71a0:	00100793          	li	a5,1
    71a4:	010797b3          	sll	a5,a5,a6
    71a8:	00a7e7b3          	or	a5,a5,a0
    71ac:	ff868513          	add	a0,a3,-8
    71b0:	00a72623          	sw	a0,12(a4)
    71b4:	00c72423          	sw	a2,8(a4)
    71b8:	00f5a223          	sw	a5,4(a1)
    71bc:	00e6a023          	sw	a4,0(a3)
    71c0:	00e62623          	sw	a4,12(a2)
    71c4:	00812403          	lw	s0,8(sp)
    71c8:	00c12083          	lw	ra,12(sp)
    71cc:	00048513          	mv	a0,s1
    71d0:	00412483          	lw	s1,4(sp)
    71d4:	01010113          	add	sp,sp,16
    71d8:	970ff06f          	j	6348 <__malloc_unlock>
    71dc:	00482503          	lw	a0,4(a6)
    71e0:	00157513          	and	a0,a0,1
    71e4:	08050663          	beqz	a0,7270 <_free_r+0x188>
    71e8:	0017e693          	or	a3,a5,1
    71ec:	fed42e23          	sw	a3,-4(s0)
    71f0:	00f62023          	sw	a5,0(a2)
    71f4:	1ff00693          	li	a3,511
    71f8:	f8f6f8e3          	bgeu	a3,a5,7188 <_free_r+0xa0>
    71fc:	0097d693          	srl	a3,a5,0x9
    7200:	00400613          	li	a2,4
    7204:	12d66063          	bltu	a2,a3,7324 <_free_r+0x23c>
    7208:	0067d693          	srl	a3,a5,0x6
    720c:	03968513          	add	a0,a3,57
    7210:	03868613          	add	a2,a3,56
    7214:	00351513          	sll	a0,a0,0x3
    7218:	00a58533          	add	a0,a1,a0
    721c:	00052683          	lw	a3,0(a0)
    7220:	ff850513          	add	a0,a0,-8
    7224:	00d51863          	bne	a0,a3,7234 <_free_r+0x14c>
    7228:	1540006f          	j	737c <_free_r+0x294>
    722c:	0086a683          	lw	a3,8(a3)
    7230:	00d50863          	beq	a0,a3,7240 <_free_r+0x158>
    7234:	0046a603          	lw	a2,4(a3)
    7238:	ffc67613          	and	a2,a2,-4
    723c:	fec7e8e3          	bltu	a5,a2,722c <_free_r+0x144>
    7240:	00c6a503          	lw	a0,12(a3)
    7244:	00a72623          	sw	a0,12(a4)
    7248:	00d72423          	sw	a3,8(a4)
    724c:	00812403          	lw	s0,8(sp)
    7250:	00e52423          	sw	a4,8(a0)
    7254:	00c12083          	lw	ra,12(sp)
    7258:	00048513          	mv	a0,s1
    725c:	00412483          	lw	s1,4(sp)
    7260:	00e6a623          	sw	a4,12(a3)
    7264:	01010113          	add	sp,sp,16
    7268:	8e0ff06f          	j	6348 <__malloc_unlock>
    726c:	00008067          	ret
    7270:	00012537          	lui	a0,0x12
    7274:	00d787b3          	add	a5,a5,a3
    7278:	01850513          	add	a0,a0,24 # 12018 <__malloc_av_+0x8>
    727c:	00862683          	lw	a3,8(a2)
    7280:	0ca68c63          	beq	a3,a0,7358 <_free_r+0x270>
    7284:	00c62803          	lw	a6,12(a2)
    7288:	0017e513          	or	a0,a5,1
    728c:	00f70633          	add	a2,a4,a5
    7290:	0106a623          	sw	a6,12(a3)
    7294:	00d82423          	sw	a3,8(a6)
    7298:	00a72223          	sw	a0,4(a4)
    729c:	00f62023          	sw	a5,0(a2)
    72a0:	ee1ff06f          	j	7180 <_free_r+0x98>
    72a4:	12081c63          	bnez	a6,73dc <_free_r+0x2f4>
    72a8:	00862583          	lw	a1,8(a2)
    72ac:	00c62603          	lw	a2,12(a2)
    72b0:	00f686b3          	add	a3,a3,a5
    72b4:	0016e793          	or	a5,a3,1
    72b8:	00c5a623          	sw	a2,12(a1)
    72bc:	00b62423          	sw	a1,8(a2)
    72c0:	00f72223          	sw	a5,4(a4)
    72c4:	00d70733          	add	a4,a4,a3
    72c8:	00d72023          	sw	a3,0(a4)
    72cc:	ef9ff06f          	j	71c4 <_free_r+0xdc>
    72d0:	00157513          	and	a0,a0,1
    72d4:	00d786b3          	add	a3,a5,a3
    72d8:	02051063          	bnez	a0,72f8 <_free_r+0x210>
    72dc:	ff842503          	lw	a0,-8(s0)
    72e0:	40a70733          	sub	a4,a4,a0
    72e4:	00c72783          	lw	a5,12(a4)
    72e8:	00872603          	lw	a2,8(a4)
    72ec:	00a686b3          	add	a3,a3,a0
    72f0:	00f62623          	sw	a5,12(a2)
    72f4:	00c7a423          	sw	a2,8(a5)
    72f8:	0016e613          	or	a2,a3,1
    72fc:	8681a783          	lw	a5,-1944(gp) # 12720 <__malloc_trim_threshold>
    7300:	00c72223          	sw	a2,4(a4)
    7304:	00e5a423          	sw	a4,8(a1)
    7308:	eaf6eee3          	bltu	a3,a5,71c4 <_free_r+0xdc>
    730c:	8b41a583          	lw	a1,-1868(gp) # 1276c <__malloc_top_pad>
    7310:	00048513          	mv	a0,s1
    7314:	c95ff0ef          	jal	6fa8 <_malloc_trim_r>
    7318:	eadff06f          	j	71c4 <_free_r+0xdc>
    731c:	00d787b3          	add	a5,a5,a3
    7320:	f5dff06f          	j	727c <_free_r+0x194>
    7324:	01400613          	li	a2,20
    7328:	02d67063          	bgeu	a2,a3,7348 <_free_r+0x260>
    732c:	05400613          	li	a2,84
    7330:	06d66463          	bltu	a2,a3,7398 <_free_r+0x2b0>
    7334:	00c7d693          	srl	a3,a5,0xc
    7338:	06f68513          	add	a0,a3,111
    733c:	06e68613          	add	a2,a3,110
    7340:	00351513          	sll	a0,a0,0x3
    7344:	ed5ff06f          	j	7218 <_free_r+0x130>
    7348:	05c68513          	add	a0,a3,92
    734c:	05b68613          	add	a2,a3,91
    7350:	00351513          	sll	a0,a0,0x3
    7354:	ec5ff06f          	j	7218 <_free_r+0x130>
    7358:	00e5aa23          	sw	a4,20(a1)
    735c:	00e5a823          	sw	a4,16(a1)
    7360:	0017e693          	or	a3,a5,1
    7364:	00a72623          	sw	a0,12(a4)
    7368:	00a72423          	sw	a0,8(a4)
    736c:	00d72223          	sw	a3,4(a4)
    7370:	00f70733          	add	a4,a4,a5
    7374:	00f72023          	sw	a5,0(a4)
    7378:	e4dff06f          	j	71c4 <_free_r+0xdc>
    737c:	0045a803          	lw	a6,4(a1)
    7380:	40265613          	sra	a2,a2,0x2
    7384:	00100793          	li	a5,1
    7388:	00c797b3          	sll	a5,a5,a2
    738c:	0107e7b3          	or	a5,a5,a6
    7390:	00f5a223          	sw	a5,4(a1)
    7394:	eb1ff06f          	j	7244 <_free_r+0x15c>
    7398:	15400613          	li	a2,340
    739c:	00d66c63          	bltu	a2,a3,73b4 <_free_r+0x2cc>
    73a0:	00f7d693          	srl	a3,a5,0xf
    73a4:	07868513          	add	a0,a3,120
    73a8:	07768613          	add	a2,a3,119
    73ac:	00351513          	sll	a0,a0,0x3
    73b0:	e69ff06f          	j	7218 <_free_r+0x130>
    73b4:	55400613          	li	a2,1364
    73b8:	00d66c63          	bltu	a2,a3,73d0 <_free_r+0x2e8>
    73bc:	0127d693          	srl	a3,a5,0x12
    73c0:	07d68513          	add	a0,a3,125
    73c4:	07c68613          	add	a2,a3,124
    73c8:	00351513          	sll	a0,a0,0x3
    73cc:	e4dff06f          	j	7218 <_free_r+0x130>
    73d0:	3f800513          	li	a0,1016
    73d4:	07e00613          	li	a2,126
    73d8:	e41ff06f          	j	7218 <_free_r+0x130>
    73dc:	0017e693          	or	a3,a5,1
    73e0:	00d72223          	sw	a3,4(a4)
    73e4:	00f62023          	sw	a5,0(a2)
    73e8:	dddff06f          	j	71c4 <_free_r+0xdc>

000073ec <_vfprintf_r>:
    73ec:	e3010113          	add	sp,sp,-464
    73f0:	1c112623          	sw	ra,460(sp)
    73f4:	1c812423          	sw	s0,456(sp)
    73f8:	1c912223          	sw	s1,452(sp)
    73fc:	1b612823          	sw	s6,432(sp)
    7400:	00058493          	mv	s1,a1
    7404:	00060b13          	mv	s6,a2
    7408:	00d12a23          	sw	a3,20(sp)
    740c:	00050413          	mv	s0,a0
    7410:	00a12423          	sw	a0,8(sp)
    7414:	024050ef          	jal	c438 <_localeconv_r>
    7418:	00052703          	lw	a4,0(a0)
    741c:	00070513          	mv	a0,a4
    7420:	02e12823          	sw	a4,48(sp)
    7424:	9b1ff0ef          	jal	6dd4 <strlen>
    7428:	02a12623          	sw	a0,44(sp)
    742c:	0c012823          	sw	zero,208(sp)
    7430:	0c012a23          	sw	zero,212(sp)
    7434:	0c012c23          	sw	zero,216(sp)
    7438:	0c012e23          	sw	zero,220(sp)
    743c:	00040863          	beqz	s0,744c <_vfprintf_r+0x60>
    7440:	03442703          	lw	a4,52(s0)
    7444:	00071463          	bnez	a4,744c <_vfprintf_r+0x60>
    7448:	1110106f          	j	8d58 <_vfprintf_r+0x196c>
    744c:	00c49703          	lh	a4,12(s1)
    7450:	01271693          	sll	a3,a4,0x12
    7454:	0206c663          	bltz	a3,7480 <_vfprintf_r+0x94>
    7458:	0644a683          	lw	a3,100(s1)
    745c:	000025b7          	lui	a1,0x2
    7460:	ffffe637          	lui	a2,0xffffe
    7464:	00b76733          	or	a4,a4,a1
    7468:	fff60613          	add	a2,a2,-1 # ffffdfff <_end+0xfffe8d9b>
    746c:	01071713          	sll	a4,a4,0x10
    7470:	41075713          	sra	a4,a4,0x10
    7474:	00c6f6b3          	and	a3,a3,a2
    7478:	00e49623          	sh	a4,12(s1)
    747c:	06d4a223          	sw	a3,100(s1)
    7480:	00877693          	and	a3,a4,8
    7484:	30068263          	beqz	a3,7788 <_vfprintf_r+0x39c>
    7488:	0104a683          	lw	a3,16(s1)
    748c:	2e068e63          	beqz	a3,7788 <_vfprintf_r+0x39c>
    7490:	01a77713          	and	a4,a4,26
    7494:	00a00693          	li	a3,10
    7498:	30d70a63          	beq	a4,a3,77ac <_vfprintf_r+0x3c0>
    749c:	1b312e23          	sw	s3,444(sp)
    74a0:	1b412c23          	sw	s4,440(sp)
    74a4:	1ba12023          	sw	s10,416(sp)
    74a8:	00012737          	lui	a4,0x12
    74ac:	1d212023          	sw	s2,448(sp)
    74b0:	1b512a23          	sw	s5,436(sp)
    74b4:	1b712623          	sw	s7,428(sp)
    74b8:	1b812423          	sw	s8,424(sp)
    74bc:	1b912223          	sw	s9,420(sp)
    74c0:	19b12e23          	sw	s11,412(sp)
    74c4:	000b0d13          	mv	s10,s6
    74c8:	80870793          	add	a5,a4,-2040 # 11808 <_getpid_r+0x6ec>
    74cc:	000d4703          	lbu	a4,0(s10)
    74d0:	0ec10993          	add	s3,sp,236
    74d4:	00012a37          	lui	s4,0x12
    74d8:	0d312223          	sw	s3,196(sp)
    74dc:	0c012623          	sw	zero,204(sp)
    74e0:	0c012423          	sw	zero,200(sp)
    74e4:	02012023          	sw	zero,32(sp)
    74e8:	02012a23          	sw	zero,52(sp)
    74ec:	04012023          	sw	zero,64(sp)
    74f0:	02012e23          	sw	zero,60(sp)
    74f4:	04012423          	sw	zero,72(sp)
    74f8:	04012223          	sw	zero,68(sp)
    74fc:	00012623          	sw	zero,12(sp)
    7500:	00f12c23          	sw	a5,24(sp)
    7504:	00098413          	mv	s0,s3
    7508:	a0ca0a13          	add	s4,s4,-1524 # 11a0c <zeroes.0>
    750c:	22070063          	beqz	a4,772c <_vfprintf_r+0x340>
    7510:	000d0913          	mv	s2,s10
    7514:	02500693          	li	a3,37
    7518:	3ed70a63          	beq	a4,a3,790c <_vfprintf_r+0x520>
    751c:	00194703          	lbu	a4,1(s2)
    7520:	00190913          	add	s2,s2,1
    7524:	fe071ae3          	bnez	a4,7518 <_vfprintf_r+0x12c>
    7528:	41a90ab3          	sub	s5,s2,s10
    752c:	21a90063          	beq	s2,s10,772c <_vfprintf_r+0x340>
    7530:	0cc12683          	lw	a3,204(sp)
    7534:	0c812703          	lw	a4,200(sp)
    7538:	01a42023          	sw	s10,0(s0)
    753c:	015686b3          	add	a3,a3,s5
    7540:	00170713          	add	a4,a4,1
    7544:	01542223          	sw	s5,4(s0)
    7548:	0cd12623          	sw	a3,204(sp)
    754c:	0ce12423          	sw	a4,200(sp)
    7550:	00700693          	li	a3,7
    7554:	00840413          	add	s0,s0,8
    7558:	3ce6c263          	blt	a3,a4,791c <_vfprintf_r+0x530>
    755c:	00c12783          	lw	a5,12(sp)
    7560:	00094703          	lbu	a4,0(s2)
    7564:	015787b3          	add	a5,a5,s5
    7568:	00f12623          	sw	a5,12(sp)
    756c:	1c070063          	beqz	a4,772c <_vfprintf_r+0x340>
    7570:	00194883          	lbu	a7,1(s2)
    7574:	0a0103a3          	sb	zero,167(sp)
    7578:	00190913          	add	s2,s2,1
    757c:	fff00a93          	li	s5,-1
    7580:	00000b93          	li	s7,0
    7584:	00000c93          	li	s9,0
    7588:	05a00b13          	li	s6,90
    758c:	00190913          	add	s2,s2,1
    7590:	fe088793          	add	a5,a7,-32
    7594:	04fb6663          	bltu	s6,a5,75e0 <_vfprintf_r+0x1f4>
    7598:	01812703          	lw	a4,24(sp)
    759c:	00279793          	sll	a5,a5,0x2
    75a0:	00e787b3          	add	a5,a5,a4
    75a4:	0007a783          	lw	a5,0(a5)
    75a8:	00078067          	jr	a5
    75ac:	00000b93          	li	s7,0
    75b0:	fd088793          	add	a5,a7,-48
    75b4:	00900693          	li	a3,9
    75b8:	00094883          	lbu	a7,0(s2)
    75bc:	002b9713          	sll	a4,s7,0x2
    75c0:	01770bb3          	add	s7,a4,s7
    75c4:	001b9b93          	sll	s7,s7,0x1
    75c8:	01778bb3          	add	s7,a5,s7
    75cc:	fd088793          	add	a5,a7,-48
    75d0:	00190913          	add	s2,s2,1
    75d4:	fef6f2e3          	bgeu	a3,a5,75b8 <_vfprintf_r+0x1cc>
    75d8:	fe088793          	add	a5,a7,-32
    75dc:	fafb7ee3          	bgeu	s6,a5,7598 <_vfprintf_r+0x1ac>
    75e0:	14088663          	beqz	a7,772c <_vfprintf_r+0x340>
    75e4:	13110623          	sb	a7,300(sp)
    75e8:	0a0103a3          	sb	zero,167(sp)
    75ec:	00100d93          	li	s11,1
    75f0:	00100b13          	li	s6,1
    75f4:	12c10d13          	add	s10,sp,300
    75f8:	00012823          	sw	zero,16(sp)
    75fc:	00000a93          	li	s5,0
    7600:	02012423          	sw	zero,40(sp)
    7604:	02012223          	sw	zero,36(sp)
    7608:	00012e23          	sw	zero,28(sp)
    760c:	002cf293          	and	t0,s9,2
    7610:	00028463          	beqz	t0,7618 <_vfprintf_r+0x22c>
    7614:	002d8d93          	add	s11,s11,2
    7618:	084cff93          	and	t6,s9,132
    761c:	0cc12603          	lw	a2,204(sp)
    7620:	000f9663          	bnez	t6,762c <_vfprintf_r+0x240>
    7624:	41bb8733          	sub	a4,s7,s11
    7628:	46e048e3          	bgtz	a4,8298 <_vfprintf_r+0xeac>
    762c:	0a714703          	lbu	a4,167(sp)
    7630:	02070a63          	beqz	a4,7664 <_vfprintf_r+0x278>
    7634:	0c812703          	lw	a4,200(sp)
    7638:	0a710593          	add	a1,sp,167
    763c:	00b42023          	sw	a1,0(s0)
    7640:	00160613          	add	a2,a2,1
    7644:	00100593          	li	a1,1
    7648:	00170713          	add	a4,a4,1
    764c:	00b42223          	sw	a1,4(s0)
    7650:	0cc12623          	sw	a2,204(sp)
    7654:	0ce12423          	sw	a4,200(sp)
    7658:	00700593          	li	a1,7
    765c:	00840413          	add	s0,s0,8
    7660:	3ee5c463          	blt	a1,a4,7a48 <_vfprintf_r+0x65c>
    7664:	02028a63          	beqz	t0,7698 <_vfprintf_r+0x2ac>
    7668:	0c812703          	lw	a4,200(sp)
    766c:	00200593          	li	a1,2
    7670:	00260613          	add	a2,a2,2
    7674:	00170713          	add	a4,a4,1
    7678:	0a810793          	add	a5,sp,168
    767c:	00b42223          	sw	a1,4(s0)
    7680:	00f42023          	sw	a5,0(s0)
    7684:	0cc12623          	sw	a2,204(sp)
    7688:	0ce12423          	sw	a4,200(sp)
    768c:	00700593          	li	a1,7
    7690:	00840413          	add	s0,s0,8
    7694:	52e5c0e3          	blt	a1,a4,83b4 <_vfprintf_r+0xfc8>
    7698:	08000713          	li	a4,128
    769c:	1eef84e3          	beq	t6,a4,8084 <_vfprintf_r+0xc98>
    76a0:	416a8ab3          	sub	s5,s5,s6
    76a4:	2f5042e3          	bgtz	s5,8188 <_vfprintf_r+0xd9c>
    76a8:	100cf713          	and	a4,s9,256
    76ac:	040710e3          	bnez	a4,7eec <_vfprintf_r+0xb00>
    76b0:	0c812783          	lw	a5,200(sp)
    76b4:	01660633          	add	a2,a2,s6
    76b8:	01a42023          	sw	s10,0(s0)
    76bc:	00178793          	add	a5,a5,1
    76c0:	01642223          	sw	s6,4(s0)
    76c4:	0cc12623          	sw	a2,204(sp)
    76c8:	0cf12423          	sw	a5,200(sp)
    76cc:	00700713          	li	a4,7
    76d0:	4af74c63          	blt	a4,a5,7b88 <_vfprintf_r+0x79c>
    76d4:	00840413          	add	s0,s0,8
    76d8:	004cfe13          	and	t3,s9,4
    76dc:	000e0663          	beqz	t3,76e8 <_vfprintf_r+0x2fc>
    76e0:	41bb8ab3          	sub	s5,s7,s11
    76e4:	515040e3          	bgtz	s5,83e4 <_vfprintf_r+0xff8>
    76e8:	000b8313          	mv	t1,s7
    76ec:	01bbd463          	bge	s7,s11,76f4 <_vfprintf_r+0x308>
    76f0:	000d8313          	mv	t1,s11
    76f4:	00c12783          	lw	a5,12(sp)
    76f8:	006787b3          	add	a5,a5,t1
    76fc:	00f12623          	sw	a5,12(sp)
    7700:	360614e3          	bnez	a2,8268 <_vfprintf_r+0xe7c>
    7704:	01012783          	lw	a5,16(sp)
    7708:	0c012423          	sw	zero,200(sp)
    770c:	00078863          	beqz	a5,771c <_vfprintf_r+0x330>
    7710:	01012583          	lw	a1,16(sp)
    7714:	00812503          	lw	a0,8(sp)
    7718:	9d1ff0ef          	jal	70e8 <_free_r>
    771c:	00098413          	mv	s0,s3
    7720:	00090d13          	mv	s10,s2
    7724:	000d4703          	lbu	a4,0(s10)
    7728:	de0714e3          	bnez	a4,7510 <_vfprintf_r+0x124>
    772c:	0cc12783          	lw	a5,204(sp)
    7730:	00078463          	beqz	a5,7738 <_vfprintf_r+0x34c>
    7734:	3b50106f          	j	92e8 <_vfprintf_r+0x1efc>
    7738:	00c4d783          	lhu	a5,12(s1)
    773c:	1c012903          	lw	s2,448(sp)
    7740:	1bc12983          	lw	s3,444(sp)
    7744:	0407f793          	and	a5,a5,64
    7748:	1b812a03          	lw	s4,440(sp)
    774c:	1b412a83          	lw	s5,436(sp)
    7750:	1ac12b83          	lw	s7,428(sp)
    7754:	1a812c03          	lw	s8,424(sp)
    7758:	1a412c83          	lw	s9,420(sp)
    775c:	1a012d03          	lw	s10,416(sp)
    7760:	19c12d83          	lw	s11,412(sp)
    7764:	00078463          	beqz	a5,776c <_vfprintf_r+0x380>
    7768:	1740206f          	j	98dc <_vfprintf_r+0x24f0>
    776c:	1cc12083          	lw	ra,460(sp)
    7770:	1c812403          	lw	s0,456(sp)
    7774:	00c12503          	lw	a0,12(sp)
    7778:	1c412483          	lw	s1,452(sp)
    777c:	1b012b03          	lw	s6,432(sp)
    7780:	1d010113          	add	sp,sp,464
    7784:	00008067          	ret
    7788:	00812503          	lw	a0,8(sp)
    778c:	00048593          	mv	a1,s1
    7790:	748040ef          	jal	bed8 <__swsetup_r>
    7794:	00050463          	beqz	a0,779c <_vfprintf_r+0x3b0>
    7798:	1440206f          	j	98dc <_vfprintf_r+0x24f0>
    779c:	00c49703          	lh	a4,12(s1)
    77a0:	00a00693          	li	a3,10
    77a4:	01a77713          	and	a4,a4,26
    77a8:	ced71ae3          	bne	a4,a3,749c <_vfprintf_r+0xb0>
    77ac:	00e49703          	lh	a4,14(s1)
    77b0:	ce0746e3          	bltz	a4,749c <_vfprintf_r+0xb0>
    77b4:	01412683          	lw	a3,20(sp)
    77b8:	00812503          	lw	a0,8(sp)
    77bc:	000b0613          	mv	a2,s6
    77c0:	00048593          	mv	a1,s1
    77c4:	4c4020ef          	jal	9c88 <__sbprintf>
    77c8:	00a12623          	sw	a0,12(sp)
    77cc:	fa1ff06f          	j	776c <_vfprintf_r+0x380>
    77d0:	00812c03          	lw	s8,8(sp)
    77d4:	000c0513          	mv	a0,s8
    77d8:	461040ef          	jal	c438 <_localeconv_r>
    77dc:	00452783          	lw	a5,4(a0)
    77e0:	00078513          	mv	a0,a5
    77e4:	04f12223          	sw	a5,68(sp)
    77e8:	decff0ef          	jal	6dd4 <strlen>
    77ec:	00050793          	mv	a5,a0
    77f0:	000c0513          	mv	a0,s8
    77f4:	04f12423          	sw	a5,72(sp)
    77f8:	00078c13          	mv	s8,a5
    77fc:	43d040ef          	jal	c438 <_localeconv_r>
    7800:	00852703          	lw	a4,8(a0)
    7804:	02e12e23          	sw	a4,60(sp)
    7808:	740c1ae3          	bnez	s8,875c <_vfprintf_r+0x1370>
    780c:	00094883          	lbu	a7,0(s2)
    7810:	d7dff06f          	j	758c <_vfprintf_r+0x1a0>
    7814:	00094883          	lbu	a7,0(s2)
    7818:	020cec93          	or	s9,s9,32
    781c:	d71ff06f          	j	758c <_vfprintf_r+0x1a0>
    7820:	010cec93          	or	s9,s9,16
    7824:	020cf793          	and	a5,s9,32
    7828:	3a078863          	beqz	a5,7bd8 <_vfprintf_r+0x7ec>
    782c:	01412783          	lw	a5,20(sp)
    7830:	00778c13          	add	s8,a5,7
    7834:	ff8c7c13          	and	s8,s8,-8
    7838:	004c2783          	lw	a5,4(s8)
    783c:	000c2b03          	lw	s6,0(s8)
    7840:	008c0713          	add	a4,s8,8
    7844:	00e12a23          	sw	a4,20(sp)
    7848:	00078d93          	mv	s11,a5
    784c:	3c07c063          	bltz	a5,7c0c <_vfprintf_r+0x820>
    7850:	000c8e93          	mv	t4,s9
    7854:	4e0ac463          	bltz	s5,7d3c <_vfprintf_r+0x950>
    7858:	01bb67b3          	or	a5,s6,s11
    785c:	f7fcfe93          	and	t4,s9,-129
    7860:	4c079e63          	bnez	a5,7d3c <_vfprintf_r+0x950>
    7864:	4e0a9263          	bnez	s5,7d48 <_vfprintf_r+0x95c>
    7868:	00000b13          	li	s6,0
    786c:	000e8c93          	mv	s9,t4
    7870:	19010d13          	add	s10,sp,400
    7874:	0a714703          	lbu	a4,167(sp)
    7878:	000a8d93          	mv	s11,s5
    787c:	016ad463          	bge	s5,s6,7884 <_vfprintf_r+0x498>
    7880:	000b0d93          	mv	s11,s6
    7884:	00012823          	sw	zero,16(sp)
    7888:	02012423          	sw	zero,40(sp)
    788c:	02012223          	sw	zero,36(sp)
    7890:	00012e23          	sw	zero,28(sp)
    7894:	d6070ce3          	beqz	a4,760c <_vfprintf_r+0x220>
    7898:	001d8d93          	add	s11,s11,1
    789c:	d71ff06f          	j	760c <_vfprintf_r+0x220>
    78a0:	010cec93          	or	s9,s9,16
    78a4:	020cf793          	and	a5,s9,32
    78a8:	30078063          	beqz	a5,7ba8 <_vfprintf_r+0x7bc>
    78ac:	01412783          	lw	a5,20(sp)
    78b0:	00778c13          	add	s8,a5,7
    78b4:	ff8c7c13          	and	s8,s8,-8
    78b8:	000c2b03          	lw	s6,0(s8)
    78bc:	004c2d83          	lw	s11,4(s8)
    78c0:	008c0793          	add	a5,s8,8
    78c4:	00f12a23          	sw	a5,20(sp)
    78c8:	bffcfe93          	and	t4,s9,-1025
    78cc:	00000793          	li	a5,0
    78d0:	00000713          	li	a4,0
    78d4:	0ae103a3          	sb	a4,167(sp)
    78d8:	340acc63          	bltz	s5,7c30 <_vfprintf_r+0x844>
    78dc:	01bb6733          	or	a4,s6,s11
    78e0:	f7fefc93          	and	s9,t4,-129
    78e4:	1a0716e3          	bnez	a4,8290 <_vfprintf_r+0xea4>
    78e8:	740a9063          	bnez	s5,8028 <_vfprintf_r+0xc3c>
    78ec:	5e0794e3          	bnez	a5,86d4 <_vfprintf_r+0x12e8>
    78f0:	001efb13          	and	s6,t4,1
    78f4:	19010d13          	add	s10,sp,400
    78f8:	f60b0ee3          	beqz	s6,7874 <_vfprintf_r+0x488>
    78fc:	03000793          	li	a5,48
    7900:	18f107a3          	sb	a5,399(sp)
    7904:	18f10d13          	add	s10,sp,399
    7908:	f6dff06f          	j	7874 <_vfprintf_r+0x488>
    790c:	41a90ab3          	sub	s5,s2,s10
    7910:	c3a910e3          	bne	s2,s10,7530 <_vfprintf_r+0x144>
    7914:	00094703          	lbu	a4,0(s2)
    7918:	c55ff06f          	j	756c <_vfprintf_r+0x180>
    791c:	00812503          	lw	a0,8(sp)
    7920:	0c410613          	add	a2,sp,196
    7924:	00048593          	mv	a1,s1
    7928:	550020ef          	jal	9e78 <__sprint_r>
    792c:	e00516e3          	bnez	a0,7738 <_vfprintf_r+0x34c>
    7930:	00098413          	mv	s0,s3
    7934:	c29ff06f          	j	755c <_vfprintf_r+0x170>
    7938:	008cf713          	and	a4,s9,8
    793c:	5e071ee3          	bnez	a4,8738 <_vfprintf_r+0x134c>
    7940:	01412783          	lw	a5,20(sp)
    7944:	09010513          	add	a0,sp,144
    7948:	01112823          	sw	a7,16(sp)
    794c:	00778c13          	add	s8,a5,7
    7950:	ff8c7c13          	and	s8,s8,-8
    7954:	000c2583          	lw	a1,0(s8)
    7958:	004c2603          	lw	a2,4(s8)
    795c:	008c0793          	add	a5,s8,8
    7960:	00f12a23          	sw	a5,20(sp)
    7964:	f94fd0ef          	jal	50f8 <__extenddftf2>
    7968:	09012583          	lw	a1,144(sp)
    796c:	09412603          	lw	a2,148(sp)
    7970:	09812683          	lw	a3,152(sp)
    7974:	09c12703          	lw	a4,156(sp)
    7978:	01012883          	lw	a7,16(sp)
    797c:	0d010513          	add	a0,sp,208
    7980:	01112823          	sw	a7,16(sp)
    7984:	0ce12e23          	sw	a4,220(sp)
    7988:	0cb12823          	sw	a1,208(sp)
    798c:	0cc12a23          	sw	a2,212(sp)
    7990:	0cd12c23          	sw	a3,216(sp)
    7994:	2a0050ef          	jal	cc34 <_ldcheck>
    7998:	0aa12623          	sw	a0,172(sp)
    799c:	00200713          	li	a4,2
    79a0:	01012883          	lw	a7,16(sp)
    79a4:	00e51463          	bne	a0,a4,79ac <_vfprintf_r+0x5c0>
    79a8:	4080106f          	j	8db0 <_vfprintf_r+0x19c4>
    79ac:	00100713          	li	a4,1
    79b0:	00e51463          	bne	a0,a4,79b8 <_vfprintf_r+0x5cc>
    79b4:	5540106f          	j	8f08 <_vfprintf_r+0x1b1c>
    79b8:	06100713          	li	a4,97
    79bc:	00e89463          	bne	a7,a4,79c4 <_vfprintf_r+0x5d8>
    79c0:	7a10006f          	j	8960 <_vfprintf_r+0x1574>
    79c4:	04100713          	li	a4,65
    79c8:	05800793          	li	a5,88
    79cc:	78e88ce3          	beq	a7,a4,8964 <_vfprintf_r+0x1578>
    79d0:	fff00713          	li	a4,-1
    79d4:	00ea9463          	bne	s5,a4,79dc <_vfprintf_r+0x5f0>
    79d8:	0f80206f          	j	9ad0 <_vfprintf_r+0x26e4>
    79dc:	fdf8f713          	and	a4,a7,-33
    79e0:	04700693          	li	a3,71
    79e4:	00012823          	sw	zero,16(sp)
    79e8:	00d71663          	bne	a4,a3,79f4 <_vfprintf_r+0x608>
    79ec:	000a9463          	bnez	s5,79f4 <_vfprintf_r+0x608>
    79f0:	00100a93          	li	s5,1
    79f4:	0dc12c03          	lw	s8,220(sp)
    79f8:	100ce793          	or	a5,s9,256
    79fc:	04f12623          	sw	a5,76(sp)
    7a00:	02012c23          	sw	zero,56(sp)
    7a04:	0d012f83          	lw	t6,208(sp)
    7a08:	0d412f03          	lw	t5,212(sp)
    7a0c:	0d812e83          	lw	t4,216(sp)
    7a10:	000c5a63          	bgez	s8,7a24 <_vfprintf_r+0x638>
    7a14:	80000737          	lui	a4,0x80000
    7a18:	02d00793          	li	a5,45
    7a1c:	01874c33          	xor	s8,a4,s8
    7a20:	02f12c23          	sw	a5,56(sp)
    7a24:	fbf88713          	add	a4,a7,-65
    7a28:	02500693          	li	a3,37
    7a2c:	78e6e0e3          	bltu	a3,a4,89ac <_vfprintf_r+0x15c0>
    7a30:	000126b7          	lui	a3,0x12
    7a34:	00271713          	sll	a4,a4,0x2
    7a38:	97468693          	add	a3,a3,-1676 # 11974 <_getpid_r+0x858>
    7a3c:	00d70733          	add	a4,a4,a3
    7a40:	00072703          	lw	a4,0(a4) # 80000000 <_end+0x7ffead9c>
    7a44:	00070067          	jr	a4
    7a48:	00812503          	lw	a0,8(sp)
    7a4c:	0c410613          	add	a2,sp,196
    7a50:	00048593          	mv	a1,s1
    7a54:	05112823          	sw	a7,80(sp)
    7a58:	05f12623          	sw	t6,76(sp)
    7a5c:	02512c23          	sw	t0,56(sp)
    7a60:	418020ef          	jal	9e78 <__sprint_r>
    7a64:	00051ce3          	bnez	a0,827c <_vfprintf_r+0xe90>
    7a68:	0cc12603          	lw	a2,204(sp)
    7a6c:	05012883          	lw	a7,80(sp)
    7a70:	04c12f83          	lw	t6,76(sp)
    7a74:	03812283          	lw	t0,56(sp)
    7a78:	00098413          	mv	s0,s3
    7a7c:	be9ff06f          	j	7664 <_vfprintf_r+0x278>
    7a80:	0c812a83          	lw	s5,200(sp)
    7a84:	02012783          	lw	a5,32(sp)
    7a88:	00100713          	li	a4,1
    7a8c:	01a42023          	sw	s10,0(s0)
    7a90:	00160c13          	add	s8,a2,1
    7a94:	001a8a93          	add	s5,s5,1
    7a98:	00840b13          	add	s6,s0,8
    7a9c:	34f752e3          	bge	a4,a5,85e0 <_vfprintf_r+0x11f4>
    7aa0:	00100713          	li	a4,1
    7aa4:	00e42223          	sw	a4,4(s0)
    7aa8:	0d812623          	sw	s8,204(sp)
    7aac:	0d512423          	sw	s5,200(sp)
    7ab0:	00700713          	li	a4,7
    7ab4:	01575463          	bge	a4,s5,7abc <_vfprintf_r+0x6d0>
    7ab8:	0bc0106f          	j	8b74 <_vfprintf_r+0x1788>
    7abc:	02c12783          	lw	a5,44(sp)
    7ac0:	03012703          	lw	a4,48(sp)
    7ac4:	001a8a93          	add	s5,s5,1
    7ac8:	00fc0c33          	add	s8,s8,a5
    7acc:	00eb2023          	sw	a4,0(s6)
    7ad0:	00fb2223          	sw	a5,4(s6)
    7ad4:	0d812623          	sw	s8,204(sp)
    7ad8:	0d512423          	sw	s5,200(sp)
    7adc:	00700713          	li	a4,7
    7ae0:	008b0b13          	add	s6,s6,8
    7ae4:	01575463          	bge	a4,s5,7aec <_vfprintf_r+0x700>
    7ae8:	0b00106f          	j	8b98 <_vfprintf_r+0x17ac>
    7aec:	0d012703          	lw	a4,208(sp)
    7af0:	02012783          	lw	a5,32(sp)
    7af4:	08010593          	add	a1,sp,128
    7af8:	08e12823          	sw	a4,144(sp)
    7afc:	0d412703          	lw	a4,212(sp)
    7b00:	09010513          	add	a0,sp,144
    7b04:	08012023          	sw	zero,128(sp)
    7b08:	08e12a23          	sw	a4,148(sp)
    7b0c:	0d812703          	lw	a4,216(sp)
    7b10:	08012223          	sw	zero,132(sp)
    7b14:	08012423          	sw	zero,136(sp)
    7b18:	08e12c23          	sw	a4,152(sp)
    7b1c:	0dc12703          	lw	a4,220(sp)
    7b20:	08012623          	sw	zero,140(sp)
    7b24:	fff78413          	add	s0,a5,-1
    7b28:	08e12e23          	sw	a4,156(sp)
    7b2c:	b35fa0ef          	jal	2660 <__eqtf2>
    7b30:	2e0508e3          	beqz	a0,8620 <_vfprintf_r+0x1234>
    7b34:	001d0793          	add	a5,s10,1
    7b38:	001a8a93          	add	s5,s5,1
    7b3c:	008c0c33          	add	s8,s8,s0
    7b40:	00fb2023          	sw	a5,0(s6)
    7b44:	008b2223          	sw	s0,4(s6)
    7b48:	0d812623          	sw	s8,204(sp)
    7b4c:	0d512423          	sw	s5,200(sp)
    7b50:	00700793          	li	a5,7
    7b54:	008b0b13          	add	s6,s6,8
    7b58:	2b57c2e3          	blt	a5,s5,85fc <_vfprintf_r+0x1210>
    7b5c:	04012683          	lw	a3,64(sp)
    7b60:	0b410713          	add	a4,sp,180
    7b64:	001a8793          	add	a5,s5,1
    7b68:	01868633          	add	a2,a3,s8
    7b6c:	00eb2023          	sw	a4,0(s6)
    7b70:	00db2223          	sw	a3,4(s6)
    7b74:	0cc12623          	sw	a2,204(sp)
    7b78:	0cf12423          	sw	a5,200(sp)
    7b7c:	00700713          	li	a4,7
    7b80:	008b0413          	add	s0,s6,8
    7b84:	b4f75ae3          	bge	a4,a5,76d8 <_vfprintf_r+0x2ec>
    7b88:	00812503          	lw	a0,8(sp)
    7b8c:	0c410613          	add	a2,sp,196
    7b90:	00048593          	mv	a1,s1
    7b94:	2e4020ef          	jal	9e78 <__sprint_r>
    7b98:	6e051263          	bnez	a0,827c <_vfprintf_r+0xe90>
    7b9c:	0cc12603          	lw	a2,204(sp)
    7ba0:	00098413          	mv	s0,s3
    7ba4:	b35ff06f          	j	76d8 <_vfprintf_r+0x2ec>
    7ba8:	01412703          	lw	a4,20(sp)
    7bac:	010cf793          	and	a5,s9,16
    7bb0:	00072b03          	lw	s6,0(a4)
    7bb4:	00470713          	add	a4,a4,4
    7bb8:	00e12a23          	sw	a4,20(sp)
    7bbc:	36079ae3          	bnez	a5,8730 <_vfprintf_r+0x1344>
    7bc0:	040cf793          	and	a5,s9,64
    7bc4:	360782e3          	beqz	a5,8728 <_vfprintf_r+0x133c>
    7bc8:	010b1b13          	sll	s6,s6,0x10
    7bcc:	010b5b13          	srl	s6,s6,0x10
    7bd0:	00000d93          	li	s11,0
    7bd4:	cf5ff06f          	j	78c8 <_vfprintf_r+0x4dc>
    7bd8:	01412703          	lw	a4,20(sp)
    7bdc:	010cf793          	and	a5,s9,16
    7be0:	00072b03          	lw	s6,0(a4)
    7be4:	00470713          	add	a4,a4,4
    7be8:	00e12a23          	sw	a4,20(sp)
    7bec:	320798e3          	bnez	a5,871c <_vfprintf_r+0x1330>
    7bf0:	040cf793          	and	a5,s9,64
    7bf4:	320780e3          	beqz	a5,8714 <_vfprintf_r+0x1328>
    7bf8:	010b1b13          	sll	s6,s6,0x10
    7bfc:	410b5b13          	sra	s6,s6,0x10
    7c00:	41fb5d93          	sra	s11,s6,0x1f
    7c04:	000d8793          	mv	a5,s11
    7c08:	c407d4e3          	bgez	a5,7850 <_vfprintf_r+0x464>
    7c0c:	02d00713          	li	a4,45
    7c10:	016037b3          	snez	a5,s6
    7c14:	41b00db3          	neg	s11,s11
    7c18:	0ae103a3          	sb	a4,167(sp)
    7c1c:	40fd8db3          	sub	s11,s11,a5
    7c20:	41600b33          	neg	s6,s6
    7c24:	000c8e93          	mv	t4,s9
    7c28:	00100793          	li	a5,1
    7c2c:	ca0ad8e3          	bgez	s5,78dc <_vfprintf_r+0x4f0>
    7c30:	00100713          	li	a4,1
    7c34:	10e78463          	beq	a5,a4,7d3c <_vfprintf_r+0x950>
    7c38:	00200713          	li	a4,2
    7c3c:	40e78263          	beq	a5,a4,8040 <_vfprintf_r+0xc54>
    7c40:	19010d13          	add	s10,sp,400
    7c44:	01dd9793          	sll	a5,s11,0x1d
    7c48:	007b7713          	and	a4,s6,7
    7c4c:	003b5b13          	srl	s6,s6,0x3
    7c50:	03070713          	add	a4,a4,48
    7c54:	0167eb33          	or	s6,a5,s6
    7c58:	003ddd93          	srl	s11,s11,0x3
    7c5c:	feed0fa3          	sb	a4,-1(s10)
    7c60:	01bb67b3          	or	a5,s6,s11
    7c64:	000d0613          	mv	a2,s10
    7c68:	fffd0d13          	add	s10,s10,-1
    7c6c:	fc079ce3          	bnez	a5,7c44 <_vfprintf_r+0x858>
    7c70:	001ef693          	and	a3,t4,1
    7c74:	40068063          	beqz	a3,8074 <_vfprintf_r+0xc88>
    7c78:	03000693          	li	a3,48
    7c7c:	3ed70c63          	beq	a4,a3,8074 <_vfprintf_r+0xc88>
    7c80:	ffe60613          	add	a2,a2,-2
    7c84:	19010793          	add	a5,sp,400
    7c88:	fedd0fa3          	sb	a3,-1(s10)
    7c8c:	40c78b33          	sub	s6,a5,a2
    7c90:	000e8c93          	mv	s9,t4
    7c94:	00060d13          	mv	s10,a2
    7c98:	bddff06f          	j	7874 <_vfprintf_r+0x488>
    7c9c:	01412703          	lw	a4,20(sp)
    7ca0:	0a0103a3          	sb	zero,167(sp)
    7ca4:	00100d93          	li	s11,1
    7ca8:	00072783          	lw	a5,0(a4)
    7cac:	00470713          	add	a4,a4,4
    7cb0:	00e12a23          	sw	a4,20(sp)
    7cb4:	12f10623          	sb	a5,300(sp)
    7cb8:	00100b13          	li	s6,1
    7cbc:	12c10d13          	add	s10,sp,300
    7cc0:	939ff06f          	j	75f8 <_vfprintf_r+0x20c>
    7cc4:	01412783          	lw	a5,20(sp)
    7cc8:	0a0103a3          	sb	zero,167(sp)
    7ccc:	0007ad03          	lw	s10,0(a5)
    7cd0:	00478c13          	add	s8,a5,4
    7cd4:	3a0d02e3          	beqz	s10,8878 <_vfprintf_r+0x148c>
    7cd8:	000ad463          	bgez	s5,7ce0 <_vfprintf_r+0x8f4>
    7cdc:	1cc0106f          	j	8ea8 <_vfprintf_r+0x1abc>
    7ce0:	000a8613          	mv	a2,s5
    7ce4:	00000593          	li	a1,0
    7ce8:	000d0513          	mv	a0,s10
    7cec:	01112a23          	sw	a7,20(sp)
    7cf0:	4c4040ef          	jal	c1b4 <memchr>
    7cf4:	00a12823          	sw	a0,16(sp)
    7cf8:	01412883          	lw	a7,20(sp)
    7cfc:	00051463          	bnez	a0,7d04 <_vfprintf_r+0x918>
    7d00:	3650106f          	j	9864 <_vfprintf_r+0x2478>
    7d04:	01012783          	lw	a5,16(sp)
    7d08:	0a714703          	lbu	a4,167(sp)
    7d0c:	01812a23          	sw	s8,20(sp)
    7d10:	41a78b33          	sub	s6,a5,s10
    7d14:	fffb4693          	not	a3,s6
    7d18:	41f6d693          	sra	a3,a3,0x1f
    7d1c:	00012823          	sw	zero,16(sp)
    7d20:	02012423          	sw	zero,40(sp)
    7d24:	02012223          	sw	zero,36(sp)
    7d28:	00012e23          	sw	zero,28(sp)
    7d2c:	00db7db3          	and	s11,s6,a3
    7d30:	00000a93          	li	s5,0
    7d34:	b60712e3          	bnez	a4,7898 <_vfprintf_r+0x4ac>
    7d38:	8d5ff06f          	j	760c <_vfprintf_r+0x220>
    7d3c:	680d98e3          	bnez	s11,8bcc <_vfprintf_r+0x17e0>
    7d40:	00900793          	li	a5,9
    7d44:	6967e4e3          	bltu	a5,s6,8bcc <_vfprintf_r+0x17e0>
    7d48:	030b0b13          	add	s6,s6,48
    7d4c:	196107a3          	sb	s6,399(sp)
    7d50:	000e8c93          	mv	s9,t4
    7d54:	00100b13          	li	s6,1
    7d58:	18f10d13          	add	s10,sp,399
    7d5c:	b19ff06f          	j	7874 <_vfprintf_r+0x488>
    7d60:	01412783          	lw	a5,20(sp)
    7d64:	0007ab83          	lw	s7,0(a5)
    7d68:	00478793          	add	a5,a5,4
    7d6c:	180bd2e3          	bgez	s7,86f0 <_vfprintf_r+0x1304>
    7d70:	41700bb3          	neg	s7,s7
    7d74:	00f12a23          	sw	a5,20(sp)
    7d78:	00094883          	lbu	a7,0(s2)
    7d7c:	004cec93          	or	s9,s9,4
    7d80:	80dff06f          	j	758c <_vfprintf_r+0x1a0>
    7d84:	010cee93          	or	t4,s9,16
    7d88:	020ef793          	and	a5,t4,32
    7d8c:	10078ae3          	beqz	a5,86a0 <_vfprintf_r+0x12b4>
    7d90:	01412783          	lw	a5,20(sp)
    7d94:	00778c13          	add	s8,a5,7
    7d98:	ff8c7c13          	and	s8,s8,-8
    7d9c:	008c0793          	add	a5,s8,8
    7da0:	00f12a23          	sw	a5,20(sp)
    7da4:	000c2b03          	lw	s6,0(s8)
    7da8:	004c2d83          	lw	s11,4(s8)
    7dac:	00100793          	li	a5,1
    7db0:	b21ff06f          	j	78d0 <_vfprintf_r+0x4e4>
    7db4:	02b00793          	li	a5,43
    7db8:	00094883          	lbu	a7,0(s2)
    7dbc:	0af103a3          	sb	a5,167(sp)
    7dc0:	fccff06f          	j	758c <_vfprintf_r+0x1a0>
    7dc4:	01412703          	lw	a4,20(sp)
    7dc8:	000087b7          	lui	a5,0x8
    7dcc:	83078793          	add	a5,a5,-2000 # 7830 <_vfprintf_r+0x444>
    7dd0:	0af11423          	sh	a5,168(sp)
    7dd4:	00470793          	add	a5,a4,4
    7dd8:	00f12a23          	sw	a5,20(sp)
    7ddc:	000117b7          	lui	a5,0x11
    7de0:	71078793          	add	a5,a5,1808 # 11710 <_getpid_r+0x5f4>
    7de4:	02f12a23          	sw	a5,52(sp)
    7de8:	00072b03          	lw	s6,0(a4)
    7dec:	00000d93          	li	s11,0
    7df0:	002cee93          	or	t4,s9,2
    7df4:	00200793          	li	a5,2
    7df8:	07800893          	li	a7,120
    7dfc:	ad5ff06f          	j	78d0 <_vfprintf_r+0x4e4>
    7e00:	020cf793          	and	a5,s9,32
    7e04:	16078ee3          	beqz	a5,8780 <_vfprintf_r+0x1394>
    7e08:	01412783          	lw	a5,20(sp)
    7e0c:	00c12683          	lw	a3,12(sp)
    7e10:	0007a783          	lw	a5,0(a5)
    7e14:	41f6d713          	sra	a4,a3,0x1f
    7e18:	00d7a023          	sw	a3,0(a5)
    7e1c:	00e7a223          	sw	a4,4(a5)
    7e20:	01412783          	lw	a5,20(sp)
    7e24:	00090d13          	mv	s10,s2
    7e28:	00478793          	add	a5,a5,4
    7e2c:	00f12a23          	sw	a5,20(sp)
    7e30:	8f5ff06f          	j	7724 <_vfprintf_r+0x338>
    7e34:	00094883          	lbu	a7,0(s2)
    7e38:	06c00793          	li	a5,108
    7e3c:	22f886e3          	beq	a7,a5,8868 <_vfprintf_r+0x147c>
    7e40:	010cec93          	or	s9,s9,16
    7e44:	f48ff06f          	j	758c <_vfprintf_r+0x1a0>
    7e48:	00094883          	lbu	a7,0(s2)
    7e4c:	06800793          	li	a5,104
    7e50:	20f884e3          	beq	a7,a5,8858 <_vfprintf_r+0x146c>
    7e54:	040cec93          	or	s9,s9,64
    7e58:	f34ff06f          	j	758c <_vfprintf_r+0x1a0>
    7e5c:	00094883          	lbu	a7,0(s2)
    7e60:	008cec93          	or	s9,s9,8
    7e64:	f28ff06f          	j	758c <_vfprintf_r+0x1a0>
    7e68:	00094883          	lbu	a7,0(s2)
    7e6c:	001cec93          	or	s9,s9,1
    7e70:	f1cff06f          	j	758c <_vfprintf_r+0x1a0>
    7e74:	0a714783          	lbu	a5,167(sp)
    7e78:	00094883          	lbu	a7,0(s2)
    7e7c:	f0079863          	bnez	a5,758c <_vfprintf_r+0x1a0>
    7e80:	02000793          	li	a5,32
    7e84:	0af103a3          	sb	a5,167(sp)
    7e88:	f04ff06f          	j	758c <_vfprintf_r+0x1a0>
    7e8c:	00094883          	lbu	a7,0(s2)
    7e90:	080cec93          	or	s9,s9,128
    7e94:	ef8ff06f          	j	758c <_vfprintf_r+0x1a0>
    7e98:	00094883          	lbu	a7,0(s2)
    7e9c:	02a00793          	li	a5,42
    7ea0:	00190693          	add	a3,s2,1
    7ea4:	00f89463          	bne	a7,a5,7eac <_vfprintf_r+0xac0>
    7ea8:	57d0106f          	j	9c24 <_vfprintf_r+0x2838>
    7eac:	fd088793          	add	a5,a7,-48
    7eb0:	00900713          	li	a4,9
    7eb4:	00000a93          	li	s5,0
    7eb8:	00900613          	li	a2,9
    7ebc:	02f76463          	bltu	a4,a5,7ee4 <_vfprintf_r+0xaf8>
    7ec0:	0006c883          	lbu	a7,0(a3)
    7ec4:	002a9713          	sll	a4,s5,0x2
    7ec8:	01570ab3          	add	s5,a4,s5
    7ecc:	001a9a93          	sll	s5,s5,0x1
    7ed0:	00fa8ab3          	add	s5,s5,a5
    7ed4:	fd088793          	add	a5,a7,-48
    7ed8:	00168693          	add	a3,a3,1
    7edc:	fef672e3          	bgeu	a2,a5,7ec0 <_vfprintf_r+0xad4>
    7ee0:	0c0acce3          	bltz	s5,87b8 <_vfprintf_r+0x13cc>
    7ee4:	00068913          	mv	s2,a3
    7ee8:	ea8ff06f          	j	7590 <_vfprintf_r+0x1a4>
    7eec:	06500713          	li	a4,101
    7ef0:	b91758e3          	bge	a4,a7,7a80 <_vfprintf_r+0x694>
    7ef4:	0d012703          	lw	a4,208(sp)
    7ef8:	08010593          	add	a1,sp,128
    7efc:	09010513          	add	a0,sp,144
    7f00:	08e12823          	sw	a4,144(sp)
    7f04:	0d412703          	lw	a4,212(sp)
    7f08:	02c12c23          	sw	a2,56(sp)
    7f0c:	08012023          	sw	zero,128(sp)
    7f10:	08e12a23          	sw	a4,148(sp)
    7f14:	0d812703          	lw	a4,216(sp)
    7f18:	08012223          	sw	zero,132(sp)
    7f1c:	08012423          	sw	zero,136(sp)
    7f20:	08e12c23          	sw	a4,152(sp)
    7f24:	0dc12703          	lw	a4,220(sp)
    7f28:	08012623          	sw	zero,140(sp)
    7f2c:	08e12e23          	sw	a4,156(sp)
    7f30:	f30fa0ef          	jal	2660 <__eqtf2>
    7f34:	03812603          	lw	a2,56(sp)
    7f38:	54051e63          	bnez	a0,8494 <_vfprintf_r+0x10a8>
    7f3c:	0c812783          	lw	a5,200(sp)
    7f40:	00011737          	lui	a4,0x11
    7f44:	74070713          	add	a4,a4,1856 # 11740 <_getpid_r+0x624>
    7f48:	00e42023          	sw	a4,0(s0)
    7f4c:	00160613          	add	a2,a2,1
    7f50:	00100713          	li	a4,1
    7f54:	00178793          	add	a5,a5,1
    7f58:	00e42223          	sw	a4,4(s0)
    7f5c:	0cc12623          	sw	a2,204(sp)
    7f60:	0cf12423          	sw	a5,200(sp)
    7f64:	00700713          	li	a4,7
    7f68:	00840413          	add	s0,s0,8
    7f6c:	5ef74ce3          	blt	a4,a5,8d64 <_vfprintf_r+0x1978>
    7f70:	0ac12783          	lw	a5,172(sp)
    7f74:	02012703          	lw	a4,32(sp)
    7f78:	76e7d463          	bge	a5,a4,86e0 <_vfprintf_r+0x12f4>
    7f7c:	03012783          	lw	a5,48(sp)
    7f80:	02c12703          	lw	a4,44(sp)
    7f84:	00840413          	add	s0,s0,8
    7f88:	fef42c23          	sw	a5,-8(s0)
    7f8c:	0c812783          	lw	a5,200(sp)
    7f90:	00e60633          	add	a2,a2,a4
    7f94:	fee42e23          	sw	a4,-4(s0)
    7f98:	00178793          	add	a5,a5,1
    7f9c:	0cc12623          	sw	a2,204(sp)
    7fa0:	0cf12423          	sw	a5,200(sp)
    7fa4:	00700713          	li	a4,7
    7fa8:	08f748e3          	blt	a4,a5,8838 <_vfprintf_r+0x144c>
    7fac:	02012783          	lw	a5,32(sp)
    7fb0:	fff78a93          	add	s5,a5,-1
    7fb4:	f3505263          	blez	s5,76d8 <_vfprintf_r+0x2ec>
    7fb8:	00012837          	lui	a6,0x12
    7fbc:	a0c80813          	add	a6,a6,-1524 # 11a0c <zeroes.0>
    7fc0:	01000713          	li	a4,16
    7fc4:	0c812783          	lw	a5,200(sp)
    7fc8:	01000b13          	li	s6,16
    7fcc:	00700c13          	li	s8,7
    7fd0:	00080d13          	mv	s10,a6
    7fd4:	01574863          	blt	a4,s5,7fe4 <_vfprintf_r+0xbf8>
    7fd8:	5b10006f          	j	8d88 <_vfprintf_r+0x199c>
    7fdc:	ff0a8a93          	add	s5,s5,-16
    7fe0:	5b5b52e3          	bge	s6,s5,8d84 <_vfprintf_r+0x1998>
    7fe4:	01060613          	add	a2,a2,16
    7fe8:	00178793          	add	a5,a5,1
    7fec:	01a42023          	sw	s10,0(s0)
    7ff0:	01642223          	sw	s6,4(s0)
    7ff4:	0cc12623          	sw	a2,204(sp)
    7ff8:	0cf12423          	sw	a5,200(sp)
    7ffc:	00840413          	add	s0,s0,8
    8000:	fcfc5ee3          	bge	s8,a5,7fdc <_vfprintf_r+0xbf0>
    8004:	00812503          	lw	a0,8(sp)
    8008:	0c410613          	add	a2,sp,196
    800c:	00048593          	mv	a1,s1
    8010:	669010ef          	jal	9e78 <__sprint_r>
    8014:	26051463          	bnez	a0,827c <_vfprintf_r+0xe90>
    8018:	0cc12603          	lw	a2,204(sp)
    801c:	0c812783          	lw	a5,200(sp)
    8020:	00098413          	mv	s0,s3
    8024:	fb9ff06f          	j	7fdc <_vfprintf_r+0xbf0>
    8028:	00100713          	li	a4,1
    802c:	00e79463          	bne	a5,a4,8034 <_vfprintf_r+0xc48>
    8030:	2190106f          	j	9a48 <_vfprintf_r+0x265c>
    8034:	00200713          	li	a4,2
    8038:	000c8e93          	mv	t4,s9
    803c:	c0e792e3          	bne	a5,a4,7c40 <_vfprintf_r+0x854>
    8040:	03412683          	lw	a3,52(sp)
    8044:	19010d13          	add	s10,sp,400
    8048:	00fb7793          	and	a5,s6,15
    804c:	00f687b3          	add	a5,a3,a5
    8050:	0007c703          	lbu	a4,0(a5)
    8054:	004b5b13          	srl	s6,s6,0x4
    8058:	01cd9793          	sll	a5,s11,0x1c
    805c:	0167eb33          	or	s6,a5,s6
    8060:	004ddd93          	srl	s11,s11,0x4
    8064:	feed0fa3          	sb	a4,-1(s10)
    8068:	01bb67b3          	or	a5,s6,s11
    806c:	fffd0d13          	add	s10,s10,-1
    8070:	fc079ce3          	bnez	a5,8048 <_vfprintf_r+0xc5c>
    8074:	19010793          	add	a5,sp,400
    8078:	41a78b33          	sub	s6,a5,s10
    807c:	000e8c93          	mv	s9,t4
    8080:	ff4ff06f          	j	7874 <_vfprintf_r+0x488>
    8084:	41bb8c33          	sub	s8,s7,s11
    8088:	e1805c63          	blez	s8,76a0 <_vfprintf_r+0x2b4>
    808c:	00012837          	lui	a6,0x12
    8090:	01000513          	li	a0,16
    8094:	0c812583          	lw	a1,200(sp)
    8098:	a0c80813          	add	a6,a6,-1524 # 11a0c <zeroes.0>
    809c:	0b855063          	bge	a0,s8,813c <_vfprintf_r+0xd50>
    80a0:	03212c23          	sw	s2,56(sp)
    80a4:	00040793          	mv	a5,s0
    80a8:	01000e93          	li	t4,16
    80ac:	000c0413          	mv	s0,s8
    80b0:	00700f93          	li	t6,7
    80b4:	000b0c13          	mv	s8,s6
    80b8:	00080913          	mv	s2,a6
    80bc:	000a8b13          	mv	s6,s5
    80c0:	00088a93          	mv	s5,a7
    80c4:	00c0006f          	j	80d0 <_vfprintf_r+0xce4>
    80c8:	ff040413          	add	s0,s0,-16
    80cc:	048eda63          	bge	t4,s0,8120 <_vfprintf_r+0xd34>
    80d0:	01060613          	add	a2,a2,16
    80d4:	00158593          	add	a1,a1,1 # 2001 <__subdf3+0x271>
    80d8:	0127a023          	sw	s2,0(a5)
    80dc:	01d7a223          	sw	t4,4(a5)
    80e0:	0cc12623          	sw	a2,204(sp)
    80e4:	0cb12423          	sw	a1,200(sp)
    80e8:	00878793          	add	a5,a5,8
    80ec:	fcbfdee3          	bge	t6,a1,80c8 <_vfprintf_r+0xcdc>
    80f0:	00812503          	lw	a0,8(sp)
    80f4:	0c410613          	add	a2,sp,196
    80f8:	00048593          	mv	a1,s1
    80fc:	57d010ef          	jal	9e78 <__sprint_r>
    8100:	16051e63          	bnez	a0,827c <_vfprintf_r+0xe90>
    8104:	01000e93          	li	t4,16
    8108:	ff040413          	add	s0,s0,-16
    810c:	0cc12603          	lw	a2,204(sp)
    8110:	0c812583          	lw	a1,200(sp)
    8114:	00098793          	mv	a5,s3
    8118:	00700f93          	li	t6,7
    811c:	fa8ecae3          	blt	t4,s0,80d0 <_vfprintf_r+0xce4>
    8120:	00090813          	mv	a6,s2
    8124:	03812903          	lw	s2,56(sp)
    8128:	000a8893          	mv	a7,s5
    812c:	000b0a93          	mv	s5,s6
    8130:	000c0b13          	mv	s6,s8
    8134:	00040c13          	mv	s8,s0
    8138:	00078413          	mv	s0,a5
    813c:	01860633          	add	a2,a2,s8
    8140:	00158593          	add	a1,a1,1
    8144:	01042023          	sw	a6,0(s0)
    8148:	01842223          	sw	s8,4(s0)
    814c:	0cc12623          	sw	a2,204(sp)
    8150:	0cb12423          	sw	a1,200(sp)
    8154:	00700713          	li	a4,7
    8158:	00840413          	add	s0,s0,8
    815c:	d4b75263          	bge	a4,a1,76a0 <_vfprintf_r+0x2b4>
    8160:	00812503          	lw	a0,8(sp)
    8164:	0c410613          	add	a2,sp,196
    8168:	00048593          	mv	a1,s1
    816c:	03112c23          	sw	a7,56(sp)
    8170:	509010ef          	jal	9e78 <__sprint_r>
    8174:	10051463          	bnez	a0,827c <_vfprintf_r+0xe90>
    8178:	0cc12603          	lw	a2,204(sp)
    817c:	03812883          	lw	a7,56(sp)
    8180:	00098413          	mv	s0,s3
    8184:	d1cff06f          	j	76a0 <_vfprintf_r+0x2b4>
    8188:	00012837          	lui	a6,0x12
    818c:	01000713          	li	a4,16
    8190:	0c812583          	lw	a1,200(sp)
    8194:	a0c80813          	add	a6,a6,-1524 # 11a0c <zeroes.0>
    8198:	09575263          	bge	a4,s5,821c <_vfprintf_r+0xe30>
    819c:	00040793          	mv	a5,s0
    81a0:	01000713          	li	a4,16
    81a4:	000a8413          	mv	s0,s5
    81a8:	00700c13          	li	s8,7
    81ac:	03112c23          	sw	a7,56(sp)
    81b0:	000a0a93          	mv	s5,s4
    81b4:	00c0006f          	j	81c0 <_vfprintf_r+0xdd4>
    81b8:	ff040413          	add	s0,s0,-16
    81bc:	04875863          	bge	a4,s0,820c <_vfprintf_r+0xe20>
    81c0:	01060613          	add	a2,a2,16
    81c4:	00158593          	add	a1,a1,1
    81c8:	0147a023          	sw	s4,0(a5)
    81cc:	00e7a223          	sw	a4,4(a5)
    81d0:	0cc12623          	sw	a2,204(sp)
    81d4:	0cb12423          	sw	a1,200(sp)
    81d8:	00878793          	add	a5,a5,8
    81dc:	fcbc5ee3          	bge	s8,a1,81b8 <_vfprintf_r+0xdcc>
    81e0:	00812503          	lw	a0,8(sp)
    81e4:	0c410613          	add	a2,sp,196
    81e8:	00048593          	mv	a1,s1
    81ec:	48d010ef          	jal	9e78 <__sprint_r>
    81f0:	08051663          	bnez	a0,827c <_vfprintf_r+0xe90>
    81f4:	01000713          	li	a4,16
    81f8:	ff040413          	add	s0,s0,-16
    81fc:	0cc12603          	lw	a2,204(sp)
    8200:	0c812583          	lw	a1,200(sp)
    8204:	00098793          	mv	a5,s3
    8208:	fa874ce3          	blt	a4,s0,81c0 <_vfprintf_r+0xdd4>
    820c:	03812883          	lw	a7,56(sp)
    8210:	000a8813          	mv	a6,s5
    8214:	00040a93          	mv	s5,s0
    8218:	00078413          	mv	s0,a5
    821c:	01560633          	add	a2,a2,s5
    8220:	00158593          	add	a1,a1,1
    8224:	01042023          	sw	a6,0(s0)
    8228:	01542223          	sw	s5,4(s0)
    822c:	0cc12623          	sw	a2,204(sp)
    8230:	0cb12423          	sw	a1,200(sp)
    8234:	00700713          	li	a4,7
    8238:	00840413          	add	s0,s0,8
    823c:	c6b75663          	bge	a4,a1,76a8 <_vfprintf_r+0x2bc>
    8240:	00812503          	lw	a0,8(sp)
    8244:	0c410613          	add	a2,sp,196
    8248:	00048593          	mv	a1,s1
    824c:	03112c23          	sw	a7,56(sp)
    8250:	429010ef          	jal	9e78 <__sprint_r>
    8254:	02051463          	bnez	a0,827c <_vfprintf_r+0xe90>
    8258:	0cc12603          	lw	a2,204(sp)
    825c:	03812883          	lw	a7,56(sp)
    8260:	00098413          	mv	s0,s3
    8264:	c44ff06f          	j	76a8 <_vfprintf_r+0x2bc>
    8268:	00812503          	lw	a0,8(sp)
    826c:	0c410613          	add	a2,sp,196
    8270:	00048593          	mv	a1,s1
    8274:	405010ef          	jal	9e78 <__sprint_r>
    8278:	c8050663          	beqz	a0,7704 <_vfprintf_r+0x318>
    827c:	01012583          	lw	a1,16(sp)
    8280:	ca058c63          	beqz	a1,7738 <_vfprintf_r+0x34c>
    8284:	00812503          	lw	a0,8(sp)
    8288:	e61fe0ef          	jal	70e8 <_free_r>
    828c:	cacff06f          	j	7738 <_vfprintf_r+0x34c>
    8290:	000c8e93          	mv	t4,s9
    8294:	99dff06f          	j	7c30 <_vfprintf_r+0x844>
    8298:	00012837          	lui	a6,0x12
    829c:	01000513          	li	a0,16
    82a0:	0c812583          	lw	a1,200(sp)
    82a4:	a1c80c13          	add	s8,a6,-1508 # 11a1c <blanks.1>
    82a8:	0ae55863          	bge	a0,a4,8358 <_vfprintf_r+0xf6c>
    82ac:	05212823          	sw	s2,80(sp)
    82b0:	00040793          	mv	a5,s0
    82b4:	000c0913          	mv	s2,s8
    82b8:	01000e93          	li	t4,16
    82bc:	000b0c13          	mv	s8,s6
    82c0:	00700393          	li	t2,7
    82c4:	000a8b13          	mv	s6,s5
    82c8:	02512c23          	sw	t0,56(sp)
    82cc:	05f12623          	sw	t6,76(sp)
    82d0:	00070413          	mv	s0,a4
    82d4:	00088a93          	mv	s5,a7
    82d8:	00c0006f          	j	82e4 <_vfprintf_r+0xef8>
    82dc:	ff040413          	add	s0,s0,-16
    82e0:	048eda63          	bge	t4,s0,8334 <_vfprintf_r+0xf48>
    82e4:	01060613          	add	a2,a2,16
    82e8:	00158593          	add	a1,a1,1
    82ec:	0127a023          	sw	s2,0(a5)
    82f0:	01d7a223          	sw	t4,4(a5)
    82f4:	0cc12623          	sw	a2,204(sp)
    82f8:	0cb12423          	sw	a1,200(sp)
    82fc:	00878793          	add	a5,a5,8
    8300:	fcb3dee3          	bge	t2,a1,82dc <_vfprintf_r+0xef0>
    8304:	00812503          	lw	a0,8(sp)
    8308:	0c410613          	add	a2,sp,196
    830c:	00048593          	mv	a1,s1
    8310:	369010ef          	jal	9e78 <__sprint_r>
    8314:	f60514e3          	bnez	a0,827c <_vfprintf_r+0xe90>
    8318:	01000e93          	li	t4,16
    831c:	ff040413          	add	s0,s0,-16
    8320:	0cc12603          	lw	a2,204(sp)
    8324:	0c812583          	lw	a1,200(sp)
    8328:	00098793          	mv	a5,s3
    832c:	00700393          	li	t2,7
    8330:	fa8ecae3          	blt	t4,s0,82e4 <_vfprintf_r+0xef8>
    8334:	000a8893          	mv	a7,s5
    8338:	03812283          	lw	t0,56(sp)
    833c:	000b0a93          	mv	s5,s6
    8340:	04c12f83          	lw	t6,76(sp)
    8344:	000c0b13          	mv	s6,s8
    8348:	00090c13          	mv	s8,s2
    834c:	05012903          	lw	s2,80(sp)
    8350:	00040713          	mv	a4,s0
    8354:	00078413          	mv	s0,a5
    8358:	00e60633          	add	a2,a2,a4
    835c:	00158593          	add	a1,a1,1
    8360:	00e42223          	sw	a4,4(s0)
    8364:	01842023          	sw	s8,0(s0)
    8368:	0cc12623          	sw	a2,204(sp)
    836c:	0cb12423          	sw	a1,200(sp)
    8370:	00700713          	li	a4,7
    8374:	00840413          	add	s0,s0,8
    8378:	aab75a63          	bge	a4,a1,762c <_vfprintf_r+0x240>
    837c:	00812503          	lw	a0,8(sp)
    8380:	0c410613          	add	a2,sp,196
    8384:	00048593          	mv	a1,s1
    8388:	05112823          	sw	a7,80(sp)
    838c:	05f12623          	sw	t6,76(sp)
    8390:	02512c23          	sw	t0,56(sp)
    8394:	2e5010ef          	jal	9e78 <__sprint_r>
    8398:	ee0512e3          	bnez	a0,827c <_vfprintf_r+0xe90>
    839c:	0cc12603          	lw	a2,204(sp)
    83a0:	05012883          	lw	a7,80(sp)
    83a4:	04c12f83          	lw	t6,76(sp)
    83a8:	03812283          	lw	t0,56(sp)
    83ac:	00098413          	mv	s0,s3
    83b0:	a7cff06f          	j	762c <_vfprintf_r+0x240>
    83b4:	00812503          	lw	a0,8(sp)
    83b8:	0c410613          	add	a2,sp,196
    83bc:	00048593          	mv	a1,s1
    83c0:	05112623          	sw	a7,76(sp)
    83c4:	03f12c23          	sw	t6,56(sp)
    83c8:	2b1010ef          	jal	9e78 <__sprint_r>
    83cc:	ea0518e3          	bnez	a0,827c <_vfprintf_r+0xe90>
    83d0:	0cc12603          	lw	a2,204(sp)
    83d4:	04c12883          	lw	a7,76(sp)
    83d8:	03812f83          	lw	t6,56(sp)
    83dc:	00098413          	mv	s0,s3
    83e0:	ab8ff06f          	j	7698 <_vfprintf_r+0x2ac>
    83e4:	00012837          	lui	a6,0x12
    83e8:	01000713          	li	a4,16
    83ec:	0c812783          	lw	a5,200(sp)
    83f0:	a1c80c13          	add	s8,a6,-1508 # 11a1c <blanks.1>
    83f4:	07575263          	bge	a4,s5,8458 <_vfprintf_r+0x106c>
    83f8:	00812d03          	lw	s10,8(sp)
    83fc:	01000b13          	li	s6,16
    8400:	00700c93          	li	s9,7
    8404:	00c0006f          	j	8410 <_vfprintf_r+0x1024>
    8408:	ff0a8a93          	add	s5,s5,-16
    840c:	055b5663          	bge	s6,s5,8458 <_vfprintf_r+0x106c>
    8410:	01060613          	add	a2,a2,16
    8414:	00178793          	add	a5,a5,1
    8418:	01842023          	sw	s8,0(s0)
    841c:	01642223          	sw	s6,4(s0)
    8420:	0cc12623          	sw	a2,204(sp)
    8424:	0cf12423          	sw	a5,200(sp)
    8428:	00840413          	add	s0,s0,8
    842c:	fcfcdee3          	bge	s9,a5,8408 <_vfprintf_r+0x101c>
    8430:	0c410613          	add	a2,sp,196
    8434:	00048593          	mv	a1,s1
    8438:	000d0513          	mv	a0,s10
    843c:	23d010ef          	jal	9e78 <__sprint_r>
    8440:	e2051ee3          	bnez	a0,827c <_vfprintf_r+0xe90>
    8444:	ff0a8a93          	add	s5,s5,-16
    8448:	0cc12603          	lw	a2,204(sp)
    844c:	0c812783          	lw	a5,200(sp)
    8450:	00098413          	mv	s0,s3
    8454:	fb5b4ee3          	blt	s6,s5,8410 <_vfprintf_r+0x1024>
    8458:	01560633          	add	a2,a2,s5
    845c:	00178793          	add	a5,a5,1
    8460:	01842023          	sw	s8,0(s0)
    8464:	01542223          	sw	s5,4(s0)
    8468:	0cc12623          	sw	a2,204(sp)
    846c:	0cf12423          	sw	a5,200(sp)
    8470:	00700713          	li	a4,7
    8474:	a6f75a63          	bge	a4,a5,76e8 <_vfprintf_r+0x2fc>
    8478:	00812503          	lw	a0,8(sp)
    847c:	0c410613          	add	a2,sp,196
    8480:	00048593          	mv	a1,s1
    8484:	1f5010ef          	jal	9e78 <__sprint_r>
    8488:	de051ae3          	bnez	a0,827c <_vfprintf_r+0xe90>
    848c:	0cc12603          	lw	a2,204(sp)
    8490:	a58ff06f          	j	76e8 <_vfprintf_r+0x2fc>
    8494:	0ac12503          	lw	a0,172(sp)
    8498:	04a050e3          	blez	a0,8cd8 <_vfprintf_r+0x18ec>
    849c:	01c12783          	lw	a5,28(sp)
    84a0:	02012703          	lw	a4,32(sp)
    84a4:	00078a93          	mv	s5,a5
    84a8:	30f74263          	blt	a4,a5,87ac <_vfprintf_r+0x13c0>
    84ac:	03505663          	blez	s5,84d8 <_vfprintf_r+0x10ec>
    84b0:	0c812703          	lw	a4,200(sp)
    84b4:	01560633          	add	a2,a2,s5
    84b8:	01a42023          	sw	s10,0(s0)
    84bc:	00170713          	add	a4,a4,1
    84c0:	01542223          	sw	s5,4(s0)
    84c4:	0cc12623          	sw	a2,204(sp)
    84c8:	0ce12423          	sw	a4,200(sp)
    84cc:	00700593          	li	a1,7
    84d0:	00840413          	add	s0,s0,8
    84d4:	58e5cce3          	blt	a1,a4,926c <_vfprintf_r+0x1e80>
    84d8:	fffac713          	not	a4,s5
    84dc:	01c12783          	lw	a5,28(sp)
    84e0:	41f75713          	sra	a4,a4,0x1f
    84e4:	00eafab3          	and	s5,s5,a4
    84e8:	41578ab3          	sub	s5,a5,s5
    84ec:	3b504663          	bgtz	s5,8898 <_vfprintf_r+0x14ac>
    84f0:	01c12783          	lw	a5,28(sp)
    84f4:	400cf713          	and	a4,s9,1024
    84f8:	00fd0c33          	add	s8,s10,a5
    84fc:	26071ce3          	bnez	a4,8f74 <_vfprintf_r+0x1b88>
    8500:	0ac12a83          	lw	s5,172(sp)
    8504:	02012783          	lw	a5,32(sp)
    8508:	40fac263          	blt	s5,a5,890c <_vfprintf_r+0x1520>
    850c:	001cf713          	and	a4,s9,1
    8510:	3e071e63          	bnez	a4,890c <_vfprintf_r+0x1520>
    8514:	02012703          	lw	a4,32(sp)
    8518:	00ed07b3          	add	a5,s10,a4
    851c:	41570ab3          	sub	s5,a4,s5
    8520:	41878b33          	sub	s6,a5,s8
    8524:	016ad463          	bge	s5,s6,852c <_vfprintf_r+0x1140>
    8528:	000a8b13          	mv	s6,s5
    852c:	03605863          	blez	s6,855c <_vfprintf_r+0x1170>
    8530:	0c812783          	lw	a5,200(sp)
    8534:	01660633          	add	a2,a2,s6
    8538:	01842023          	sw	s8,0(s0)
    853c:	00178793          	add	a5,a5,1
    8540:	01642223          	sw	s6,4(s0)
    8544:	0cc12623          	sw	a2,204(sp)
    8548:	0cf12423          	sw	a5,200(sp)
    854c:	00700713          	li	a4,7
    8550:	00840413          	add	s0,s0,8
    8554:	00f75463          	bge	a4,a5,855c <_vfprintf_r+0x1170>
    8558:	3440106f          	j	989c <_vfprintf_r+0x24b0>
    855c:	fffb4793          	not	a5,s6
    8560:	41f7d793          	sra	a5,a5,0x1f
    8564:	00fb7b33          	and	s6,s6,a5
    8568:	416a8ab3          	sub	s5,s5,s6
    856c:	97505663          	blez	s5,76d8 <_vfprintf_r+0x2ec>
    8570:	00012837          	lui	a6,0x12
    8574:	a0c80813          	add	a6,a6,-1524 # 11a0c <zeroes.0>
    8578:	01000713          	li	a4,16
    857c:	0c812783          	lw	a5,200(sp)
    8580:	01000b13          	li	s6,16
    8584:	00700c13          	li	s8,7
    8588:	00080d13          	mv	s10,a6
    858c:	01574863          	blt	a4,s5,859c <_vfprintf_r+0x11b0>
    8590:	7f80006f          	j	8d88 <_vfprintf_r+0x199c>
    8594:	ff0a8a93          	add	s5,s5,-16
    8598:	7f5b5663          	bge	s6,s5,8d84 <_vfprintf_r+0x1998>
    859c:	01060613          	add	a2,a2,16
    85a0:	00178793          	add	a5,a5,1
    85a4:	01a42023          	sw	s10,0(s0)
    85a8:	01642223          	sw	s6,4(s0)
    85ac:	0cc12623          	sw	a2,204(sp)
    85b0:	0cf12423          	sw	a5,200(sp)
    85b4:	00840413          	add	s0,s0,8
    85b8:	fcfc5ee3          	bge	s8,a5,8594 <_vfprintf_r+0x11a8>
    85bc:	00812503          	lw	a0,8(sp)
    85c0:	0c410613          	add	a2,sp,196
    85c4:	00048593          	mv	a1,s1
    85c8:	0b1010ef          	jal	9e78 <__sprint_r>
    85cc:	ca0518e3          	bnez	a0,827c <_vfprintf_r+0xe90>
    85d0:	0cc12603          	lw	a2,204(sp)
    85d4:	0c812783          	lw	a5,200(sp)
    85d8:	00098413          	mv	s0,s3
    85dc:	fb9ff06f          	j	8594 <_vfprintf_r+0x11a8>
    85e0:	001cf593          	and	a1,s9,1
    85e4:	ca059e63          	bnez	a1,7aa0 <_vfprintf_r+0x6b4>
    85e8:	00e42223          	sw	a4,4(s0)
    85ec:	0d812623          	sw	s8,204(sp)
    85f0:	0d512423          	sw	s5,200(sp)
    85f4:	00700793          	li	a5,7
    85f8:	d757d263          	bge	a5,s5,7b5c <_vfprintf_r+0x770>
    85fc:	00812503          	lw	a0,8(sp)
    8600:	0c410613          	add	a2,sp,196
    8604:	00048593          	mv	a1,s1
    8608:	071010ef          	jal	9e78 <__sprint_r>
    860c:	c60518e3          	bnez	a0,827c <_vfprintf_r+0xe90>
    8610:	0cc12c03          	lw	s8,204(sp)
    8614:	0c812a83          	lw	s5,200(sp)
    8618:	00098b13          	mv	s6,s3
    861c:	d40ff06f          	j	7b5c <_vfprintf_r+0x770>
    8620:	02012703          	lw	a4,32(sp)
    8624:	00100793          	li	a5,1
    8628:	d2e7da63          	bge	a5,a4,7b5c <_vfprintf_r+0x770>
    862c:	00012837          	lui	a6,0x12
    8630:	01100793          	li	a5,17
    8634:	a0c80813          	add	a6,a6,-1524 # 11a0c <zeroes.0>
    8638:	0ce7d0e3          	bge	a5,a4,8ef8 <_vfprintf_r+0x1b0c>
    863c:	01212e23          	sw	s2,28(sp)
    8640:	01000793          	li	a5,16
    8644:	00700d13          	li	s10,7
    8648:	00080913          	mv	s2,a6
    864c:	00c0006f          	j	8658 <_vfprintf_r+0x126c>
    8650:	ff040413          	add	s0,s0,-16
    8654:	0887dee3          	bge	a5,s0,8ef0 <_vfprintf_r+0x1b04>
    8658:	010c0c13          	add	s8,s8,16
    865c:	001a8a93          	add	s5,s5,1
    8660:	012b2023          	sw	s2,0(s6)
    8664:	00fb2223          	sw	a5,4(s6)
    8668:	0d812623          	sw	s8,204(sp)
    866c:	0d512423          	sw	s5,200(sp)
    8670:	008b0b13          	add	s6,s6,8
    8674:	fd5d5ee3          	bge	s10,s5,8650 <_vfprintf_r+0x1264>
    8678:	00812503          	lw	a0,8(sp)
    867c:	0c410613          	add	a2,sp,196
    8680:	00048593          	mv	a1,s1
    8684:	7f4010ef          	jal	9e78 <__sprint_r>
    8688:	be051ae3          	bnez	a0,827c <_vfprintf_r+0xe90>
    868c:	0cc12c03          	lw	s8,204(sp)
    8690:	0c812a83          	lw	s5,200(sp)
    8694:	00098b13          	mv	s6,s3
    8698:	01000793          	li	a5,16
    869c:	fb5ff06f          	j	8650 <_vfprintf_r+0x1264>
    86a0:	01412703          	lw	a4,20(sp)
    86a4:	010ef793          	and	a5,t4,16
    86a8:	00072b03          	lw	s6,0(a4)
    86ac:	00470713          	add	a4,a4,4
    86b0:	00e12a23          	sw	a4,20(sp)
    86b4:	04079a63          	bnez	a5,8708 <_vfprintf_r+0x131c>
    86b8:	040ef793          	and	a5,t4,64
    86bc:	04078063          	beqz	a5,86fc <_vfprintf_r+0x1310>
    86c0:	010b1b13          	sll	s6,s6,0x10
    86c4:	010b5b13          	srl	s6,s6,0x10
    86c8:	00000d93          	li	s11,0
    86cc:	00100793          	li	a5,1
    86d0:	a00ff06f          	j	78d0 <_vfprintf_r+0x4e4>
    86d4:	00000b13          	li	s6,0
    86d8:	19010d13          	add	s10,sp,400
    86dc:	998ff06f          	j	7874 <_vfprintf_r+0x488>
    86e0:	001cf793          	and	a5,s9,1
    86e4:	00079463          	bnez	a5,86ec <_vfprintf_r+0x1300>
    86e8:	ff1fe06f          	j	76d8 <_vfprintf_r+0x2ec>
    86ec:	891ff06f          	j	7f7c <_vfprintf_r+0xb90>
    86f0:	00094883          	lbu	a7,0(s2)
    86f4:	00f12a23          	sw	a5,20(sp)
    86f8:	e95fe06f          	j	758c <_vfprintf_r+0x1a0>
    86fc:	200ef793          	and	a5,t4,512
    8700:	00078463          	beqz	a5,8708 <_vfprintf_r+0x131c>
    8704:	0ffb7b13          	zext.b	s6,s6
    8708:	00000d93          	li	s11,0
    870c:	00100793          	li	a5,1
    8710:	9c0ff06f          	j	78d0 <_vfprintf_r+0x4e4>
    8714:	200cf793          	and	a5,s9,512
    8718:	38079ae3          	bnez	a5,92ac <_vfprintf_r+0x1ec0>
    871c:	41fb5d93          	sra	s11,s6,0x1f
    8720:	000d8793          	mv	a5,s11
    8724:	928ff06f          	j	784c <_vfprintf_r+0x460>
    8728:	200cf793          	and	a5,s9,512
    872c:	3a0790e3          	bnez	a5,92cc <_vfprintf_r+0x1ee0>
    8730:	00000d93          	li	s11,0
    8734:	994ff06f          	j	78c8 <_vfprintf_r+0x4dc>
    8738:	01412783          	lw	a5,20(sp)
    873c:	0007a703          	lw	a4,0(a5)
    8740:	00478793          	add	a5,a5,4
    8744:	00f12a23          	sw	a5,20(sp)
    8748:	00072583          	lw	a1,0(a4)
    874c:	00472603          	lw	a2,4(a4)
    8750:	00872683          	lw	a3,8(a4)
    8754:	00c72703          	lw	a4,12(a4)
    8758:	a24ff06f          	j	797c <_vfprintf_r+0x590>
    875c:	03c12783          	lw	a5,60(sp)
    8760:	00094883          	lbu	a7,0(s2)
    8764:	00079463          	bnez	a5,876c <_vfprintf_r+0x1380>
    8768:	e25fe06f          	j	758c <_vfprintf_r+0x1a0>
    876c:	0007c783          	lbu	a5,0(a5)
    8770:	00079463          	bnez	a5,8778 <_vfprintf_r+0x138c>
    8774:	e19fe06f          	j	758c <_vfprintf_r+0x1a0>
    8778:	400cec93          	or	s9,s9,1024
    877c:	e11fe06f          	j	758c <_vfprintf_r+0x1a0>
    8780:	010cf793          	and	a5,s9,16
    8784:	6a079863          	bnez	a5,8e34 <_vfprintf_r+0x1a48>
    8788:	040cf793          	and	a5,s9,64
    878c:	300796e3          	bnez	a5,9298 <_vfprintf_r+0x1eac>
    8790:	200cfe13          	and	t3,s9,512
    8794:	6a0e0063          	beqz	t3,8e34 <_vfprintf_r+0x1a48>
    8798:	01412783          	lw	a5,20(sp)
    879c:	00c12703          	lw	a4,12(sp)
    87a0:	0007a783          	lw	a5,0(a5)
    87a4:	00e78023          	sb	a4,0(a5)
    87a8:	e78ff06f          	j	7e20 <_vfprintf_r+0xa34>
    87ac:	00070a93          	mv	s5,a4
    87b0:	d15040e3          	bgtz	s5,84b0 <_vfprintf_r+0x10c4>
    87b4:	d25ff06f          	j	84d8 <_vfprintf_r+0x10ec>
    87b8:	fff00a93          	li	s5,-1
    87bc:	00068913          	mv	s2,a3
    87c0:	dd1fe06f          	j	7590 <_vfprintf_r+0x1a4>
    87c4:	000117b7          	lui	a5,0x11
    87c8:	72478793          	add	a5,a5,1828 # 11724 <_getpid_r+0x608>
    87cc:	02f12a23          	sw	a5,52(sp)
    87d0:	020cf793          	and	a5,s9,32
    87d4:	36078863          	beqz	a5,8b44 <_vfprintf_r+0x1758>
    87d8:	01412783          	lw	a5,20(sp)
    87dc:	00778c13          	add	s8,a5,7
    87e0:	ff8c7c13          	and	s8,s8,-8
    87e4:	000c2b03          	lw	s6,0(s8)
    87e8:	004c2d83          	lw	s11,4(s8)
    87ec:	008c0793          	add	a5,s8,8
    87f0:	00f12a23          	sw	a5,20(sp)
    87f4:	001cf793          	and	a5,s9,1
    87f8:	00078e63          	beqz	a5,8814 <_vfprintf_r+0x1428>
    87fc:	01bb67b3          	or	a5,s6,s11
    8800:	00078a63          	beqz	a5,8814 <_vfprintf_r+0x1428>
    8804:	03000793          	li	a5,48
    8808:	0af10423          	sb	a5,168(sp)
    880c:	0b1104a3          	sb	a7,169(sp)
    8810:	002cec93          	or	s9,s9,2
    8814:	bffcfe93          	and	t4,s9,-1025
    8818:	00200793          	li	a5,2
    881c:	8b4ff06f          	j	78d0 <_vfprintf_r+0x4e4>
    8820:	000c8e93          	mv	t4,s9
    8824:	d64ff06f          	j	7d88 <_vfprintf_r+0x99c>
    8828:	000117b7          	lui	a5,0x11
    882c:	71078793          	add	a5,a5,1808 # 11710 <_getpid_r+0x5f4>
    8830:	02f12a23          	sw	a5,52(sp)
    8834:	f9dff06f          	j	87d0 <_vfprintf_r+0x13e4>
    8838:	00812503          	lw	a0,8(sp)
    883c:	0c410613          	add	a2,sp,196
    8840:	00048593          	mv	a1,s1
    8844:	634010ef          	jal	9e78 <__sprint_r>
    8848:	a2051ae3          	bnez	a0,827c <_vfprintf_r+0xe90>
    884c:	0cc12603          	lw	a2,204(sp)
    8850:	00098413          	mv	s0,s3
    8854:	f58ff06f          	j	7fac <_vfprintf_r+0xbc0>
    8858:	00194883          	lbu	a7,1(s2)
    885c:	200cec93          	or	s9,s9,512
    8860:	00190913          	add	s2,s2,1
    8864:	d29fe06f          	j	758c <_vfprintf_r+0x1a0>
    8868:	00194883          	lbu	a7,1(s2)
    886c:	020cec93          	or	s9,s9,32
    8870:	00190913          	add	s2,s2,1
    8874:	d19fe06f          	j	758c <_vfprintf_r+0x1a0>
    8878:	00600793          	li	a5,6
    887c:	000a8b13          	mv	s6,s5
    8880:	2157e8e3          	bltu	a5,s5,9290 <_vfprintf_r+0x1ea4>
    8884:	000117b7          	lui	a5,0x11
    8888:	000b0d93          	mv	s11,s6
    888c:	01812a23          	sw	s8,20(sp)
    8890:	73878d13          	add	s10,a5,1848 # 11738 <_getpid_r+0x61c>
    8894:	d65fe06f          	j	75f8 <_vfprintf_r+0x20c>
    8898:	00012837          	lui	a6,0x12
    889c:	01000593          	li	a1,16
    88a0:	0c812703          	lw	a4,200(sp)
    88a4:	a0c80813          	add	a6,a6,-1524 # 11a0c <zeroes.0>
    88a8:	6955d463          	bge	a1,s5,8f30 <_vfprintf_r+0x1b44>
    88ac:	00040793          	mv	a5,s0
    88b0:	01000c13          	li	s8,16
    88b4:	00700b13          	li	s6,7
    88b8:	00080413          	mv	s0,a6
    88bc:	00c0006f          	j	88c8 <_vfprintf_r+0x14dc>
    88c0:	ff0a8a93          	add	s5,s5,-16
    88c4:	675c5263          	bge	s8,s5,8f28 <_vfprintf_r+0x1b3c>
    88c8:	01060613          	add	a2,a2,16
    88cc:	00170713          	add	a4,a4,1
    88d0:	0087a023          	sw	s0,0(a5)
    88d4:	0187a223          	sw	s8,4(a5)
    88d8:	0cc12623          	sw	a2,204(sp)
    88dc:	0ce12423          	sw	a4,200(sp)
    88e0:	00878793          	add	a5,a5,8
    88e4:	fceb5ee3          	bge	s6,a4,88c0 <_vfprintf_r+0x14d4>
    88e8:	00812503          	lw	a0,8(sp)
    88ec:	0c410613          	add	a2,sp,196
    88f0:	00048593          	mv	a1,s1
    88f4:	584010ef          	jal	9e78 <__sprint_r>
    88f8:	980512e3          	bnez	a0,827c <_vfprintf_r+0xe90>
    88fc:	0cc12603          	lw	a2,204(sp)
    8900:	0c812703          	lw	a4,200(sp)
    8904:	00098793          	mv	a5,s3
    8908:	fb9ff06f          	j	88c0 <_vfprintf_r+0x14d4>
    890c:	03012703          	lw	a4,48(sp)
    8910:	02c12783          	lw	a5,44(sp)
    8914:	00700593          	li	a1,7
    8918:	00e42023          	sw	a4,0(s0)
    891c:	0c812703          	lw	a4,200(sp)
    8920:	00f60633          	add	a2,a2,a5
    8924:	00f42223          	sw	a5,4(s0)
    8928:	00170713          	add	a4,a4,1
    892c:	0cc12623          	sw	a2,204(sp)
    8930:	0ce12423          	sw	a4,200(sp)
    8934:	00840413          	add	s0,s0,8
    8938:	bce5dee3          	bge	a1,a4,8514 <_vfprintf_r+0x1128>
    893c:	00812503          	lw	a0,8(sp)
    8940:	0c410613          	add	a2,sp,196
    8944:	00048593          	mv	a1,s1
    8948:	530010ef          	jal	9e78 <__sprint_r>
    894c:	920518e3          	bnez	a0,827c <_vfprintf_r+0xe90>
    8950:	0ac12a83          	lw	s5,172(sp)
    8954:	0cc12603          	lw	a2,204(sp)
    8958:	00098413          	mv	s0,s3
    895c:	bb9ff06f          	j	8514 <_vfprintf_r+0x1128>
    8960:	07800793          	li	a5,120
    8964:	03000713          	li	a4,48
    8968:	0ae10423          	sb	a4,168(sp)
    896c:	0af104a3          	sb	a5,169(sp)
    8970:	06300713          	li	a4,99
    8974:	00012823          	sw	zero,16(sp)
    8978:	002cec93          	or	s9,s9,2
    897c:	12c10d13          	add	s10,sp,300
    8980:	87575a63          	bge	a4,s5,79f4 <_vfprintf_r+0x608>
    8984:	00812503          	lw	a0,8(sp)
    8988:	001a8593          	add	a1,s5,1
    898c:	01112823          	sw	a7,16(sp)
    8990:	9f0fd0ef          	jal	5b80 <_malloc_r>
    8994:	01012883          	lw	a7,16(sp)
    8998:	00050d13          	mv	s10,a0
    899c:	00051463          	bnez	a0,89a4 <_vfprintf_r+0x15b8>
    89a0:	2c00106f          	j	9c60 <_vfprintf_r+0x2874>
    89a4:	00a12823          	sw	a0,16(sp)
    89a8:	84cff06f          	j	79f4 <_vfprintf_r+0x608>
    89ac:	00812503          	lw	a0,8(sp)
    89b0:	09010b13          	add	s6,sp,144
    89b4:	0ac10713          	add	a4,sp,172
    89b8:	0bc10813          	add	a6,sp,188
    89bc:	0b010793          	add	a5,sp,176
    89c0:	000a8693          	mv	a3,s5
    89c4:	00200613          	li	a2,2
    89c8:	000b0593          	mv	a1,s6
    89cc:	03112423          	sw	a7,40(sp)
    89d0:	09f12823          	sw	t6,144(sp)
    89d4:	03f12223          	sw	t6,36(sp)
    89d8:	09e12a23          	sw	t5,148(sp)
    89dc:	03e12023          	sw	t5,32(sp)
    89e0:	09d12c23          	sw	t4,152(sp)
    89e4:	01d12e23          	sw	t4,28(sp)
    89e8:	09812e23          	sw	s8,156(sp)
    89ec:	791030ef          	jal	c97c <_ldtoa_r>
    89f0:	001cf713          	and	a4,s9,1
    89f4:	01c12e83          	lw	t4,28(sp)
    89f8:	02012f03          	lw	t5,32(sp)
    89fc:	02412f83          	lw	t6,36(sp)
    8a00:	02812883          	lw	a7,40(sp)
    8a04:	00050d13          	mv	s10,a0
    8a08:	120710e3          	bnez	a4,9328 <_vfprintf_r+0x1f3c>
    8a0c:	0ac12783          	lw	a5,172(sp)
    8a10:	00f12e23          	sw	a5,28(sp)
    8a14:	0bc12783          	lw	a5,188(sp)
    8a18:	40a787b3          	sub	a5,a5,a0
    8a1c:	02f12023          	sw	a5,32(sp)
    8a20:	01c12783          	lw	a5,28(sp)
    8a24:	ffd00713          	li	a4,-3
    8a28:	00e7c463          	blt	a5,a4,8a30 <_vfprintf_r+0x1644>
    8a2c:	58fadce3          	bge	s5,a5,97c4 <_vfprintf_r+0x23d8>
    8a30:	01c12783          	lw	a5,28(sp)
    8a34:	ffe88893          	add	a7,a7,-2
    8a38:	fff78713          	add	a4,a5,-1
    8a3c:	0ae12623          	sw	a4,172(sp)
    8a40:	0ff8f693          	zext.b	a3,a7
    8a44:	00000613          	li	a2,0
    8a48:	0ad10a23          	sb	a3,180(sp)
    8a4c:	02b00693          	li	a3,43
    8a50:	00075a63          	bgez	a4,8a64 <_vfprintf_r+0x1678>
    8a54:	01c12783          	lw	a5,28(sp)
    8a58:	00100713          	li	a4,1
    8a5c:	02d00693          	li	a3,45
    8a60:	40f70733          	sub	a4,a4,a5
    8a64:	0ad10aa3          	sb	a3,181(sp)
    8a68:	00900693          	li	a3,9
    8a6c:	00e6c463          	blt	a3,a4,8a74 <_vfprintf_r+0x1688>
    8a70:	0300106f          	j	9aa0 <_vfprintf_r+0x26b4>
    8a74:	0c310813          	add	a6,sp,195
    8a78:	00080593          	mv	a1,a6
    8a7c:	00a00513          	li	a0,10
    8a80:	06300f13          	li	t5,99
    8a84:	02a767b3          	rem	a5,a4,a0
    8a88:	00058613          	mv	a2,a1
    8a8c:	00070693          	mv	a3,a4
    8a90:	fff58593          	add	a1,a1,-1
    8a94:	03078793          	add	a5,a5,48
    8a98:	fef60fa3          	sb	a5,-1(a2)
    8a9c:	02a74733          	div	a4,a4,a0
    8aa0:	fedf42e3          	blt	t5,a3,8a84 <_vfprintf_r+0x1698>
    8aa4:	03070713          	add	a4,a4,48
    8aa8:	ffe60693          	add	a3,a2,-2
    8aac:	fee58fa3          	sb	a4,-1(a1)
    8ab0:	0106e463          	bltu	a3,a6,8ab8 <_vfprintf_r+0x16cc>
    8ab4:	1640106f          	j	9c18 <_vfprintf_r+0x282c>
    8ab8:	0b610713          	add	a4,sp,182
    8abc:	0006c783          	lbu	a5,0(a3)
    8ac0:	00168693          	add	a3,a3,1
    8ac4:	00170713          	add	a4,a4,1
    8ac8:	fef70fa3          	sb	a5,-1(a4)
    8acc:	ff0698e3          	bne	a3,a6,8abc <_vfprintf_r+0x16d0>
    8ad0:	19010793          	add	a5,sp,400
    8ad4:	40c78733          	sub	a4,a5,a2
    8ad8:	f3770793          	add	a5,a4,-201
    8adc:	04f12023          	sw	a5,64(sp)
    8ae0:	02012783          	lw	a5,32(sp)
    8ae4:	04012683          	lw	a3,64(sp)
    8ae8:	00100713          	li	a4,1
    8aec:	00d78b33          	add	s6,a5,a3
    8af0:	00f74463          	blt	a4,a5,8af8 <_vfprintf_r+0x170c>
    8af4:	7e90006f          	j	9adc <_vfprintf_r+0x26f0>
    8af8:	02c12783          	lw	a5,44(sp)
    8afc:	00fb0b33          	add	s6,s6,a5
    8b00:	fffb4693          	not	a3,s6
    8b04:	bffcfe13          	and	t3,s9,-1025
    8b08:	41f6d693          	sra	a3,a3,0x1f
    8b0c:	100e6793          	or	a5,t3,256
    8b10:	04f12623          	sw	a5,76(sp)
    8b14:	00db7db3          	and	s11,s6,a3
    8b18:	02012423          	sw	zero,40(sp)
    8b1c:	02012223          	sw	zero,36(sp)
    8b20:	00012e23          	sw	zero,28(sp)
    8b24:	03812783          	lw	a5,56(sp)
    8b28:	480782e3          	beqz	a5,97ac <_vfprintf_r+0x23c0>
    8b2c:	02d00713          	li	a4,45
    8b30:	04c12c83          	lw	s9,76(sp)
    8b34:	0ae103a3          	sb	a4,167(sp)
    8b38:	00000a93          	li	s5,0
    8b3c:	001d8d93          	add	s11,s11,1
    8b40:	acdfe06f          	j	760c <_vfprintf_r+0x220>
    8b44:	01412703          	lw	a4,20(sp)
    8b48:	010cf793          	and	a5,s9,16
    8b4c:	00072b03          	lw	s6,0(a4)
    8b50:	00470713          	add	a4,a4,4
    8b54:	00e12a23          	sw	a4,20(sp)
    8b58:	06079663          	bnez	a5,8bc4 <_vfprintf_r+0x17d8>
    8b5c:	040cf793          	and	a5,s9,64
    8b60:	04078e63          	beqz	a5,8bbc <_vfprintf_r+0x17d0>
    8b64:	010b1b13          	sll	s6,s6,0x10
    8b68:	010b5b13          	srl	s6,s6,0x10
    8b6c:	00000d93          	li	s11,0
    8b70:	c85ff06f          	j	87f4 <_vfprintf_r+0x1408>
    8b74:	00812503          	lw	a0,8(sp)
    8b78:	0c410613          	add	a2,sp,196
    8b7c:	00048593          	mv	a1,s1
    8b80:	2f8010ef          	jal	9e78 <__sprint_r>
    8b84:	ee051c63          	bnez	a0,827c <_vfprintf_r+0xe90>
    8b88:	0cc12c03          	lw	s8,204(sp)
    8b8c:	0c812a83          	lw	s5,200(sp)
    8b90:	00098b13          	mv	s6,s3
    8b94:	f29fe06f          	j	7abc <_vfprintf_r+0x6d0>
    8b98:	00812503          	lw	a0,8(sp)
    8b9c:	0c410613          	add	a2,sp,196
    8ba0:	00048593          	mv	a1,s1
    8ba4:	2d4010ef          	jal	9e78 <__sprint_r>
    8ba8:	ec051a63          	bnez	a0,827c <_vfprintf_r+0xe90>
    8bac:	0cc12c03          	lw	s8,204(sp)
    8bb0:	0c812a83          	lw	s5,200(sp)
    8bb4:	00098b13          	mv	s6,s3
    8bb8:	f35fe06f          	j	7aec <_vfprintf_r+0x700>
    8bbc:	200cf793          	and	a5,s9,512
    8bc0:	70079063          	bnez	a5,92c0 <_vfprintf_r+0x1ed4>
    8bc4:	00000d93          	li	s11,0
    8bc8:	c2dff06f          	j	87f4 <_vfprintf_r+0x1408>
    8bcc:	ccccd837          	lui	a6,0xccccd
    8bd0:	ccccdcb7          	lui	s9,0xccccd
    8bd4:	03c12703          	lw	a4,60(sp)
    8bd8:	400eff13          	and	t5,t4,1024
    8bdc:	00000613          	li	a2,0
    8be0:	19010593          	add	a1,sp,400
    8be4:	00500e13          	li	t3,5
    8be8:	ccd80813          	add	a6,a6,-819 # cccccccd <_end+0xcccb7a69>
    8bec:	cccc8c93          	add	s9,s9,-820 # cccccccc <_end+0xcccb7a68>
    8bf0:	0ff00c13          	li	s8,255
    8bf4:	0540006f          	j	8c48 <_vfprintf_r+0x185c>
    8bf8:	016d37b3          	sltu	a5,s10,s6
    8bfc:	00fd07b3          	add	a5,s10,a5
    8c00:	03c7f7b3          	remu	a5,a5,t3
    8c04:	40fb07b3          	sub	a5,s6,a5
    8c08:	00fb35b3          	sltu	a1,s6,a5
    8c0c:	40bd85b3          	sub	a1,s11,a1
    8c10:	03978333          	mul	t1,a5,s9
    8c14:	030585b3          	mul	a1,a1,a6
    8c18:	0307b533          	mulhu	a0,a5,a6
    8c1c:	006585b3          	add	a1,a1,t1
    8c20:	030787b3          	mul	a5,a5,a6
    8c24:	00a585b3          	add	a1,a1,a0
    8c28:	01f59513          	sll	a0,a1,0x1f
    8c2c:	0015d593          	srl	a1,a1,0x1
    8c30:	0017d793          	srl	a5,a5,0x1
    8c34:	00f567b3          	or	a5,a0,a5
    8c38:	400d88e3          	beqz	s11,9848 <_vfprintf_r+0x245c>
    8c3c:	00058d93          	mv	s11,a1
    8c40:	00078b13          	mv	s6,a5
    8c44:	00068593          	mv	a1,a3
    8c48:	01bb0d33          	add	s10,s6,s11
    8c4c:	016d37b3          	sltu	a5,s10,s6
    8c50:	00fd07b3          	add	a5,s10,a5
    8c54:	03c7f7b3          	remu	a5,a5,t3
    8c58:	fff58693          	add	a3,a1,-1
    8c5c:	00160613          	add	a2,a2,1
    8c60:	40fb07b3          	sub	a5,s6,a5
    8c64:	00fb3533          	sltu	a0,s6,a5
    8c68:	40ad8533          	sub	a0,s11,a0
    8c6c:	0307b333          	mulhu	t1,a5,a6
    8c70:	03050533          	mul	a0,a0,a6
    8c74:	030787b3          	mul	a5,a5,a6
    8c78:	00650533          	add	a0,a0,t1
    8c7c:	01f51513          	sll	a0,a0,0x1f
    8c80:	0017d793          	srl	a5,a5,0x1
    8c84:	00f567b3          	or	a5,a0,a5
    8c88:	00279513          	sll	a0,a5,0x2
    8c8c:	00f507b3          	add	a5,a0,a5
    8c90:	00179793          	sll	a5,a5,0x1
    8c94:	40fb07b3          	sub	a5,s6,a5
    8c98:	03078793          	add	a5,a5,48
    8c9c:	fef58fa3          	sb	a5,-1(a1)
    8ca0:	f40f0ce3          	beqz	t5,8bf8 <_vfprintf_r+0x180c>
    8ca4:	00074783          	lbu	a5,0(a4)
    8ca8:	f4f618e3          	bne	a2,a5,8bf8 <_vfprintf_r+0x180c>
    8cac:	f58606e3          	beq	a2,s8,8bf8 <_vfprintf_r+0x180c>
    8cb0:	4c0d9a63          	bnez	s11,9184 <_vfprintf_r+0x1d98>
    8cb4:	00900793          	li	a5,9
    8cb8:	4d67e663          	bltu	a5,s6,9184 <_vfprintf_r+0x1d98>
    8cbc:	00068d13          	mv	s10,a3
    8cc0:	19010793          	add	a5,sp,400
    8cc4:	02c12023          	sw	a2,32(sp)
    8cc8:	02e12e23          	sw	a4,60(sp)
    8ccc:	41a78b33          	sub	s6,a5,s10
    8cd0:	000e8c93          	mv	s9,t4
    8cd4:	ba1fe06f          	j	7874 <_vfprintf_r+0x488>
    8cd8:	0c812703          	lw	a4,200(sp)
    8cdc:	000115b7          	lui	a1,0x11
    8ce0:	74058593          	add	a1,a1,1856 # 11740 <_getpid_r+0x624>
    8ce4:	00b42023          	sw	a1,0(s0)
    8ce8:	00160613          	add	a2,a2,1
    8cec:	00100593          	li	a1,1
    8cf0:	00170713          	add	a4,a4,1
    8cf4:	00b42223          	sw	a1,4(s0)
    8cf8:	0cc12623          	sw	a2,204(sp)
    8cfc:	0ce12423          	sw	a4,200(sp)
    8d00:	00700593          	li	a1,7
    8d04:	00840413          	add	s0,s0,8
    8d08:	52e5c863          	blt	a1,a4,9238 <_vfprintf_r+0x1e4c>
    8d0c:	12051e63          	bnez	a0,8e48 <_vfprintf_r+0x1a5c>
    8d10:	02012783          	lw	a5,32(sp)
    8d14:	001cf713          	and	a4,s9,1
    8d18:	00f76733          	or	a4,a4,a5
    8d1c:	00071463          	bnez	a4,8d24 <_vfprintf_r+0x1938>
    8d20:	9b9fe06f          	j	76d8 <_vfprintf_r+0x2ec>
    8d24:	03012703          	lw	a4,48(sp)
    8d28:	02c12783          	lw	a5,44(sp)
    8d2c:	00700593          	li	a1,7
    8d30:	00e42023          	sw	a4,0(s0)
    8d34:	0c812703          	lw	a4,200(sp)
    8d38:	00c78633          	add	a2,a5,a2
    8d3c:	00f42223          	sw	a5,4(s0)
    8d40:	00170713          	add	a4,a4,1
    8d44:	0cc12623          	sw	a2,204(sp)
    8d48:	0ce12423          	sw	a4,200(sp)
    8d4c:	5ae5c863          	blt	a1,a4,92fc <_vfprintf_r+0x1f10>
    8d50:	00840413          	add	s0,s0,8
    8d54:	1280006f          	j	8e7c <_vfprintf_r+0x1a90>
    8d58:	00812503          	lw	a0,8(sp)
    8d5c:	921fd0ef          	jal	667c <__sinit>
    8d60:	eecfe06f          	j	744c <_vfprintf_r+0x60>
    8d64:	00812503          	lw	a0,8(sp)
    8d68:	0c410613          	add	a2,sp,196
    8d6c:	00048593          	mv	a1,s1
    8d70:	108010ef          	jal	9e78 <__sprint_r>
    8d74:	d0051463          	bnez	a0,827c <_vfprintf_r+0xe90>
    8d78:	0cc12603          	lw	a2,204(sp)
    8d7c:	00098413          	mv	s0,s3
    8d80:	9f0ff06f          	j	7f70 <_vfprintf_r+0xb84>
    8d84:	000d0813          	mv	a6,s10
    8d88:	01042023          	sw	a6,0(s0)
    8d8c:	01542223          	sw	s5,4(s0)
    8d90:	01560633          	add	a2,a2,s5
    8d94:	00178793          	add	a5,a5,1
    8d98:	0cc12623          	sw	a2,204(sp)
    8d9c:	0cf12423          	sw	a5,200(sp)
    8da0:	00700713          	li	a4,7
    8da4:	00f74463          	blt	a4,a5,8dac <_vfprintf_r+0x19c0>
    8da8:	92dfe06f          	j	76d4 <_vfprintf_r+0x2e8>
    8dac:	dddfe06f          	j	7b88 <_vfprintf_r+0x79c>
    8db0:	0d012783          	lw	a5,208(sp)
    8db4:	08010593          	add	a1,sp,128
    8db8:	09010513          	add	a0,sp,144
    8dbc:	08f12823          	sw	a5,144(sp)
    8dc0:	0d412783          	lw	a5,212(sp)
    8dc4:	08012023          	sw	zero,128(sp)
    8dc8:	08012223          	sw	zero,132(sp)
    8dcc:	08f12a23          	sw	a5,148(sp)
    8dd0:	0d812783          	lw	a5,216(sp)
    8dd4:	08012423          	sw	zero,136(sp)
    8dd8:	08012623          	sw	zero,140(sp)
    8ddc:	08f12c23          	sw	a5,152(sp)
    8de0:	0dc12783          	lw	a5,220(sp)
    8de4:	08f12e23          	sw	a5,156(sp)
    8de8:	a75f90ef          	jal	285c <__letf2>
    8dec:	01012883          	lw	a7,16(sp)
    8df0:	260542e3          	bltz	a0,9854 <_vfprintf_r+0x2468>
    8df4:	0a714703          	lbu	a4,167(sp)
    8df8:	04700793          	li	a5,71
    8dfc:	4717d263          	bge	a5,a7,9260 <_vfprintf_r+0x1e74>
    8e00:	000117b7          	lui	a5,0x11
    8e04:	70478d13          	add	s10,a5,1796 # 11704 <_getpid_r+0x5e8>
    8e08:	00012823          	sw	zero,16(sp)
    8e0c:	02012423          	sw	zero,40(sp)
    8e10:	02012223          	sw	zero,36(sp)
    8e14:	00012e23          	sw	zero,28(sp)
    8e18:	f7fcfc93          	and	s9,s9,-129
    8e1c:	00300d93          	li	s11,3
    8e20:	00300b13          	li	s6,3
    8e24:	00000a93          	li	s5,0
    8e28:	00070463          	beqz	a4,8e30 <_vfprintf_r+0x1a44>
    8e2c:	a6dfe06f          	j	7898 <_vfprintf_r+0x4ac>
    8e30:	fdcfe06f          	j	760c <_vfprintf_r+0x220>
    8e34:	01412783          	lw	a5,20(sp)
    8e38:	00c12703          	lw	a4,12(sp)
    8e3c:	0007a783          	lw	a5,0(a5)
    8e40:	00e7a023          	sw	a4,0(a5)
    8e44:	fddfe06f          	j	7e20 <_vfprintf_r+0xa34>
    8e48:	03012703          	lw	a4,48(sp)
    8e4c:	02c12783          	lw	a5,44(sp)
    8e50:	00700593          	li	a1,7
    8e54:	00e42023          	sw	a4,0(s0)
    8e58:	0c812703          	lw	a4,200(sp)
    8e5c:	00c78633          	add	a2,a5,a2
    8e60:	00f42223          	sw	a5,4(s0)
    8e64:	00170713          	add	a4,a4,1
    8e68:	0cc12623          	sw	a2,204(sp)
    8e6c:	0ce12423          	sw	a4,200(sp)
    8e70:	00840413          	add	s0,s0,8
    8e74:	48e5c463          	blt	a1,a4,92fc <_vfprintf_r+0x1f10>
    8e78:	34054ce3          	bltz	a0,99d0 <_vfprintf_r+0x25e4>
    8e7c:	02012783          	lw	a5,32(sp)
    8e80:	00170713          	add	a4,a4,1
    8e84:	01a42023          	sw	s10,0(s0)
    8e88:	00c78633          	add	a2,a5,a2
    8e8c:	00f42223          	sw	a5,4(s0)
    8e90:	0cc12623          	sw	a2,204(sp)
    8e94:	0ce12423          	sw	a4,200(sp)
    8e98:	00700793          	li	a5,7
    8e9c:	00e7c463          	blt	a5,a4,8ea4 <_vfprintf_r+0x1ab8>
    8ea0:	835fe06f          	j	76d4 <_vfprintf_r+0x2e8>
    8ea4:	ce5fe06f          	j	7b88 <_vfprintf_r+0x79c>
    8ea8:	000d0513          	mv	a0,s10
    8eac:	03112c23          	sw	a7,56(sp)
    8eb0:	f25fd0ef          	jal	6dd4 <strlen>
    8eb4:	0a714703          	lbu	a4,167(sp)
    8eb8:	fff54693          	not	a3,a0
    8ebc:	41f6d693          	sra	a3,a3,0x1f
    8ec0:	01812a23          	sw	s8,20(sp)
    8ec4:	00012823          	sw	zero,16(sp)
    8ec8:	02012423          	sw	zero,40(sp)
    8ecc:	02012223          	sw	zero,36(sp)
    8ed0:	00012e23          	sw	zero,28(sp)
    8ed4:	03812883          	lw	a7,56(sp)
    8ed8:	00050b13          	mv	s6,a0
    8edc:	00d57db3          	and	s11,a0,a3
    8ee0:	00000a93          	li	s5,0
    8ee4:	00070463          	beqz	a4,8eec <_vfprintf_r+0x1b00>
    8ee8:	9b1fe06f          	j	7898 <_vfprintf_r+0x4ac>
    8eec:	f20fe06f          	j	760c <_vfprintf_r+0x220>
    8ef0:	00090813          	mv	a6,s2
    8ef4:	01c12903          	lw	s2,28(sp)
    8ef8:	008c0c33          	add	s8,s8,s0
    8efc:	001a8a93          	add	s5,s5,1
    8f00:	010b2023          	sw	a6,0(s6)
    8f04:	c41fe06f          	j	7b44 <_vfprintf_r+0x758>
    8f08:	0dc12783          	lw	a5,220(sp)
    8f0c:	3c07c663          	bltz	a5,92d8 <_vfprintf_r+0x1eec>
    8f10:	0a714703          	lbu	a4,167(sp)
    8f14:	04700793          	li	a5,71
    8f18:	1717cce3          	blt	a5,a7,9890 <_vfprintf_r+0x24a4>
    8f1c:	000117b7          	lui	a5,0x11
    8f20:	70878d13          	add	s10,a5,1800 # 11708 <_getpid_r+0x5ec>
    8f24:	ee5ff06f          	j	8e08 <_vfprintf_r+0x1a1c>
    8f28:	00040813          	mv	a6,s0
    8f2c:	00078413          	mv	s0,a5
    8f30:	01560633          	add	a2,a2,s5
    8f34:	00170713          	add	a4,a4,1
    8f38:	01042023          	sw	a6,0(s0)
    8f3c:	01542223          	sw	s5,4(s0)
    8f40:	0cc12623          	sw	a2,204(sp)
    8f44:	0ce12423          	sw	a4,200(sp)
    8f48:	00700593          	li	a1,7
    8f4c:	00840413          	add	s0,s0,8
    8f50:	dae5d063          	bge	a1,a4,84f0 <_vfprintf_r+0x1104>
    8f54:	00812503          	lw	a0,8(sp)
    8f58:	0c410613          	add	a2,sp,196
    8f5c:	00048593          	mv	a1,s1
    8f60:	719000ef          	jal	9e78 <__sprint_r>
    8f64:	b0051c63          	bnez	a0,827c <_vfprintf_r+0xe90>
    8f68:	0cc12603          	lw	a2,204(sp)
    8f6c:	00098413          	mv	s0,s3
    8f70:	d80ff06f          	j	84f0 <_vfprintf_r+0x1104>
    8f74:	02012783          	lw	a5,32(sp)
    8f78:	02412b03          	lw	s6,36(sp)
    8f7c:	000128b7          	lui	a7,0x12
    8f80:	00fd07b3          	add	a5,s10,a5
    8f84:	03212c23          	sw	s2,56(sp)
    8f88:	05912623          	sw	s9,76(sp)
    8f8c:	05712823          	sw	s7,80(sp)
    8f90:	03b12223          	sw	s11,36(sp)
    8f94:	02812d83          	lw	s11,40(sp)
    8f98:	03a12423          	sw	s10,40(sp)
    8f9c:	03c12c83          	lw	s9,60(sp)
    8fa0:	000c0d13          	mv	s10,s8
    8fa4:	00812903          	lw	s2,8(sp)
    8fa8:	04812c03          	lw	s8,72(sp)
    8fac:	00700813          	li	a6,7
    8fb0:	01000713          	li	a4,16
    8fb4:	a0c88a93          	add	s5,a7,-1524 # 11a0c <zeroes.0>
    8fb8:	00040593          	mv	a1,s0
    8fbc:	00078b93          	mv	s7,a5
    8fc0:	09605663          	blez	s6,904c <_vfprintf_r+0x1c60>
    8fc4:	17b05063          	blez	s11,9124 <_vfprintf_r+0x1d38>
    8fc8:	fffd8d93          	add	s11,s11,-1
    8fcc:	04412783          	lw	a5,68(sp)
    8fd0:	01860633          	add	a2,a2,s8
    8fd4:	0185a223          	sw	s8,4(a1)
    8fd8:	00f5a023          	sw	a5,0(a1)
    8fdc:	0c812783          	lw	a5,200(sp)
    8fe0:	0cc12623          	sw	a2,204(sp)
    8fe4:	00858593          	add	a1,a1,8
    8fe8:	00178793          	add	a5,a5,1
    8fec:	0cf12423          	sw	a5,200(sp)
    8ff0:	14f84063          	blt	a6,a5,9130 <_vfprintf_r+0x1d44>
    8ff4:	000cc683          	lbu	a3,0(s9)
    8ff8:	41ab8433          	sub	s0,s7,s10
    8ffc:	0086d463          	bge	a3,s0,9004 <_vfprintf_r+0x1c18>
    9000:	00068413          	mv	s0,a3
    9004:	02805663          	blez	s0,9030 <_vfprintf_r+0x1c44>
    9008:	0c812683          	lw	a3,200(sp)
    900c:	00860633          	add	a2,a2,s0
    9010:	01a5a023          	sw	s10,0(a1)
    9014:	00168693          	add	a3,a3,1
    9018:	0085a223          	sw	s0,4(a1)
    901c:	0cc12623          	sw	a2,204(sp)
    9020:	0cd12423          	sw	a3,200(sp)
    9024:	12d84a63          	blt	a6,a3,9158 <_vfprintf_r+0x1d6c>
    9028:	000cc683          	lbu	a3,0(s9)
    902c:	00858593          	add	a1,a1,8
    9030:	fff44513          	not	a0,s0
    9034:	41f55513          	sra	a0,a0,0x1f
    9038:	00a477b3          	and	a5,s0,a0
    903c:	40f68433          	sub	s0,a3,a5
    9040:	04804263          	bgtz	s0,9084 <_vfprintf_r+0x1c98>
    9044:	00dd0d33          	add	s10,s10,a3
    9048:	f7604ee3          	bgtz	s6,8fc4 <_vfprintf_r+0x1bd8>
    904c:	f7b04ee3          	bgtz	s11,8fc8 <_vfprintf_r+0x1bdc>
    9050:	02012783          	lw	a5,32(sp)
    9054:	000d0c13          	mv	s8,s10
    9058:	02812d03          	lw	s10,40(sp)
    905c:	03912e23          	sw	s9,60(sp)
    9060:	03812903          	lw	s2,56(sp)
    9064:	00fd0733          	add	a4,s10,a5
    9068:	04c12c83          	lw	s9,76(sp)
    906c:	05012b83          	lw	s7,80(sp)
    9070:	02412d83          	lw	s11,36(sp)
    9074:	00058413          	mv	s0,a1
    9078:	c9877463          	bgeu	a4,s8,8500 <_vfprintf_r+0x1114>
    907c:	00070c13          	mv	s8,a4
    9080:	c80ff06f          	j	8500 <_vfprintf_r+0x1114>
    9084:	00012f37          	lui	t5,0x12
    9088:	0c812683          	lw	a3,200(sp)
    908c:	a0cf0f13          	add	t5,t5,-1524 # 11a0c <zeroes.0>
    9090:	06875463          	bge	a4,s0,90f8 <_vfprintf_r+0x1d0c>
    9094:	01512e23          	sw	s5,28(sp)
    9098:	00c0006f          	j	90a4 <_vfprintf_r+0x1cb8>
    909c:	ff040413          	add	s0,s0,-16
    90a0:	04875a63          	bge	a4,s0,90f4 <_vfprintf_r+0x1d08>
    90a4:	01060613          	add	a2,a2,16
    90a8:	00168693          	add	a3,a3,1
    90ac:	0155a023          	sw	s5,0(a1)
    90b0:	00e5a223          	sw	a4,4(a1)
    90b4:	0cc12623          	sw	a2,204(sp)
    90b8:	0cd12423          	sw	a3,200(sp)
    90bc:	00858593          	add	a1,a1,8
    90c0:	fcd85ee3          	bge	a6,a3,909c <_vfprintf_r+0x1cb0>
    90c4:	0c410613          	add	a2,sp,196
    90c8:	00048593          	mv	a1,s1
    90cc:	00090513          	mv	a0,s2
    90d0:	5a9000ef          	jal	9e78 <__sprint_r>
    90d4:	9a051463          	bnez	a0,827c <_vfprintf_r+0xe90>
    90d8:	01000713          	li	a4,16
    90dc:	ff040413          	add	s0,s0,-16
    90e0:	0cc12603          	lw	a2,204(sp)
    90e4:	0c812683          	lw	a3,200(sp)
    90e8:	00098593          	mv	a1,s3
    90ec:	00700813          	li	a6,7
    90f0:	fa874ae3          	blt	a4,s0,90a4 <_vfprintf_r+0x1cb8>
    90f4:	01c12f03          	lw	t5,28(sp)
    90f8:	00860633          	add	a2,a2,s0
    90fc:	00168693          	add	a3,a3,1
    9100:	01e5a023          	sw	t5,0(a1)
    9104:	0085a223          	sw	s0,4(a1)
    9108:	0cc12623          	sw	a2,204(sp)
    910c:	0cd12423          	sw	a3,200(sp)
    9110:	70d84263          	blt	a6,a3,9814 <_vfprintf_r+0x2428>
    9114:	000cc683          	lbu	a3,0(s9)
    9118:	00858593          	add	a1,a1,8
    911c:	00dd0d33          	add	s10,s10,a3
    9120:	f29ff06f          	j	9048 <_vfprintf_r+0x1c5c>
    9124:	fffc8c93          	add	s9,s9,-1
    9128:	fffb0b13          	add	s6,s6,-1
    912c:	ea1ff06f          	j	8fcc <_vfprintf_r+0x1be0>
    9130:	0c410613          	add	a2,sp,196
    9134:	00048593          	mv	a1,s1
    9138:	00090513          	mv	a0,s2
    913c:	53d000ef          	jal	9e78 <__sprint_r>
    9140:	92051e63          	bnez	a0,827c <_vfprintf_r+0xe90>
    9144:	0cc12603          	lw	a2,204(sp)
    9148:	00098593          	mv	a1,s3
    914c:	01000713          	li	a4,16
    9150:	00700813          	li	a6,7
    9154:	ea1ff06f          	j	8ff4 <_vfprintf_r+0x1c08>
    9158:	0c410613          	add	a2,sp,196
    915c:	00048593          	mv	a1,s1
    9160:	00090513          	mv	a0,s2
    9164:	515000ef          	jal	9e78 <__sprint_r>
    9168:	90051a63          	bnez	a0,827c <_vfprintf_r+0xe90>
    916c:	000cc683          	lbu	a3,0(s9)
    9170:	0cc12603          	lw	a2,204(sp)
    9174:	00098593          	mv	a1,s3
    9178:	01000713          	li	a4,16
    917c:	00700813          	li	a6,7
    9180:	eb1ff06f          	j	9030 <_vfprintf_r+0x1c44>
    9184:	04812783          	lw	a5,72(sp)
    9188:	04412583          	lw	a1,68(sp)
    918c:	03012c23          	sw	a6,56(sp)
    9190:	40f686b3          	sub	a3,a3,a5
    9194:	00078613          	mv	a2,a5
    9198:	00068513          	mv	a0,a3
    919c:	03e12423          	sw	t5,40(sp)
    91a0:	03d12223          	sw	t4,36(sp)
    91a4:	03112023          	sw	a7,32(sp)
    91a8:	00e12e23          	sw	a4,28(sp)
    91ac:	00d12823          	sw	a3,16(sp)
    91b0:	0c8030ef          	jal	c278 <strncpy>
    91b4:	016d37b3          	sltu	a5,s10,s6
    91b8:	00500613          	li	a2,5
    91bc:	00fd07b3          	add	a5,s10,a5
    91c0:	02c7f7b3          	remu	a5,a5,a2
    91c4:	01c12703          	lw	a4,28(sp)
    91c8:	ccccd337          	lui	t1,0xccccd
    91cc:	ccccd537          	lui	a0,0xccccd
    91d0:	00174583          	lbu	a1,1(a4)
    91d4:	ccd30313          	add	t1,t1,-819 # cccccccd <_end+0xcccb7a69>
    91d8:	ccc50513          	add	a0,a0,-820 # cccccccc <_end+0xcccb7a68>
    91dc:	00b035b3          	snez	a1,a1
    91e0:	00b70733          	add	a4,a4,a1
    91e4:	01012683          	lw	a3,16(sp)
    91e8:	02012883          	lw	a7,32(sp)
    91ec:	02412e83          	lw	t4,36(sp)
    91f0:	02812f03          	lw	t5,40(sp)
    91f4:	03812803          	lw	a6,56(sp)
    91f8:	00000613          	li	a2,0
    91fc:	00500e13          	li	t3,5
    9200:	40fb07b3          	sub	a5,s6,a5
    9204:	00fb35b3          	sltu	a1,s6,a5
    9208:	40bd85b3          	sub	a1,s11,a1
    920c:	02a78533          	mul	a0,a5,a0
    9210:	026585b3          	mul	a1,a1,t1
    9214:	0267bfb3          	mulhu	t6,a5,t1
    9218:	00a585b3          	add	a1,a1,a0
    921c:	02678533          	mul	a0,a5,t1
    9220:	01f585b3          	add	a1,a1,t6
    9224:	01f59793          	sll	a5,a1,0x1f
    9228:	0015d593          	srl	a1,a1,0x1
    922c:	00155513          	srl	a0,a0,0x1
    9230:	00a7e7b3          	or	a5,a5,a0
    9234:	a09ff06f          	j	8c3c <_vfprintf_r+0x1850>
    9238:	00812503          	lw	a0,8(sp)
    923c:	0c410613          	add	a2,sp,196
    9240:	00048593          	mv	a1,s1
    9244:	435000ef          	jal	9e78 <__sprint_r>
    9248:	00050463          	beqz	a0,9250 <_vfprintf_r+0x1e64>
    924c:	830ff06f          	j	827c <_vfprintf_r+0xe90>
    9250:	0ac12503          	lw	a0,172(sp)
    9254:	0cc12603          	lw	a2,204(sp)
    9258:	00098413          	mv	s0,s3
    925c:	ab1ff06f          	j	8d0c <_vfprintf_r+0x1920>
    9260:	000117b7          	lui	a5,0x11
    9264:	70078d13          	add	s10,a5,1792 # 11700 <_getpid_r+0x5e4>
    9268:	ba1ff06f          	j	8e08 <_vfprintf_r+0x1a1c>
    926c:	00812503          	lw	a0,8(sp)
    9270:	0c410613          	add	a2,sp,196
    9274:	00048593          	mv	a1,s1
    9278:	401000ef          	jal	9e78 <__sprint_r>
    927c:	00050463          	beqz	a0,9284 <_vfprintf_r+0x1e98>
    9280:	ffdfe06f          	j	827c <_vfprintf_r+0xe90>
    9284:	0cc12603          	lw	a2,204(sp)
    9288:	00098413          	mv	s0,s3
    928c:	a4cff06f          	j	84d8 <_vfprintf_r+0x10ec>
    9290:	00600b13          	li	s6,6
    9294:	df0ff06f          	j	8884 <_vfprintf_r+0x1498>
    9298:	01412783          	lw	a5,20(sp)
    929c:	00c12703          	lw	a4,12(sp)
    92a0:	0007a783          	lw	a5,0(a5)
    92a4:	00e79023          	sh	a4,0(a5)
    92a8:	b79fe06f          	j	7e20 <_vfprintf_r+0xa34>
    92ac:	018b1b13          	sll	s6,s6,0x18
    92b0:	418b5b13          	sra	s6,s6,0x18
    92b4:	41fb5d93          	sra	s11,s6,0x1f
    92b8:	000d8793          	mv	a5,s11
    92bc:	d90fe06f          	j	784c <_vfprintf_r+0x460>
    92c0:	0ffb7b13          	zext.b	s6,s6
    92c4:	00000d93          	li	s11,0
    92c8:	d2cff06f          	j	87f4 <_vfprintf_r+0x1408>
    92cc:	0ffb7b13          	zext.b	s6,s6
    92d0:	00000d93          	li	s11,0
    92d4:	df4fe06f          	j	78c8 <_vfprintf_r+0x4dc>
    92d8:	02d00793          	li	a5,45
    92dc:	0af103a3          	sb	a5,167(sp)
    92e0:	02d00713          	li	a4,45
    92e4:	c31ff06f          	j	8f14 <_vfprintf_r+0x1b28>
    92e8:	00812503          	lw	a0,8(sp)
    92ec:	0c410613          	add	a2,sp,196
    92f0:	00048593          	mv	a1,s1
    92f4:	385000ef          	jal	9e78 <__sprint_r>
    92f8:	c40fe06f          	j	7738 <_vfprintf_r+0x34c>
    92fc:	00812503          	lw	a0,8(sp)
    9300:	0c410613          	add	a2,sp,196
    9304:	00048593          	mv	a1,s1
    9308:	371000ef          	jal	9e78 <__sprint_r>
    930c:	00050463          	beqz	a0,9314 <_vfprintf_r+0x1f28>
    9310:	f6dfe06f          	j	827c <_vfprintf_r+0xe90>
    9314:	0ac12503          	lw	a0,172(sp)
    9318:	0cc12603          	lw	a2,204(sp)
    931c:	0c812703          	lw	a4,200(sp)
    9320:	00098413          	mv	s0,s3
    9324:	b55ff06f          	j	8e78 <_vfprintf_r+0x1a8c>
    9328:	01550733          	add	a4,a0,s5
    932c:	04700613          	li	a2,71
    9330:	08010593          	add	a1,sp,128
    9334:	000b0513          	mv	a0,s6
    9338:	02e12223          	sw	a4,36(sp)
    933c:	02c12023          	sw	a2,32(sp)
    9340:	01112e23          	sw	a7,28(sp)
    9344:	09f12823          	sw	t6,144(sp)
    9348:	09e12a23          	sw	t5,148(sp)
    934c:	09d12c23          	sw	t4,152(sp)
    9350:	09812e23          	sw	s8,156(sp)
    9354:	08012023          	sw	zero,128(sp)
    9358:	08012223          	sw	zero,132(sp)
    935c:	08012423          	sw	zero,136(sp)
    9360:	08012623          	sw	zero,140(sp)
    9364:	afcf90ef          	jal	2660 <__eqtf2>
    9368:	01c12883          	lw	a7,28(sp)
    936c:	02012603          	lw	a2,32(sp)
    9370:	02412703          	lw	a4,36(sp)
    9374:	54050c63          	beqz	a0,98cc <_vfprintf_r+0x24e0>
    9378:	0bc12783          	lw	a5,188(sp)
    937c:	00e7fe63          	bgeu	a5,a4,9398 <_vfprintf_r+0x1fac>
    9380:	03000593          	li	a1,48
    9384:	00178693          	add	a3,a5,1
    9388:	0ad12e23          	sw	a3,188(sp)
    938c:	00b78023          	sb	a1,0(a5)
    9390:	0bc12783          	lw	a5,188(sp)
    9394:	fee7e8e3          	bltu	a5,a4,9384 <_vfprintf_r+0x1f98>
    9398:	0ac12703          	lw	a4,172(sp)
    939c:	00e12e23          	sw	a4,28(sp)
    93a0:	41a787b3          	sub	a5,a5,s10
    93a4:	04700713          	li	a4,71
    93a8:	02f12023          	sw	a5,32(sp)
    93ac:	e6e60a63          	beq	a2,a4,8a20 <_vfprintf_r+0x1634>
    93b0:	04600713          	li	a4,70
    93b4:	5ae60c63          	beq	a2,a4,996c <_vfprintf_r+0x2580>
    93b8:	01c12783          	lw	a5,28(sp)
    93bc:	fff78713          	add	a4,a5,-1
    93c0:	e7cff06f          	j	8a3c <_vfprintf_r+0x1650>
    93c4:	001a8693          	add	a3,s5,1
    93c8:	00200613          	li	a2,2
    93cc:	00812503          	lw	a0,8(sp)
    93d0:	09010b13          	add	s6,sp,144
    93d4:	0ac10713          	add	a4,sp,172
    93d8:	000b0593          	mv	a1,s6
    93dc:	0bc10813          	add	a6,sp,188
    93e0:	0b010793          	add	a5,sp,176
    93e4:	05112823          	sw	a7,80(sp)
    93e8:	02d12423          	sw	a3,40(sp)
    93ec:	09f12823          	sw	t6,144(sp)
    93f0:	03f12223          	sw	t6,36(sp)
    93f4:	09e12a23          	sw	t5,148(sp)
    93f8:	03e12023          	sw	t5,32(sp)
    93fc:	09d12c23          	sw	t4,152(sp)
    9400:	01d12e23          	sw	t4,28(sp)
    9404:	09812e23          	sw	s8,156(sp)
    9408:	574030ef          	jal	c97c <_ldtoa_r>
    940c:	05012883          	lw	a7,80(sp)
    9410:	02812683          	lw	a3,40(sp)
    9414:	04600593          	li	a1,70
    9418:	fdf8f613          	and	a2,a7,-33
    941c:	01c12e83          	lw	t4,28(sp)
    9420:	02012f03          	lw	t5,32(sp)
    9424:	02412f83          	lw	t6,36(sp)
    9428:	00050d13          	mv	s10,a0
    942c:	00d50733          	add	a4,a0,a3
    9430:	02b612e3          	bne	a2,a1,9c54 <_vfprintf_r+0x2868>
    9434:	000d4503          	lbu	a0,0(s10)
    9438:	03000593          	li	a1,48
    943c:	4ab50663          	beq	a0,a1,98e8 <_vfprintf_r+0x24fc>
    9440:	0ac12683          	lw	a3,172(sp)
    9444:	08010593          	add	a1,sp,128
    9448:	00d70733          	add	a4,a4,a3
    944c:	ee9ff06f          	j	9334 <_vfprintf_r+0x1f48>
    9450:	09010b13          	add	s6,sp,144
    9454:	08010593          	add	a1,sp,128
    9458:	0ac10613          	add	a2,sp,172
    945c:	000b0513          	mv	a0,s6
    9460:	05112023          	sw	a7,64(sp)
    9464:	09f12023          	sw	t6,128(sp)
    9468:	09e12223          	sw	t5,132(sp)
    946c:	09d12423          	sw	t4,136(sp)
    9470:	00b12e23          	sw	a1,28(sp)
    9474:	09812623          	sw	s8,140(sp)
    9478:	2e4030ef          	jal	c75c <frexpl>
    947c:	09012703          	lw	a4,144(sp)
    9480:	01c12583          	lw	a1,28(sp)
    9484:	07010613          	add	a2,sp,112
    9488:	08e12023          	sw	a4,128(sp)
    948c:	09412703          	lw	a4,148(sp)
    9490:	000b0513          	mv	a0,s6
    9494:	06012823          	sw	zero,112(sp)
    9498:	08e12223          	sw	a4,132(sp)
    949c:	09812703          	lw	a4,152(sp)
    94a0:	06012a23          	sw	zero,116(sp)
    94a4:	06012c23          	sw	zero,120(sp)
    94a8:	08e12423          	sw	a4,136(sp)
    94ac:	09c12703          	lw	a4,156(sp)
    94b0:	08e12623          	sw	a4,140(sp)
    94b4:	3ffc0737          	lui	a4,0x3ffc0
    94b8:	06e12e23          	sw	a4,124(sp)
    94bc:	cd0f90ef          	jal	298c <__multf3>
    94c0:	01c12583          	lw	a1,28(sp)
    94c4:	09012f03          	lw	t5,144(sp)
    94c8:	09412e83          	lw	t4,148(sp)
    94cc:	09812803          	lw	a6,152(sp)
    94d0:	000b0513          	mv	a0,s6
    94d4:	02b12423          	sw	a1,40(sp)
    94d8:	03e12223          	sw	t5,36(sp)
    94dc:	03d12023          	sw	t4,32(sp)
    94e0:	01012e23          	sw	a6,28(sp)
    94e4:	08012023          	sw	zero,128(sp)
    94e8:	08012223          	sw	zero,132(sp)
    94ec:	08012423          	sw	zero,136(sp)
    94f0:	08012623          	sw	zero,140(sp)
    94f4:	96cf90ef          	jal	2660 <__eqtf2>
    94f8:	09c12d83          	lw	s11,156(sp)
    94fc:	01c12803          	lw	a6,28(sp)
    9500:	02012e83          	lw	t4,32(sp)
    9504:	02412f03          	lw	t5,36(sp)
    9508:	02812583          	lw	a1,40(sp)
    950c:	04012883          	lw	a7,64(sp)
    9510:	00051663          	bnez	a0,951c <_vfprintf_r+0x2130>
    9514:	00100713          	li	a4,1
    9518:	0ae12623          	sw	a4,172(sp)
    951c:	06100713          	li	a4,97
    9520:	6ae88063          	beq	a7,a4,9bc0 <_vfprintf_r+0x27d4>
    9524:	00011737          	lui	a4,0x11
    9528:	72470793          	add	a5,a4,1828 # 11724 <_getpid_r+0x608>
    952c:	00f12e23          	sw	a5,28(sp)
    9530:	03212023          	sw	s2,32(sp)
    9534:	03912423          	sw	s9,40(sp)
    9538:	05712023          	sw	s7,64(sp)
    953c:	04812623          	sw	s0,76(sp)
    9540:	000d0913          	mv	s2,s10
    9544:	04912823          	sw	s1,80(sp)
    9548:	05a12a23          	sw	s10,84(sp)
    954c:	01c12483          	lw	s1,28(sp)
    9550:	fffa8a93          	add	s5,s5,-1
    9554:	03112223          	sw	a7,36(sp)
    9558:	000f0b93          	mv	s7,t5
    955c:	000e8c13          	mv	s8,t4
    9560:	00080c93          	mv	s9,a6
    9564:	000d8d13          	mv	s10,s11
    9568:	00058413          	mv	s0,a1
    956c:	03c0006f          	j	95a8 <_vfprintf_r+0x21bc>
    9570:	00040593          	mv	a1,s0
    9574:	000b0513          	mv	a0,s6
    9578:	09712823          	sw	s7,144(sp)
    957c:	09812a23          	sw	s8,148(sp)
    9580:	09912c23          	sw	s9,152(sp)
    9584:	09a12e23          	sw	s10,156(sp)
    9588:	08012023          	sw	zero,128(sp)
    958c:	08012223          	sw	zero,132(sp)
    9590:	08012423          	sw	zero,136(sp)
    9594:	08012623          	sw	zero,140(sp)
    9598:	fffa8d93          	add	s11,s5,-1
    959c:	8c4f90ef          	jal	2660 <__eqtf2>
    95a0:	5c050663          	beqz	a0,9b6c <_vfprintf_r+0x2780>
    95a4:	000d8a93          	mv	s5,s11
    95a8:	400307b7          	lui	a5,0x40030
    95ac:	07010613          	add	a2,sp,112
    95b0:	00040593          	mv	a1,s0
    95b4:	000b0513          	mv	a0,s6
    95b8:	06f12e23          	sw	a5,124(sp)
    95bc:	09712023          	sw	s7,128(sp)
    95c0:	09812223          	sw	s8,132(sp)
    95c4:	09912423          	sw	s9,136(sp)
    95c8:	09a12623          	sw	s10,140(sp)
    95cc:	06012823          	sw	zero,112(sp)
    95d0:	06012a23          	sw	zero,116(sp)
    95d4:	06012c23          	sw	zero,120(sp)
    95d8:	bb4f90ef          	jal	298c <__multf3>
    95dc:	000b0513          	mv	a0,s6
    95e0:	8cdfb0ef          	jal	4eac <__fixtfsi>
    95e4:	00050593          	mv	a1,a0
    95e8:	00050d93          	mv	s11,a0
    95ec:	000b0513          	mv	a0,s6
    95f0:	09012d03          	lw	s10,144(sp)
    95f4:	09412c83          	lw	s9,148(sp)
    95f8:	09812c03          	lw	s8,152(sp)
    95fc:	09c12b83          	lw	s7,156(sp)
    9600:	9a5fb0ef          	jal	4fa4 <__floatsitf>
    9604:	09012683          	lw	a3,144(sp)
    9608:	06010613          	add	a2,sp,96
    960c:	07010593          	add	a1,sp,112
    9610:	06d12023          	sw	a3,96(sp)
    9614:	09412683          	lw	a3,148(sp)
    9618:	00040513          	mv	a0,s0
    961c:	07a12823          	sw	s10,112(sp)
    9620:	06d12223          	sw	a3,100(sp)
    9624:	09812683          	lw	a3,152(sp)
    9628:	07912a23          	sw	s9,116(sp)
    962c:	07812c23          	sw	s8,120(sp)
    9630:	06d12423          	sw	a3,104(sp)
    9634:	09c12683          	lw	a3,156(sp)
    9638:	07712e23          	sw	s7,124(sp)
    963c:	06d12623          	sw	a3,108(sp)
    9640:	b50fa0ef          	jal	3990 <__subtf3>
    9644:	01b486b3          	add	a3,s1,s11
    9648:	0006c603          	lbu	a2,0(a3)
    964c:	00090f93          	mv	t6,s2
    9650:	00190913          	add	s2,s2,1
    9654:	08012b83          	lw	s7,128(sp)
    9658:	08412c03          	lw	s8,132(sp)
    965c:	08812c83          	lw	s9,136(sp)
    9660:	08c12d03          	lw	s10,140(sp)
    9664:	fff00793          	li	a5,-1
    9668:	fec90fa3          	sb	a2,-1(s2)
    966c:	f0fa92e3          	bne	s5,a5,9570 <_vfprintf_r+0x2184>
    9670:	000b8f13          	mv	t5,s7
    9674:	000c0e93          	mv	t4,s8
    9678:	000c8813          	mv	a6,s9
    967c:	00040593          	mv	a1,s0
    9680:	05b12c23          	sw	s11,88(sp)
    9684:	3ffe0ab7          	lui	s5,0x3ffe0
    9688:	000d0d93          	mv	s11,s10
    968c:	000b0513          	mv	a0,s6
    9690:	05f12e23          	sw	t6,92(sp)
    9694:	05012483          	lw	s1,80(sp)
    9698:	04012b83          	lw	s7,64(sp)
    969c:	02812c83          	lw	s9,40(sp)
    96a0:	04c12403          	lw	s0,76(sp)
    96a4:	09e12823          	sw	t5,144(sp)
    96a8:	05e12823          	sw	t5,80(sp)
    96ac:	09d12a23          	sw	t4,148(sp)
    96b0:	05d12623          	sw	t4,76(sp)
    96b4:	09012c23          	sw	a6,152(sp)
    96b8:	05012023          	sw	a6,64(sp)
    96bc:	09b12e23          	sw	s11,156(sp)
    96c0:	08012023          	sw	zero,128(sp)
    96c4:	08012223          	sw	zero,132(sp)
    96c8:	08012423          	sw	zero,136(sp)
    96cc:	09512623          	sw	s5,140(sp)
    96d0:	02b12423          	sw	a1,40(sp)
    96d4:	858f90ef          	jal	272c <__getf2>
    96d8:	00090c13          	mv	s8,s2
    96dc:	05412d03          	lw	s10,84(sp)
    96e0:	02012903          	lw	s2,32(sp)
    96e4:	02412883          	lw	a7,36(sp)
    96e8:	05c12f83          	lw	t6,92(sp)
    96ec:	02a04663          	bgtz	a0,9718 <_vfprintf_r+0x232c>
    96f0:	02812583          	lw	a1,40(sp)
    96f4:	000b0513          	mv	a0,s6
    96f8:	03f12023          	sw	t6,32(sp)
    96fc:	f65f80ef          	jal	2660 <__eqtf2>
    9700:	02412883          	lw	a7,36(sp)
    9704:	04051e63          	bnez	a0,9760 <_vfprintf_r+0x2374>
    9708:	05812783          	lw	a5,88(sp)
    970c:	02012f83          	lw	t6,32(sp)
    9710:	0017f693          	and	a3,a5,1
    9714:	04068663          	beqz	a3,9760 <_vfprintf_r+0x2374>
    9718:	01c12783          	lw	a5,28(sp)
    971c:	0bf12e23          	sw	t6,188(sp)
    9720:	fffc4603          	lbu	a2,-1(s8)
    9724:	00f7c583          	lbu	a1,15(a5) # 4003000f <_end+0x4001adab>
    9728:	000c0693          	mv	a3,s8
    972c:	02b61063          	bne	a2,a1,974c <_vfprintf_r+0x2360>
    9730:	03000513          	li	a0,48
    9734:	fea68fa3          	sb	a0,-1(a3)
    9738:	0bc12683          	lw	a3,188(sp)
    973c:	fff68793          	add	a5,a3,-1
    9740:	0af12e23          	sw	a5,188(sp)
    9744:	fff6c603          	lbu	a2,-1(a3)
    9748:	fec586e3          	beq	a1,a2,9734 <_vfprintf_r+0x2348>
    974c:	00160593          	add	a1,a2,1
    9750:	03900513          	li	a0,57
    9754:	0ff5f593          	zext.b	a1,a1
    9758:	04a60463          	beq	a2,a0,97a0 <_vfprintf_r+0x23b4>
    975c:	feb68fa3          	sb	a1,-1(a3)
    9760:	0ac12783          	lw	a5,172(sp)
    9764:	41ac0733          	sub	a4,s8,s10
    9768:	02e12023          	sw	a4,32(sp)
    976c:	fff78713          	add	a4,a5,-1
    9770:	00f12e23          	sw	a5,28(sp)
    9774:	06100613          	li	a2,97
    9778:	0ae12623          	sw	a4,172(sp)
    977c:	07000693          	li	a3,112
    9780:	00c88663          	beq	a7,a2,978c <_vfprintf_r+0x23a0>
    9784:	05000693          	li	a3,80
    9788:	04100893          	li	a7,65
    978c:	00100613          	li	a2,1
    9790:	ab8ff06f          	j	8a48 <_vfprintf_r+0x165c>
    9794:	000a8693          	mv	a3,s5
    9798:	00300613          	li	a2,3
    979c:	c31ff06f          	j	93cc <_vfprintf_r+0x1fe0>
    97a0:	01c12783          	lw	a5,28(sp)
    97a4:	00a7c583          	lbu	a1,10(a5)
    97a8:	fb5ff06f          	j	975c <_vfprintf_r+0x2370>
    97ac:	0a714703          	lbu	a4,167(sp)
    97b0:	04c12c83          	lw	s9,76(sp)
    97b4:	00000a93          	li	s5,0
    97b8:	00070463          	beqz	a4,97c0 <_vfprintf_r+0x23d4>
    97bc:	8dcfe06f          	j	7898 <_vfprintf_r+0x4ac>
    97c0:	e4dfd06f          	j	760c <_vfprintf_r+0x220>
    97c4:	02012783          	lw	a5,32(sp)
    97c8:	01c12703          	lw	a4,28(sp)
    97cc:	1cf74a63          	blt	a4,a5,99a0 <_vfprintf_r+0x25b4>
    97d0:	01c12783          	lw	a5,28(sp)
    97d4:	001cf713          	and	a4,s9,1
    97d8:	00078b13          	mv	s6,a5
    97dc:	00070663          	beqz	a4,97e8 <_vfprintf_r+0x23fc>
    97e0:	02c12703          	lw	a4,44(sp)
    97e4:	00e78b33          	add	s6,a5,a4
    97e8:	400cfe13          	and	t3,s9,1024
    97ec:	000e0663          	beqz	t3,97f8 <_vfprintf_r+0x240c>
    97f0:	01c12783          	lw	a5,28(sp)
    97f4:	2ef04c63          	bgtz	a5,9aec <_vfprintf_r+0x2700>
    97f8:	fffb4693          	not	a3,s6
    97fc:	41f6d693          	sra	a3,a3,0x1f
    9800:	00db7db3          	and	s11,s6,a3
    9804:	06700893          	li	a7,103
    9808:	02012423          	sw	zero,40(sp)
    980c:	02012223          	sw	zero,36(sp)
    9810:	b14ff06f          	j	8b24 <_vfprintf_r+0x1738>
    9814:	0c410613          	add	a2,sp,196
    9818:	00048593          	mv	a1,s1
    981c:	00090513          	mv	a0,s2
    9820:	658000ef          	jal	9e78 <__sprint_r>
    9824:	00050463          	beqz	a0,982c <_vfprintf_r+0x2440>
    9828:	a55fe06f          	j	827c <_vfprintf_r+0xe90>
    982c:	000cc683          	lbu	a3,0(s9)
    9830:	0cc12603          	lw	a2,204(sp)
    9834:	00098593          	mv	a1,s3
    9838:	01000713          	li	a4,16
    983c:	00700813          	li	a6,7
    9840:	00dd0d33          	add	s10,s10,a3
    9844:	805ff06f          	j	9048 <_vfprintf_r+0x1c5c>
    9848:	00900513          	li	a0,9
    984c:	bf656863          	bltu	a0,s6,8c3c <_vfprintf_r+0x1850>
    9850:	c6cff06f          	j	8cbc <_vfprintf_r+0x18d0>
    9854:	02d00793          	li	a5,45
    9858:	0af103a3          	sb	a5,167(sp)
    985c:	02d00713          	li	a4,45
    9860:	d98ff06f          	j	8df8 <_vfprintf_r+0x1a0c>
    9864:	0a714703          	lbu	a4,167(sp)
    9868:	01812a23          	sw	s8,20(sp)
    986c:	02012423          	sw	zero,40(sp)
    9870:	02012223          	sw	zero,36(sp)
    9874:	00012e23          	sw	zero,28(sp)
    9878:	000a8d93          	mv	s11,s5
    987c:	000a8b13          	mv	s6,s5
    9880:	00000a93          	li	s5,0
    9884:	00070463          	beqz	a4,988c <_vfprintf_r+0x24a0>
    9888:	810fe06f          	j	7898 <_vfprintf_r+0x4ac>
    988c:	d81fd06f          	j	760c <_vfprintf_r+0x220>
    9890:	000117b7          	lui	a5,0x11
    9894:	70c78d13          	add	s10,a5,1804 # 1170c <_getpid_r+0x5f0>
    9898:	d70ff06f          	j	8e08 <_vfprintf_r+0x1a1c>
    989c:	00812503          	lw	a0,8(sp)
    98a0:	0c410613          	add	a2,sp,196
    98a4:	00048593          	mv	a1,s1
    98a8:	5d0000ef          	jal	9e78 <__sprint_r>
    98ac:	00050463          	beqz	a0,98b4 <_vfprintf_r+0x24c8>
    98b0:	9cdfe06f          	j	827c <_vfprintf_r+0xe90>
    98b4:	0ac12a83          	lw	s5,172(sp)
    98b8:	02012783          	lw	a5,32(sp)
    98bc:	0cc12603          	lw	a2,204(sp)
    98c0:	00098413          	mv	s0,s3
    98c4:	41578ab3          	sub	s5,a5,s5
    98c8:	c95fe06f          	j	855c <_vfprintf_r+0x1170>
    98cc:	0ac12783          	lw	a5,172(sp)
    98d0:	00f12e23          	sw	a5,28(sp)
    98d4:	00070793          	mv	a5,a4
    98d8:	ac9ff06f          	j	93a0 <_vfprintf_r+0x1fb4>
    98dc:	fff00793          	li	a5,-1
    98e0:	00f12623          	sw	a5,12(sp)
    98e4:	e89fd06f          	j	776c <_vfprintf_r+0x380>
    98e8:	08010593          	add	a1,sp,128
    98ec:	000b0513          	mv	a0,s6
    98f0:	04e12e23          	sw	a4,92(sp)
    98f4:	04c12c23          	sw	a2,88(sp)
    98f8:	05112a23          	sw	a7,84(sp)
    98fc:	04d12823          	sw	a3,80(sp)
    9900:	09f12823          	sw	t6,144(sp)
    9904:	03f12423          	sw	t6,40(sp)
    9908:	09e12a23          	sw	t5,148(sp)
    990c:	03e12223          	sw	t5,36(sp)
    9910:	09d12c23          	sw	t4,152(sp)
    9914:	03d12023          	sw	t4,32(sp)
    9918:	00b12e23          	sw	a1,28(sp)
    991c:	09812e23          	sw	s8,156(sp)
    9920:	08012023          	sw	zero,128(sp)
    9924:	08012223          	sw	zero,132(sp)
    9928:	08012423          	sw	zero,136(sp)
    992c:	08012623          	sw	zero,140(sp)
    9930:	d31f80ef          	jal	2660 <__eqtf2>
    9934:	01c12583          	lw	a1,28(sp)
    9938:	02012e83          	lw	t4,32(sp)
    993c:	02412f03          	lw	t5,36(sp)
    9940:	02812f83          	lw	t6,40(sp)
    9944:	05012683          	lw	a3,80(sp)
    9948:	05412883          	lw	a7,84(sp)
    994c:	05812603          	lw	a2,88(sp)
    9950:	05c12703          	lw	a4,92(sp)
    9954:	26051e63          	bnez	a0,9bd0 <_vfprintf_r+0x27e4>
    9958:	0ac12783          	lw	a5,172(sp)
    995c:	00f70733          	add	a4,a4,a5
    9960:	00f12e23          	sw	a5,28(sp)
    9964:	41a707b3          	sub	a5,a4,s10
    9968:	02f12023          	sw	a5,32(sp)
    996c:	01c12783          	lw	a5,28(sp)
    9970:	001cf713          	and	a4,s9,1
    9974:	01576733          	or	a4,a4,s5
    9978:	26f05663          	blez	a5,9be4 <_vfprintf_r+0x27f8>
    997c:	22071863          	bnez	a4,9bac <_vfprintf_r+0x27c0>
    9980:	01c12b03          	lw	s6,28(sp)
    9984:	06600893          	li	a7,102
    9988:	400cfe13          	and	t3,s9,1024
    998c:	160e1263          	bnez	t3,9af0 <_vfprintf_r+0x2704>
    9990:	fffb4693          	not	a3,s6
    9994:	41f6d693          	sra	a3,a3,0x1f
    9998:	00db7db3          	and	s11,s6,a3
    999c:	e6dff06f          	j	9808 <_vfprintf_r+0x241c>
    99a0:	02012783          	lw	a5,32(sp)
    99a4:	02c12703          	lw	a4,44(sp)
    99a8:	06700893          	li	a7,103
    99ac:	00e78b33          	add	s6,a5,a4
    99b0:	01c12783          	lw	a5,28(sp)
    99b4:	fcf04ae3          	bgtz	a5,9988 <_vfprintf_r+0x259c>
    99b8:	40fb0f33          	sub	t5,s6,a5
    99bc:	001f0b13          	add	s6,t5,1
    99c0:	fffb4693          	not	a3,s6
    99c4:	41f6d693          	sra	a3,a3,0x1f
    99c8:	00db7db3          	and	s11,s6,a3
    99cc:	e3dff06f          	j	9808 <_vfprintf_r+0x241c>
    99d0:	00012837          	lui	a6,0x12
    99d4:	ff000593          	li	a1,-16
    99d8:	40a00ab3          	neg	s5,a0
    99dc:	a0c80813          	add	a6,a6,-1524 # 11a0c <zeroes.0>
    99e0:	06b55c63          	bge	a0,a1,9a58 <_vfprintf_r+0x266c>
    99e4:	01212e23          	sw	s2,28(sp)
    99e8:	01000b13          	li	s6,16
    99ec:	00700c13          	li	s8,7
    99f0:	00080913          	mv	s2,a6
    99f4:	00c0006f          	j	9a00 <_vfprintf_r+0x2614>
    99f8:	ff0a8a93          	add	s5,s5,-16 # 3ffdfff0 <_end+0x3ffcad8c>
    99fc:	055b5a63          	bge	s6,s5,9a50 <_vfprintf_r+0x2664>
    9a00:	01060613          	add	a2,a2,16
    9a04:	00170713          	add	a4,a4,1
    9a08:	01242023          	sw	s2,0(s0)
    9a0c:	01642223          	sw	s6,4(s0)
    9a10:	0cc12623          	sw	a2,204(sp)
    9a14:	0ce12423          	sw	a4,200(sp)
    9a18:	00840413          	add	s0,s0,8
    9a1c:	fcec5ee3          	bge	s8,a4,99f8 <_vfprintf_r+0x260c>
    9a20:	00812503          	lw	a0,8(sp)
    9a24:	0c410613          	add	a2,sp,196
    9a28:	00048593          	mv	a1,s1
    9a2c:	44c000ef          	jal	9e78 <__sprint_r>
    9a30:	00050463          	beqz	a0,9a38 <_vfprintf_r+0x264c>
    9a34:	849fe06f          	j	827c <_vfprintf_r+0xe90>
    9a38:	0cc12603          	lw	a2,204(sp)
    9a3c:	0c812703          	lw	a4,200(sp)
    9a40:	00098413          	mv	s0,s3
    9a44:	fb5ff06f          	j	99f8 <_vfprintf_r+0x260c>
    9a48:	000c8e93          	mv	t4,s9
    9a4c:	afcfe06f          	j	7d48 <_vfprintf_r+0x95c>
    9a50:	00090813          	mv	a6,s2
    9a54:	01c12903          	lw	s2,28(sp)
    9a58:	01560633          	add	a2,a2,s5
    9a5c:	00170713          	add	a4,a4,1
    9a60:	01042023          	sw	a6,0(s0)
    9a64:	01542223          	sw	s5,4(s0)
    9a68:	0cc12623          	sw	a2,204(sp)
    9a6c:	0ce12423          	sw	a4,200(sp)
    9a70:	00700593          	li	a1,7
    9a74:	ace5de63          	bge	a1,a4,8d50 <_vfprintf_r+0x1964>
    9a78:	00812503          	lw	a0,8(sp)
    9a7c:	0c410613          	add	a2,sp,196
    9a80:	00048593          	mv	a1,s1
    9a84:	3f4000ef          	jal	9e78 <__sprint_r>
    9a88:	00050463          	beqz	a0,9a90 <_vfprintf_r+0x26a4>
    9a8c:	ff0fe06f          	j	827c <_vfprintf_r+0xe90>
    9a90:	0cc12603          	lw	a2,204(sp)
    9a94:	0c812703          	lw	a4,200(sp)
    9a98:	00098413          	mv	s0,s3
    9a9c:	be0ff06f          	j	8e7c <_vfprintf_r+0x1a90>
    9aa0:	0b610693          	add	a3,sp,182
    9aa4:	00061863          	bnez	a2,9ab4 <_vfprintf_r+0x26c8>
    9aa8:	03000693          	li	a3,48
    9aac:	0ad10b23          	sb	a3,182(sp)
    9ab0:	0b710693          	add	a3,sp,183
    9ab4:	19010793          	add	a5,sp,400
    9ab8:	40f68633          	sub	a2,a3,a5
    9abc:	03070713          	add	a4,a4,48
    9ac0:	0dd60793          	add	a5,a2,221
    9ac4:	00e68023          	sb	a4,0(a3)
    9ac8:	04f12023          	sw	a5,64(sp)
    9acc:	814ff06f          	j	8ae0 <_vfprintf_r+0x16f4>
    9ad0:	00012823          	sw	zero,16(sp)
    9ad4:	00600a93          	li	s5,6
    9ad8:	f1dfd06f          	j	79f4 <_vfprintf_r+0x608>
    9adc:	001cf713          	and	a4,s9,1
    9ae0:	00071463          	bnez	a4,9ae8 <_vfprintf_r+0x26fc>
    9ae4:	81cff06f          	j	8b00 <_vfprintf_r+0x1714>
    9ae8:	810ff06f          	j	8af8 <_vfprintf_r+0x170c>
    9aec:	06700893          	li	a7,103
    9af0:	03c12603          	lw	a2,60(sp)
    9af4:	0ff00693          	li	a3,255
    9af8:	00064703          	lbu	a4,0(a2)
    9afc:	14d70663          	beq	a4,a3,9c48 <_vfprintf_r+0x285c>
    9b00:	01c12783          	lw	a5,28(sp)
    9b04:	00000513          	li	a0,0
    9b08:	00000593          	li	a1,0
    9b0c:	00f75e63          	bge	a4,a5,9b28 <_vfprintf_r+0x273c>
    9b10:	40e787b3          	sub	a5,a5,a4
    9b14:	00164703          	lbu	a4,1(a2)
    9b18:	04070463          	beqz	a4,9b60 <_vfprintf_r+0x2774>
    9b1c:	00158593          	add	a1,a1,1
    9b20:	00160613          	add	a2,a2,1
    9b24:	fed714e3          	bne	a4,a3,9b0c <_vfprintf_r+0x2720>
    9b28:	02c12e23          	sw	a2,60(sp)
    9b2c:	02b12223          	sw	a1,36(sp)
    9b30:	02a12423          	sw	a0,40(sp)
    9b34:	00f12e23          	sw	a5,28(sp)
    9b38:	02812783          	lw	a5,40(sp)
    9b3c:	02412703          	lw	a4,36(sp)
    9b40:	00e78733          	add	a4,a5,a4
    9b44:	04812783          	lw	a5,72(sp)
    9b48:	02f70733          	mul	a4,a4,a5
    9b4c:	01670b33          	add	s6,a4,s6
    9b50:	fffb4693          	not	a3,s6
    9b54:	41f6d693          	sra	a3,a3,0x1f
    9b58:	00db7db3          	and	s11,s6,a3
    9b5c:	fc9fe06f          	j	8b24 <_vfprintf_r+0x1738>
    9b60:	00064703          	lbu	a4,0(a2)
    9b64:	00150513          	add	a0,a0,1
    9b68:	fbdff06f          	j	9b24 <_vfprintf_r+0x2738>
    9b6c:	00090c13          	mv	s8,s2
    9b70:	001a8693          	add	a3,s5,1
    9b74:	02412883          	lw	a7,36(sp)
    9b78:	02812c83          	lw	s9,40(sp)
    9b7c:	04012b83          	lw	s7,64(sp)
    9b80:	04c12403          	lw	s0,76(sp)
    9b84:	02012903          	lw	s2,32(sp)
    9b88:	05012483          	lw	s1,80(sp)
    9b8c:	05412d03          	lw	s10,84(sp)
    9b90:	00dc06b3          	add	a3,s8,a3
    9b94:	03000613          	li	a2,48
    9b98:	bc0ac4e3          	bltz	s5,9760 <_vfprintf_r+0x2374>
    9b9c:	001c0c13          	add	s8,s8,1
    9ba0:	fecc0fa3          	sb	a2,-1(s8)
    9ba4:	ff869ce3          	bne	a3,s8,9b9c <_vfprintf_r+0x27b0>
    9ba8:	bb9ff06f          	j	9760 <_vfprintf_r+0x2374>
    9bac:	02c12703          	lw	a4,44(sp)
    9bb0:	06600893          	li	a7,102
    9bb4:	00ea8f33          	add	t5,s5,a4
    9bb8:	00ff0b33          	add	s6,t5,a5
    9bbc:	dcdff06f          	j	9988 <_vfprintf_r+0x259c>
    9bc0:	00011737          	lui	a4,0x11
    9bc4:	71070793          	add	a5,a4,1808 # 11710 <_getpid_r+0x5f4>
    9bc8:	00f12e23          	sw	a5,28(sp)
    9bcc:	965ff06f          	j	9530 <_vfprintf_r+0x2144>
    9bd0:	00100513          	li	a0,1
    9bd4:	40d506b3          	sub	a3,a0,a3
    9bd8:	0ad12623          	sw	a3,172(sp)
    9bdc:	00d70733          	add	a4,a4,a3
    9be0:	f54ff06f          	j	9334 <_vfprintf_r+0x1f48>
    9be4:	00071a63          	bnez	a4,9bf8 <_vfprintf_r+0x280c>
    9be8:	00100d93          	li	s11,1
    9bec:	06600893          	li	a7,102
    9bf0:	00100b13          	li	s6,1
    9bf4:	c15ff06f          	j	9808 <_vfprintf_r+0x241c>
    9bf8:	02c12783          	lw	a5,44(sp)
    9bfc:	06600893          	li	a7,102
    9c00:	00178f13          	add	t5,a5,1
    9c04:	015f0b33          	add	s6,t5,s5
    9c08:	fffb4693          	not	a3,s6
    9c0c:	41f6d693          	sra	a3,a3,0x1f
    9c10:	00db7db3          	and	s11,s6,a3
    9c14:	bf5ff06f          	j	9808 <_vfprintf_r+0x241c>
    9c18:	00200793          	li	a5,2
    9c1c:	04f12023          	sw	a5,64(sp)
    9c20:	ec1fe06f          	j	8ae0 <_vfprintf_r+0x16f4>
    9c24:	01412783          	lw	a5,20(sp)
    9c28:	0007aa83          	lw	s5,0(a5)
    9c2c:	00478793          	add	a5,a5,4
    9c30:	000ad463          	bgez	s5,9c38 <_vfprintf_r+0x284c>
    9c34:	fff00a93          	li	s5,-1
    9c38:	00194883          	lbu	a7,1(s2)
    9c3c:	00f12a23          	sw	a5,20(sp)
    9c40:	00068913          	mv	s2,a3
    9c44:	949fd06f          	j	758c <_vfprintf_r+0x1a0>
    9c48:	02012423          	sw	zero,40(sp)
    9c4c:	02012223          	sw	zero,36(sp)
    9c50:	ee9ff06f          	j	9b38 <_vfprintf_r+0x274c>
    9c54:	04500613          	li	a2,69
    9c58:	08010593          	add	a1,sp,128
    9c5c:	ed8ff06f          	j	9334 <_vfprintf_r+0x1f48>
    9c60:	00c4d783          	lhu	a5,12(s1)
    9c64:	0407e793          	or	a5,a5,64
    9c68:	00f49623          	sh	a5,12(s1)
    9c6c:	acdfd06f          	j	7738 <_vfprintf_r+0x34c>

00009c70 <vfprintf>:
    9c70:	00050793          	mv	a5,a0
    9c74:	86c1a503          	lw	a0,-1940(gp) # 12724 <_impure_ptr>
    9c78:	00060693          	mv	a3,a2
    9c7c:	00058613          	mv	a2,a1
    9c80:	00078593          	mv	a1,a5
    9c84:	f68fd06f          	j	73ec <_vfprintf_r>

00009c88 <__sbprintf>:
    9c88:	b8010113          	add	sp,sp,-1152
    9c8c:	00c59783          	lh	a5,12(a1)
    9c90:	00e5d703          	lhu	a4,14(a1)
    9c94:	46812c23          	sw	s0,1144(sp)
    9c98:	00058413          	mv	s0,a1
    9c9c:	000105b7          	lui	a1,0x10
    9ca0:	ffd58593          	add	a1,a1,-3 # fffd <_realloc_r+0x55>
    9ca4:	06442e03          	lw	t3,100(s0)
    9ca8:	01c42303          	lw	t1,28(s0)
    9cac:	02442883          	lw	a7,36(s0)
    9cb0:	01071713          	sll	a4,a4,0x10
    9cb4:	00b7f7b3          	and	a5,a5,a1
    9cb8:	00e7e7b3          	or	a5,a5,a4
    9cbc:	40000813          	li	a6,1024
    9cc0:	00f12a23          	sw	a5,20(sp)
    9cc4:	00810593          	add	a1,sp,8
    9cc8:	07010793          	add	a5,sp,112
    9ccc:	46912a23          	sw	s1,1140(sp)
    9cd0:	47212823          	sw	s2,1136(sp)
    9cd4:	46112e23          	sw	ra,1148(sp)
    9cd8:	00050913          	mv	s2,a0
    9cdc:	07c12623          	sw	t3,108(sp)
    9ce0:	02612223          	sw	t1,36(sp)
    9ce4:	03112623          	sw	a7,44(sp)
    9ce8:	00f12423          	sw	a5,8(sp)
    9cec:	00f12c23          	sw	a5,24(sp)
    9cf0:	01012823          	sw	a6,16(sp)
    9cf4:	01012e23          	sw	a6,28(sp)
    9cf8:	02012023          	sw	zero,32(sp)
    9cfc:	ef0fd0ef          	jal	73ec <_vfprintf_r>
    9d00:	00050493          	mv	s1,a0
    9d04:	02055c63          	bgez	a0,9d3c <__sbprintf+0xb4>
    9d08:	01415783          	lhu	a5,20(sp)
    9d0c:	0407f793          	and	a5,a5,64
    9d10:	00078863          	beqz	a5,9d20 <__sbprintf+0x98>
    9d14:	00c45783          	lhu	a5,12(s0)
    9d18:	0407e793          	or	a5,a5,64
    9d1c:	00f41623          	sh	a5,12(s0)
    9d20:	47c12083          	lw	ra,1148(sp)
    9d24:	47812403          	lw	s0,1144(sp)
    9d28:	47012903          	lw	s2,1136(sp)
    9d2c:	00048513          	mv	a0,s1
    9d30:	47412483          	lw	s1,1140(sp)
    9d34:	48010113          	add	sp,sp,1152
    9d38:	00008067          	ret
    9d3c:	00810593          	add	a1,sp,8
    9d40:	00090513          	mv	a0,s2
    9d44:	0c9010ef          	jal	b60c <_fflush_r>
    9d48:	fc0500e3          	beqz	a0,9d08 <__sbprintf+0x80>
    9d4c:	fff00493          	li	s1,-1
    9d50:	fb9ff06f          	j	9d08 <__sbprintf+0x80>

00009d54 <__sprint_r.part.0>:
    9d54:	0645a783          	lw	a5,100(a1)
    9d58:	fd010113          	add	sp,sp,-48
    9d5c:	01612823          	sw	s6,16(sp)
    9d60:	02112623          	sw	ra,44(sp)
    9d64:	01279713          	sll	a4,a5,0x12
    9d68:	00060b13          	mv	s6,a2
    9d6c:	0e075863          	bgez	a4,9e5c <__sprint_r.part.0+0x108>
    9d70:	00862783          	lw	a5,8(a2)
    9d74:	03212023          	sw	s2,32(sp)
    9d78:	01312e23          	sw	s3,28(sp)
    9d7c:	01512a23          	sw	s5,20(sp)
    9d80:	01712623          	sw	s7,12(sp)
    9d84:	00058913          	mv	s2,a1
    9d88:	00062b83          	lw	s7,0(a2)
    9d8c:	00050993          	mv	s3,a0
    9d90:	fff00a93          	li	s5,-1
    9d94:	0a078863          	beqz	a5,9e44 <__sprint_r.part.0+0xf0>
    9d98:	02812423          	sw	s0,40(sp)
    9d9c:	02912223          	sw	s1,36(sp)
    9da0:	01412c23          	sw	s4,24(sp)
    9da4:	01812423          	sw	s8,8(sp)
    9da8:	004bac03          	lw	s8,4(s7)
    9dac:	000ba403          	lw	s0,0(s7)
    9db0:	002c5a13          	srl	s4,s8,0x2
    9db4:	060a0663          	beqz	s4,9e20 <__sprint_r.part.0+0xcc>
    9db8:	00000493          	li	s1,0
    9dbc:	00c0006f          	j	9dc8 <__sprint_r.part.0+0x74>
    9dc0:	00440413          	add	s0,s0,4
    9dc4:	049a0c63          	beq	s4,s1,9e1c <__sprint_r.part.0+0xc8>
    9dc8:	00042583          	lw	a1,0(s0)
    9dcc:	00090613          	mv	a2,s2
    9dd0:	00098513          	mv	a0,s3
    9dd4:	338020ef          	jal	c10c <_fputwc_r>
    9dd8:	00148493          	add	s1,s1,1
    9ddc:	ff5512e3          	bne	a0,s5,9dc0 <__sprint_r.part.0+0x6c>
    9de0:	02812403          	lw	s0,40(sp)
    9de4:	02412483          	lw	s1,36(sp)
    9de8:	02012903          	lw	s2,32(sp)
    9dec:	01c12983          	lw	s3,28(sp)
    9df0:	01812a03          	lw	s4,24(sp)
    9df4:	01412a83          	lw	s5,20(sp)
    9df8:	00c12b83          	lw	s7,12(sp)
    9dfc:	00812c03          	lw	s8,8(sp)
    9e00:	fff00513          	li	a0,-1
    9e04:	02c12083          	lw	ra,44(sp)
    9e08:	000b2423          	sw	zero,8(s6)
    9e0c:	000b2223          	sw	zero,4(s6)
    9e10:	01012b03          	lw	s6,16(sp)
    9e14:	03010113          	add	sp,sp,48
    9e18:	00008067          	ret
    9e1c:	008b2783          	lw	a5,8(s6)
    9e20:	ffcc7c13          	and	s8,s8,-4
    9e24:	418787b3          	sub	a5,a5,s8
    9e28:	00fb2423          	sw	a5,8(s6)
    9e2c:	008b8b93          	add	s7,s7,8
    9e30:	f6079ce3          	bnez	a5,9da8 <__sprint_r.part.0+0x54>
    9e34:	02812403          	lw	s0,40(sp)
    9e38:	02412483          	lw	s1,36(sp)
    9e3c:	01812a03          	lw	s4,24(sp)
    9e40:	00812c03          	lw	s8,8(sp)
    9e44:	02012903          	lw	s2,32(sp)
    9e48:	01c12983          	lw	s3,28(sp)
    9e4c:	01412a83          	lw	s5,20(sp)
    9e50:	00c12b83          	lw	s7,12(sp)
    9e54:	00000513          	li	a0,0
    9e58:	fadff06f          	j	9e04 <__sprint_r.part.0+0xb0>
    9e5c:	095010ef          	jal	b6f0 <__sfvwrite_r>
    9e60:	02c12083          	lw	ra,44(sp)
    9e64:	000b2423          	sw	zero,8(s6)
    9e68:	000b2223          	sw	zero,4(s6)
    9e6c:	01012b03          	lw	s6,16(sp)
    9e70:	03010113          	add	sp,sp,48
    9e74:	00008067          	ret

00009e78 <__sprint_r>:
    9e78:	00862703          	lw	a4,8(a2)
    9e7c:	00070463          	beqz	a4,9e84 <__sprint_r+0xc>
    9e80:	ed5ff06f          	j	9d54 <__sprint_r.part.0>
    9e84:	00062223          	sw	zero,4(a2)
    9e88:	00000513          	li	a0,0
    9e8c:	00008067          	ret

00009e90 <_vfiprintf_r>:
    9e90:	ed010113          	add	sp,sp,-304
    9e94:	11312e23          	sw	s3,284(sp)
    9e98:	11612823          	sw	s6,272(sp)
    9e9c:	11712623          	sw	s7,268(sp)
    9ea0:	11812423          	sw	s8,264(sp)
    9ea4:	12112623          	sw	ra,300(sp)
    9ea8:	11a12023          	sw	s10,256(sp)
    9eac:	00050c13          	mv	s8,a0
    9eb0:	00058b13          	mv	s6,a1
    9eb4:	00060993          	mv	s3,a2
    9eb8:	00068b93          	mv	s7,a3
    9ebc:	00050863          	beqz	a0,9ecc <_vfiprintf_r+0x3c>
    9ec0:	03452783          	lw	a5,52(a0)
    9ec4:	00079463          	bnez	a5,9ecc <_vfiprintf_r+0x3c>
    9ec8:	1c40106f          	j	b08c <_vfiprintf_r+0x11fc>
    9ecc:	00cb1783          	lh	a5,12(s6)
    9ed0:	01279713          	sll	a4,a5,0x12
    9ed4:	02074663          	bltz	a4,9f00 <_vfiprintf_r+0x70>
    9ed8:	064b2703          	lw	a4,100(s6)
    9edc:	00002637          	lui	a2,0x2
    9ee0:	ffffe6b7          	lui	a3,0xffffe
    9ee4:	00c7e7b3          	or	a5,a5,a2
    9ee8:	fff68693          	add	a3,a3,-1 # ffffdfff <_end+0xfffe8d9b>
    9eec:	01079793          	sll	a5,a5,0x10
    9ef0:	4107d793          	sra	a5,a5,0x10
    9ef4:	00d77733          	and	a4,a4,a3
    9ef8:	00fb1623          	sh	a5,12(s6)
    9efc:	06eb2223          	sw	a4,100(s6)
    9f00:	0087f713          	and	a4,a5,8
    9f04:	12070c63          	beqz	a4,a03c <_vfiprintf_r+0x1ac>
    9f08:	010b2703          	lw	a4,16(s6)
    9f0c:	12070863          	beqz	a4,a03c <_vfiprintf_r+0x1ac>
    9f10:	01a7f793          	and	a5,a5,26
    9f14:	00a00713          	li	a4,10
    9f18:	14e78463          	beq	a5,a4,a060 <_vfiprintf_r+0x1d0>
    9f1c:	000127b7          	lui	a5,0x12
    9f20:	00000d13          	li	s10,0
    9f24:	11512a23          	sw	s5,276(sp)
    9f28:	11912223          	sw	s9,260(sp)
    9f2c:	04c10a93          	add	s5,sp,76
    9f30:	a2c78793          	add	a5,a5,-1492 # 11a2c <blanks.1+0x10>
    9f34:	00012cb7          	lui	s9,0x12
    9f38:	12812423          	sw	s0,296(sp)
    9f3c:	13212023          	sw	s2,288(sp)
    9f40:	11412c23          	sw	s4,280(sp)
    9f44:	000d0913          	mv	s2,s10
    9f48:	12912223          	sw	s1,292(sp)
    9f4c:	0fb12e23          	sw	s11,252(sp)
    9f50:	05512023          	sw	s5,64(sp)
    9f54:	04012423          	sw	zero,72(sp)
    9f58:	04012223          	sw	zero,68(sp)
    9f5c:	000a8413          	mv	s0,s5
    9f60:	00012223          	sw	zero,4(sp)
    9f64:	00012a23          	sw	zero,20(sp)
    9f68:	00012c23          	sw	zero,24(sp)
    9f6c:	00012e23          	sw	zero,28(sp)
    9f70:	00f12023          	sw	a5,0(sp)
    9f74:	01000a13          	li	s4,16
    9f78:	b98c8c93          	add	s9,s9,-1128 # 11b98 <zeroes.0>
    9f7c:	000b8d13          	mv	s10,s7
    9f80:	0009c783          	lbu	a5,0(s3)
    9f84:	32078263          	beqz	a5,a2a8 <_vfiprintf_r+0x418>
    9f88:	00098493          	mv	s1,s3
    9f8c:	02500713          	li	a4,37
    9f90:	3ce78063          	beq	a5,a4,a350 <_vfiprintf_r+0x4c0>
    9f94:	0014c783          	lbu	a5,1(s1)
    9f98:	00148493          	add	s1,s1,1
    9f9c:	fe079ae3          	bnez	a5,9f90 <_vfiprintf_r+0x100>
    9fa0:	41348bb3          	sub	s7,s1,s3
    9fa4:	31348263          	beq	s1,s3,a2a8 <_vfiprintf_r+0x418>
    9fa8:	04812703          	lw	a4,72(sp)
    9fac:	04412783          	lw	a5,68(sp)
    9fb0:	01342023          	sw	s3,0(s0)
    9fb4:	00eb8733          	add	a4,s7,a4
    9fb8:	00178793          	add	a5,a5,1
    9fbc:	01742223          	sw	s7,4(s0)
    9fc0:	04e12423          	sw	a4,72(sp)
    9fc4:	04f12223          	sw	a5,68(sp)
    9fc8:	00700693          	li	a3,7
    9fcc:	00840413          	add	s0,s0,8
    9fd0:	02f6d063          	bge	a3,a5,9ff0 <_vfiprintf_r+0x160>
    9fd4:	4c070ae3          	beqz	a4,aca8 <_vfiprintf_r+0xe18>
    9fd8:	04010613          	add	a2,sp,64
    9fdc:	000b0593          	mv	a1,s6
    9fe0:	000c0513          	mv	a0,s8
    9fe4:	d71ff0ef          	jal	9d54 <__sprint_r.part.0>
    9fe8:	0c051263          	bnez	a0,a0ac <_vfiprintf_r+0x21c>
    9fec:	000a8413          	mv	s0,s5
    9ff0:	0004c783          	lbu	a5,0(s1)
    9ff4:	01790933          	add	s2,s2,s7
    9ff8:	2a078863          	beqz	a5,a2a8 <_vfiprintf_r+0x418>
    9ffc:	0014c783          	lbu	a5,1(s1)
    a000:	00148993          	add	s3,s1,1
    a004:	02010da3          	sb	zero,59(sp)
    a008:	fff00d93          	li	s11,-1
    a00c:	00000b93          	li	s7,0
    a010:	00000893          	li	a7,0
    a014:	05a00493          	li	s1,90
    a018:	00198993          	add	s3,s3,1
    a01c:	00078693          	mv	a3,a5
    a020:	fe068713          	add	a4,a3,-32
    a024:	10e4e863          	bltu	s1,a4,a134 <_vfiprintf_r+0x2a4>
    a028:	00012783          	lw	a5,0(sp)
    a02c:	00271713          	sll	a4,a4,0x2
    a030:	00f70733          	add	a4,a4,a5
    a034:	00072783          	lw	a5,0(a4)
    a038:	00078067          	jr	a5
    a03c:	000b0593          	mv	a1,s6
    a040:	000c0513          	mv	a0,s8
    a044:	695010ef          	jal	bed8 <__swsetup_r>
    a048:	00050463          	beqz	a0,a050 <_vfiprintf_r+0x1c0>
    a04c:	1480106f          	j	b194 <_vfiprintf_r+0x1304>
    a050:	00cb1783          	lh	a5,12(s6)
    a054:	00a00713          	li	a4,10
    a058:	01a7f793          	and	a5,a5,26
    a05c:	ece790e3          	bne	a5,a4,9f1c <_vfiprintf_r+0x8c>
    a060:	00eb1783          	lh	a5,14(s6)
    a064:	ea07cce3          	bltz	a5,9f1c <_vfiprintf_r+0x8c>
    a068:	12c12083          	lw	ra,300(sp)
    a06c:	10012d03          	lw	s10,256(sp)
    a070:	000b8693          	mv	a3,s7
    a074:	00098613          	mv	a2,s3
    a078:	10c12b83          	lw	s7,268(sp)
    a07c:	11c12983          	lw	s3,284(sp)
    a080:	000b0593          	mv	a1,s6
    a084:	000c0513          	mv	a0,s8
    a088:	11012b03          	lw	s6,272(sp)
    a08c:	10812c03          	lw	s8,264(sp)
    a090:	13010113          	add	sp,sp,304
    a094:	14c0106f          	j	b1e0 <__sbprintf>
    a098:	04010613          	add	a2,sp,64
    a09c:	000b0593          	mv	a1,s6
    a0a0:	000c0513          	mv	a0,s8
    a0a4:	cb1ff0ef          	jal	9d54 <__sprint_r.part.0>
    a0a8:	1e050863          	beqz	a0,a298 <_vfiprintf_r+0x408>
    a0ac:	00090d13          	mv	s10,s2
    a0b0:	00cb5783          	lhu	a5,12(s6)
    a0b4:	12812403          	lw	s0,296(sp)
    a0b8:	12412483          	lw	s1,292(sp)
    a0bc:	0407f793          	and	a5,a5,64
    a0c0:	12012903          	lw	s2,288(sp)
    a0c4:	11812a03          	lw	s4,280(sp)
    a0c8:	11412a83          	lw	s5,276(sp)
    a0cc:	10412c83          	lw	s9,260(sp)
    a0d0:	0fc12d83          	lw	s11,252(sp)
    a0d4:	00078463          	beqz	a5,a0dc <_vfiprintf_r+0x24c>
    a0d8:	0bc0106f          	j	b194 <_vfiprintf_r+0x1304>
    a0dc:	12c12083          	lw	ra,300(sp)
    a0e0:	11c12983          	lw	s3,284(sp)
    a0e4:	11012b03          	lw	s6,272(sp)
    a0e8:	10c12b83          	lw	s7,268(sp)
    a0ec:	10812c03          	lw	s8,264(sp)
    a0f0:	000d0513          	mv	a0,s10
    a0f4:	10012d03          	lw	s10,256(sp)
    a0f8:	13010113          	add	sp,sp,304
    a0fc:	00008067          	ret
    a100:	00000b93          	li	s7,0
    a104:	fd068793          	add	a5,a3,-48
    a108:	00900613          	li	a2,9
    a10c:	0009c683          	lbu	a3,0(s3)
    a110:	002b9713          	sll	a4,s7,0x2
    a114:	01770bb3          	add	s7,a4,s7
    a118:	001b9b93          	sll	s7,s7,0x1
    a11c:	01778bb3          	add	s7,a5,s7
    a120:	fd068793          	add	a5,a3,-48
    a124:	00198993          	add	s3,s3,1
    a128:	fef672e3          	bgeu	a2,a5,a10c <_vfiprintf_r+0x27c>
    a12c:	fe068713          	add	a4,a3,-32
    a130:	eee4fce3          	bgeu	s1,a4,a028 <_vfiprintf_r+0x198>
    a134:	16068a63          	beqz	a3,a2a8 <_vfiprintf_r+0x418>
    a138:	08d10623          	sb	a3,140(sp)
    a13c:	02010da3          	sb	zero,59(sp)
    a140:	00100313          	li	t1,1
    a144:	00100e93          	li	t4,1
    a148:	08c10493          	add	s1,sp,140
    a14c:	00000d93          	li	s11,0
    a150:	00000f93          	li	t6,0
    a154:	04412703          	lw	a4,68(sp)
    a158:	0848f293          	and	t0,a7,132
    a15c:	04812783          	lw	a5,72(sp)
    a160:	00170613          	add	a2,a4,1
    a164:	00060593          	mv	a1,a2
    a168:	00029663          	bnez	t0,a174 <_vfiprintf_r+0x2e4>
    a16c:	406b86b3          	sub	a3,s7,t1
    a170:	1cd04ee3          	bgtz	a3,ab4c <_vfiprintf_r+0xcbc>
    a174:	03b14683          	lbu	a3,59(sp)
    a178:	02068a63          	beqz	a3,a1ac <_vfiprintf_r+0x31c>
    a17c:	03b10713          	add	a4,sp,59
    a180:	00178793          	add	a5,a5,1
    a184:	00e42023          	sw	a4,0(s0)
    a188:	00100713          	li	a4,1
    a18c:	00e42223          	sw	a4,4(s0)
    a190:	04f12423          	sw	a5,72(sp)
    a194:	04b12223          	sw	a1,68(sp)
    a198:	00700713          	li	a4,7
    a19c:	0cb74ce3          	blt	a4,a1,aa74 <_vfiprintf_r+0xbe4>
    a1a0:	00058713          	mv	a4,a1
    a1a4:	00840413          	add	s0,s0,8
    a1a8:	00158593          	add	a1,a1,1
    a1ac:	060f8863          	beqz	t6,a21c <_vfiprintf_r+0x38c>
    a1b0:	03c10713          	add	a4,sp,60
    a1b4:	00278793          	add	a5,a5,2
    a1b8:	00e42023          	sw	a4,0(s0)
    a1bc:	00200713          	li	a4,2
    a1c0:	00e42223          	sw	a4,4(s0)
    a1c4:	04f12423          	sw	a5,72(sp)
    a1c8:	04b12223          	sw	a1,68(sp)
    a1cc:	00700713          	li	a4,7
    a1d0:	10b75ae3          	bge	a4,a1,aae4 <_vfiprintf_r+0xc54>
    a1d4:	340780e3          	beqz	a5,ad14 <_vfiprintf_r+0xe84>
    a1d8:	04010613          	add	a2,sp,64
    a1dc:	000b0593          	mv	a1,s6
    a1e0:	000c0513          	mv	a0,s8
    a1e4:	02612023          	sw	t1,32(sp)
    a1e8:	01d12823          	sw	t4,16(sp)
    a1ec:	00512623          	sw	t0,12(sp)
    a1f0:	01112423          	sw	a7,8(sp)
    a1f4:	b61ff0ef          	jal	9d54 <__sprint_r.part.0>
    a1f8:	ea051ae3          	bnez	a0,a0ac <_vfiprintf_r+0x21c>
    a1fc:	04412703          	lw	a4,68(sp)
    a200:	04812783          	lw	a5,72(sp)
    a204:	02012303          	lw	t1,32(sp)
    a208:	01012e83          	lw	t4,16(sp)
    a20c:	00c12283          	lw	t0,12(sp)
    a210:	00812883          	lw	a7,8(sp)
    a214:	000a8413          	mv	s0,s5
    a218:	00170593          	add	a1,a4,1
    a21c:	08000693          	li	a3,128
    a220:	62d28e63          	beq	t0,a3,a85c <_vfiprintf_r+0x9cc>
    a224:	41dd8db3          	sub	s11,s11,t4
    a228:	75b04e63          	bgtz	s11,a984 <_vfiprintf_r+0xaf4>
    a22c:	00fe87b3          	add	a5,t4,a5
    a230:	00942023          	sw	s1,0(s0)
    a234:	01d42223          	sw	t4,4(s0)
    a238:	04f12423          	sw	a5,72(sp)
    a23c:	04b12223          	sw	a1,68(sp)
    a240:	00700713          	li	a4,7
    a244:	60b75063          	bge	a4,a1,a844 <_vfiprintf_r+0x9b4>
    a248:	10078c63          	beqz	a5,a360 <_vfiprintf_r+0x4d0>
    a24c:	04010613          	add	a2,sp,64
    a250:	000b0593          	mv	a1,s6
    a254:	000c0513          	mv	a0,s8
    a258:	00612623          	sw	t1,12(sp)
    a25c:	01112423          	sw	a7,8(sp)
    a260:	af5ff0ef          	jal	9d54 <__sprint_r.part.0>
    a264:	e40514e3          	bnez	a0,a0ac <_vfiprintf_r+0x21c>
    a268:	04812783          	lw	a5,72(sp)
    a26c:	00c12303          	lw	t1,12(sp)
    a270:	00812883          	lw	a7,8(sp)
    a274:	000a8413          	mv	s0,s5
    a278:	0048f893          	and	a7,a7,4
    a27c:	00088663          	beqz	a7,a288 <_vfiprintf_r+0x3f8>
    a280:	406b84b3          	sub	s1,s7,t1
    a284:	0e904a63          	bgtz	s1,a378 <_vfiprintf_r+0x4e8>
    a288:	006bd463          	bge	s7,t1,a290 <_vfiprintf_r+0x400>
    a28c:	00030b93          	mv	s7,t1
    a290:	01790933          	add	s2,s2,s7
    a294:	e00792e3          	bnez	a5,a098 <_vfiprintf_r+0x208>
    a298:	0009c783          	lbu	a5,0(s3)
    a29c:	04012223          	sw	zero,68(sp)
    a2a0:	000a8413          	mv	s0,s5
    a2a4:	ce0792e3          	bnez	a5,9f88 <_vfiprintf_r+0xf8>
    a2a8:	04812783          	lw	a5,72(sp)
    a2ac:	00090d13          	mv	s10,s2
    a2b0:	e00780e3          	beqz	a5,a0b0 <_vfiprintf_r+0x220>
    a2b4:	04010613          	add	a2,sp,64
    a2b8:	000b0593          	mv	a1,s6
    a2bc:	000c0513          	mv	a0,s8
    a2c0:	a95ff0ef          	jal	9d54 <__sprint_r.part.0>
    a2c4:	dedff06f          	j	a0b0 <_vfiprintf_r+0x220>
    a2c8:	000d2b83          	lw	s7,0(s10)
    a2cc:	004d0d13          	add	s10,s10,4
    a2d0:	280bcc63          	bltz	s7,a568 <_vfiprintf_r+0x6d8>
    a2d4:	0009c783          	lbu	a5,0(s3)
    a2d8:	d41ff06f          	j	a018 <_vfiprintf_r+0x188>
    a2dc:	0009c783          	lbu	a5,0(s3)
    a2e0:	0208e893          	or	a7,a7,32
    a2e4:	d35ff06f          	j	a018 <_vfiprintf_r+0x188>
    a2e8:	0108e893          	or	a7,a7,16
    a2ec:	0208f793          	and	a5,a7,32
    a2f0:	16078463          	beqz	a5,a458 <_vfiprintf_r+0x5c8>
    a2f4:	007d0d13          	add	s10,s10,7
    a2f8:	ff8d7d13          	and	s10,s10,-8
    a2fc:	004d2703          	lw	a4,4(s10)
    a300:	000d2783          	lw	a5,0(s10)
    a304:	008d0d13          	add	s10,s10,8
    a308:	00070313          	mv	t1,a4
    a30c:	16074c63          	bltz	a4,a484 <_vfiprintf_r+0x5f4>
    a310:	180dca63          	bltz	s11,a4a4 <_vfiprintf_r+0x614>
    a314:	0067e733          	or	a4,a5,t1
    a318:	f7f8f893          	and	a7,a7,-129
    a31c:	18071463          	bnez	a4,a4a4 <_vfiprintf_r+0x614>
    a320:	640d96e3          	bnez	s11,b16c <_vfiprintf_r+0x12dc>
    a324:	03b14783          	lbu	a5,59(sp)
    a328:	00000313          	li	t1,0
    a32c:	00000e93          	li	t4,0
    a330:	0f010493          	add	s1,sp,240
    a334:	00078463          	beqz	a5,a33c <_vfiprintf_r+0x4ac>
    a338:	00130313          	add	t1,t1,1
    a33c:	0028ff93          	and	t6,a7,2
    a340:	e00f8ae3          	beqz	t6,a154 <_vfiprintf_r+0x2c4>
    a344:	00230313          	add	t1,t1,2
    a348:	00200f93          	li	t6,2
    a34c:	e09ff06f          	j	a154 <_vfiprintf_r+0x2c4>
    a350:	41348bb3          	sub	s7,s1,s3
    a354:	c5349ae3          	bne	s1,s3,9fa8 <_vfiprintf_r+0x118>
    a358:	0004c783          	lbu	a5,0(s1)
    a35c:	c9dff06f          	j	9ff8 <_vfiprintf_r+0x168>
    a360:	04012223          	sw	zero,68(sp)
    a364:	0048f893          	and	a7,a7,4
    a368:	0e0886e3          	beqz	a7,ac54 <_vfiprintf_r+0xdc4>
    a36c:	406b84b3          	sub	s1,s7,t1
    a370:	0e9052e3          	blez	s1,ac54 <_vfiprintf_r+0xdc4>
    a374:	000a8413          	mv	s0,s5
    a378:	01000713          	li	a4,16
    a37c:	04412683          	lw	a3,68(sp)
    a380:	609752e3          	bge	a4,s1,b184 <_vfiprintf_r+0x12f4>
    a384:	00012e37          	lui	t3,0x12
    a388:	ba8e0e13          	add	t3,t3,-1112 # 11ba8 <blanks.1>
    a38c:	00040593          	mv	a1,s0
    a390:	01000d93          	li	s11,16
    a394:	00700893          	li	a7,7
    a398:	00612423          	sw	t1,8(sp)
    a39c:	000e0413          	mv	s0,t3
    a3a0:	0180006f          	j	a3b8 <_vfiprintf_r+0x528>
    a3a4:	00268613          	add	a2,a3,2
    a3a8:	00858593          	add	a1,a1,8
    a3ac:	00070693          	mv	a3,a4
    a3b0:	ff048493          	add	s1,s1,-16
    a3b4:	049dda63          	bge	s11,s1,a408 <_vfiprintf_r+0x578>
    a3b8:	01078793          	add	a5,a5,16
    a3bc:	00168713          	add	a4,a3,1
    a3c0:	0085a023          	sw	s0,0(a1)
    a3c4:	01b5a223          	sw	s11,4(a1)
    a3c8:	04f12423          	sw	a5,72(sp)
    a3cc:	04e12223          	sw	a4,68(sp)
    a3d0:	fce8dae3          	bge	a7,a4,a3a4 <_vfiprintf_r+0x514>
    a3d4:	46078c63          	beqz	a5,a84c <_vfiprintf_r+0x9bc>
    a3d8:	04010613          	add	a2,sp,64
    a3dc:	000b0593          	mv	a1,s6
    a3e0:	000c0513          	mv	a0,s8
    a3e4:	971ff0ef          	jal	9d54 <__sprint_r.part.0>
    a3e8:	cc0512e3          	bnez	a0,a0ac <_vfiprintf_r+0x21c>
    a3ec:	04412683          	lw	a3,68(sp)
    a3f0:	ff048493          	add	s1,s1,-16
    a3f4:	04812783          	lw	a5,72(sp)
    a3f8:	000a8593          	mv	a1,s5
    a3fc:	00168613          	add	a2,a3,1
    a400:	00700893          	li	a7,7
    a404:	fa9dcae3          	blt	s11,s1,a3b8 <_vfiprintf_r+0x528>
    a408:	00812303          	lw	t1,8(sp)
    a40c:	00040e13          	mv	t3,s0
    a410:	00058413          	mv	s0,a1
    a414:	009787b3          	add	a5,a5,s1
    a418:	01c42023          	sw	t3,0(s0)
    a41c:	00942223          	sw	s1,4(s0)
    a420:	04f12423          	sw	a5,72(sp)
    a424:	04c12223          	sw	a2,68(sp)
    a428:	00700713          	li	a4,7
    a42c:	e4c75ee3          	bge	a4,a2,a288 <_vfiprintf_r+0x3f8>
    a430:	020782e3          	beqz	a5,ac54 <_vfiprintf_r+0xdc4>
    a434:	04010613          	add	a2,sp,64
    a438:	000b0593          	mv	a1,s6
    a43c:	000c0513          	mv	a0,s8
    a440:	00612423          	sw	t1,8(sp)
    a444:	911ff0ef          	jal	9d54 <__sprint_r.part.0>
    a448:	c60512e3          	bnez	a0,a0ac <_vfiprintf_r+0x21c>
    a44c:	04812783          	lw	a5,72(sp)
    a450:	00812303          	lw	t1,8(sp)
    a454:	e35ff06f          	j	a288 <_vfiprintf_r+0x3f8>
    a458:	0108f713          	and	a4,a7,16
    a45c:	000d2783          	lw	a5,0(s10)
    a460:	004d0d13          	add	s10,s10,4
    a464:	0e071c63          	bnez	a4,a55c <_vfiprintf_r+0x6cc>
    a468:	0408f713          	and	a4,a7,64
    a46c:	0e070463          	beqz	a4,a554 <_vfiprintf_r+0x6c4>
    a470:	01079793          	sll	a5,a5,0x10
    a474:	4107d793          	sra	a5,a5,0x10
    a478:	41f7d313          	sra	t1,a5,0x1f
    a47c:	00030713          	mv	a4,t1
    a480:	e80758e3          	bgez	a4,a310 <_vfiprintf_r+0x480>
    a484:	02d00693          	li	a3,45
    a488:	00f03733          	snez	a4,a5
    a48c:	40600333          	neg	t1,t1
    a490:	02d10da3          	sb	a3,59(sp)
    a494:	40e30333          	sub	t1,t1,a4
    a498:	40f007b3          	neg	a5,a5
    a49c:	000dc463          	bltz	s11,a4a4 <_vfiprintf_r+0x614>
    a4a0:	f7f8f893          	and	a7,a7,-129
    a4a4:	0c031ae3          	bnez	t1,ad78 <_vfiprintf_r+0xee8>
    a4a8:	00900713          	li	a4,9
    a4ac:	0cf766e3          	bltu	a4,a5,ad78 <_vfiprintf_r+0xee8>
    a4b0:	03078793          	add	a5,a5,48
    a4b4:	0ff7f793          	zext.b	a5,a5
    a4b8:	0ef107a3          	sb	a5,239(sp)
    a4bc:	000d8313          	mv	t1,s11
    a4c0:	01b04463          	bgtz	s11,a4c8 <_vfiprintf_r+0x638>
    a4c4:	00100313          	li	t1,1
    a4c8:	00100e93          	li	t4,1
    a4cc:	0ef10493          	add	s1,sp,239
    a4d0:	03b14783          	lbu	a5,59(sp)
    a4d4:	e60792e3          	bnez	a5,a338 <_vfiprintf_r+0x4a8>
    a4d8:	e65ff06f          	j	a33c <_vfiprintf_r+0x4ac>
    a4dc:	000d2483          	lw	s1,0(s10)
    a4e0:	02010da3          	sb	zero,59(sp)
    a4e4:	004d0d13          	add	s10,s10,4
    a4e8:	3c048ee3          	beqz	s1,b0c4 <_vfiprintf_r+0x1234>
    a4ec:	01112423          	sw	a7,8(sp)
    a4f0:	260dcee3          	bltz	s11,af6c <_vfiprintf_r+0x10dc>
    a4f4:	000d8613          	mv	a2,s11
    a4f8:	00000593          	li	a1,0
    a4fc:	00048513          	mv	a0,s1
    a500:	4b5010ef          	jal	c1b4 <memchr>
    a504:	00812883          	lw	a7,8(sp)
    a508:	000d8e93          	mv	t4,s11
    a50c:	00050463          	beqz	a0,a514 <_vfiprintf_r+0x684>
    a510:	40950eb3          	sub	t4,a0,s1
    a514:	03b14783          	lbu	a5,59(sp)
    a518:	fffec313          	not	t1,t4
    a51c:	41f35313          	sra	t1,t1,0x1f
    a520:	006ef333          	and	t1,t4,t1
    a524:	00000d93          	li	s11,0
    a528:	00000f93          	li	t6,0
    a52c:	e00796e3          	bnez	a5,a338 <_vfiprintf_r+0x4a8>
    a530:	c25ff06f          	j	a154 <_vfiprintf_r+0x2c4>
    a534:	000d2783          	lw	a5,0(s10)
    a538:	02010da3          	sb	zero,59(sp)
    a53c:	004d0d13          	add	s10,s10,4
    a540:	08f10623          	sb	a5,140(sp)
    a544:	00100313          	li	t1,1
    a548:	00100e93          	li	t4,1
    a54c:	08c10493          	add	s1,sp,140
    a550:	bfdff06f          	j	a14c <_vfiprintf_r+0x2bc>
    a554:	2008f713          	and	a4,a7,512
    a558:	3e0714e3          	bnez	a4,b140 <_vfiprintf_r+0x12b0>
    a55c:	41f7d313          	sra	t1,a5,0x1f
    a560:	00030713          	mv	a4,t1
    a564:	da9ff06f          	j	a30c <_vfiprintf_r+0x47c>
    a568:	41700bb3          	neg	s7,s7
    a56c:	0009c783          	lbu	a5,0(s3)
    a570:	0048e893          	or	a7,a7,4
    a574:	aa5ff06f          	j	a018 <_vfiprintf_r+0x188>
    a578:	02b00713          	li	a4,43
    a57c:	0009c783          	lbu	a5,0(s3)
    a580:	02e10da3          	sb	a4,59(sp)
    a584:	a95ff06f          	j	a018 <_vfiprintf_r+0x188>
    a588:	0009c783          	lbu	a5,0(s3)
    a58c:	0808e893          	or	a7,a7,128
    a590:	a89ff06f          	j	a018 <_vfiprintf_r+0x188>
    a594:	0009c683          	lbu	a3,0(s3)
    a598:	02a00793          	li	a5,42
    a59c:	00198613          	add	a2,s3,1
    a5a0:	40f686e3          	beq	a3,a5,b1ac <_vfiprintf_r+0x131c>
    a5a4:	fd068793          	add	a5,a3,-48
    a5a8:	00900713          	li	a4,9
    a5ac:	00000d93          	li	s11,0
    a5b0:	00900593          	li	a1,9
    a5b4:	02f76463          	bltu	a4,a5,a5dc <_vfiprintf_r+0x74c>
    a5b8:	00064683          	lbu	a3,0(a2) # 2000 <__subdf3+0x270>
    a5bc:	002d9713          	sll	a4,s11,0x2
    a5c0:	01b70db3          	add	s11,a4,s11
    a5c4:	001d9d93          	sll	s11,s11,0x1
    a5c8:	00fd8db3          	add	s11,s11,a5
    a5cc:	fd068793          	add	a5,a3,-48
    a5d0:	00160613          	add	a2,a2,1
    a5d4:	fef5f2e3          	bgeu	a1,a5,a5b8 <_vfiprintf_r+0x728>
    a5d8:	0e0dc6e3          	bltz	s11,aec4 <_vfiprintf_r+0x1034>
    a5dc:	00060993          	mv	s3,a2
    a5e0:	a41ff06f          	j	a020 <_vfiprintf_r+0x190>
    a5e4:	000c0513          	mv	a0,s8
    a5e8:	01112423          	sw	a7,8(sp)
    a5ec:	64d010ef          	jal	c438 <_localeconv_r>
    a5f0:	00452783          	lw	a5,4(a0)
    a5f4:	00078513          	mv	a0,a5
    a5f8:	00f12e23          	sw	a5,28(sp)
    a5fc:	fd8fc0ef          	jal	6dd4 <strlen>
    a600:	00050793          	mv	a5,a0
    a604:	000c0513          	mv	a0,s8
    a608:	00f12c23          	sw	a5,24(sp)
    a60c:	62d010ef          	jal	c438 <_localeconv_r>
    a610:	00852703          	lw	a4,8(a0)
    a614:	01812783          	lw	a5,24(sp)
    a618:	00812883          	lw	a7,8(sp)
    a61c:	00e12a23          	sw	a4,20(sp)
    a620:	ca078ae3          	beqz	a5,a2d4 <_vfiprintf_r+0x444>
    a624:	01412703          	lw	a4,20(sp)
    a628:	0009c783          	lbu	a5,0(s3)
    a62c:	9e0706e3          	beqz	a4,a018 <_vfiprintf_r+0x188>
    a630:	00074703          	lbu	a4,0(a4)
    a634:	9e0702e3          	beqz	a4,a018 <_vfiprintf_r+0x188>
    a638:	4008e893          	or	a7,a7,1024
    a63c:	9ddff06f          	j	a018 <_vfiprintf_r+0x188>
    a640:	0009c783          	lbu	a5,0(s3)
    a644:	0018e893          	or	a7,a7,1
    a648:	9d1ff06f          	j	a018 <_vfiprintf_r+0x188>
    a64c:	03b14703          	lbu	a4,59(sp)
    a650:	0009c783          	lbu	a5,0(s3)
    a654:	9c0712e3          	bnez	a4,a018 <_vfiprintf_r+0x188>
    a658:	02000713          	li	a4,32
    a65c:	02e10da3          	sb	a4,59(sp)
    a660:	9b9ff06f          	j	a018 <_vfiprintf_r+0x188>
    a664:	0108e713          	or	a4,a7,16
    a668:	02077793          	and	a5,a4,32
    a66c:	66078863          	beqz	a5,acdc <_vfiprintf_r+0xe4c>
    a670:	007d0d13          	add	s10,s10,7
    a674:	ff8d7d13          	and	s10,s10,-8
    a678:	000d2783          	lw	a5,0(s10)
    a67c:	004d2603          	lw	a2,4(s10)
    a680:	008d0d13          	add	s10,s10,8
    a684:	02010da3          	sb	zero,59(sp)
    a688:	bff77893          	and	a7,a4,-1025
    a68c:	0c0dc063          	bltz	s11,a74c <_vfiprintf_r+0x8bc>
    a690:	00c7e6b3          	or	a3,a5,a2
    a694:	b7f77713          	and	a4,a4,-1153
    a698:	1e0692e3          	bnez	a3,b07c <_vfiprintf_r+0x11ec>
    a69c:	00088e93          	mv	t4,a7
    a6a0:	00000793          	li	a5,0
    a6a4:	00070893          	mv	a7,a4
    a6a8:	080d9663          	bnez	s11,a734 <_vfiprintf_r+0x8a4>
    a6ac:	c6079ce3          	bnez	a5,a324 <_vfiprintf_r+0x494>
    a6b0:	001efe93          	and	t4,t4,1
    a6b4:	7c0e8063          	beqz	t4,ae74 <_vfiprintf_r+0xfe4>
    a6b8:	03000793          	li	a5,48
    a6bc:	0ef107a3          	sb	a5,239(sp)
    a6c0:	000e8313          	mv	t1,t4
    a6c4:	0ef10493          	add	s1,sp,239
    a6c8:	e09ff06f          	j	a4d0 <_vfiprintf_r+0x640>
    a6cc:	0009c783          	lbu	a5,0(s3)
    a6d0:	06c00713          	li	a4,108
    a6d4:	1ce788e3          	beq	a5,a4,b0a4 <_vfiprintf_r+0x1214>
    a6d8:	0108e893          	or	a7,a7,16
    a6dc:	93dff06f          	j	a018 <_vfiprintf_r+0x188>
    a6e0:	0009c783          	lbu	a5,0(s3)
    a6e4:	06800713          	li	a4,104
    a6e8:	1ae786e3          	beq	a5,a4,b094 <_vfiprintf_r+0x1204>
    a6ec:	0408e893          	or	a7,a7,64
    a6f0:	929ff06f          	j	a018 <_vfiprintf_r+0x188>
    a6f4:	0108ee93          	or	t4,a7,16
    a6f8:	020ef793          	and	a5,t4,32
    a6fc:	5a078c63          	beqz	a5,acb4 <_vfiprintf_r+0xe24>
    a700:	007d0d13          	add	s10,s10,7
    a704:	ff8d7d13          	and	s10,s10,-8
    a708:	000d2783          	lw	a5,0(s10)
    a70c:	004d2303          	lw	t1,4(s10)
    a710:	008d0d13          	add	s10,s10,8
    a714:	02010da3          	sb	zero,59(sp)
    a718:	000e8893          	mv	a7,t4
    a71c:	d80dc4e3          	bltz	s11,a4a4 <_vfiprintf_r+0x614>
    a720:	0067e733          	or	a4,a5,t1
    a724:	f7fef893          	and	a7,t4,-129
    a728:	d6071ee3          	bnez	a4,a4a4 <_vfiprintf_r+0x614>
    a72c:	00100793          	li	a5,1
    a730:	f60d8ee3          	beqz	s11,a6ac <_vfiprintf_r+0x81c>
    a734:	00100713          	li	a4,1
    a738:	22e78ae3          	beq	a5,a4,b16c <_vfiprintf_r+0x12dc>
    a73c:	00200713          	li	a4,2
    a740:	1ae78ae3          	beq	a5,a4,b0f4 <_vfiprintf_r+0x1264>
    a744:	00000793          	li	a5,0
    a748:	00000613          	li	a2,0
    a74c:	0f010493          	add	s1,sp,240
    a750:	01d61693          	sll	a3,a2,0x1d
    a754:	0077f713          	and	a4,a5,7
    a758:	0037d793          	srl	a5,a5,0x3
    a75c:	03070713          	add	a4,a4,48
    a760:	00f6e7b3          	or	a5,a3,a5
    a764:	00365613          	srl	a2,a2,0x3
    a768:	fee48fa3          	sb	a4,-1(s1)
    a76c:	00c7e6b3          	or	a3,a5,a2
    a770:	00048593          	mv	a1,s1
    a774:	fff48493          	add	s1,s1,-1
    a778:	fc069ce3          	bnez	a3,a750 <_vfiprintf_r+0x8c0>
    a77c:	0018f793          	and	a5,a7,1
    a780:	3a078a63          	beqz	a5,ab34 <_vfiprintf_r+0xca4>
    a784:	03000793          	li	a5,48
    a788:	3af70663          	beq	a4,a5,ab34 <_vfiprintf_r+0xca4>
    a78c:	ffe58593          	add	a1,a1,-2
    a790:	fef48fa3          	sb	a5,-1(s1)
    a794:	0f010793          	add	a5,sp,240
    a798:	40b78eb3          	sub	t4,a5,a1
    a79c:	000d8313          	mv	t1,s11
    a7a0:	71ddcc63          	blt	s11,t4,aeb8 <_vfiprintf_r+0x1028>
    a7a4:	00058493          	mv	s1,a1
    a7a8:	d29ff06f          	j	a4d0 <_vfiprintf_r+0x640>
    a7ac:	00008737          	lui	a4,0x8
    a7b0:	83070713          	add	a4,a4,-2000 # 7830 <_vfprintf_r+0x444>
    a7b4:	02e11e23          	sh	a4,60(sp)
    a7b8:	00011737          	lui	a4,0x11
    a7bc:	71070713          	add	a4,a4,1808 # 11710 <_getpid_r+0x5f4>
    a7c0:	000d2783          	lw	a5,0(s10)
    a7c4:	00000613          	li	a2,0
    a7c8:	0028e893          	or	a7,a7,2
    a7cc:	004d0d13          	add	s10,s10,4
    a7d0:	00e12223          	sw	a4,4(sp)
    a7d4:	02010da3          	sb	zero,59(sp)
    a7d8:	320dc463          	bltz	s11,ab00 <_vfiprintf_r+0xc70>
    a7dc:	00c7e733          	or	a4,a5,a2
    a7e0:	f7f8f693          	and	a3,a7,-129
    a7e4:	30071863          	bnez	a4,aaf4 <_vfiprintf_r+0xc64>
    a7e8:	00088e93          	mv	t4,a7
    a7ec:	00200793          	li	a5,2
    a7f0:	00068893          	mv	a7,a3
    a7f4:	eb5ff06f          	j	a6a8 <_vfiprintf_r+0x818>
    a7f8:	0208f793          	and	a5,a7,32
    a7fc:	68079a63          	bnez	a5,ae90 <_vfiprintf_r+0x1000>
    a800:	0108f793          	and	a5,a7,16
    a804:	0a0798e3          	bnez	a5,b0b4 <_vfiprintf_r+0x1224>
    a808:	0408f793          	and	a5,a7,64
    a80c:	120792e3          	bnez	a5,b130 <_vfiprintf_r+0x12a0>
    a810:	2008f893          	and	a7,a7,512
    a814:	0a0880e3          	beqz	a7,b0b4 <_vfiprintf_r+0x1224>
    a818:	000d2783          	lw	a5,0(s10)
    a81c:	004d0d13          	add	s10,s10,4
    a820:	01278023          	sb	s2,0(a5)
    a824:	f5cff06f          	j	9f80 <_vfiprintf_r+0xf0>
    a828:	00100713          	li	a4,1
    a82c:	000e8793          	mv	a5,t4
    a830:	04912623          	sw	s1,76(sp)
    a834:	05d12823          	sw	t4,80(sp)
    a838:	05d12423          	sw	t4,72(sp)
    a83c:	04e12223          	sw	a4,68(sp)
    a840:	000a8413          	mv	s0,s5
    a844:	00840413          	add	s0,s0,8
    a848:	a31ff06f          	j	a278 <_vfiprintf_r+0x3e8>
    a84c:	00100613          	li	a2,1
    a850:	00000693          	li	a3,0
    a854:	000a8593          	mv	a1,s5
    a858:	b59ff06f          	j	a3b0 <_vfiprintf_r+0x520>
    a85c:	406b8e33          	sub	t3,s7,t1
    a860:	9dc052e3          	blez	t3,a224 <_vfiprintf_r+0x394>
    a864:	01000693          	li	a3,16
    a868:	13c6dae3          	bge	a3,t3,b19c <_vfiprintf_r+0x130c>
    a86c:	00012f37          	lui	t5,0x12
    a870:	b98f0f13          	add	t5,t5,-1128 # 11b98 <zeroes.0>
    a874:	00912823          	sw	s1,16(sp)
    a878:	00040593          	mv	a1,s0
    a87c:	01000f93          	li	t6,16
    a880:	00700293          	li	t0,7
    a884:	01112423          	sw	a7,8(sp)
    a888:	01d12623          	sw	t4,12(sp)
    a88c:	02612023          	sw	t1,32(sp)
    a890:	000e0413          	mv	s0,t3
    a894:	000f0493          	mv	s1,t5
    a898:	0180006f          	j	a8b0 <_vfiprintf_r+0xa20>
    a89c:	00270613          	add	a2,a4,2
    a8a0:	00858593          	add	a1,a1,8
    a8a4:	00068713          	mv	a4,a3
    a8a8:	ff040413          	add	s0,s0,-16
    a8ac:	048fdc63          	bge	t6,s0,a904 <_vfiprintf_r+0xa74>
    a8b0:	01078793          	add	a5,a5,16
    a8b4:	00170693          	add	a3,a4,1
    a8b8:	0095a023          	sw	s1,0(a1)
    a8bc:	01f5a223          	sw	t6,4(a1)
    a8c0:	04f12423          	sw	a5,72(sp)
    a8c4:	04d12223          	sw	a3,68(sp)
    a8c8:	fcd2dae3          	bge	t0,a3,a89c <_vfiprintf_r+0xa0c>
    a8cc:	18078c63          	beqz	a5,aa64 <_vfiprintf_r+0xbd4>
    a8d0:	04010613          	add	a2,sp,64
    a8d4:	000b0593          	mv	a1,s6
    a8d8:	000c0513          	mv	a0,s8
    a8dc:	c78ff0ef          	jal	9d54 <__sprint_r.part.0>
    a8e0:	fc051663          	bnez	a0,a0ac <_vfiprintf_r+0x21c>
    a8e4:	04412703          	lw	a4,68(sp)
    a8e8:	01000f93          	li	t6,16
    a8ec:	ff040413          	add	s0,s0,-16
    a8f0:	04812783          	lw	a5,72(sp)
    a8f4:	000a8593          	mv	a1,s5
    a8f8:	00170613          	add	a2,a4,1
    a8fc:	00700293          	li	t0,7
    a900:	fa8fc8e3          	blt	t6,s0,a8b0 <_vfiprintf_r+0xa20>
    a904:	00048f13          	mv	t5,s1
    a908:	00812883          	lw	a7,8(sp)
    a90c:	00c12e83          	lw	t4,12(sp)
    a910:	02012303          	lw	t1,32(sp)
    a914:	01012483          	lw	s1,16(sp)
    a918:	00040e13          	mv	t3,s0
    a91c:	00058413          	mv	s0,a1
    a920:	01c787b3          	add	a5,a5,t3
    a924:	01e42023          	sw	t5,0(s0)
    a928:	01c42223          	sw	t3,4(s0)
    a92c:	04f12423          	sw	a5,72(sp)
    a930:	04c12223          	sw	a2,68(sp)
    a934:	00700713          	li	a4,7
    a938:	54c75463          	bge	a4,a2,ae80 <_vfiprintf_r+0xff0>
    a93c:	7c078263          	beqz	a5,b100 <_vfiprintf_r+0x1270>
    a940:	04010613          	add	a2,sp,64
    a944:	000b0593          	mv	a1,s6
    a948:	000c0513          	mv	a0,s8
    a94c:	00612823          	sw	t1,16(sp)
    a950:	01d12623          	sw	t4,12(sp)
    a954:	01112423          	sw	a7,8(sp)
    a958:	bfcff0ef          	jal	9d54 <__sprint_r.part.0>
    a95c:	f4051863          	bnez	a0,a0ac <_vfiprintf_r+0x21c>
    a960:	00c12e83          	lw	t4,12(sp)
    a964:	04412703          	lw	a4,68(sp)
    a968:	04812783          	lw	a5,72(sp)
    a96c:	41dd8db3          	sub	s11,s11,t4
    a970:	01012303          	lw	t1,16(sp)
    a974:	00812883          	lw	a7,8(sp)
    a978:	000a8413          	mv	s0,s5
    a97c:	00170593          	add	a1,a4,1
    a980:	8bb056e3          	blez	s11,a22c <_vfiprintf_r+0x39c>
    a984:	00012f37          	lui	t5,0x12
    a988:	b98f0f13          	add	t5,t5,-1128 # 11b98 <zeroes.0>
    a98c:	0bba5063          	bge	s4,s11,aa2c <_vfiprintf_r+0xb9c>
    a990:	00040613          	mv	a2,s0
    a994:	00700e13          	li	t3,7
    a998:	000d8413          	mv	s0,s11
    a99c:	01112423          	sw	a7,8(sp)
    a9a0:	01d12623          	sw	t4,12(sp)
    a9a4:	00612823          	sw	t1,16(sp)
    a9a8:	000c8d93          	mv	s11,s9
    a9ac:	0180006f          	j	a9c4 <_vfiprintf_r+0xb34>
    a9b0:	00270593          	add	a1,a4,2
    a9b4:	00860613          	add	a2,a2,8
    a9b8:	00068713          	mv	a4,a3
    a9bc:	ff040413          	add	s0,s0,-16
    a9c0:	048a5a63          	bge	s4,s0,aa14 <_vfiprintf_r+0xb84>
    a9c4:	01078793          	add	a5,a5,16
    a9c8:	00170693          	add	a3,a4,1
    a9cc:	01962023          	sw	s9,0(a2)
    a9d0:	01462223          	sw	s4,4(a2)
    a9d4:	04f12423          	sw	a5,72(sp)
    a9d8:	04d12223          	sw	a3,68(sp)
    a9dc:	fcde5ae3          	bge	t3,a3,a9b0 <_vfiprintf_r+0xb20>
    a9e0:	06078a63          	beqz	a5,aa54 <_vfiprintf_r+0xbc4>
    a9e4:	04010613          	add	a2,sp,64
    a9e8:	000b0593          	mv	a1,s6
    a9ec:	000c0513          	mv	a0,s8
    a9f0:	b64ff0ef          	jal	9d54 <__sprint_r.part.0>
    a9f4:	ea051c63          	bnez	a0,a0ac <_vfiprintf_r+0x21c>
    a9f8:	04412703          	lw	a4,68(sp)
    a9fc:	ff040413          	add	s0,s0,-16
    aa00:	04812783          	lw	a5,72(sp)
    aa04:	000a8613          	mv	a2,s5
    aa08:	00170593          	add	a1,a4,1
    aa0c:	00700e13          	li	t3,7
    aa10:	fa8a4ae3          	blt	s4,s0,a9c4 <_vfiprintf_r+0xb34>
    aa14:	00812883          	lw	a7,8(sp)
    aa18:	00c12e83          	lw	t4,12(sp)
    aa1c:	01012303          	lw	t1,16(sp)
    aa20:	000d8f13          	mv	t5,s11
    aa24:	00040d93          	mv	s11,s0
    aa28:	00060413          	mv	s0,a2
    aa2c:	01b787b3          	add	a5,a5,s11
    aa30:	01e42023          	sw	t5,0(s0)
    aa34:	01b42223          	sw	s11,4(s0)
    aa38:	04f12423          	sw	a5,72(sp)
    aa3c:	04b12223          	sw	a1,68(sp)
    aa40:	00700713          	li	a4,7
    aa44:	22b74063          	blt	a4,a1,ac64 <_vfiprintf_r+0xdd4>
    aa48:	00840413          	add	s0,s0,8
    aa4c:	00158593          	add	a1,a1,1
    aa50:	fdcff06f          	j	a22c <_vfiprintf_r+0x39c>
    aa54:	00100593          	li	a1,1
    aa58:	00000713          	li	a4,0
    aa5c:	000a8613          	mv	a2,s5
    aa60:	f5dff06f          	j	a9bc <_vfiprintf_r+0xb2c>
    aa64:	00100613          	li	a2,1
    aa68:	00000713          	li	a4,0
    aa6c:	000a8593          	mv	a1,s5
    aa70:	e39ff06f          	j	a8a8 <_vfiprintf_r+0xa18>
    aa74:	04078a63          	beqz	a5,aac8 <_vfiprintf_r+0xc38>
    aa78:	04010613          	add	a2,sp,64
    aa7c:	000b0593          	mv	a1,s6
    aa80:	000c0513          	mv	a0,s8
    aa84:	02612223          	sw	t1,36(sp)
    aa88:	03d12023          	sw	t4,32(sp)
    aa8c:	00512823          	sw	t0,16(sp)
    aa90:	01f12623          	sw	t6,12(sp)
    aa94:	01112423          	sw	a7,8(sp)
    aa98:	abcff0ef          	jal	9d54 <__sprint_r.part.0>
    aa9c:	e0051863          	bnez	a0,a0ac <_vfiprintf_r+0x21c>
    aaa0:	04412703          	lw	a4,68(sp)
    aaa4:	04812783          	lw	a5,72(sp)
    aaa8:	02412303          	lw	t1,36(sp)
    aaac:	02012e83          	lw	t4,32(sp)
    aab0:	01012283          	lw	t0,16(sp)
    aab4:	00c12f83          	lw	t6,12(sp)
    aab8:	00812883          	lw	a7,8(sp)
    aabc:	000a8413          	mv	s0,s5
    aac0:	00170593          	add	a1,a4,1
    aac4:	ee8ff06f          	j	a1ac <_vfiprintf_r+0x31c>
    aac8:	3e0f8063          	beqz	t6,aea8 <_vfiprintf_r+0x1018>
    aacc:	03c10793          	add	a5,sp,60
    aad0:	04f12623          	sw	a5,76(sp)
    aad4:	00200793          	li	a5,2
    aad8:	04f12823          	sw	a5,80(sp)
    aadc:	00100593          	li	a1,1
    aae0:	000a8413          	mv	s0,s5
    aae4:	00058713          	mv	a4,a1
    aae8:	00840413          	add	s0,s0,8
    aaec:	00158593          	add	a1,a1,1
    aaf0:	f2cff06f          	j	a21c <_vfiprintf_r+0x38c>
    aaf4:	00200713          	li	a4,2
    aaf8:	00068893          	mv	a7,a3
    aafc:	c40708e3          	beqz	a4,a74c <_vfiprintf_r+0x8bc>
    ab00:	00412583          	lw	a1,4(sp)
    ab04:	0f010493          	add	s1,sp,240
    ab08:	00f7f713          	and	a4,a5,15
    ab0c:	00e58733          	add	a4,a1,a4
    ab10:	00074683          	lbu	a3,0(a4)
    ab14:	0047d793          	srl	a5,a5,0x4
    ab18:	01c61713          	sll	a4,a2,0x1c
    ab1c:	00f767b3          	or	a5,a4,a5
    ab20:	00465613          	srl	a2,a2,0x4
    ab24:	fed48fa3          	sb	a3,-1(s1)
    ab28:	00c7e733          	or	a4,a5,a2
    ab2c:	fff48493          	add	s1,s1,-1
    ab30:	fc071ce3          	bnez	a4,ab08 <_vfiprintf_r+0xc78>
    ab34:	0f010793          	add	a5,sp,240
    ab38:	40978eb3          	sub	t4,a5,s1
    ab3c:	000d8313          	mv	t1,s11
    ab40:	99ddd8e3          	bge	s11,t4,a4d0 <_vfiprintf_r+0x640>
    ab44:	000e8313          	mv	t1,t4
    ab48:	989ff06f          	j	a4d0 <_vfiprintf_r+0x640>
    ab4c:	01000593          	li	a1,16
    ab50:	62d5d263          	bge	a1,a3,b174 <_vfiprintf_r+0x12e4>
    ab54:	00012e37          	lui	t3,0x12
    ab58:	ba8e0e13          	add	t3,t3,-1112 # 11ba8 <blanks.1>
    ab5c:	02912223          	sw	s1,36(sp)
    ab60:	00040593          	mv	a1,s0
    ab64:	01000f13          	li	t5,16
    ab68:	00700393          	li	t2,7
    ab6c:	01112423          	sw	a7,8(sp)
    ab70:	01f12623          	sw	t6,12(sp)
    ab74:	00512823          	sw	t0,16(sp)
    ab78:	03d12023          	sw	t4,32(sp)
    ab7c:	02612423          	sw	t1,40(sp)
    ab80:	00068413          	mv	s0,a3
    ab84:	000e0493          	mv	s1,t3
    ab88:	01c0006f          	j	aba4 <_vfiprintf_r+0xd14>
    ab8c:	00270513          	add	a0,a4,2
    ab90:	00858593          	add	a1,a1,8
    ab94:	00060713          	mv	a4,a2
    ab98:	ff040413          	add	s0,s0,-16
    ab9c:	048f5c63          	bge	t5,s0,abf4 <_vfiprintf_r+0xd64>
    aba0:	00170613          	add	a2,a4,1
    aba4:	01078793          	add	a5,a5,16
    aba8:	0095a023          	sw	s1,0(a1)
    abac:	01e5a223          	sw	t5,4(a1)
    abb0:	04f12423          	sw	a5,72(sp)
    abb4:	04c12223          	sw	a2,68(sp)
    abb8:	fcc3dae3          	bge	t2,a2,ab8c <_vfiprintf_r+0xcfc>
    abbc:	08078463          	beqz	a5,ac44 <_vfiprintf_r+0xdb4>
    abc0:	04010613          	add	a2,sp,64
    abc4:	000b0593          	mv	a1,s6
    abc8:	000c0513          	mv	a0,s8
    abcc:	988ff0ef          	jal	9d54 <__sprint_r.part.0>
    abd0:	cc051e63          	bnez	a0,a0ac <_vfiprintf_r+0x21c>
    abd4:	04412703          	lw	a4,68(sp)
    abd8:	01000f13          	li	t5,16
    abdc:	ff040413          	add	s0,s0,-16
    abe0:	04812783          	lw	a5,72(sp)
    abe4:	000a8593          	mv	a1,s5
    abe8:	00170513          	add	a0,a4,1
    abec:	00700393          	li	t2,7
    abf0:	fa8f48e3          	blt	t5,s0,aba0 <_vfiprintf_r+0xd10>
    abf4:	00048e13          	mv	t3,s1
    abf8:	00812883          	lw	a7,8(sp)
    abfc:	00c12f83          	lw	t6,12(sp)
    ac00:	01012283          	lw	t0,16(sp)
    ac04:	02012e83          	lw	t4,32(sp)
    ac08:	02812303          	lw	t1,40(sp)
    ac0c:	02412483          	lw	s1,36(sp)
    ac10:	00040693          	mv	a3,s0
    ac14:	00058413          	mv	s0,a1
    ac18:	00d787b3          	add	a5,a5,a3
    ac1c:	01c42023          	sw	t3,0(s0)
    ac20:	00d42223          	sw	a3,4(s0)
    ac24:	04f12423          	sw	a5,72(sp)
    ac28:	04a12223          	sw	a0,68(sp)
    ac2c:	00700713          	li	a4,7
    ac30:	0ea74a63          	blt	a4,a0,ad24 <_vfiprintf_r+0xe94>
    ac34:	00840413          	add	s0,s0,8
    ac38:	00150593          	add	a1,a0,1
    ac3c:	00050713          	mv	a4,a0
    ac40:	d34ff06f          	j	a174 <_vfiprintf_r+0x2e4>
    ac44:	00000713          	li	a4,0
    ac48:	00100513          	li	a0,1
    ac4c:	000a8593          	mv	a1,s5
    ac50:	f49ff06f          	j	ab98 <_vfiprintf_r+0xd08>
    ac54:	006bd463          	bge	s7,t1,ac5c <_vfiprintf_r+0xdcc>
    ac58:	00030b93          	mv	s7,t1
    ac5c:	01790933          	add	s2,s2,s7
    ac60:	e38ff06f          	j	a298 <_vfiprintf_r+0x408>
    ac64:	bc0782e3          	beqz	a5,a828 <_vfiprintf_r+0x998>
    ac68:	04010613          	add	a2,sp,64
    ac6c:	000b0593          	mv	a1,s6
    ac70:	000c0513          	mv	a0,s8
    ac74:	00612823          	sw	t1,16(sp)
    ac78:	01d12623          	sw	t4,12(sp)
    ac7c:	01112423          	sw	a7,8(sp)
    ac80:	8d4ff0ef          	jal	9d54 <__sprint_r.part.0>
    ac84:	c2051463          	bnez	a0,a0ac <_vfiprintf_r+0x21c>
    ac88:	04412583          	lw	a1,68(sp)
    ac8c:	04812783          	lw	a5,72(sp)
    ac90:	01012303          	lw	t1,16(sp)
    ac94:	00c12e83          	lw	t4,12(sp)
    ac98:	00812883          	lw	a7,8(sp)
    ac9c:	000a8413          	mv	s0,s5
    aca0:	00158593          	add	a1,a1,1
    aca4:	d88ff06f          	j	a22c <_vfiprintf_r+0x39c>
    aca8:	04012223          	sw	zero,68(sp)
    acac:	000a8413          	mv	s0,s5
    acb0:	b40ff06f          	j	9ff0 <_vfiprintf_r+0x160>
    acb4:	010ef713          	and	a4,t4,16
    acb8:	000d2783          	lw	a5,0(s10)
    acbc:	004d0d13          	add	s10,s10,4
    acc0:	00071a63          	bnez	a4,acd4 <_vfiprintf_r+0xe44>
    acc4:	040ef713          	and	a4,t4,64
    acc8:	40070c63          	beqz	a4,b0e0 <_vfiprintf_r+0x1250>
    accc:	01079793          	sll	a5,a5,0x10
    acd0:	0107d793          	srl	a5,a5,0x10
    acd4:	00000313          	li	t1,0
    acd8:	a3dff06f          	j	a714 <_vfiprintf_r+0x884>
    acdc:	01077693          	and	a3,a4,16
    ace0:	000d2783          	lw	a5,0(s10)
    ace4:	004d0d13          	add	s10,s10,4
    ace8:	02069263          	bnez	a3,ad0c <_vfiprintf_r+0xe7c>
    acec:	04077693          	and	a3,a4,64
    acf0:	00068a63          	beqz	a3,ad04 <_vfiprintf_r+0xe74>
    acf4:	01079793          	sll	a5,a5,0x10
    acf8:	0107d793          	srl	a5,a5,0x10
    acfc:	00000613          	li	a2,0
    ad00:	985ff06f          	j	a684 <_vfiprintf_r+0x7f4>
    ad04:	20077693          	and	a3,a4,512
    ad08:	44069663          	bnez	a3,b154 <_vfiprintf_r+0x12c4>
    ad0c:	00000613          	li	a2,0
    ad10:	975ff06f          	j	a684 <_vfiprintf_r+0x7f4>
    ad14:	00100593          	li	a1,1
    ad18:	00000713          	li	a4,0
    ad1c:	000a8413          	mv	s0,s5
    ad20:	cfcff06f          	j	a21c <_vfiprintf_r+0x38c>
    ad24:	24078e63          	beqz	a5,af80 <_vfiprintf_r+0x10f0>
    ad28:	04010613          	add	a2,sp,64
    ad2c:	000b0593          	mv	a1,s6
    ad30:	000c0513          	mv	a0,s8
    ad34:	02612223          	sw	t1,36(sp)
    ad38:	03d12023          	sw	t4,32(sp)
    ad3c:	00512823          	sw	t0,16(sp)
    ad40:	01f12623          	sw	t6,12(sp)
    ad44:	01112423          	sw	a7,8(sp)
    ad48:	80cff0ef          	jal	9d54 <__sprint_r.part.0>
    ad4c:	b6051063          	bnez	a0,a0ac <_vfiprintf_r+0x21c>
    ad50:	04412703          	lw	a4,68(sp)
    ad54:	04812783          	lw	a5,72(sp)
    ad58:	02412303          	lw	t1,36(sp)
    ad5c:	02012e83          	lw	t4,32(sp)
    ad60:	01012283          	lw	t0,16(sp)
    ad64:	00c12f83          	lw	t6,12(sp)
    ad68:	00812883          	lw	a7,8(sp)
    ad6c:	000a8413          	mv	s0,s5
    ad70:	00170593          	add	a1,a4,1
    ad74:	c00ff06f          	j	a174 <_vfiprintf_r+0x2e4>
    ad78:	ccccdfb7          	lui	t6,0xccccd
    ad7c:	ccccd2b7          	lui	t0,0xccccd
    ad80:	01412803          	lw	a6,20(sp)
    ad84:	4008fe93          	and	t4,a7,1024
    ad88:	00000613          	li	a2,0
    ad8c:	0f010593          	add	a1,sp,240
    ad90:	00500e13          	li	t3,5
    ad94:	ccdf8f93          	add	t6,t6,-819 # cccccccd <_end+0xcccb7a69>
    ad98:	ccc28293          	add	t0,t0,-820 # cccccccc <_end+0xcccb7a68>
    ad9c:	0ff00f13          	li	t5,255
    ada0:	0540006f          	j	adf4 <_vfiprintf_r+0xf64>
    ada4:	00f4b733          	sltu	a4,s1,a5
    ada8:	00e48733          	add	a4,s1,a4
    adac:	03c77733          	remu	a4,a4,t3
    adb0:	40e78733          	sub	a4,a5,a4
    adb4:	00e7b5b3          	sltu	a1,a5,a4
    adb8:	40b305b3          	sub	a1,t1,a1
    adbc:	025703b3          	mul	t2,a4,t0
    adc0:	03f585b3          	mul	a1,a1,t6
    adc4:	03f73533          	mulhu	a0,a4,t6
    adc8:	007585b3          	add	a1,a1,t2
    adcc:	03f70733          	mul	a4,a4,t6
    add0:	00a585b3          	add	a1,a1,a0
    add4:	01f59513          	sll	a0,a1,0x1f
    add8:	0015d593          	srl	a1,a1,0x1
    addc:	00175713          	srl	a4,a4,0x1
    ade0:	00e56733          	or	a4,a0,a4
    ade4:	32030663          	beqz	t1,b110 <_vfiprintf_r+0x1280>
    ade8:	00058313          	mv	t1,a1
    adec:	00070793          	mv	a5,a4
    adf0:	00068593          	mv	a1,a3
    adf4:	006784b3          	add	s1,a5,t1
    adf8:	00f4b733          	sltu	a4,s1,a5
    adfc:	00e48733          	add	a4,s1,a4
    ae00:	03c77733          	remu	a4,a4,t3
    ae04:	fff58693          	add	a3,a1,-1
    ae08:	00160613          	add	a2,a2,1
    ae0c:	40e78733          	sub	a4,a5,a4
    ae10:	00e7b3b3          	sltu	t2,a5,a4
    ae14:	407303b3          	sub	t2,t1,t2
    ae18:	03f73533          	mulhu	a0,a4,t6
    ae1c:	03f383b3          	mul	t2,t2,t6
    ae20:	03f70733          	mul	a4,a4,t6
    ae24:	00a383b3          	add	t2,t2,a0
    ae28:	01f39393          	sll	t2,t2,0x1f
    ae2c:	00175513          	srl	a0,a4,0x1
    ae30:	00a3e533          	or	a0,t2,a0
    ae34:	00251713          	sll	a4,a0,0x2
    ae38:	00a70733          	add	a4,a4,a0
    ae3c:	00171713          	sll	a4,a4,0x1
    ae40:	40e78733          	sub	a4,a5,a4
    ae44:	03070713          	add	a4,a4,48
    ae48:	fee58fa3          	sb	a4,-1(a1)
    ae4c:	f40e8ce3          	beqz	t4,ada4 <_vfiprintf_r+0xf14>
    ae50:	00084703          	lbu	a4,0(a6)
    ae54:	f4c718e3          	bne	a4,a2,ada4 <_vfiprintf_r+0xf14>
    ae58:	f5e606e3          	beq	a2,t5,ada4 <_vfiprintf_r+0xf14>
    ae5c:	14031463          	bnez	t1,afa4 <_vfiprintf_r+0x1114>
    ae60:	00900713          	li	a4,9
    ae64:	14f76063          	bltu	a4,a5,afa4 <_vfiprintf_r+0x1114>
    ae68:	01012a23          	sw	a6,20(sp)
    ae6c:	00068493          	mv	s1,a3
    ae70:	cc5ff06f          	j	ab34 <_vfiprintf_r+0xca4>
    ae74:	00000313          	li	t1,0
    ae78:	0f010493          	add	s1,sp,240
    ae7c:	e54ff06f          	j	a4d0 <_vfiprintf_r+0x640>
    ae80:	00840413          	add	s0,s0,8
    ae84:	00160593          	add	a1,a2,1
    ae88:	00060713          	mv	a4,a2
    ae8c:	b98ff06f          	j	a224 <_vfiprintf_r+0x394>
    ae90:	000d2783          	lw	a5,0(s10)
    ae94:	41f95713          	sra	a4,s2,0x1f
    ae98:	004d0d13          	add	s10,s10,4
    ae9c:	0127a023          	sw	s2,0(a5)
    aea0:	00e7a223          	sw	a4,4(a5)
    aea4:	8dcff06f          	j	9f80 <_vfiprintf_r+0xf0>
    aea8:	00000713          	li	a4,0
    aeac:	00100593          	li	a1,1
    aeb0:	000a8413          	mv	s0,s5
    aeb4:	b68ff06f          	j	a21c <_vfiprintf_r+0x38c>
    aeb8:	000e8313          	mv	t1,t4
    aebc:	00058493          	mv	s1,a1
    aec0:	e10ff06f          	j	a4d0 <_vfiprintf_r+0x640>
    aec4:	fff00d93          	li	s11,-1
    aec8:	00060993          	mv	s3,a2
    aecc:	954ff06f          	j	a020 <_vfiprintf_r+0x190>
    aed0:	00088e93          	mv	t4,a7
    aed4:	825ff06f          	j	a6f8 <_vfiprintf_r+0x868>
    aed8:	00088713          	mv	a4,a7
    aedc:	f8cff06f          	j	a668 <_vfiprintf_r+0x7d8>
    aee0:	000117b7          	lui	a5,0x11
    aee4:	72478793          	add	a5,a5,1828 # 11724 <_getpid_r+0x608>
    aee8:	00f12223          	sw	a5,4(sp)
    aeec:	0208f793          	and	a5,a7,32
    aef0:	04078a63          	beqz	a5,af44 <_vfiprintf_r+0x10b4>
    aef4:	007d0d13          	add	s10,s10,7
    aef8:	ff8d7d13          	and	s10,s10,-8
    aefc:	000d2783          	lw	a5,0(s10)
    af00:	004d2603          	lw	a2,4(s10)
    af04:	008d0d13          	add	s10,s10,8
    af08:	0018f713          	and	a4,a7,1
    af0c:	00070e63          	beqz	a4,af28 <_vfiprintf_r+0x1098>
    af10:	00c7e733          	or	a4,a5,a2
    af14:	00070a63          	beqz	a4,af28 <_vfiprintf_r+0x1098>
    af18:	03000713          	li	a4,48
    af1c:	02e10e23          	sb	a4,60(sp)
    af20:	02d10ea3          	sb	a3,61(sp)
    af24:	0028e893          	or	a7,a7,2
    af28:	bff8f893          	and	a7,a7,-1025
    af2c:	8a9ff06f          	j	a7d4 <_vfiprintf_r+0x944>
    af30:	000117b7          	lui	a5,0x11
    af34:	71078793          	add	a5,a5,1808 # 11710 <_getpid_r+0x5f4>
    af38:	00f12223          	sw	a5,4(sp)
    af3c:	0208f793          	and	a5,a7,32
    af40:	fa079ae3          	bnez	a5,aef4 <_vfiprintf_r+0x1064>
    af44:	0108f713          	and	a4,a7,16
    af48:	000d2783          	lw	a5,0(s10)
    af4c:	004d0d13          	add	s10,s10,4
    af50:	12071263          	bnez	a4,b074 <_vfiprintf_r+0x11e4>
    af54:	0408f713          	and	a4,a7,64
    af58:	10070a63          	beqz	a4,b06c <_vfiprintf_r+0x11dc>
    af5c:	01079793          	sll	a5,a5,0x10
    af60:	0107d793          	srl	a5,a5,0x10
    af64:	00000613          	li	a2,0
    af68:	fa1ff06f          	j	af08 <_vfiprintf_r+0x1078>
    af6c:	00048513          	mv	a0,s1
    af70:	e65fb0ef          	jal	6dd4 <strlen>
    af74:	00812883          	lw	a7,8(sp)
    af78:	00050e93          	mv	t4,a0
    af7c:	d98ff06f          	j	a514 <_vfiprintf_r+0x684>
    af80:	03b14703          	lbu	a4,59(sp)
    af84:	1a070063          	beqz	a4,b124 <_vfiprintf_r+0x1294>
    af88:	03b10793          	add	a5,sp,59
    af8c:	04f12623          	sw	a5,76(sp)
    af90:	00100793          	li	a5,1
    af94:	04f12823          	sw	a5,80(sp)
    af98:	00100593          	li	a1,1
    af9c:	000a8413          	mv	s0,s5
    afa0:	a00ff06f          	j	a1a0 <_vfiprintf_r+0x310>
    afa4:	02f12423          	sw	a5,40(sp)
    afa8:	01812783          	lw	a5,24(sp)
    afac:	01c12583          	lw	a1,28(sp)
    afb0:	02612623          	sw	t1,44(sp)
    afb4:	40f686b3          	sub	a3,a3,a5
    afb8:	00078613          	mv	a2,a5
    afbc:	00068513          	mv	a0,a3
    afc0:	02512223          	sw	t0,36(sp)
    afc4:	03f12023          	sw	t6,32(sp)
    afc8:	01d12a23          	sw	t4,20(sp)
    afcc:	01012823          	sw	a6,16(sp)
    afd0:	01112623          	sw	a7,12(sp)
    afd4:	00d12423          	sw	a3,8(sp)
    afd8:	2a0010ef          	jal	c278 <strncpy>
    afdc:	02812783          	lw	a5,40(sp)
    afe0:	00500613          	li	a2,5
    afe4:	01012803          	lw	a6,16(sp)
    afe8:	00f4b733          	sltu	a4,s1,a5
    afec:	00e48733          	add	a4,s1,a4
    aff0:	02c77733          	remu	a4,a4,a2
    aff4:	00184583          	lbu	a1,1(a6)
    aff8:	02c12303          	lw	t1,44(sp)
    affc:	ccccd537          	lui	a0,0xccccd
    b000:	00b035b3          	snez	a1,a1
    b004:	ccccd3b7          	lui	t2,0xccccd
    b008:	00b80833          	add	a6,a6,a1
    b00c:	ccd50513          	add	a0,a0,-819 # cccccccd <_end+0xcccb7a69>
    b010:	ccc38393          	add	t2,t2,-820 # cccccccc <_end+0xcccb7a68>
    b014:	00812683          	lw	a3,8(sp)
    b018:	00c12883          	lw	a7,12(sp)
    b01c:	01412e83          	lw	t4,20(sp)
    b020:	02012f83          	lw	t6,32(sp)
    b024:	02412283          	lw	t0,36(sp)
    b028:	00000613          	li	a2,0
    b02c:	00500e13          	li	t3,5
    b030:	0ff00f13          	li	t5,255
    b034:	40e78733          	sub	a4,a5,a4
    b038:	00e7b5b3          	sltu	a1,a5,a4
    b03c:	40b305b3          	sub	a1,t1,a1
    b040:	027703b3          	mul	t2,a4,t2
    b044:	02a585b3          	mul	a1,a1,a0
    b048:	02a73333          	mulhu	t1,a4,a0
    b04c:	007585b3          	add	a1,a1,t2
    b050:	02a707b3          	mul	a5,a4,a0
    b054:	006585b3          	add	a1,a1,t1
    b058:	01f59713          	sll	a4,a1,0x1f
    b05c:	0015d593          	srl	a1,a1,0x1
    b060:	0017d793          	srl	a5,a5,0x1
    b064:	00f76733          	or	a4,a4,a5
    b068:	d81ff06f          	j	ade8 <_vfiprintf_r+0xf58>
    b06c:	2008f713          	and	a4,a7,512
    b070:	0e071863          	bnez	a4,b160 <_vfiprintf_r+0x12d0>
    b074:	00000613          	li	a2,0
    b078:	e91ff06f          	j	af08 <_vfiprintf_r+0x1078>
    b07c:	00070893          	mv	a7,a4
    b080:	00000713          	li	a4,0
    b084:	ec070463          	beqz	a4,a74c <_vfiprintf_r+0x8bc>
    b088:	a79ff06f          	j	ab00 <_vfiprintf_r+0xc70>
    b08c:	df0fb0ef          	jal	667c <__sinit>
    b090:	e3dfe06f          	j	9ecc <_vfiprintf_r+0x3c>
    b094:	0019c783          	lbu	a5,1(s3)
    b098:	2008e893          	or	a7,a7,512
    b09c:	00198993          	add	s3,s3,1
    b0a0:	f79fe06f          	j	a018 <_vfiprintf_r+0x188>
    b0a4:	0019c783          	lbu	a5,1(s3)
    b0a8:	0208e893          	or	a7,a7,32
    b0ac:	00198993          	add	s3,s3,1
    b0b0:	f69fe06f          	j	a018 <_vfiprintf_r+0x188>
    b0b4:	000d2783          	lw	a5,0(s10)
    b0b8:	004d0d13          	add	s10,s10,4
    b0bc:	0127a023          	sw	s2,0(a5)
    b0c0:	ec1fe06f          	j	9f80 <_vfiprintf_r+0xf0>
    b0c4:	00600793          	li	a5,6
    b0c8:	000d8e93          	mv	t4,s11
    b0cc:	05b7e863          	bltu	a5,s11,b11c <_vfiprintf_r+0x128c>
    b0d0:	000114b7          	lui	s1,0x11
    b0d4:	000e8313          	mv	t1,t4
    b0d8:	73848493          	add	s1,s1,1848 # 11738 <_getpid_r+0x61c>
    b0dc:	870ff06f          	j	a14c <_vfiprintf_r+0x2bc>
    b0e0:	200ef713          	and	a4,t4,512
    b0e4:	be0708e3          	beqz	a4,acd4 <_vfiprintf_r+0xe44>
    b0e8:	0ff7f793          	zext.b	a5,a5
    b0ec:	00000313          	li	t1,0
    b0f0:	e24ff06f          	j	a714 <_vfiprintf_r+0x884>
    b0f4:	00000793          	li	a5,0
    b0f8:	00000613          	li	a2,0
    b0fc:	a05ff06f          	j	ab00 <_vfiprintf_r+0xc70>
    b100:	00100593          	li	a1,1
    b104:	00000713          	li	a4,0
    b108:	000a8413          	mv	s0,s5
    b10c:	918ff06f          	j	a224 <_vfiprintf_r+0x394>
    b110:	00900513          	li	a0,9
    b114:	ccf56ae3          	bltu	a0,a5,ade8 <_vfiprintf_r+0xf58>
    b118:	d51ff06f          	j	ae68 <_vfiprintf_r+0xfd8>
    b11c:	00600e93          	li	t4,6
    b120:	fb1ff06f          	j	b0d0 <_vfiprintf_r+0x1240>
    b124:	00100593          	li	a1,1
    b128:	000a8413          	mv	s0,s5
    b12c:	880ff06f          	j	a1ac <_vfiprintf_r+0x31c>
    b130:	000d2783          	lw	a5,0(s10)
    b134:	004d0d13          	add	s10,s10,4
    b138:	01279023          	sh	s2,0(a5)
    b13c:	e45fe06f          	j	9f80 <_vfiprintf_r+0xf0>
    b140:	01879793          	sll	a5,a5,0x18
    b144:	4187d793          	sra	a5,a5,0x18
    b148:	41f7d313          	sra	t1,a5,0x1f
    b14c:	00030713          	mv	a4,t1
    b150:	9bcff06f          	j	a30c <_vfiprintf_r+0x47c>
    b154:	0ff7f793          	zext.b	a5,a5
    b158:	00000613          	li	a2,0
    b15c:	d28ff06f          	j	a684 <_vfiprintf_r+0x7f4>
    b160:	0ff7f793          	zext.b	a5,a5
    b164:	00000613          	li	a2,0
    b168:	da1ff06f          	j	af08 <_vfiprintf_r+0x1078>
    b16c:	03000793          	li	a5,48
    b170:	b48ff06f          	j	a4b8 <_vfiprintf_r+0x628>
    b174:	00012e37          	lui	t3,0x12
    b178:	00060513          	mv	a0,a2
    b17c:	ba8e0e13          	add	t3,t3,-1112 # 11ba8 <blanks.1>
    b180:	a99ff06f          	j	ac18 <_vfiprintf_r+0xd88>
    b184:	00012e37          	lui	t3,0x12
    b188:	00168613          	add	a2,a3,1
    b18c:	ba8e0e13          	add	t3,t3,-1112 # 11ba8 <blanks.1>
    b190:	a84ff06f          	j	a414 <_vfiprintf_r+0x584>
    b194:	fff00d13          	li	s10,-1
    b198:	f45fe06f          	j	a0dc <_vfiprintf_r+0x24c>
    b19c:	00012f37          	lui	t5,0x12
    b1a0:	00058613          	mv	a2,a1
    b1a4:	b98f0f13          	add	t5,t5,-1128 # 11b98 <zeroes.0>
    b1a8:	f78ff06f          	j	a920 <_vfiprintf_r+0xa90>
    b1ac:	000d2d83          	lw	s11,0(s10)
    b1b0:	004d0d13          	add	s10,s10,4
    b1b4:	000dd463          	bgez	s11,b1bc <_vfiprintf_r+0x132c>
    b1b8:	fff00d93          	li	s11,-1
    b1bc:	0019c783          	lbu	a5,1(s3)
    b1c0:	00060993          	mv	s3,a2
    b1c4:	e55fe06f          	j	a018 <_vfiprintf_r+0x188>

0000b1c8 <vfiprintf>:
    b1c8:	00050793          	mv	a5,a0
    b1cc:	86c1a503          	lw	a0,-1940(gp) # 12724 <_impure_ptr>
    b1d0:	00060693          	mv	a3,a2
    b1d4:	00058613          	mv	a2,a1
    b1d8:	00078593          	mv	a1,a5
    b1dc:	cb5fe06f          	j	9e90 <_vfiprintf_r>

0000b1e0 <__sbprintf>:
    b1e0:	b8010113          	add	sp,sp,-1152
    b1e4:	00c59783          	lh	a5,12(a1)
    b1e8:	00e5d703          	lhu	a4,14(a1)
    b1ec:	46812c23          	sw	s0,1144(sp)
    b1f0:	00058413          	mv	s0,a1
    b1f4:	000105b7          	lui	a1,0x10
    b1f8:	ffd58593          	add	a1,a1,-3 # fffd <_realloc_r+0x55>
    b1fc:	06442e03          	lw	t3,100(s0)
    b200:	01c42303          	lw	t1,28(s0)
    b204:	02442883          	lw	a7,36(s0)
    b208:	01071713          	sll	a4,a4,0x10
    b20c:	00b7f7b3          	and	a5,a5,a1
    b210:	00e7e7b3          	or	a5,a5,a4
    b214:	40000813          	li	a6,1024
    b218:	00f12a23          	sw	a5,20(sp)
    b21c:	00810593          	add	a1,sp,8
    b220:	07010793          	add	a5,sp,112
    b224:	46912a23          	sw	s1,1140(sp)
    b228:	47212823          	sw	s2,1136(sp)
    b22c:	46112e23          	sw	ra,1148(sp)
    b230:	00050913          	mv	s2,a0
    b234:	07c12623          	sw	t3,108(sp)
    b238:	02612223          	sw	t1,36(sp)
    b23c:	03112623          	sw	a7,44(sp)
    b240:	00f12423          	sw	a5,8(sp)
    b244:	00f12c23          	sw	a5,24(sp)
    b248:	01012823          	sw	a6,16(sp)
    b24c:	01012e23          	sw	a6,28(sp)
    b250:	02012023          	sw	zero,32(sp)
    b254:	c3dfe0ef          	jal	9e90 <_vfiprintf_r>
    b258:	00050493          	mv	s1,a0
    b25c:	02055c63          	bgez	a0,b294 <__sbprintf+0xb4>
    b260:	01415783          	lhu	a5,20(sp)
    b264:	0407f793          	and	a5,a5,64
    b268:	00078863          	beqz	a5,b278 <__sbprintf+0x98>
    b26c:	00c45783          	lhu	a5,12(s0)
    b270:	0407e793          	or	a5,a5,64
    b274:	00f41623          	sh	a5,12(s0)
    b278:	47c12083          	lw	ra,1148(sp)
    b27c:	47812403          	lw	s0,1144(sp)
    b280:	47012903          	lw	s2,1136(sp)
    b284:	00048513          	mv	a0,s1
    b288:	47412483          	lw	s1,1140(sp)
    b28c:	48010113          	add	sp,sp,1152
    b290:	00008067          	ret
    b294:	00810593          	add	a1,sp,8
    b298:	00090513          	mv	a0,s2
    b29c:	370000ef          	jal	b60c <_fflush_r>
    b2a0:	fc0500e3          	beqz	a0,b260 <__sbprintf+0x80>
    b2a4:	fff00493          	li	s1,-1
    b2a8:	fb9ff06f          	j	b260 <__sbprintf+0x80>

0000b2ac <_fclose_r>:
    b2ac:	ff010113          	add	sp,sp,-16
    b2b0:	00112623          	sw	ra,12(sp)
    b2b4:	01212023          	sw	s2,0(sp)
    b2b8:	02058863          	beqz	a1,b2e8 <_fclose_r+0x3c>
    b2bc:	00812423          	sw	s0,8(sp)
    b2c0:	00912223          	sw	s1,4(sp)
    b2c4:	00058413          	mv	s0,a1
    b2c8:	00050493          	mv	s1,a0
    b2cc:	00050663          	beqz	a0,b2d8 <_fclose_r+0x2c>
    b2d0:	03452783          	lw	a5,52(a0)
    b2d4:	0c078c63          	beqz	a5,b3ac <_fclose_r+0x100>
    b2d8:	00c41783          	lh	a5,12(s0)
    b2dc:	02079263          	bnez	a5,b300 <_fclose_r+0x54>
    b2e0:	00812403          	lw	s0,8(sp)
    b2e4:	00412483          	lw	s1,4(sp)
    b2e8:	00c12083          	lw	ra,12(sp)
    b2ec:	00000913          	li	s2,0
    b2f0:	00090513          	mv	a0,s2
    b2f4:	00012903          	lw	s2,0(sp)
    b2f8:	01010113          	add	sp,sp,16
    b2fc:	00008067          	ret
    b300:	00040593          	mv	a1,s0
    b304:	00048513          	mv	a0,s1
    b308:	0b8000ef          	jal	b3c0 <__sflush_r>
    b30c:	02c42783          	lw	a5,44(s0)
    b310:	00050913          	mv	s2,a0
    b314:	00078a63          	beqz	a5,b328 <_fclose_r+0x7c>
    b318:	01c42583          	lw	a1,28(s0)
    b31c:	00048513          	mv	a0,s1
    b320:	000780e7          	jalr	a5
    b324:	06054463          	bltz	a0,b38c <_fclose_r+0xe0>
    b328:	00c45783          	lhu	a5,12(s0)
    b32c:	0807f793          	and	a5,a5,128
    b330:	06079663          	bnez	a5,b39c <_fclose_r+0xf0>
    b334:	03042583          	lw	a1,48(s0)
    b338:	00058c63          	beqz	a1,b350 <_fclose_r+0xa4>
    b33c:	04040793          	add	a5,s0,64
    b340:	00f58663          	beq	a1,a5,b34c <_fclose_r+0xa0>
    b344:	00048513          	mv	a0,s1
    b348:	da1fb0ef          	jal	70e8 <_free_r>
    b34c:	02042823          	sw	zero,48(s0)
    b350:	04442583          	lw	a1,68(s0)
    b354:	00058863          	beqz	a1,b364 <_fclose_r+0xb8>
    b358:	00048513          	mv	a0,s1
    b35c:	d8dfb0ef          	jal	70e8 <_free_r>
    b360:	04042223          	sw	zero,68(s0)
    b364:	b3cfb0ef          	jal	66a0 <__sfp_lock_acquire>
    b368:	00041623          	sh	zero,12(s0)
    b36c:	b38fb0ef          	jal	66a4 <__sfp_lock_release>
    b370:	00c12083          	lw	ra,12(sp)
    b374:	00812403          	lw	s0,8(sp)
    b378:	00412483          	lw	s1,4(sp)
    b37c:	00090513          	mv	a0,s2
    b380:	00012903          	lw	s2,0(sp)
    b384:	01010113          	add	sp,sp,16
    b388:	00008067          	ret
    b38c:	00c45783          	lhu	a5,12(s0)
    b390:	fff00913          	li	s2,-1
    b394:	0807f793          	and	a5,a5,128
    b398:	f8078ee3          	beqz	a5,b334 <_fclose_r+0x88>
    b39c:	01042583          	lw	a1,16(s0)
    b3a0:	00048513          	mv	a0,s1
    b3a4:	d45fb0ef          	jal	70e8 <_free_r>
    b3a8:	f8dff06f          	j	b334 <_fclose_r+0x88>
    b3ac:	ad0fb0ef          	jal	667c <__sinit>
    b3b0:	f29ff06f          	j	b2d8 <_fclose_r+0x2c>

0000b3b4 <fclose>:
    b3b4:	00050593          	mv	a1,a0
    b3b8:	86c1a503          	lw	a0,-1940(gp) # 12724 <_impure_ptr>
    b3bc:	ef1ff06f          	j	b2ac <_fclose_r>

0000b3c0 <__sflush_r>:
    b3c0:	00c59703          	lh	a4,12(a1)
    b3c4:	fe010113          	add	sp,sp,-32
    b3c8:	00812c23          	sw	s0,24(sp)
    b3cc:	01312623          	sw	s3,12(sp)
    b3d0:	00112e23          	sw	ra,28(sp)
    b3d4:	00877793          	and	a5,a4,8
    b3d8:	00058413          	mv	s0,a1
    b3dc:	00050993          	mv	s3,a0
    b3e0:	12079063          	bnez	a5,b500 <__sflush_r+0x140>
    b3e4:	000017b7          	lui	a5,0x1
    b3e8:	80078793          	add	a5,a5,-2048 # 800 <__adddf3+0x114>
    b3ec:	0045a683          	lw	a3,4(a1)
    b3f0:	00f767b3          	or	a5,a4,a5
    b3f4:	00f59623          	sh	a5,12(a1)
    b3f8:	18d05263          	blez	a3,b57c <__sflush_r+0x1bc>
    b3fc:	02842803          	lw	a6,40(s0)
    b400:	0e080463          	beqz	a6,b4e8 <__sflush_r+0x128>
    b404:	00912a23          	sw	s1,20(sp)
    b408:	01371693          	sll	a3,a4,0x13
    b40c:	0009a483          	lw	s1,0(s3)
    b410:	0009a023          	sw	zero,0(s3)
    b414:	01c42583          	lw	a1,28(s0)
    b418:	1606ce63          	bltz	a3,b594 <__sflush_r+0x1d4>
    b41c:	00000613          	li	a2,0
    b420:	00100693          	li	a3,1
    b424:	00098513          	mv	a0,s3
    b428:	000800e7          	jalr	a6
    b42c:	fff00793          	li	a5,-1
    b430:	00050613          	mv	a2,a0
    b434:	1af50463          	beq	a0,a5,b5dc <__sflush_r+0x21c>
    b438:	00c41783          	lh	a5,12(s0)
    b43c:	02842803          	lw	a6,40(s0)
    b440:	01c42583          	lw	a1,28(s0)
    b444:	0047f793          	and	a5,a5,4
    b448:	00078e63          	beqz	a5,b464 <__sflush_r+0xa4>
    b44c:	00442703          	lw	a4,4(s0)
    b450:	03042783          	lw	a5,48(s0)
    b454:	40e60633          	sub	a2,a2,a4
    b458:	00078663          	beqz	a5,b464 <__sflush_r+0xa4>
    b45c:	03c42783          	lw	a5,60(s0)
    b460:	40f60633          	sub	a2,a2,a5
    b464:	00000693          	li	a3,0
    b468:	00098513          	mv	a0,s3
    b46c:	000800e7          	jalr	a6
    b470:	fff00793          	li	a5,-1
    b474:	12f51463          	bne	a0,a5,b59c <__sflush_r+0x1dc>
    b478:	0009a683          	lw	a3,0(s3)
    b47c:	01d00793          	li	a5,29
    b480:	00c41703          	lh	a4,12(s0)
    b484:	16d7ea63          	bltu	a5,a3,b5f8 <__sflush_r+0x238>
    b488:	204007b7          	lui	a5,0x20400
    b48c:	00178793          	add	a5,a5,1 # 20400001 <_end+0x203ead9d>
    b490:	00d7d7b3          	srl	a5,a5,a3
    b494:	0017f793          	and	a5,a5,1
    b498:	16078063          	beqz	a5,b5f8 <__sflush_r+0x238>
    b49c:	01042603          	lw	a2,16(s0)
    b4a0:	fffff7b7          	lui	a5,0xfffff
    b4a4:	7ff78793          	add	a5,a5,2047 # fffff7ff <_end+0xfffea59b>
    b4a8:	00f777b3          	and	a5,a4,a5
    b4ac:	00f41623          	sh	a5,12(s0)
    b4b0:	00042223          	sw	zero,4(s0)
    b4b4:	00c42023          	sw	a2,0(s0)
    b4b8:	01371793          	sll	a5,a4,0x13
    b4bc:	0007d463          	bgez	a5,b4c4 <__sflush_r+0x104>
    b4c0:	10068263          	beqz	a3,b5c4 <__sflush_r+0x204>
    b4c4:	03042583          	lw	a1,48(s0)
    b4c8:	0099a023          	sw	s1,0(s3)
    b4cc:	10058463          	beqz	a1,b5d4 <__sflush_r+0x214>
    b4d0:	04040793          	add	a5,s0,64
    b4d4:	00f58663          	beq	a1,a5,b4e0 <__sflush_r+0x120>
    b4d8:	00098513          	mv	a0,s3
    b4dc:	c0dfb0ef          	jal	70e8 <_free_r>
    b4e0:	01412483          	lw	s1,20(sp)
    b4e4:	02042823          	sw	zero,48(s0)
    b4e8:	00000513          	li	a0,0
    b4ec:	01c12083          	lw	ra,28(sp)
    b4f0:	01812403          	lw	s0,24(sp)
    b4f4:	00c12983          	lw	s3,12(sp)
    b4f8:	02010113          	add	sp,sp,32
    b4fc:	00008067          	ret
    b500:	01212823          	sw	s2,16(sp)
    b504:	0105a903          	lw	s2,16(a1)
    b508:	08090263          	beqz	s2,b58c <__sflush_r+0x1cc>
    b50c:	00912a23          	sw	s1,20(sp)
    b510:	0005a483          	lw	s1,0(a1)
    b514:	00377713          	and	a4,a4,3
    b518:	0125a023          	sw	s2,0(a1)
    b51c:	412484b3          	sub	s1,s1,s2
    b520:	00000793          	li	a5,0
    b524:	00071463          	bnez	a4,b52c <__sflush_r+0x16c>
    b528:	0145a783          	lw	a5,20(a1)
    b52c:	00f42423          	sw	a5,8(s0)
    b530:	00904863          	bgtz	s1,b540 <__sflush_r+0x180>
    b534:	0540006f          	j	b588 <__sflush_r+0x1c8>
    b538:	00a90933          	add	s2,s2,a0
    b53c:	04905663          	blez	s1,b588 <__sflush_r+0x1c8>
    b540:	02442783          	lw	a5,36(s0)
    b544:	01c42583          	lw	a1,28(s0)
    b548:	00048693          	mv	a3,s1
    b54c:	00090613          	mv	a2,s2
    b550:	00098513          	mv	a0,s3
    b554:	000780e7          	jalr	a5
    b558:	40a484b3          	sub	s1,s1,a0
    b55c:	fca04ee3          	bgtz	a0,b538 <__sflush_r+0x178>
    b560:	00c41703          	lh	a4,12(s0)
    b564:	01012903          	lw	s2,16(sp)
    b568:	04076713          	or	a4,a4,64
    b56c:	01412483          	lw	s1,20(sp)
    b570:	00e41623          	sh	a4,12(s0)
    b574:	fff00513          	li	a0,-1
    b578:	f75ff06f          	j	b4ec <__sflush_r+0x12c>
    b57c:	03c5a683          	lw	a3,60(a1)
    b580:	e6d04ee3          	bgtz	a3,b3fc <__sflush_r+0x3c>
    b584:	f65ff06f          	j	b4e8 <__sflush_r+0x128>
    b588:	01412483          	lw	s1,20(sp)
    b58c:	01012903          	lw	s2,16(sp)
    b590:	f59ff06f          	j	b4e8 <__sflush_r+0x128>
    b594:	05042603          	lw	a2,80(s0)
    b598:	eadff06f          	j	b444 <__sflush_r+0x84>
    b59c:	00c41703          	lh	a4,12(s0)
    b5a0:	01042683          	lw	a3,16(s0)
    b5a4:	fffff7b7          	lui	a5,0xfffff
    b5a8:	7ff78793          	add	a5,a5,2047 # fffff7ff <_end+0xfffea59b>
    b5ac:	00f777b3          	and	a5,a4,a5
    b5b0:	00f41623          	sh	a5,12(s0)
    b5b4:	00042223          	sw	zero,4(s0)
    b5b8:	00d42023          	sw	a3,0(s0)
    b5bc:	01371793          	sll	a5,a4,0x13
    b5c0:	f007d2e3          	bgez	a5,b4c4 <__sflush_r+0x104>
    b5c4:	03042583          	lw	a1,48(s0)
    b5c8:	04a42823          	sw	a0,80(s0)
    b5cc:	0099a023          	sw	s1,0(s3)
    b5d0:	f00590e3          	bnez	a1,b4d0 <__sflush_r+0x110>
    b5d4:	01412483          	lw	s1,20(sp)
    b5d8:	f11ff06f          	j	b4e8 <__sflush_r+0x128>
    b5dc:	0009a783          	lw	a5,0(s3)
    b5e0:	e4078ce3          	beqz	a5,b438 <__sflush_r+0x78>
    b5e4:	01d00713          	li	a4,29
    b5e8:	00e78c63          	beq	a5,a4,b600 <__sflush_r+0x240>
    b5ec:	01600713          	li	a4,22
    b5f0:	00e78863          	beq	a5,a4,b600 <__sflush_r+0x240>
    b5f4:	00c41703          	lh	a4,12(s0)
    b5f8:	04076713          	or	a4,a4,64
    b5fc:	f71ff06f          	j	b56c <__sflush_r+0x1ac>
    b600:	0099a023          	sw	s1,0(s3)
    b604:	01412483          	lw	s1,20(sp)
    b608:	ee1ff06f          	j	b4e8 <__sflush_r+0x128>

0000b60c <_fflush_r>:
    b60c:	fe010113          	add	sp,sp,-32
    b610:	00812c23          	sw	s0,24(sp)
    b614:	00112e23          	sw	ra,28(sp)
    b618:	00050413          	mv	s0,a0
    b61c:	00050663          	beqz	a0,b628 <_fflush_r+0x1c>
    b620:	03452783          	lw	a5,52(a0)
    b624:	02078a63          	beqz	a5,b658 <_fflush_r+0x4c>
    b628:	00c59783          	lh	a5,12(a1)
    b62c:	00079c63          	bnez	a5,b644 <_fflush_r+0x38>
    b630:	01c12083          	lw	ra,28(sp)
    b634:	01812403          	lw	s0,24(sp)
    b638:	00000513          	li	a0,0
    b63c:	02010113          	add	sp,sp,32
    b640:	00008067          	ret
    b644:	00040513          	mv	a0,s0
    b648:	01812403          	lw	s0,24(sp)
    b64c:	01c12083          	lw	ra,28(sp)
    b650:	02010113          	add	sp,sp,32
    b654:	d6dff06f          	j	b3c0 <__sflush_r>
    b658:	00b12623          	sw	a1,12(sp)
    b65c:	820fb0ef          	jal	667c <__sinit>
    b660:	00c12583          	lw	a1,12(sp)
    b664:	fc5ff06f          	j	b628 <_fflush_r+0x1c>

0000b668 <fflush>:
    b668:	06050063          	beqz	a0,b6c8 <fflush+0x60>
    b66c:	00050593          	mv	a1,a0
    b670:	86c1a503          	lw	a0,-1940(gp) # 12724 <_impure_ptr>
    b674:	00050663          	beqz	a0,b680 <fflush+0x18>
    b678:	03452783          	lw	a5,52(a0)
    b67c:	00078c63          	beqz	a5,b694 <fflush+0x2c>
    b680:	00c59783          	lh	a5,12(a1)
    b684:	00079663          	bnez	a5,b690 <fflush+0x28>
    b688:	00000513          	li	a0,0
    b68c:	00008067          	ret
    b690:	d31ff06f          	j	b3c0 <__sflush_r>
    b694:	fe010113          	add	sp,sp,-32
    b698:	00b12623          	sw	a1,12(sp)
    b69c:	00a12423          	sw	a0,8(sp)
    b6a0:	00112e23          	sw	ra,28(sp)
    b6a4:	fd9fa0ef          	jal	667c <__sinit>
    b6a8:	00c12583          	lw	a1,12(sp)
    b6ac:	00812503          	lw	a0,8(sp)
    b6b0:	00c59783          	lh	a5,12(a1)
    b6b4:	02079863          	bnez	a5,b6e4 <fflush+0x7c>
    b6b8:	01c12083          	lw	ra,28(sp)
    b6bc:	00000513          	li	a0,0
    b6c0:	02010113          	add	sp,sp,32
    b6c4:	00008067          	ret
    b6c8:	00012637          	lui	a2,0x12
    b6cc:	0000b5b7          	lui	a1,0xb
    b6d0:	00012537          	lui	a0,0x12
    b6d4:	41860613          	add	a2,a2,1048 # 12418 <__sglue>
    b6d8:	60c58593          	add	a1,a1,1548 # b60c <_fflush_r>
    b6dc:	42850513          	add	a0,a0,1064 # 12428 <_impure_data>
    b6e0:	ff9fa06f          	j	66d8 <_fwalk_sglue>
    b6e4:	01c12083          	lw	ra,28(sp)
    b6e8:	02010113          	add	sp,sp,32
    b6ec:	cd5ff06f          	j	b3c0 <__sflush_r>

0000b6f0 <__sfvwrite_r>:
    b6f0:	00862783          	lw	a5,8(a2)
    b6f4:	2c078463          	beqz	a5,b9bc <__sfvwrite_r+0x2cc>
    b6f8:	00c59683          	lh	a3,12(a1)
    b6fc:	fd010113          	add	sp,sp,-48
    b700:	02812423          	sw	s0,40(sp)
    b704:	01412c23          	sw	s4,24(sp)
    b708:	01612823          	sw	s6,16(sp)
    b70c:	02112623          	sw	ra,44(sp)
    b710:	0086f793          	and	a5,a3,8
    b714:	00060b13          	mv	s6,a2
    b718:	00050a13          	mv	s4,a0
    b71c:	00058413          	mv	s0,a1
    b720:	08078e63          	beqz	a5,b7bc <__sfvwrite_r+0xcc>
    b724:	0105a783          	lw	a5,16(a1)
    b728:	08078a63          	beqz	a5,b7bc <__sfvwrite_r+0xcc>
    b72c:	02912223          	sw	s1,36(sp)
    b730:	03212023          	sw	s2,32(sp)
    b734:	01312e23          	sw	s3,28(sp)
    b738:	01512a23          	sw	s5,20(sp)
    b73c:	0026f793          	and	a5,a3,2
    b740:	000b2483          	lw	s1,0(s6)
    b744:	0a078463          	beqz	a5,b7ec <__sfvwrite_r+0xfc>
    b748:	02442783          	lw	a5,36(s0)
    b74c:	01c42583          	lw	a1,28(s0)
    b750:	80000ab7          	lui	s5,0x80000
    b754:	00000993          	li	s3,0
    b758:	00000913          	li	s2,0
    b75c:	c00a8a93          	add	s5,s5,-1024 # 7ffffc00 <_end+0x7ffea99c>
    b760:	00098613          	mv	a2,s3
    b764:	000a0513          	mv	a0,s4
    b768:	04090263          	beqz	s2,b7ac <__sfvwrite_r+0xbc>
    b76c:	00090693          	mv	a3,s2
    b770:	012af463          	bgeu	s5,s2,b778 <__sfvwrite_r+0x88>
    b774:	000a8693          	mv	a3,s5
    b778:	000780e7          	jalr	a5
    b77c:	46a05063          	blez	a0,bbdc <__sfvwrite_r+0x4ec>
    b780:	008b2783          	lw	a5,8(s6)
    b784:	00a989b3          	add	s3,s3,a0
    b788:	40a90933          	sub	s2,s2,a0
    b78c:	40a787b3          	sub	a5,a5,a0
    b790:	00fb2423          	sw	a5,8(s6)
    b794:	1a078663          	beqz	a5,b940 <__sfvwrite_r+0x250>
    b798:	02442783          	lw	a5,36(s0)
    b79c:	01c42583          	lw	a1,28(s0)
    b7a0:	00098613          	mv	a2,s3
    b7a4:	000a0513          	mv	a0,s4
    b7a8:	fc0912e3          	bnez	s2,b76c <__sfvwrite_r+0x7c>
    b7ac:	0004a983          	lw	s3,0(s1)
    b7b0:	0044a903          	lw	s2,4(s1)
    b7b4:	00848493          	add	s1,s1,8
    b7b8:	fa9ff06f          	j	b760 <__sfvwrite_r+0x70>
    b7bc:	00040593          	mv	a1,s0
    b7c0:	000a0513          	mv	a0,s4
    b7c4:	714000ef          	jal	bed8 <__swsetup_r>
    b7c8:	1c051c63          	bnez	a0,b9a0 <__sfvwrite_r+0x2b0>
    b7cc:	00c41683          	lh	a3,12(s0)
    b7d0:	02912223          	sw	s1,36(sp)
    b7d4:	03212023          	sw	s2,32(sp)
    b7d8:	01312e23          	sw	s3,28(sp)
    b7dc:	01512a23          	sw	s5,20(sp)
    b7e0:	0026f793          	and	a5,a3,2
    b7e4:	000b2483          	lw	s1,0(s6)
    b7e8:	f60790e3          	bnez	a5,b748 <__sfvwrite_r+0x58>
    b7ec:	01712623          	sw	s7,12(sp)
    b7f0:	01812423          	sw	s8,8(sp)
    b7f4:	0016f793          	and	a5,a3,1
    b7f8:	1c079663          	bnez	a5,b9c4 <__sfvwrite_r+0x2d4>
    b7fc:	00042783          	lw	a5,0(s0)
    b800:	00842703          	lw	a4,8(s0)
    b804:	80000ab7          	lui	s5,0x80000
    b808:	01912223          	sw	s9,4(sp)
    b80c:	00000b93          	li	s7,0
    b810:	00000993          	li	s3,0
    b814:	fffa8a93          	add	s5,s5,-1 # 7fffffff <_end+0x7ffead9b>
    b818:	00078513          	mv	a0,a5
    b81c:	00070c13          	mv	s8,a4
    b820:	10098263          	beqz	s3,b924 <__sfvwrite_r+0x234>
    b824:	2006f613          	and	a2,a3,512
    b828:	28060863          	beqz	a2,bab8 <__sfvwrite_r+0x3c8>
    b82c:	00070c93          	mv	s9,a4
    b830:	32e9e663          	bltu	s3,a4,bb5c <__sfvwrite_r+0x46c>
    b834:	4806f713          	and	a4,a3,1152
    b838:	08070a63          	beqz	a4,b8cc <__sfvwrite_r+0x1dc>
    b83c:	01442603          	lw	a2,20(s0)
    b840:	01042583          	lw	a1,16(s0)
    b844:	00161713          	sll	a4,a2,0x1
    b848:	00c70733          	add	a4,a4,a2
    b84c:	40b78933          	sub	s2,a5,a1
    b850:	01f75c13          	srl	s8,a4,0x1f
    b854:	00ec0c33          	add	s8,s8,a4
    b858:	00190793          	add	a5,s2,1
    b85c:	401c5c13          	sra	s8,s8,0x1
    b860:	013787b3          	add	a5,a5,s3
    b864:	000c0613          	mv	a2,s8
    b868:	00fc7663          	bgeu	s8,a5,b874 <__sfvwrite_r+0x184>
    b86c:	00078c13          	mv	s8,a5
    b870:	00078613          	mv	a2,a5
    b874:	4006f693          	and	a3,a3,1024
    b878:	30068e63          	beqz	a3,bb94 <__sfvwrite_r+0x4a4>
    b87c:	00060593          	mv	a1,a2
    b880:	000a0513          	mv	a0,s4
    b884:	afcfa0ef          	jal	5b80 <_malloc_r>
    b888:	00050c93          	mv	s9,a0
    b88c:	34050c63          	beqz	a0,bbe4 <__sfvwrite_r+0x4f4>
    b890:	01042583          	lw	a1,16(s0)
    b894:	00090613          	mv	a2,s2
    b898:	521000ef          	jal	c5b8 <memcpy>
    b89c:	00c45783          	lhu	a5,12(s0)
    b8a0:	b7f7f793          	and	a5,a5,-1153
    b8a4:	0807e793          	or	a5,a5,128
    b8a8:	00f41623          	sh	a5,12(s0)
    b8ac:	012c8533          	add	a0,s9,s2
    b8b0:	412c07b3          	sub	a5,s8,s2
    b8b4:	01942823          	sw	s9,16(s0)
    b8b8:	01842a23          	sw	s8,20(s0)
    b8bc:	00a42023          	sw	a0,0(s0)
    b8c0:	00098c13          	mv	s8,s3
    b8c4:	00f42423          	sw	a5,8(s0)
    b8c8:	00098c93          	mv	s9,s3
    b8cc:	000c8613          	mv	a2,s9
    b8d0:	000b8593          	mv	a1,s7
    b8d4:	3d9000ef          	jal	c4ac <memmove>
    b8d8:	00842703          	lw	a4,8(s0)
    b8dc:	00042783          	lw	a5,0(s0)
    b8e0:	00098913          	mv	s2,s3
    b8e4:	41870733          	sub	a4,a4,s8
    b8e8:	019787b3          	add	a5,a5,s9
    b8ec:	00e42423          	sw	a4,8(s0)
    b8f0:	00f42023          	sw	a5,0(s0)
    b8f4:	00000993          	li	s3,0
    b8f8:	008b2783          	lw	a5,8(s6)
    b8fc:	012b8bb3          	add	s7,s7,s2
    b900:	412787b3          	sub	a5,a5,s2
    b904:	00fb2423          	sw	a5,8(s6)
    b908:	02078663          	beqz	a5,b934 <__sfvwrite_r+0x244>
    b90c:	00042783          	lw	a5,0(s0)
    b910:	00842703          	lw	a4,8(s0)
    b914:	00c41683          	lh	a3,12(s0)
    b918:	00078513          	mv	a0,a5
    b91c:	00070c13          	mv	s8,a4
    b920:	f00992e3          	bnez	s3,b824 <__sfvwrite_r+0x134>
    b924:	0004ab83          	lw	s7,0(s1)
    b928:	0044a983          	lw	s3,4(s1)
    b92c:	00848493          	add	s1,s1,8
    b930:	ee9ff06f          	j	b818 <__sfvwrite_r+0x128>
    b934:	00c12b83          	lw	s7,12(sp)
    b938:	00812c03          	lw	s8,8(sp)
    b93c:	00412c83          	lw	s9,4(sp)
    b940:	02c12083          	lw	ra,44(sp)
    b944:	02812403          	lw	s0,40(sp)
    b948:	02412483          	lw	s1,36(sp)
    b94c:	02012903          	lw	s2,32(sp)
    b950:	01c12983          	lw	s3,28(sp)
    b954:	01412a83          	lw	s5,20(sp)
    b958:	01812a03          	lw	s4,24(sp)
    b95c:	01012b03          	lw	s6,16(sp)
    b960:	00000513          	li	a0,0
    b964:	03010113          	add	sp,sp,48
    b968:	00008067          	ret
    b96c:	00040593          	mv	a1,s0
    b970:	000a0513          	mv	a0,s4
    b974:	c99ff0ef          	jal	b60c <_fflush_r>
    b978:	0a050e63          	beqz	a0,ba34 <__sfvwrite_r+0x344>
    b97c:	00c41783          	lh	a5,12(s0)
    b980:	00c12b83          	lw	s7,12(sp)
    b984:	00812c03          	lw	s8,8(sp)
    b988:	02412483          	lw	s1,36(sp)
    b98c:	02012903          	lw	s2,32(sp)
    b990:	01c12983          	lw	s3,28(sp)
    b994:	01412a83          	lw	s5,20(sp)
    b998:	0407e793          	or	a5,a5,64
    b99c:	00f41623          	sh	a5,12(s0)
    b9a0:	02c12083          	lw	ra,44(sp)
    b9a4:	02812403          	lw	s0,40(sp)
    b9a8:	01812a03          	lw	s4,24(sp)
    b9ac:	01012b03          	lw	s6,16(sp)
    b9b0:	fff00513          	li	a0,-1
    b9b4:	03010113          	add	sp,sp,48
    b9b8:	00008067          	ret
    b9bc:	00000513          	li	a0,0
    b9c0:	00008067          	ret
    b9c4:	00000a93          	li	s5,0
    b9c8:	00000513          	li	a0,0
    b9cc:	00000c13          	li	s8,0
    b9d0:	00000993          	li	s3,0
    b9d4:	08098263          	beqz	s3,ba58 <__sfvwrite_r+0x368>
    b9d8:	08050a63          	beqz	a0,ba6c <__sfvwrite_r+0x37c>
    b9dc:	000a8793          	mv	a5,s5
    b9e0:	00098b93          	mv	s7,s3
    b9e4:	0137f463          	bgeu	a5,s3,b9ec <__sfvwrite_r+0x2fc>
    b9e8:	00078b93          	mv	s7,a5
    b9ec:	00042503          	lw	a0,0(s0)
    b9f0:	01042783          	lw	a5,16(s0)
    b9f4:	00842903          	lw	s2,8(s0)
    b9f8:	01442683          	lw	a3,20(s0)
    b9fc:	00a7f663          	bgeu	a5,a0,ba08 <__sfvwrite_r+0x318>
    ba00:	00d90933          	add	s2,s2,a3
    ba04:	09794463          	blt	s2,s7,ba8c <__sfvwrite_r+0x39c>
    ba08:	16dbc063          	blt	s7,a3,bb68 <__sfvwrite_r+0x478>
    ba0c:	02442783          	lw	a5,36(s0)
    ba10:	01c42583          	lw	a1,28(s0)
    ba14:	000c0613          	mv	a2,s8
    ba18:	000a0513          	mv	a0,s4
    ba1c:	000780e7          	jalr	a5
    ba20:	00050913          	mv	s2,a0
    ba24:	f4a05ce3          	blez	a0,b97c <__sfvwrite_r+0x28c>
    ba28:	412a8ab3          	sub	s5,s5,s2
    ba2c:	00100513          	li	a0,1
    ba30:	f20a8ee3          	beqz	s5,b96c <__sfvwrite_r+0x27c>
    ba34:	008b2783          	lw	a5,8(s6)
    ba38:	012c0c33          	add	s8,s8,s2
    ba3c:	412989b3          	sub	s3,s3,s2
    ba40:	412787b3          	sub	a5,a5,s2
    ba44:	00fb2423          	sw	a5,8(s6)
    ba48:	f80796e3          	bnez	a5,b9d4 <__sfvwrite_r+0x2e4>
    ba4c:	00c12b83          	lw	s7,12(sp)
    ba50:	00812c03          	lw	s8,8(sp)
    ba54:	eedff06f          	j	b940 <__sfvwrite_r+0x250>
    ba58:	0044a983          	lw	s3,4(s1)
    ba5c:	00048793          	mv	a5,s1
    ba60:	00848493          	add	s1,s1,8
    ba64:	fe098ae3          	beqz	s3,ba58 <__sfvwrite_r+0x368>
    ba68:	0007ac03          	lw	s8,0(a5)
    ba6c:	00098613          	mv	a2,s3
    ba70:	00a00593          	li	a1,10
    ba74:	000c0513          	mv	a0,s8
    ba78:	73c000ef          	jal	c1b4 <memchr>
    ba7c:	14050a63          	beqz	a0,bbd0 <__sfvwrite_r+0x4e0>
    ba80:	00150513          	add	a0,a0,1
    ba84:	41850ab3          	sub	s5,a0,s8
    ba88:	f55ff06f          	j	b9dc <__sfvwrite_r+0x2ec>
    ba8c:	000c0593          	mv	a1,s8
    ba90:	00090613          	mv	a2,s2
    ba94:	219000ef          	jal	c4ac <memmove>
    ba98:	00042783          	lw	a5,0(s0)
    ba9c:	00040593          	mv	a1,s0
    baa0:	000a0513          	mv	a0,s4
    baa4:	012787b3          	add	a5,a5,s2
    baa8:	00f42023          	sw	a5,0(s0)
    baac:	b61ff0ef          	jal	b60c <_fflush_r>
    bab0:	f6050ce3          	beqz	a0,ba28 <__sfvwrite_r+0x338>
    bab4:	ec9ff06f          	j	b97c <__sfvwrite_r+0x28c>
    bab8:	01042683          	lw	a3,16(s0)
    babc:	04f6e263          	bltu	a3,a5,bb00 <__sfvwrite_r+0x410>
    bac0:	01442603          	lw	a2,20(s0)
    bac4:	02c9ee63          	bltu	s3,a2,bb00 <__sfvwrite_r+0x410>
    bac8:	00098793          	mv	a5,s3
    bacc:	013af463          	bgeu	s5,s3,bad4 <__sfvwrite_r+0x3e4>
    bad0:	000a8793          	mv	a5,s5
    bad4:	02c7e6b3          	rem	a3,a5,a2
    bad8:	02442703          	lw	a4,36(s0)
    badc:	01c42583          	lw	a1,28(s0)
    bae0:	000b8613          	mv	a2,s7
    bae4:	000a0513          	mv	a0,s4
    bae8:	40d786b3          	sub	a3,a5,a3
    baec:	000700e7          	jalr	a4
    baf0:	00050913          	mv	s2,a0
    baf4:	04a05a63          	blez	a0,bb48 <__sfvwrite_r+0x458>
    baf8:	412989b3          	sub	s3,s3,s2
    bafc:	dfdff06f          	j	b8f8 <__sfvwrite_r+0x208>
    bb00:	00070913          	mv	s2,a4
    bb04:	00e9f463          	bgeu	s3,a4,bb0c <__sfvwrite_r+0x41c>
    bb08:	00098913          	mv	s2,s3
    bb0c:	00078513          	mv	a0,a5
    bb10:	00090613          	mv	a2,s2
    bb14:	000b8593          	mv	a1,s7
    bb18:	195000ef          	jal	c4ac <memmove>
    bb1c:	00842703          	lw	a4,8(s0)
    bb20:	00042783          	lw	a5,0(s0)
    bb24:	41270733          	sub	a4,a4,s2
    bb28:	012787b3          	add	a5,a5,s2
    bb2c:	00e42423          	sw	a4,8(s0)
    bb30:	00f42023          	sw	a5,0(s0)
    bb34:	fc0712e3          	bnez	a4,baf8 <__sfvwrite_r+0x408>
    bb38:	00040593          	mv	a1,s0
    bb3c:	000a0513          	mv	a0,s4
    bb40:	acdff0ef          	jal	b60c <_fflush_r>
    bb44:	fa050ae3          	beqz	a0,baf8 <__sfvwrite_r+0x408>
    bb48:	00c41783          	lh	a5,12(s0)
    bb4c:	00c12b83          	lw	s7,12(sp)
    bb50:	00812c03          	lw	s8,8(sp)
    bb54:	00412c83          	lw	s9,4(sp)
    bb58:	e31ff06f          	j	b988 <__sfvwrite_r+0x298>
    bb5c:	00098c13          	mv	s8,s3
    bb60:	00098c93          	mv	s9,s3
    bb64:	d69ff06f          	j	b8cc <__sfvwrite_r+0x1dc>
    bb68:	000b8613          	mv	a2,s7
    bb6c:	000c0593          	mv	a1,s8
    bb70:	13d000ef          	jal	c4ac <memmove>
    bb74:	00842703          	lw	a4,8(s0)
    bb78:	00042783          	lw	a5,0(s0)
    bb7c:	000b8913          	mv	s2,s7
    bb80:	41770733          	sub	a4,a4,s7
    bb84:	017787b3          	add	a5,a5,s7
    bb88:	00e42423          	sw	a4,8(s0)
    bb8c:	00f42023          	sw	a5,0(s0)
    bb90:	e99ff06f          	j	ba28 <__sfvwrite_r+0x338>
    bb94:	000a0513          	mv	a0,s4
    bb98:	410040ef          	jal	ffa8 <_realloc_r>
    bb9c:	00050c93          	mv	s9,a0
    bba0:	d00516e3          	bnez	a0,b8ac <__sfvwrite_r+0x1bc>
    bba4:	01042583          	lw	a1,16(s0)
    bba8:	000a0513          	mv	a0,s4
    bbac:	d3cfb0ef          	jal	70e8 <_free_r>
    bbb0:	00c41783          	lh	a5,12(s0)
    bbb4:	00c00713          	li	a4,12
    bbb8:	00c12b83          	lw	s7,12(sp)
    bbbc:	00812c03          	lw	s8,8(sp)
    bbc0:	00412c83          	lw	s9,4(sp)
    bbc4:	00ea2023          	sw	a4,0(s4)
    bbc8:	f7f7f793          	and	a5,a5,-129
    bbcc:	dbdff06f          	j	b988 <__sfvwrite_r+0x298>
    bbd0:	00198793          	add	a5,s3,1
    bbd4:	00078a93          	mv	s5,a5
    bbd8:	e09ff06f          	j	b9e0 <__sfvwrite_r+0x2f0>
    bbdc:	00c41783          	lh	a5,12(s0)
    bbe0:	da9ff06f          	j	b988 <__sfvwrite_r+0x298>
    bbe4:	00c00713          	li	a4,12
    bbe8:	00c41783          	lh	a5,12(s0)
    bbec:	00c12b83          	lw	s7,12(sp)
    bbf0:	00812c03          	lw	s8,8(sp)
    bbf4:	00412c83          	lw	s9,4(sp)
    bbf8:	00ea2023          	sw	a4,0(s4)
    bbfc:	d8dff06f          	j	b988 <__sfvwrite_r+0x298>

0000bc00 <_putc_r>:
    bc00:	fe010113          	add	sp,sp,-32
    bc04:	00812c23          	sw	s0,24(sp)
    bc08:	00112e23          	sw	ra,28(sp)
    bc0c:	00050413          	mv	s0,a0
    bc10:	00050663          	beqz	a0,bc1c <_putc_r+0x1c>
    bc14:	03452783          	lw	a5,52(a0)
    bc18:	06078063          	beqz	a5,bc78 <_putc_r+0x78>
    bc1c:	00862783          	lw	a5,8(a2)
    bc20:	fff78793          	add	a5,a5,-1
    bc24:	00f62423          	sw	a5,8(a2)
    bc28:	0007dc63          	bgez	a5,bc40 <_putc_r+0x40>
    bc2c:	01862703          	lw	a4,24(a2)
    bc30:	02e7ca63          	blt	a5,a4,bc64 <_putc_r+0x64>
    bc34:	0ff5f793          	zext.b	a5,a1
    bc38:	00a00713          	li	a4,10
    bc3c:	02e78463          	beq	a5,a4,bc64 <_putc_r+0x64>
    bc40:	00062783          	lw	a5,0(a2)
    bc44:	0ff5f513          	zext.b	a0,a1
    bc48:	00178713          	add	a4,a5,1
    bc4c:	00e62023          	sw	a4,0(a2)
    bc50:	00b78023          	sb	a1,0(a5)
    bc54:	01c12083          	lw	ra,28(sp)
    bc58:	01812403          	lw	s0,24(sp)
    bc5c:	02010113          	add	sp,sp,32
    bc60:	00008067          	ret
    bc64:	00040513          	mv	a0,s0
    bc68:	01812403          	lw	s0,24(sp)
    bc6c:	01c12083          	lw	ra,28(sp)
    bc70:	02010113          	add	sp,sp,32
    bc74:	0c00006f          	j	bd34 <__swbuf_r>
    bc78:	00c12623          	sw	a2,12(sp)
    bc7c:	00b12423          	sw	a1,8(sp)
    bc80:	9fdfa0ef          	jal	667c <__sinit>
    bc84:	00c12603          	lw	a2,12(sp)
    bc88:	00812583          	lw	a1,8(sp)
    bc8c:	f91ff06f          	j	bc1c <_putc_r+0x1c>

0000bc90 <putc>:
    bc90:	fe010113          	add	sp,sp,-32
    bc94:	01212a23          	sw	s2,20(sp)
    bc98:	86c1a903          	lw	s2,-1940(gp) # 12724 <_impure_ptr>
    bc9c:	00912c23          	sw	s1,24(sp)
    bca0:	00112e23          	sw	ra,28(sp)
    bca4:	00050493          	mv	s1,a0
    bca8:	00090663          	beqz	s2,bcb4 <putc+0x24>
    bcac:	03492783          	lw	a5,52(s2)
    bcb0:	06078863          	beqz	a5,bd20 <putc+0x90>
    bcb4:	0085a783          	lw	a5,8(a1)
    bcb8:	fff78793          	add	a5,a5,-1
    bcbc:	00f5a423          	sw	a5,8(a1)
    bcc0:	0007dc63          	bgez	a5,bcd8 <putc+0x48>
    bcc4:	0185a703          	lw	a4,24(a1)
    bcc8:	02e7cc63          	blt	a5,a4,bd00 <putc+0x70>
    bccc:	0ff4f793          	zext.b	a5,s1
    bcd0:	00a00713          	li	a4,10
    bcd4:	02e78663          	beq	a5,a4,bd00 <putc+0x70>
    bcd8:	0005a783          	lw	a5,0(a1)
    bcdc:	0ff4f513          	zext.b	a0,s1
    bce0:	00178713          	add	a4,a5,1
    bce4:	00e5a023          	sw	a4,0(a1)
    bce8:	00978023          	sb	s1,0(a5)
    bcec:	01c12083          	lw	ra,28(sp)
    bcf0:	01812483          	lw	s1,24(sp)
    bcf4:	01412903          	lw	s2,20(sp)
    bcf8:	02010113          	add	sp,sp,32
    bcfc:	00008067          	ret
    bd00:	01c12083          	lw	ra,28(sp)
    bd04:	00058613          	mv	a2,a1
    bd08:	00090513          	mv	a0,s2
    bd0c:	00048593          	mv	a1,s1
    bd10:	01412903          	lw	s2,20(sp)
    bd14:	01812483          	lw	s1,24(sp)
    bd18:	02010113          	add	sp,sp,32
    bd1c:	0180006f          	j	bd34 <__swbuf_r>
    bd20:	00090513          	mv	a0,s2
    bd24:	00b12623          	sw	a1,12(sp)
    bd28:	955fa0ef          	jal	667c <__sinit>
    bd2c:	00c12583          	lw	a1,12(sp)
    bd30:	f85ff06f          	j	bcb4 <putc+0x24>

0000bd34 <__swbuf_r>:
    bd34:	fe010113          	add	sp,sp,-32
    bd38:	00812c23          	sw	s0,24(sp)
    bd3c:	00912a23          	sw	s1,20(sp)
    bd40:	01212823          	sw	s2,16(sp)
    bd44:	00112e23          	sw	ra,28(sp)
    bd48:	00050913          	mv	s2,a0
    bd4c:	00058493          	mv	s1,a1
    bd50:	00060413          	mv	s0,a2
    bd54:	00050663          	beqz	a0,bd60 <__swbuf_r+0x2c>
    bd58:	03452783          	lw	a5,52(a0)
    bd5c:	16078063          	beqz	a5,bebc <__swbuf_r+0x188>
    bd60:	01842783          	lw	a5,24(s0)
    bd64:	00c41703          	lh	a4,12(s0)
    bd68:	00f42423          	sw	a5,8(s0)
    bd6c:	00877793          	and	a5,a4,8
    bd70:	08078063          	beqz	a5,bdf0 <__swbuf_r+0xbc>
    bd74:	01042783          	lw	a5,16(s0)
    bd78:	06078c63          	beqz	a5,bdf0 <__swbuf_r+0xbc>
    bd7c:	01312623          	sw	s3,12(sp)
    bd80:	01271693          	sll	a3,a4,0x12
    bd84:	0ff4f993          	zext.b	s3,s1
    bd88:	0ff4f493          	zext.b	s1,s1
    bd8c:	0806d863          	bgez	a3,be1c <__swbuf_r+0xe8>
    bd90:	00042703          	lw	a4,0(s0)
    bd94:	01442683          	lw	a3,20(s0)
    bd98:	40f707b3          	sub	a5,a4,a5
    bd9c:	0ad7d863          	bge	a5,a3,be4c <__swbuf_r+0x118>
    bda0:	00842683          	lw	a3,8(s0)
    bda4:	00170613          	add	a2,a4,1
    bda8:	00c42023          	sw	a2,0(s0)
    bdac:	fff68693          	add	a3,a3,-1
    bdb0:	00d42423          	sw	a3,8(s0)
    bdb4:	01370023          	sb	s3,0(a4)
    bdb8:	01442703          	lw	a4,20(s0)
    bdbc:	00178793          	add	a5,a5,1
    bdc0:	0cf70263          	beq	a4,a5,be84 <__swbuf_r+0x150>
    bdc4:	00c45783          	lhu	a5,12(s0)
    bdc8:	0017f793          	and	a5,a5,1
    bdcc:	0c079a63          	bnez	a5,bea0 <__swbuf_r+0x16c>
    bdd0:	00c12983          	lw	s3,12(sp)
    bdd4:	01c12083          	lw	ra,28(sp)
    bdd8:	01812403          	lw	s0,24(sp)
    bddc:	01012903          	lw	s2,16(sp)
    bde0:	00048513          	mv	a0,s1
    bde4:	01412483          	lw	s1,20(sp)
    bde8:	02010113          	add	sp,sp,32
    bdec:	00008067          	ret
    bdf0:	00040593          	mv	a1,s0
    bdf4:	00090513          	mv	a0,s2
    bdf8:	0e0000ef          	jal	bed8 <__swsetup_r>
    bdfc:	08051e63          	bnez	a0,be98 <__swbuf_r+0x164>
    be00:	00c41703          	lh	a4,12(s0)
    be04:	01312623          	sw	s3,12(sp)
    be08:	01042783          	lw	a5,16(s0)
    be0c:	01271693          	sll	a3,a4,0x12
    be10:	0ff4f993          	zext.b	s3,s1
    be14:	0ff4f493          	zext.b	s1,s1
    be18:	f606cce3          	bltz	a3,bd90 <__swbuf_r+0x5c>
    be1c:	06442683          	lw	a3,100(s0)
    be20:	ffffe637          	lui	a2,0xffffe
    be24:	000025b7          	lui	a1,0x2
    be28:	00b76733          	or	a4,a4,a1
    be2c:	fff60613          	add	a2,a2,-1 # ffffdfff <_end+0xfffe8d9b>
    be30:	00c6f6b3          	and	a3,a3,a2
    be34:	00e41623          	sh	a4,12(s0)
    be38:	00042703          	lw	a4,0(s0)
    be3c:	06d42223          	sw	a3,100(s0)
    be40:	01442683          	lw	a3,20(s0)
    be44:	40f707b3          	sub	a5,a4,a5
    be48:	f4d7cce3          	blt	a5,a3,bda0 <__swbuf_r+0x6c>
    be4c:	00040593          	mv	a1,s0
    be50:	00090513          	mv	a0,s2
    be54:	fb8ff0ef          	jal	b60c <_fflush_r>
    be58:	02051e63          	bnez	a0,be94 <__swbuf_r+0x160>
    be5c:	00042703          	lw	a4,0(s0)
    be60:	00842683          	lw	a3,8(s0)
    be64:	00100793          	li	a5,1
    be68:	00170613          	add	a2,a4,1
    be6c:	fff68693          	add	a3,a3,-1
    be70:	00c42023          	sw	a2,0(s0)
    be74:	00d42423          	sw	a3,8(s0)
    be78:	01370023          	sb	s3,0(a4)
    be7c:	01442703          	lw	a4,20(s0)
    be80:	f4f712e3          	bne	a4,a5,bdc4 <__swbuf_r+0x90>
    be84:	00040593          	mv	a1,s0
    be88:	00090513          	mv	a0,s2
    be8c:	f80ff0ef          	jal	b60c <_fflush_r>
    be90:	f40500e3          	beqz	a0,bdd0 <__swbuf_r+0x9c>
    be94:	00c12983          	lw	s3,12(sp)
    be98:	fff00493          	li	s1,-1
    be9c:	f39ff06f          	j	bdd4 <__swbuf_r+0xa0>
    bea0:	00a00793          	li	a5,10
    bea4:	f2f496e3          	bne	s1,a5,bdd0 <__swbuf_r+0x9c>
    bea8:	00040593          	mv	a1,s0
    beac:	00090513          	mv	a0,s2
    beb0:	f5cff0ef          	jal	b60c <_fflush_r>
    beb4:	f0050ee3          	beqz	a0,bdd0 <__swbuf_r+0x9c>
    beb8:	fddff06f          	j	be94 <__swbuf_r+0x160>
    bebc:	fc0fa0ef          	jal	667c <__sinit>
    bec0:	ea1ff06f          	j	bd60 <__swbuf_r+0x2c>

0000bec4 <__swbuf>:
    bec4:	00050793          	mv	a5,a0
    bec8:	86c1a503          	lw	a0,-1940(gp) # 12724 <_impure_ptr>
    becc:	00058613          	mv	a2,a1
    bed0:	00078593          	mv	a1,a5
    bed4:	e61ff06f          	j	bd34 <__swbuf_r>

0000bed8 <__swsetup_r>:
    bed8:	86c1a783          	lw	a5,-1940(gp) # 12724 <_impure_ptr>
    bedc:	ff010113          	add	sp,sp,-16
    bee0:	00812423          	sw	s0,8(sp)
    bee4:	00912223          	sw	s1,4(sp)
    bee8:	00112623          	sw	ra,12(sp)
    beec:	00050493          	mv	s1,a0
    bef0:	00058413          	mv	s0,a1
    bef4:	00078663          	beqz	a5,bf00 <__swsetup_r+0x28>
    bef8:	0347a703          	lw	a4,52(a5)
    befc:	0e070c63          	beqz	a4,bff4 <__swsetup_r+0x11c>
    bf00:	00c41783          	lh	a5,12(s0)
    bf04:	0087f713          	and	a4,a5,8
    bf08:	06070a63          	beqz	a4,bf7c <__swsetup_r+0xa4>
    bf0c:	01042703          	lw	a4,16(s0)
    bf10:	08070663          	beqz	a4,bf9c <__swsetup_r+0xc4>
    bf14:	0017f693          	and	a3,a5,1
    bf18:	02068863          	beqz	a3,bf48 <__swsetup_r+0x70>
    bf1c:	01442683          	lw	a3,20(s0)
    bf20:	00042423          	sw	zero,8(s0)
    bf24:	00000513          	li	a0,0
    bf28:	40d006b3          	neg	a3,a3
    bf2c:	00d42c23          	sw	a3,24(s0)
    bf30:	02070a63          	beqz	a4,bf64 <__swsetup_r+0x8c>
    bf34:	00c12083          	lw	ra,12(sp)
    bf38:	00812403          	lw	s0,8(sp)
    bf3c:	00412483          	lw	s1,4(sp)
    bf40:	01010113          	add	sp,sp,16
    bf44:	00008067          	ret
    bf48:	0027f693          	and	a3,a5,2
    bf4c:	00000613          	li	a2,0
    bf50:	00069463          	bnez	a3,bf58 <__swsetup_r+0x80>
    bf54:	01442603          	lw	a2,20(s0)
    bf58:	00c42423          	sw	a2,8(s0)
    bf5c:	00000513          	li	a0,0
    bf60:	fc071ae3          	bnez	a4,bf34 <__swsetup_r+0x5c>
    bf64:	0807f713          	and	a4,a5,128
    bf68:	fc0706e3          	beqz	a4,bf34 <__swsetup_r+0x5c>
    bf6c:	0407e793          	or	a5,a5,64
    bf70:	00f41623          	sh	a5,12(s0)
    bf74:	fff00513          	li	a0,-1
    bf78:	fbdff06f          	j	bf34 <__swsetup_r+0x5c>
    bf7c:	0107f713          	and	a4,a5,16
    bf80:	08070063          	beqz	a4,c000 <__swsetup_r+0x128>
    bf84:	0047f713          	and	a4,a5,4
    bf88:	02071c63          	bnez	a4,bfc0 <__swsetup_r+0xe8>
    bf8c:	01042703          	lw	a4,16(s0)
    bf90:	0087e793          	or	a5,a5,8
    bf94:	00f41623          	sh	a5,12(s0)
    bf98:	f6071ee3          	bnez	a4,bf14 <__swsetup_r+0x3c>
    bf9c:	2807f693          	and	a3,a5,640
    bfa0:	20000613          	li	a2,512
    bfa4:	f6c688e3          	beq	a3,a2,bf14 <__swsetup_r+0x3c>
    bfa8:	00040593          	mv	a1,s0
    bfac:	00048513          	mv	a0,s1
    bfb0:	6ac040ef          	jal	1065c <__smakebuf_r>
    bfb4:	00c41783          	lh	a5,12(s0)
    bfb8:	01042703          	lw	a4,16(s0)
    bfbc:	f59ff06f          	j	bf14 <__swsetup_r+0x3c>
    bfc0:	03042583          	lw	a1,48(s0)
    bfc4:	00058e63          	beqz	a1,bfe0 <__swsetup_r+0x108>
    bfc8:	04040713          	add	a4,s0,64
    bfcc:	00e58863          	beq	a1,a4,bfdc <__swsetup_r+0x104>
    bfd0:	00048513          	mv	a0,s1
    bfd4:	914fb0ef          	jal	70e8 <_free_r>
    bfd8:	00c41783          	lh	a5,12(s0)
    bfdc:	02042823          	sw	zero,48(s0)
    bfe0:	01042703          	lw	a4,16(s0)
    bfe4:	fdb7f793          	and	a5,a5,-37
    bfe8:	00042223          	sw	zero,4(s0)
    bfec:	00e42023          	sw	a4,0(s0)
    bff0:	fa1ff06f          	j	bf90 <__swsetup_r+0xb8>
    bff4:	00078513          	mv	a0,a5
    bff8:	e84fa0ef          	jal	667c <__sinit>
    bffc:	f05ff06f          	j	bf00 <__swsetup_r+0x28>
    c000:	00900713          	li	a4,9
    c004:	00e4a023          	sw	a4,0(s1)
    c008:	0407e793          	or	a5,a5,64
    c00c:	00f41623          	sh	a5,12(s0)
    c010:	fff00513          	li	a0,-1
    c014:	f21ff06f          	j	bf34 <__swsetup_r+0x5c>

0000c018 <__fputwc>:
    c018:	fe010113          	add	sp,sp,-32
    c01c:	00812c23          	sw	s0,24(sp)
    c020:	00912a23          	sw	s1,20(sp)
    c024:	01212823          	sw	s2,16(sp)
    c028:	00112e23          	sw	ra,28(sp)
    c02c:	00050913          	mv	s2,a0
    c030:	00058493          	mv	s1,a1
    c034:	00060413          	mv	s0,a2
    c038:	36c000ef          	jal	c3a4 <__locale_mb_cur_max>
    c03c:	00100793          	li	a5,1
    c040:	00f51c63          	bne	a0,a5,c058 <__fputwc+0x40>
    c044:	fff48793          	add	a5,s1,-1
    c048:	0fe00713          	li	a4,254
    c04c:	00f76663          	bltu	a4,a5,c058 <__fputwc+0x40>
    c050:	00910623          	sb	s1,12(sp)
    c054:	0240006f          	j	c078 <__fputwc+0x60>
    c058:	05c40693          	add	a3,s0,92
    c05c:	00048613          	mv	a2,s1
    c060:	00c10593          	add	a1,sp,12
    c064:	00090513          	mv	a0,s2
    c068:	4ec040ef          	jal	10554 <_wcrtomb_r>
    c06c:	fff00793          	li	a5,-1
    c070:	08f50463          	beq	a0,a5,c0f8 <__fputwc+0xe0>
    c074:	02050c63          	beqz	a0,c0ac <__fputwc+0x94>
    c078:	00842783          	lw	a5,8(s0)
    c07c:	00c14583          	lbu	a1,12(sp)
    c080:	fff78793          	add	a5,a5,-1
    c084:	00f42423          	sw	a5,8(s0)
    c088:	0007da63          	bgez	a5,c09c <__fputwc+0x84>
    c08c:	01842703          	lw	a4,24(s0)
    c090:	02e7cc63          	blt	a5,a4,c0c8 <__fputwc+0xb0>
    c094:	00a00793          	li	a5,10
    c098:	02f58863          	beq	a1,a5,c0c8 <__fputwc+0xb0>
    c09c:	00042783          	lw	a5,0(s0)
    c0a0:	00178713          	add	a4,a5,1
    c0a4:	00e42023          	sw	a4,0(s0)
    c0a8:	00b78023          	sb	a1,0(a5)
    c0ac:	01c12083          	lw	ra,28(sp)
    c0b0:	01812403          	lw	s0,24(sp)
    c0b4:	01012903          	lw	s2,16(sp)
    c0b8:	00048513          	mv	a0,s1
    c0bc:	01412483          	lw	s1,20(sp)
    c0c0:	02010113          	add	sp,sp,32
    c0c4:	00008067          	ret
    c0c8:	00040613          	mv	a2,s0
    c0cc:	00090513          	mv	a0,s2
    c0d0:	c65ff0ef          	jal	bd34 <__swbuf_r>
    c0d4:	fff00793          	li	a5,-1
    c0d8:	fcf51ae3          	bne	a0,a5,c0ac <__fputwc+0x94>
    c0dc:	fff00513          	li	a0,-1
    c0e0:	01c12083          	lw	ra,28(sp)
    c0e4:	01812403          	lw	s0,24(sp)
    c0e8:	01412483          	lw	s1,20(sp)
    c0ec:	01012903          	lw	s2,16(sp)
    c0f0:	02010113          	add	sp,sp,32
    c0f4:	00008067          	ret
    c0f8:	00c45783          	lhu	a5,12(s0)
    c0fc:	fff00513          	li	a0,-1
    c100:	0407e793          	or	a5,a5,64
    c104:	00f41623          	sh	a5,12(s0)
    c108:	fd9ff06f          	j	c0e0 <__fputwc+0xc8>

0000c10c <_fputwc_r>:
    c10c:	00c61783          	lh	a5,12(a2)
    c110:	01279713          	sll	a4,a5,0x12
    c114:	02074063          	bltz	a4,c134 <_fputwc_r+0x28>
    c118:	06462703          	lw	a4,100(a2)
    c11c:	000026b7          	lui	a3,0x2
    c120:	00d7e7b3          	or	a5,a5,a3
    c124:	000026b7          	lui	a3,0x2
    c128:	00d76733          	or	a4,a4,a3
    c12c:	00f61623          	sh	a5,12(a2)
    c130:	06e62223          	sw	a4,100(a2)
    c134:	ee5ff06f          	j	c018 <__fputwc>

0000c138 <fputwc>:
    c138:	fe010113          	add	sp,sp,-32
    c13c:	00812c23          	sw	s0,24(sp)
    c140:	86c1a403          	lw	s0,-1940(gp) # 12724 <_impure_ptr>
    c144:	00112e23          	sw	ra,28(sp)
    c148:	00058613          	mv	a2,a1
    c14c:	00050593          	mv	a1,a0
    c150:	00040663          	beqz	s0,c15c <fputwc+0x24>
    c154:	03442783          	lw	a5,52(s0)
    c158:	04078063          	beqz	a5,c198 <fputwc+0x60>
    c15c:	00c61783          	lh	a5,12(a2)
    c160:	01279713          	sll	a4,a5,0x12
    c164:	02074063          	bltz	a4,c184 <fputwc+0x4c>
    c168:	06462703          	lw	a4,100(a2)
    c16c:	000026b7          	lui	a3,0x2
    c170:	00d7e7b3          	or	a5,a5,a3
    c174:	000026b7          	lui	a3,0x2
    c178:	00d76733          	or	a4,a4,a3
    c17c:	00f61623          	sh	a5,12(a2)
    c180:	06e62223          	sw	a4,100(a2)
    c184:	00040513          	mv	a0,s0
    c188:	01812403          	lw	s0,24(sp)
    c18c:	01c12083          	lw	ra,28(sp)
    c190:	02010113          	add	sp,sp,32
    c194:	e85ff06f          	j	c018 <__fputwc>
    c198:	00a12423          	sw	a0,8(sp)
    c19c:	00040513          	mv	a0,s0
    c1a0:	00c12623          	sw	a2,12(sp)
    c1a4:	cd8fa0ef          	jal	667c <__sinit>
    c1a8:	00c12603          	lw	a2,12(sp)
    c1ac:	00812583          	lw	a1,8(sp)
    c1b0:	fadff06f          	j	c15c <fputwc+0x24>

0000c1b4 <memchr>:
    c1b4:	00357793          	and	a5,a0,3
    c1b8:	0ff5f693          	zext.b	a3,a1
    c1bc:	02078a63          	beqz	a5,c1f0 <memchr+0x3c>
    c1c0:	fff60793          	add	a5,a2,-1
    c1c4:	02060e63          	beqz	a2,c200 <memchr+0x4c>
    c1c8:	fff00613          	li	a2,-1
    c1cc:	0180006f          	j	c1e4 <memchr+0x30>
    c1d0:	00150513          	add	a0,a0,1
    c1d4:	00357713          	and	a4,a0,3
    c1d8:	00070e63          	beqz	a4,c1f4 <memchr+0x40>
    c1dc:	fff78793          	add	a5,a5,-1
    c1e0:	02c78063          	beq	a5,a2,c200 <memchr+0x4c>
    c1e4:	00054703          	lbu	a4,0(a0)
    c1e8:	fed714e3          	bne	a4,a3,c1d0 <memchr+0x1c>
    c1ec:	00008067          	ret
    c1f0:	00060793          	mv	a5,a2
    c1f4:	00300713          	li	a4,3
    c1f8:	00f76863          	bltu	a4,a5,c208 <memchr+0x54>
    c1fc:	06079063          	bnez	a5,c25c <memchr+0xa8>
    c200:	00000513          	li	a0,0
    c204:	00008067          	ret
    c208:	0ff5f593          	zext.b	a1,a1
    c20c:	00859713          	sll	a4,a1,0x8
    c210:	00b705b3          	add	a1,a4,a1
    c214:	01059713          	sll	a4,a1,0x10
    c218:	feff08b7          	lui	a7,0xfeff0
    c21c:	80808837          	lui	a6,0x80808
    c220:	00e585b3          	add	a1,a1,a4
    c224:	eff88893          	add	a7,a7,-257 # fefefeff <_end+0xfefdac9b>
    c228:	08080813          	add	a6,a6,128 # 80808080 <_end+0x807f2e1c>
    c22c:	00300313          	li	t1,3
    c230:	0100006f          	j	c240 <memchr+0x8c>
    c234:	ffc78793          	add	a5,a5,-4
    c238:	00450513          	add	a0,a0,4
    c23c:	fcf370e3          	bgeu	t1,a5,c1fc <memchr+0x48>
    c240:	00052703          	lw	a4,0(a0)
    c244:	00e5c733          	xor	a4,a1,a4
    c248:	01170633          	add	a2,a4,a7
    c24c:	fff74713          	not	a4,a4
    c250:	00e67733          	and	a4,a2,a4
    c254:	01077733          	and	a4,a4,a6
    c258:	fc070ee3          	beqz	a4,c234 <memchr+0x80>
    c25c:	00f507b3          	add	a5,a0,a5
    c260:	00c0006f          	j	c26c <memchr+0xb8>
    c264:	00150513          	add	a0,a0,1
    c268:	f8a78ce3          	beq	a5,a0,c200 <memchr+0x4c>
    c26c:	00054703          	lbu	a4,0(a0)
    c270:	fed71ae3          	bne	a4,a3,c264 <memchr+0xb0>
    c274:	00008067          	ret

0000c278 <strncpy>:
    c278:	00a5e7b3          	or	a5,a1,a0
    c27c:	0037f793          	and	a5,a5,3
    c280:	00079663          	bnez	a5,c28c <strncpy+0x14>
    c284:	00300793          	li	a5,3
    c288:	04c7e663          	bltu	a5,a2,c2d4 <strncpy+0x5c>
    c28c:	00050713          	mv	a4,a0
    c290:	01c0006f          	j	c2ac <strncpy+0x34>
    c294:	fff5c683          	lbu	a3,-1(a1) # 1fff <__subdf3+0x26f>
    c298:	fff60813          	add	a6,a2,-1
    c29c:	fed78fa3          	sb	a3,-1(a5)
    c2a0:	00068e63          	beqz	a3,c2bc <strncpy+0x44>
    c2a4:	00078713          	mv	a4,a5
    c2a8:	00080613          	mv	a2,a6
    c2ac:	00158593          	add	a1,a1,1
    c2b0:	00170793          	add	a5,a4,1
    c2b4:	fe0610e3          	bnez	a2,c294 <strncpy+0x1c>
    c2b8:	00008067          	ret
    c2bc:	00c70733          	add	a4,a4,a2
    c2c0:	06080063          	beqz	a6,c320 <strncpy+0xa8>
    c2c4:	00178793          	add	a5,a5,1
    c2c8:	fe078fa3          	sb	zero,-1(a5)
    c2cc:	fee79ce3          	bne	a5,a4,c2c4 <strncpy+0x4c>
    c2d0:	00008067          	ret
    c2d4:	feff0337          	lui	t1,0xfeff0
    c2d8:	808088b7          	lui	a7,0x80808
    c2dc:	00050713          	mv	a4,a0
    c2e0:	eff30313          	add	t1,t1,-257 # fefefeff <_end+0xfefdac9b>
    c2e4:	08088893          	add	a7,a7,128 # 80808080 <_end+0x807f2e1c>
    c2e8:	00300e13          	li	t3,3
    c2ec:	0180006f          	j	c304 <strncpy+0x8c>
    c2f0:	00d72023          	sw	a3,0(a4)
    c2f4:	ffc60613          	add	a2,a2,-4
    c2f8:	00470713          	add	a4,a4,4
    c2fc:	00458593          	add	a1,a1,4
    c300:	face76e3          	bgeu	t3,a2,c2ac <strncpy+0x34>
    c304:	0005a683          	lw	a3,0(a1)
    c308:	006687b3          	add	a5,a3,t1
    c30c:	fff6c813          	not	a6,a3
    c310:	0107f7b3          	and	a5,a5,a6
    c314:	0117f7b3          	and	a5,a5,a7
    c318:	fc078ce3          	beqz	a5,c2f0 <strncpy+0x78>
    c31c:	f91ff06f          	j	c2ac <strncpy+0x34>
    c320:	00008067          	ret

0000c324 <_setlocale_r>:
    c324:	ff010113          	add	sp,sp,-16
    c328:	00112623          	sw	ra,12(sp)
    c32c:	00912223          	sw	s1,4(sp)
    c330:	02060e63          	beqz	a2,c36c <_setlocale_r+0x48>
    c334:	000115b7          	lui	a1,0x11
    c338:	74858593          	add	a1,a1,1864 # 11748 <_getpid_r+0x62c>
    c33c:	00060513          	mv	a0,a2
    c340:	00812423          	sw	s0,8(sp)
    c344:	00060413          	mv	s0,a2
    c348:	a28f40ef          	jal	570 <strcmp>
    c34c:	000114b7          	lui	s1,0x11
    c350:	02051263          	bnez	a0,c374 <_setlocale_r+0x50>
    c354:	00812403          	lw	s0,8(sp)
    c358:	74448513          	add	a0,s1,1860 # 11744 <_getpid_r+0x628>
    c35c:	00c12083          	lw	ra,12(sp)
    c360:	00412483          	lw	s1,4(sp)
    c364:	01010113          	add	sp,sp,16
    c368:	00008067          	ret
    c36c:	000114b7          	lui	s1,0x11
    c370:	fe9ff06f          	j	c358 <_setlocale_r+0x34>
    c374:	74448593          	add	a1,s1,1860 # 11744 <_getpid_r+0x628>
    c378:	00040513          	mv	a0,s0
    c37c:	9f4f40ef          	jal	570 <strcmp>
    c380:	fc050ae3          	beqz	a0,c354 <_setlocale_r+0x30>
    c384:	000115b7          	lui	a1,0x11
    c388:	2e858593          	add	a1,a1,744 # 112e8 <_getpid_r+0x1cc>
    c38c:	00040513          	mv	a0,s0
    c390:	9e0f40ef          	jal	570 <strcmp>
    c394:	fc0500e3          	beqz	a0,c354 <_setlocale_r+0x30>
    c398:	00812403          	lw	s0,8(sp)
    c39c:	00000513          	li	a0,0
    c3a0:	fbdff06f          	j	c35c <_setlocale_r+0x38>

0000c3a4 <__locale_mb_cur_max>:
    c3a4:	000127b7          	lui	a5,0x12
    c3a8:	6707c503          	lbu	a0,1648(a5) # 12670 <__global_locale+0x128>
    c3ac:	00008067          	ret

0000c3b0 <setlocale>:
    c3b0:	ff010113          	add	sp,sp,-16
    c3b4:	00112623          	sw	ra,12(sp)
    c3b8:	00912223          	sw	s1,4(sp)
    c3bc:	02058e63          	beqz	a1,c3f8 <setlocale+0x48>
    c3c0:	00812423          	sw	s0,8(sp)
    c3c4:	00058413          	mv	s0,a1
    c3c8:	000115b7          	lui	a1,0x11
    c3cc:	74858593          	add	a1,a1,1864 # 11748 <_getpid_r+0x62c>
    c3d0:	00040513          	mv	a0,s0
    c3d4:	99cf40ef          	jal	570 <strcmp>
    c3d8:	000114b7          	lui	s1,0x11
    c3dc:	02051263          	bnez	a0,c400 <setlocale+0x50>
    c3e0:	00812403          	lw	s0,8(sp)
    c3e4:	74448513          	add	a0,s1,1860 # 11744 <_getpid_r+0x628>
    c3e8:	00c12083          	lw	ra,12(sp)
    c3ec:	00412483          	lw	s1,4(sp)
    c3f0:	01010113          	add	sp,sp,16
    c3f4:	00008067          	ret
    c3f8:	000114b7          	lui	s1,0x11
    c3fc:	fe9ff06f          	j	c3e4 <setlocale+0x34>
    c400:	74448593          	add	a1,s1,1860 # 11744 <_getpid_r+0x628>
    c404:	00040513          	mv	a0,s0
    c408:	968f40ef          	jal	570 <strcmp>
    c40c:	fc050ae3          	beqz	a0,c3e0 <setlocale+0x30>
    c410:	000115b7          	lui	a1,0x11
    c414:	2e858593          	add	a1,a1,744 # 112e8 <_getpid_r+0x1cc>
    c418:	00040513          	mv	a0,s0
    c41c:	954f40ef          	jal	570 <strcmp>
    c420:	fc0500e3          	beqz	a0,c3e0 <setlocale+0x30>
    c424:	00812403          	lw	s0,8(sp)
    c428:	00000513          	li	a0,0
    c42c:	fbdff06f          	j	c3e8 <setlocale+0x38>

0000c430 <__localeconv_l>:
    c430:	0f050513          	add	a0,a0,240
    c434:	00008067          	ret

0000c438 <_localeconv_r>:
    c438:	00012537          	lui	a0,0x12
    c43c:	63850513          	add	a0,a0,1592 # 12638 <__global_locale+0xf0>
    c440:	00008067          	ret

0000c444 <localeconv>:
    c444:	00012537          	lui	a0,0x12
    c448:	63850513          	add	a0,a0,1592 # 12638 <__global_locale+0xf0>
    c44c:	00008067          	ret

0000c450 <__libc_fini_array>:
    c450:	ff010113          	add	sp,sp,-16
    c454:	00812423          	sw	s0,8(sp)
    c458:	000127b7          	lui	a5,0x12
    c45c:	00012437          	lui	s0,0x12
    c460:	00c78793          	add	a5,a5,12 # 1200c <__do_global_dtors_aux_fini_array_entry>
    c464:	01040413          	add	s0,s0,16 # 12010 <__malloc_av_>
    c468:	40f40433          	sub	s0,s0,a5
    c46c:	00912223          	sw	s1,4(sp)
    c470:	00112623          	sw	ra,12(sp)
    c474:	40245493          	sra	s1,s0,0x2
    c478:	02048063          	beqz	s1,c498 <__libc_fini_array+0x48>
    c47c:	ffc40413          	add	s0,s0,-4
    c480:	00f40433          	add	s0,s0,a5
    c484:	00042783          	lw	a5,0(s0)
    c488:	fff48493          	add	s1,s1,-1
    c48c:	ffc40413          	add	s0,s0,-4
    c490:	000780e7          	jalr	a5
    c494:	fe0498e3          	bnez	s1,c484 <__libc_fini_array+0x34>
    c498:	00c12083          	lw	ra,12(sp)
    c49c:	00812403          	lw	s0,8(sp)
    c4a0:	00412483          	lw	s1,4(sp)
    c4a4:	01010113          	add	sp,sp,16
    c4a8:	00008067          	ret

0000c4ac <memmove>:
    c4ac:	02a5f663          	bgeu	a1,a0,c4d8 <memmove+0x2c>
    c4b0:	00c58733          	add	a4,a1,a2
    c4b4:	02e57263          	bgeu	a0,a4,c4d8 <memmove+0x2c>
    c4b8:	00c507b3          	add	a5,a0,a2
    c4bc:	04060663          	beqz	a2,c508 <memmove+0x5c>
    c4c0:	fff74683          	lbu	a3,-1(a4)
    c4c4:	fff78793          	add	a5,a5,-1
    c4c8:	fff70713          	add	a4,a4,-1
    c4cc:	00d78023          	sb	a3,0(a5)
    c4d0:	fef518e3          	bne	a0,a5,c4c0 <memmove+0x14>
    c4d4:	00008067          	ret
    c4d8:	00f00793          	li	a5,15
    c4dc:	02c7e863          	bltu	a5,a2,c50c <memmove+0x60>
    c4e0:	00050793          	mv	a5,a0
    c4e4:	fff60693          	add	a3,a2,-1
    c4e8:	0c060263          	beqz	a2,c5ac <memmove+0x100>
    c4ec:	00168693          	add	a3,a3,1 # 2001 <__subdf3+0x271>
    c4f0:	00d786b3          	add	a3,a5,a3
    c4f4:	0005c703          	lbu	a4,0(a1)
    c4f8:	00178793          	add	a5,a5,1
    c4fc:	00158593          	add	a1,a1,1
    c500:	fee78fa3          	sb	a4,-1(a5)
    c504:	fed798e3          	bne	a5,a3,c4f4 <memmove+0x48>
    c508:	00008067          	ret
    c50c:	00b567b3          	or	a5,a0,a1
    c510:	0037f793          	and	a5,a5,3
    c514:	08079663          	bnez	a5,c5a0 <memmove+0xf4>
    c518:	ff060893          	add	a7,a2,-16
    c51c:	ff08f893          	and	a7,a7,-16
    c520:	01088893          	add	a7,a7,16
    c524:	011506b3          	add	a3,a0,a7
    c528:	00058713          	mv	a4,a1
    c52c:	00050793          	mv	a5,a0
    c530:	00072803          	lw	a6,0(a4)
    c534:	01070713          	add	a4,a4,16
    c538:	01078793          	add	a5,a5,16
    c53c:	ff07a823          	sw	a6,-16(a5)
    c540:	ff472803          	lw	a6,-12(a4)
    c544:	ff07aa23          	sw	a6,-12(a5)
    c548:	ff872803          	lw	a6,-8(a4)
    c54c:	ff07ac23          	sw	a6,-8(a5)
    c550:	ffc72803          	lw	a6,-4(a4)
    c554:	ff07ae23          	sw	a6,-4(a5)
    c558:	fcd79ce3          	bne	a5,a3,c530 <memmove+0x84>
    c55c:	00c67813          	and	a6,a2,12
    c560:	011585b3          	add	a1,a1,a7
    c564:	00f67713          	and	a4,a2,15
    c568:	04080463          	beqz	a6,c5b0 <memmove+0x104>
    c56c:	ffc70813          	add	a6,a4,-4
    c570:	ffc87813          	and	a6,a6,-4
    c574:	00480813          	add	a6,a6,4
    c578:	010687b3          	add	a5,a3,a6
    c57c:	00058713          	mv	a4,a1
    c580:	00072883          	lw	a7,0(a4)
    c584:	00468693          	add	a3,a3,4
    c588:	00470713          	add	a4,a4,4
    c58c:	ff16ae23          	sw	a7,-4(a3)
    c590:	fef698e3          	bne	a3,a5,c580 <memmove+0xd4>
    c594:	00367613          	and	a2,a2,3
    c598:	010585b3          	add	a1,a1,a6
    c59c:	f49ff06f          	j	c4e4 <memmove+0x38>
    c5a0:	fff60693          	add	a3,a2,-1
    c5a4:	00050793          	mv	a5,a0
    c5a8:	f45ff06f          	j	c4ec <memmove+0x40>
    c5ac:	00008067          	ret
    c5b0:	00070613          	mv	a2,a4
    c5b4:	f31ff06f          	j	c4e4 <memmove+0x38>

0000c5b8 <memcpy>:
    c5b8:	00a5c7b3          	xor	a5,a1,a0
    c5bc:	0037f793          	and	a5,a5,3
    c5c0:	00c508b3          	add	a7,a0,a2
    c5c4:	06079463          	bnez	a5,c62c <memcpy+0x74>
    c5c8:	00300793          	li	a5,3
    c5cc:	06c7f063          	bgeu	a5,a2,c62c <memcpy+0x74>
    c5d0:	00357793          	and	a5,a0,3
    c5d4:	00050713          	mv	a4,a0
    c5d8:	06079a63          	bnez	a5,c64c <memcpy+0x94>
    c5dc:	ffc8f613          	and	a2,a7,-4
    c5e0:	40e606b3          	sub	a3,a2,a4
    c5e4:	02000793          	li	a5,32
    c5e8:	08d7ce63          	blt	a5,a3,c684 <memcpy+0xcc>
    c5ec:	00058693          	mv	a3,a1
    c5f0:	00070793          	mv	a5,a4
    c5f4:	02c77863          	bgeu	a4,a2,c624 <memcpy+0x6c>
    c5f8:	0006a803          	lw	a6,0(a3)
    c5fc:	00478793          	add	a5,a5,4
    c600:	00468693          	add	a3,a3,4
    c604:	ff07ae23          	sw	a6,-4(a5)
    c608:	fec7e8e3          	bltu	a5,a2,c5f8 <memcpy+0x40>
    c60c:	fff60793          	add	a5,a2,-1
    c610:	40e787b3          	sub	a5,a5,a4
    c614:	ffc7f793          	and	a5,a5,-4
    c618:	00478793          	add	a5,a5,4
    c61c:	00f70733          	add	a4,a4,a5
    c620:	00f585b3          	add	a1,a1,a5
    c624:	01176863          	bltu	a4,a7,c634 <memcpy+0x7c>
    c628:	00008067          	ret
    c62c:	00050713          	mv	a4,a0
    c630:	05157863          	bgeu	a0,a7,c680 <memcpy+0xc8>
    c634:	0005c783          	lbu	a5,0(a1)
    c638:	00170713          	add	a4,a4,1
    c63c:	00158593          	add	a1,a1,1
    c640:	fef70fa3          	sb	a5,-1(a4)
    c644:	fee898e3          	bne	a7,a4,c634 <memcpy+0x7c>
    c648:	00008067          	ret
    c64c:	0005c683          	lbu	a3,0(a1)
    c650:	00170713          	add	a4,a4,1
    c654:	00377793          	and	a5,a4,3
    c658:	fed70fa3          	sb	a3,-1(a4)
    c65c:	00158593          	add	a1,a1,1
    c660:	f6078ee3          	beqz	a5,c5dc <memcpy+0x24>
    c664:	0005c683          	lbu	a3,0(a1)
    c668:	00170713          	add	a4,a4,1
    c66c:	00377793          	and	a5,a4,3
    c670:	fed70fa3          	sb	a3,-1(a4)
    c674:	00158593          	add	a1,a1,1
    c678:	fc079ae3          	bnez	a5,c64c <memcpy+0x94>
    c67c:	f61ff06f          	j	c5dc <memcpy+0x24>
    c680:	00008067          	ret
    c684:	ff010113          	add	sp,sp,-16
    c688:	00812623          	sw	s0,12(sp)
    c68c:	02000413          	li	s0,32
    c690:	0005a383          	lw	t2,0(a1)
    c694:	0045a283          	lw	t0,4(a1)
    c698:	0085af83          	lw	t6,8(a1)
    c69c:	00c5af03          	lw	t5,12(a1)
    c6a0:	0105ae83          	lw	t4,16(a1)
    c6a4:	0145ae03          	lw	t3,20(a1)
    c6a8:	0185a303          	lw	t1,24(a1)
    c6ac:	01c5a803          	lw	a6,28(a1)
    c6b0:	0205a683          	lw	a3,32(a1)
    c6b4:	02470713          	add	a4,a4,36
    c6b8:	40e607b3          	sub	a5,a2,a4
    c6bc:	fc772e23          	sw	t2,-36(a4)
    c6c0:	fe572023          	sw	t0,-32(a4)
    c6c4:	fff72223          	sw	t6,-28(a4)
    c6c8:	ffe72423          	sw	t5,-24(a4)
    c6cc:	ffd72623          	sw	t4,-20(a4)
    c6d0:	ffc72823          	sw	t3,-16(a4)
    c6d4:	fe672a23          	sw	t1,-12(a4)
    c6d8:	ff072c23          	sw	a6,-8(a4)
    c6dc:	fed72e23          	sw	a3,-4(a4)
    c6e0:	02458593          	add	a1,a1,36
    c6e4:	faf446e3          	blt	s0,a5,c690 <memcpy+0xd8>
    c6e8:	00058693          	mv	a3,a1
    c6ec:	00070793          	mv	a5,a4
    c6f0:	02c77863          	bgeu	a4,a2,c720 <memcpy+0x168>
    c6f4:	0006a803          	lw	a6,0(a3)
    c6f8:	00478793          	add	a5,a5,4
    c6fc:	00468693          	add	a3,a3,4
    c700:	ff07ae23          	sw	a6,-4(a5)
    c704:	fec7e8e3          	bltu	a5,a2,c6f4 <memcpy+0x13c>
    c708:	fff60793          	add	a5,a2,-1
    c70c:	40e787b3          	sub	a5,a5,a4
    c710:	ffc7f793          	and	a5,a5,-4
    c714:	00478793          	add	a5,a5,4
    c718:	00f70733          	add	a4,a4,a5
    c71c:	00f585b3          	add	a1,a1,a5
    c720:	01176863          	bltu	a4,a7,c730 <memcpy+0x178>
    c724:	00c12403          	lw	s0,12(sp)
    c728:	01010113          	add	sp,sp,16
    c72c:	00008067          	ret
    c730:	0005c783          	lbu	a5,0(a1)
    c734:	00170713          	add	a4,a4,1
    c738:	00158593          	add	a1,a1,1
    c73c:	fef70fa3          	sb	a5,-1(a4)
    c740:	fee882e3          	beq	a7,a4,c724 <memcpy+0x16c>
    c744:	0005c783          	lbu	a5,0(a1)
    c748:	00170713          	add	a4,a4,1
    c74c:	00158593          	add	a1,a1,1
    c750:	fef70fa3          	sb	a5,-1(a4)
    c754:	fce89ee3          	bne	a7,a4,c730 <memcpy+0x178>
    c758:	fcdff06f          	j	c724 <memcpy+0x16c>

0000c75c <frexpl>:
    c75c:	f9010113          	add	sp,sp,-112
    c760:	07212023          	sw	s2,96(sp)
    c764:	00c5a903          	lw	s2,12(a1)
    c768:	05412c23          	sw	s4,88(sp)
    c76c:	05512a23          	sw	s5,84(sp)
    c770:	05612823          	sw	s6,80(sp)
    c774:	0045aa83          	lw	s5,4(a1)
    c778:	0005ab03          	lw	s6,0(a1)
    c77c:	0085aa03          	lw	s4,8(a1)
    c780:	05312e23          	sw	s3,92(sp)
    c784:	000089b7          	lui	s3,0x8
    c788:	06812423          	sw	s0,104(sp)
    c78c:	06912223          	sw	s1,100(sp)
    c790:	06112623          	sw	ra,108(sp)
    c794:	01095493          	srl	s1,s2,0x10
    c798:	fff98993          	add	s3,s3,-1 # 7fff <_vfprintf_r+0xc13>
    c79c:	03612823          	sw	s6,48(sp)
    c7a0:	03512a23          	sw	s5,52(sp)
    c7a4:	03412c23          	sw	s4,56(sp)
    c7a8:	03212e23          	sw	s2,60(sp)
    c7ac:	0134f4b3          	and	s1,s1,s3
    c7b0:	00062023          	sw	zero,0(a2)
    c7b4:	00050413          	mv	s0,a0
    c7b8:	09348063          	beq	s1,s3,c838 <frexpl+0xdc>
    c7bc:	01010593          	add	a1,sp,16
    c7c0:	02010513          	add	a0,sp,32
    c7c4:	05712623          	sw	s7,76(sp)
    c7c8:	03612023          	sw	s6,32(sp)
    c7cc:	00060b93          	mv	s7,a2
    c7d0:	03512223          	sw	s5,36(sp)
    c7d4:	03412423          	sw	s4,40(sp)
    c7d8:	03212623          	sw	s2,44(sp)
    c7dc:	00012823          	sw	zero,16(sp)
    c7e0:	00012a23          	sw	zero,20(sp)
    c7e4:	00012c23          	sw	zero,24(sp)
    c7e8:	00012e23          	sw	zero,28(sp)
    c7ec:	e75f50ef          	jal	2660 <__eqtf2>
    c7f0:	0e050463          	beqz	a0,c8d8 <frexpl+0x17c>
    c7f4:	00000693          	li	a3,0
    c7f8:	06048e63          	beqz	s1,c874 <frexpl+0x118>
    c7fc:	ffffc737          	lui	a4,0xffffc
    c800:	00270713          	add	a4,a4,2 # ffffc002 <_end+0xfffe6d9e>
    c804:	03c12903          	lw	s2,60(sp)
    c808:	00e484b3          	add	s1,s1,a4
    c80c:	800107b7          	lui	a5,0x80010
    c810:	00d484b3          	add	s1,s1,a3
    c814:	fff78793          	add	a5,a5,-1 # 8000ffff <_end+0x7fffad9b>
    c818:	009ba023          	sw	s1,0(s7)
    c81c:	03012b03          	lw	s6,48(sp)
    c820:	03412a83          	lw	s5,52(sp)
    c824:	03812a03          	lw	s4,56(sp)
    c828:	04c12b83          	lw	s7,76(sp)
    c82c:	00f97933          	and	s2,s2,a5
    c830:	3ffe07b7          	lui	a5,0x3ffe0
    c834:	00f96933          	or	s2,s2,a5
    c838:	01642023          	sw	s6,0(s0)
    c83c:	01542223          	sw	s5,4(s0)
    c840:	01442423          	sw	s4,8(s0)
    c844:	01242623          	sw	s2,12(s0)
    c848:	06c12083          	lw	ra,108(sp)
    c84c:	00040513          	mv	a0,s0
    c850:	06812403          	lw	s0,104(sp)
    c854:	06412483          	lw	s1,100(sp)
    c858:	06012903          	lw	s2,96(sp)
    c85c:	05c12983          	lw	s3,92(sp)
    c860:	05812a03          	lw	s4,88(sp)
    c864:	05412a83          	lw	s5,84(sp)
    c868:	05012b03          	lw	s6,80(sp)
    c86c:	07010113          	add	sp,sp,112
    c870:	00008067          	ret
    c874:	407107b7          	lui	a5,0x40710
    c878:	00010613          	mv	a2,sp
    c87c:	01010593          	add	a1,sp,16
    c880:	02010513          	add	a0,sp,32
    c884:	00f12623          	sw	a5,12(sp)
    c888:	01612823          	sw	s6,16(sp)
    c88c:	01512a23          	sw	s5,20(sp)
    c890:	01412c23          	sw	s4,24(sp)
    c894:	01212e23          	sw	s2,28(sp)
    c898:	00012023          	sw	zero,0(sp)
    c89c:	00012223          	sw	zero,4(sp)
    c8a0:	00012423          	sw	zero,8(sp)
    c8a4:	8e8f60ef          	jal	298c <__multf3>
    c8a8:	02012703          	lw	a4,32(sp)
    c8ac:	02c12783          	lw	a5,44(sp)
    c8b0:	f8e00693          	li	a3,-114
    c8b4:	02e12823          	sw	a4,48(sp)
    c8b8:	02412703          	lw	a4,36(sp)
    c8bc:	0107d493          	srl	s1,a5,0x10
    c8c0:	02f12e23          	sw	a5,60(sp)
    c8c4:	02e12a23          	sw	a4,52(sp)
    c8c8:	02812703          	lw	a4,40(sp)
    c8cc:	0134f4b3          	and	s1,s1,s3
    c8d0:	02e12c23          	sw	a4,56(sp)
    c8d4:	f29ff06f          	j	c7fc <frexpl+0xa0>
    c8d8:	04c12b83          	lw	s7,76(sp)
    c8dc:	f5dff06f          	j	c838 <frexpl+0xdc>

0000c8e0 <__register_exitproc>:
    c8e0:	8c01a783          	lw	a5,-1856(gp) # 12778 <__atexit>
    c8e4:	04078c63          	beqz	a5,c93c <__register_exitproc+0x5c>
    c8e8:	0047a703          	lw	a4,4(a5) # 40710004 <_end+0x406fada0>
    c8ec:	01f00813          	li	a6,31
    c8f0:	08e84263          	blt	a6,a4,c974 <__register_exitproc+0x94>
    c8f4:	00271813          	sll	a6,a4,0x2
    c8f8:	02050663          	beqz	a0,c924 <__register_exitproc+0x44>
    c8fc:	01078333          	add	t1,a5,a6
    c900:	08c32423          	sw	a2,136(t1)
    c904:	1887a883          	lw	a7,392(a5)
    c908:	00100613          	li	a2,1
    c90c:	00e61633          	sll	a2,a2,a4
    c910:	00c8e8b3          	or	a7,a7,a2
    c914:	1917a423          	sw	a7,392(a5)
    c918:	10d32423          	sw	a3,264(t1)
    c91c:	00200693          	li	a3,2
    c920:	02d50863          	beq	a0,a3,c950 <__register_exitproc+0x70>
    c924:	00170713          	add	a4,a4,1
    c928:	00e7a223          	sw	a4,4(a5)
    c92c:	010787b3          	add	a5,a5,a6
    c930:	00b7a423          	sw	a1,8(a5)
    c934:	00000513          	li	a0,0
    c938:	00008067          	ret
    c93c:	000157b7          	lui	a5,0x15
    c940:	0d478813          	add	a6,a5,212 # 150d4 <__atexit0>
    c944:	8d01a023          	sw	a6,-1856(gp) # 12778 <__atexit>
    c948:	0d478793          	add	a5,a5,212
    c94c:	f9dff06f          	j	c8e8 <__register_exitproc+0x8>
    c950:	18c7a683          	lw	a3,396(a5)
    c954:	00170713          	add	a4,a4,1
    c958:	00e7a223          	sw	a4,4(a5)
    c95c:	00c6e6b3          	or	a3,a3,a2
    c960:	18d7a623          	sw	a3,396(a5)
    c964:	010787b3          	add	a5,a5,a6
    c968:	00b7a423          	sw	a1,8(a5)
    c96c:	00000513          	li	a0,0
    c970:	00008067          	ret
    c974:	fff00513          	li	a0,-1
    c978:	00008067          	ret

0000c97c <_ldtoa_r>:
    c97c:	000128b7          	lui	a7,0x12
    c980:	bb888893          	add	a7,a7,-1096 # 11bb8 <blanks.1+0x10>
    c984:	0008af83          	lw	t6,0(a7)
    c988:	0048af03          	lw	t5,4(a7)
    c98c:	0088ae83          	lw	t4,8(a7)
    c990:	00c8ae03          	lw	t3,12(a7)
    c994:	0108a303          	lw	t1,16(a7)
    c998:	03852883          	lw	a7,56(a0)
    c99c:	f5010113          	add	sp,sp,-176
    c9a0:	0b212023          	sw	s2,160(sp)
    c9a4:	09312e23          	sw	s3,156(sp)
    c9a8:	09412c23          	sw	s4,152(sp)
    c9ac:	09612823          	sw	s6,144(sp)
    c9b0:	09712623          	sw	s7,140(sp)
    c9b4:	09812423          	sw	s8,136(sp)
    c9b8:	09912223          	sw	s9,132(sp)
    c9bc:	09a12023          	sw	s10,128(sp)
    c9c0:	0a112623          	sw	ra,172(sp)
    c9c4:	0a812423          	sw	s0,168(sp)
    c9c8:	0a912223          	sw	s1,164(sp)
    c9cc:	09512a23          	sw	s5,148(sp)
    c9d0:	07b12e23          	sw	s11,124(sp)
    c9d4:	05f12e23          	sw	t6,92(sp)
    c9d8:	07e12023          	sw	t5,96(sp)
    c9dc:	07d12223          	sw	t4,100(sp)
    c9e0:	07c12423          	sw	t3,104(sp)
    c9e4:	06612623          	sw	t1,108(sp)
    c9e8:	00c12c23          	sw	a2,24(sp)
    c9ec:	00d12e23          	sw	a3,28(sp)
    c9f0:	0005aa03          	lw	s4,0(a1)
    c9f4:	0045a983          	lw	s3,4(a1)
    c9f8:	0085a903          	lw	s2,8(a1)
    c9fc:	00c5ac03          	lw	s8,12(a1)
    ca00:	00050b13          	mv	s6,a0
    ca04:	00070b93          	mv	s7,a4
    ca08:	00078c93          	mv	s9,a5
    ca0c:	00080d13          	mv	s10,a6
    ca10:	02088263          	beqz	a7,ca34 <_ldtoa_r+0xb8>
    ca14:	03c52683          	lw	a3,60(a0)
    ca18:	00100713          	li	a4,1
    ca1c:	00088593          	mv	a1,a7
    ca20:	00d71733          	sll	a4,a4,a3
    ca24:	00d8a223          	sw	a3,4(a7)
    ca28:	00e8a423          	sw	a4,8(a7)
    ca2c:	41c020ef          	jal	ee48 <_Bfree>
    ca30:	020b2c23          	sw	zero,56(s6)
    ca34:	06812603          	lw	a2,104(sp)
    ca38:	01fc5693          	srl	a3,s8,0x1f
    ca3c:	001c1a93          	sll	s5,s8,0x1
    ca40:	40165713          	sra	a4,a2,0x1
    ca44:	ffffc4b7          	lui	s1,0xffffc
    ca48:	001c1413          	sll	s0,s8,0x1
    ca4c:	00d77733          	and	a4,a4,a3
    ca50:	011ada93          	srl	s5,s5,0x11
    ca54:	f9148493          	add	s1,s1,-111 # ffffbf91 <_end+0xfffe6d2d>
    ca58:	010c1d93          	sll	s11,s8,0x10
    ca5c:	00dca023          	sw	a3,0(s9)
    ca60:	00145413          	srl	s0,s0,0x1
    ca64:	00c74733          	xor	a4,a4,a2
    ca68:	010ddd93          	srl	s11,s11,0x10
    ca6c:	009a87b3          	add	a5,s5,s1
    ca70:	02010593          	add	a1,sp,32
    ca74:	03010513          	add	a0,sp,48
    ca78:	03412823          	sw	s4,48(sp)
    ca7c:	03312a23          	sw	s3,52(sp)
    ca80:	03212c23          	sw	s2,56(sp)
    ca84:	02812e23          	sw	s0,60(sp)
    ca88:	03412023          	sw	s4,32(sp)
    ca8c:	03312223          	sw	s3,36(sp)
    ca90:	03212423          	sw	s2,40(sp)
    ca94:	02812623          	sw	s0,44(sp)
    ca98:	06e12423          	sw	a4,104(sp)
    ca9c:	00f12a23          	sw	a5,20(sp)
    caa0:	05412623          	sw	s4,76(sp)
    caa4:	05312823          	sw	s3,80(sp)
    caa8:	05212a23          	sw	s2,84(sp)
    caac:	05b12c23          	sw	s11,88(sp)
    cab0:	b70f80ef          	jal	4e20 <__unordtf2>
    cab4:	16051a63          	bnez	a0,cc28 <_ldtoa_r+0x2ac>
    cab8:	7fff0cb7          	lui	s9,0x7fff0
    cabc:	fff00493          	li	s1,-1
    cac0:	fffc8c93          	add	s9,s9,-1 # 7ffeffff <_end+0x7ffdad9b>
    cac4:	02010593          	add	a1,sp,32
    cac8:	03010513          	add	a0,sp,48
    cacc:	03412823          	sw	s4,48(sp)
    cad0:	03312a23          	sw	s3,52(sp)
    cad4:	03212c23          	sw	s2,56(sp)
    cad8:	02812e23          	sw	s0,60(sp)
    cadc:	02912023          	sw	s1,32(sp)
    cae0:	02912223          	sw	s1,36(sp)
    cae4:	02912423          	sw	s1,40(sp)
    cae8:	03912623          	sw	s9,44(sp)
    caec:	b34f80ef          	jal	4e20 <__unordtf2>
    caf0:	08051c63          	bnez	a0,cb88 <_ldtoa_r+0x20c>
    caf4:	02010593          	add	a1,sp,32
    caf8:	03010513          	add	a0,sp,48
    cafc:	d61f50ef          	jal	285c <__letf2>
    cb00:	08a05463          	blez	a0,cb88 <_ldtoa_r+0x20c>
    cb04:	00300793          	li	a5,3
    cb08:	04f12423          	sw	a5,72(sp)
    cb0c:	01812783          	lw	a5,24(sp)
    cb10:	01c12803          	lw	a6,28(sp)
    cb14:	01412603          	lw	a2,20(sp)
    cb18:	04810713          	add	a4,sp,72
    cb1c:	01a12023          	sw	s10,0(sp)
    cb20:	000b8893          	mv	a7,s7
    cb24:	04c10693          	add	a3,sp,76
    cb28:	05c10593          	add	a1,sp,92
    cb2c:	000b0513          	mv	a0,s6
    cb30:	208000ef          	jal	cd38 <__gdtoa>
    cb34:	000ba703          	lw	a4,0(s7)
    cb38:	ffff87b7          	lui	a5,0xffff8
    cb3c:	00f71863          	bne	a4,a5,cb4c <_ldtoa_r+0x1d0>
    cb40:	800007b7          	lui	a5,0x80000
    cb44:	fff78793          	add	a5,a5,-1 # 7fffffff <_end+0x7ffead9b>
    cb48:	00fba023          	sw	a5,0(s7)
    cb4c:	0ac12083          	lw	ra,172(sp)
    cb50:	0a812403          	lw	s0,168(sp)
    cb54:	0a412483          	lw	s1,164(sp)
    cb58:	0a012903          	lw	s2,160(sp)
    cb5c:	09c12983          	lw	s3,156(sp)
    cb60:	09812a03          	lw	s4,152(sp)
    cb64:	09412a83          	lw	s5,148(sp)
    cb68:	09012b03          	lw	s6,144(sp)
    cb6c:	08c12b83          	lw	s7,140(sp)
    cb70:	08812c03          	lw	s8,136(sp)
    cb74:	08412c83          	lw	s9,132(sp)
    cb78:	08012d03          	lw	s10,128(sp)
    cb7c:	07c12d83          	lw	s11,124(sp)
    cb80:	0b010113          	add	sp,sp,176
    cb84:	00008067          	ret
    cb88:	000107b7          	lui	a5,0x10
    cb8c:	02010593          	add	a1,sp,32
    cb90:	03010513          	add	a0,sp,48
    cb94:	03412823          	sw	s4,48(sp)
    cb98:	03312a23          	sw	s3,52(sp)
    cb9c:	03212c23          	sw	s2,56(sp)
    cba0:	02812e23          	sw	s0,60(sp)
    cba4:	02012023          	sw	zero,32(sp)
    cba8:	02012223          	sw	zero,36(sp)
    cbac:	02012423          	sw	zero,40(sp)
    cbb0:	02f12623          	sw	a5,44(sp)
    cbb4:	b79f50ef          	jal	272c <__getf2>
    cbb8:	00054e63          	bltz	a0,cbd4 <_ldtoa_r+0x258>
    cbbc:	000107b7          	lui	a5,0x10
    cbc0:	00fdedb3          	or	s11,s11,a5
    cbc4:	00100793          	li	a5,1
    cbc8:	04f12423          	sw	a5,72(sp)
    cbcc:	05b12c23          	sw	s11,88(sp)
    cbd0:	f3dff06f          	j	cb0c <_ldtoa_r+0x190>
    cbd4:	02010593          	add	a1,sp,32
    cbd8:	03010513          	add	a0,sp,48
    cbdc:	03412823          	sw	s4,48(sp)
    cbe0:	03312a23          	sw	s3,52(sp)
    cbe4:	03212c23          	sw	s2,56(sp)
    cbe8:	03812e23          	sw	s8,60(sp)
    cbec:	02012023          	sw	zero,32(sp)
    cbf0:	02012223          	sw	zero,36(sp)
    cbf4:	02012423          	sw	zero,40(sp)
    cbf8:	02012623          	sw	zero,44(sp)
    cbfc:	a65f50ef          	jal	2660 <__eqtf2>
    cc00:	00051663          	bnez	a0,cc0c <_ldtoa_r+0x290>
    cc04:	04012423          	sw	zero,72(sp)
    cc08:	f05ff06f          	j	cb0c <_ldtoa_r+0x190>
    cc0c:	ffffc4b7          	lui	s1,0xffffc
    cc10:	00200793          	li	a5,2
    cc14:	f9248493          	add	s1,s1,-110 # ffffbf92 <_end+0xfffe6d2e>
    cc18:	04f12423          	sw	a5,72(sp)
    cc1c:	009a87b3          	add	a5,s5,s1
    cc20:	00f12a23          	sw	a5,20(sp)
    cc24:	ee9ff06f          	j	cb0c <_ldtoa_r+0x190>
    cc28:	00400793          	li	a5,4
    cc2c:	04f12423          	sw	a5,72(sp)
    cc30:	eddff06f          	j	cb0c <_ldtoa_r+0x190>

0000cc34 <_ldcheck>:
    cc34:	fc010113          	add	sp,sp,-64
    cc38:	02912a23          	sw	s1,52(sp)
    cc3c:	00c52483          	lw	s1,12(a0)
    cc40:	03312623          	sw	s3,44(sp)
    cc44:	03412423          	sw	s4,40(sp)
    cc48:	00852983          	lw	s3,8(a0)
    cc4c:	00452a03          	lw	s4,4(a0)
    cc50:	03512223          	sw	s5,36(sp)
    cc54:	00052a83          	lw	s5,0(a0)
    cc58:	00149493          	sll	s1,s1,0x1
    cc5c:	0014d493          	srl	s1,s1,0x1
    cc60:	00010593          	mv	a1,sp
    cc64:	01010513          	add	a0,sp,16
    cc68:	02112e23          	sw	ra,60(sp)
    cc6c:	01512823          	sw	s5,16(sp)
    cc70:	01412a23          	sw	s4,20(sp)
    cc74:	01312c23          	sw	s3,24(sp)
    cc78:	00912e23          	sw	s1,28(sp)
    cc7c:	01512023          	sw	s5,0(sp)
    cc80:	01412223          	sw	s4,4(sp)
    cc84:	01312423          	sw	s3,8(sp)
    cc88:	00912623          	sw	s1,12(sp)
    cc8c:	994f80ef          	jal	4e20 <__unordtf2>
    cc90:	08051463          	bnez	a0,cd18 <_ldcheck+0xe4>
    cc94:	03612023          	sw	s6,32(sp)
    cc98:	7fff0b37          	lui	s6,0x7fff0
    cc9c:	03212823          	sw	s2,48(sp)
    cca0:	fffb0b13          	add	s6,s6,-1 # 7ffeffff <_end+0x7ffdad9b>
    cca4:	fff00913          	li	s2,-1
    cca8:	00010593          	mv	a1,sp
    ccac:	01010513          	add	a0,sp,16
    ccb0:	02812c23          	sw	s0,56(sp)
    ccb4:	01212023          	sw	s2,0(sp)
    ccb8:	01212223          	sw	s2,4(sp)
    ccbc:	01212423          	sw	s2,8(sp)
    ccc0:	01612623          	sw	s6,12(sp)
    ccc4:	00100413          	li	s0,1
    ccc8:	958f80ef          	jal	4e20 <__unordtf2>
    cccc:	02050c63          	beqz	a0,cd04 <_ldcheck+0xd0>
    ccd0:	03c12083          	lw	ra,60(sp)
    ccd4:	00144513          	xor	a0,s0,1
    ccd8:	03812403          	lw	s0,56(sp)
    ccdc:	0ff57513          	zext.b	a0,a0
    cce0:	03012903          	lw	s2,48(sp)
    cce4:	02012b03          	lw	s6,32(sp)
    cce8:	03412483          	lw	s1,52(sp)
    ccec:	02c12983          	lw	s3,44(sp)
    ccf0:	02812a03          	lw	s4,40(sp)
    ccf4:	02412a83          	lw	s5,36(sp)
    ccf8:	00151513          	sll	a0,a0,0x1
    ccfc:	04010113          	add	sp,sp,64
    cd00:	00008067          	ret
    cd04:	00010593          	mv	a1,sp
    cd08:	01010513          	add	a0,sp,16
    cd0c:	b51f50ef          	jal	285c <__letf2>
    cd10:	00152413          	slti	s0,a0,1
    cd14:	fbdff06f          	j	ccd0 <_ldcheck+0x9c>
    cd18:	03c12083          	lw	ra,60(sp)
    cd1c:	03412483          	lw	s1,52(sp)
    cd20:	02c12983          	lw	s3,44(sp)
    cd24:	02812a03          	lw	s4,40(sp)
    cd28:	02412a83          	lw	s5,36(sp)
    cd2c:	00100513          	li	a0,1
    cd30:	04010113          	add	sp,sp,64
    cd34:	00008067          	ret

0000cd38 <__gdtoa>:
    cd38:	f3010113          	add	sp,sp,-208
    cd3c:	0b612823          	sw	s6,176(sp)
    cd40:	00072b03          	lw	s6,0(a4)
    cd44:	0ba12023          	sw	s10,160(sp)
    cd48:	0c112623          	sw	ra,204(sp)
    cd4c:	fcfb7313          	and	t1,s6,-49
    cd50:	00672023          	sw	t1,0(a4)
    cd54:	00070d13          	mv	s10,a4
    cd58:	0d012703          	lw	a4,208(sp)
    cd5c:	00fb7313          	and	t1,s6,15
    cd60:	00300e93          	li	t4,3
    cd64:	00e12623          	sw	a4,12(sp)
    cd68:	00f12823          	sw	a5,16(sp)
    cd6c:	01012c23          	sw	a6,24(sp)
    cd70:	01112423          	sw	a7,8(sp)
    cd74:	7dd30e63          	beq	t1,t4,d550 <__gdtoa+0x818>
    cd78:	0b912223          	sw	s9,164(sp)
    cd7c:	00cb7c93          	and	s9,s6,12
    cd80:	720c9263          	bnez	s9,d4a4 <__gdtoa+0x76c>
    cd84:	0c812423          	sw	s0,200(sp)
    cd88:	00050413          	mv	s0,a0
    cd8c:	76030e63          	beqz	t1,d508 <__gdtoa+0x7d0>
    cd90:	0b712623          	sw	s7,172(sp)
    cd94:	0005ab83          	lw	s7,0(a1)
    cd98:	0d212023          	sw	s2,192(sp)
    cd9c:	0b512a23          	sw	s5,180(sp)
    cda0:	09b12e23          	sw	s11,156(sp)
    cda4:	00068913          	mv	s2,a3
    cda8:	0c912223          	sw	s1,196(sp)
    cdac:	02000693          	li	a3,32
    cdb0:	00058d93          	mv	s11,a1
    cdb4:	00060a93          	mv	s5,a2
    cdb8:	00000593          	li	a1,0
    cdbc:	02000793          	li	a5,32
    cdc0:	0176d863          	bge	a3,s7,cdd0 <__gdtoa+0x98>
    cdc4:	00179793          	sll	a5,a5,0x1
    cdc8:	00158593          	add	a1,a1,1
    cdcc:	ff77cce3          	blt	a5,s7,cdc4 <__gdtoa+0x8c>
    cdd0:	00040513          	mv	a0,s0
    cdd4:	7c1010ef          	jal	ed94 <_Balloc>
    cdd8:	00050493          	mv	s1,a0
    cddc:	380506e3          	beqz	a0,d968 <__gdtoa+0xc30>
    cde0:	fffb8513          	add	a0,s7,-1
    cde4:	40555513          	sra	a0,a0,0x5
    cde8:	00251593          	sll	a1,a0,0x2
    cdec:	0b312e23          	sw	s3,188(sp)
    cdf0:	0b812423          	sw	s8,168(sp)
    cdf4:	00b905b3          	add	a1,s2,a1
    cdf8:	01448693          	add	a3,s1,20
    cdfc:	00090793          	mv	a5,s2
    ce00:	0007a703          	lw	a4,0(a5) # 10000 <_realloc_r+0x58>
    ce04:	00478793          	add	a5,a5,4
    ce08:	00468693          	add	a3,a3,4
    ce0c:	fee6ae23          	sw	a4,-4(a3)
    ce10:	fef5f8e3          	bgeu	a1,a5,ce00 <__gdtoa+0xc8>
    ce14:	00158593          	add	a1,a1,1
    ce18:	00190793          	add	a5,s2,1
    ce1c:	00400693          	li	a3,4
    ce20:	00f5e663          	bltu	a1,a5,ce2c <__gdtoa+0xf4>
    ce24:	00251513          	sll	a0,a0,0x2
    ce28:	00450693          	add	a3,a0,4
    ce2c:	4026dc13          	sra	s8,a3,0x2
    ce30:	00d486b3          	add	a3,s1,a3
    ce34:	00c0006f          	j	ce40 <__gdtoa+0x108>
    ce38:	ffc68693          	add	a3,a3,-4
    ce3c:	780c0663          	beqz	s8,d5c8 <__gdtoa+0x890>
    ce40:	0106a783          	lw	a5,16(a3)
    ce44:	000c0993          	mv	s3,s8
    ce48:	fffc0c13          	add	s8,s8,-1
    ce4c:	fe0786e3          	beqz	a5,ce38 <__gdtoa+0x100>
    ce50:	004c0793          	add	a5,s8,4
    ce54:	00279793          	sll	a5,a5,0x2
    ce58:	00f487b3          	add	a5,s1,a5
    ce5c:	0047a503          	lw	a0,4(a5)
    ce60:	0134a823          	sw	s3,16(s1)
    ce64:	00599993          	sll	s3,s3,0x5
    ce68:	288020ef          	jal	f0f0 <__hi0bits>
    ce6c:	40a98c33          	sub	s8,s3,a0
    ce70:	00048513          	mv	a0,s1
    ce74:	649010ef          	jal	ecbc <__trailz_D2A>
    ce78:	08a12623          	sw	a0,140(sp)
    ce7c:	03512223          	sw	s5,36(sp)
    ce80:	78051863          	bnez	a0,d610 <__gdtoa+0x8d8>
    ce84:	0104a683          	lw	a3,16(s1)
    ce88:	64068c63          	beqz	a3,d4e0 <__gdtoa+0x7a8>
    ce8c:	08c10593          	add	a1,sp,140
    ce90:	00048513          	mv	a0,s1
    ce94:	0b412c23          	sw	s4,184(sp)
    ce98:	495020ef          	jal	fb2c <__b2d>
    ce9c:	00c59993          	sll	s3,a1,0xc
    cea0:	00c9d993          	srl	s3,s3,0xc
    cea4:	3ff006b7          	lui	a3,0x3ff00
    cea8:	00d9e833          	or	a6,s3,a3
    ceac:	02412703          	lw	a4,36(sp)
    ceb0:	000126b7          	lui	a3,0x12
    ceb4:	6b86a603          	lw	a2,1720(a3) # 126b8 <__global_locale+0x170>
    ceb8:	6bc6a683          	lw	a3,1724(a3)
    cebc:	01870733          	add	a4,a4,s8
    cec0:	00080593          	mv	a1,a6
    cec4:	00050793          	mv	a5,a0
    cec8:	fff70a13          	add	s4,a4,-1
    cecc:	03012823          	sw	a6,48(sp)
    ced0:	02e12423          	sw	a4,40(sp)
    ced4:	04f12423          	sw	a5,72(sp)
    ced8:	04a12223          	sw	a0,68(sp)
    cedc:	eb5f40ef          	jal	1d90 <__subdf3>
    cee0:	8081a603          	lw	a2,-2040(gp) # 126c0 <__global_locale+0x178>
    cee4:	80c1a683          	lw	a3,-2036(gp) # 126c4 <__global_locale+0x17c>
    cee8:	8b9f40ef          	jal	17a0 <__muldf3>
    ceec:	8101a603          	lw	a2,-2032(gp) # 126c8 <__global_locale+0x180>
    cef0:	8141a683          	lw	a3,-2028(gp) # 126cc <__global_locale+0x184>
    cef4:	ff8f30ef          	jal	6ec <__adddf3>
    cef8:	00050793          	mv	a5,a0
    cefc:	000a0513          	mv	a0,s4
    cf00:	00f12e23          	sw	a5,28(sp)
    cf04:	00058993          	mv	s3,a1
    cf08:	eb0f50ef          	jal	25b8 <__floatsidf>
    cf0c:	8181a603          	lw	a2,-2024(gp) # 126d0 <__global_locale+0x188>
    cf10:	81c1a683          	lw	a3,-2020(gp) # 126d4 <__global_locale+0x18c>
    cf14:	88df40ef          	jal	17a0 <__muldf3>
    cf18:	01c12783          	lw	a5,28(sp)
    cf1c:	00050613          	mv	a2,a0
    cf20:	00058693          	mv	a3,a1
    cf24:	00078513          	mv	a0,a5
    cf28:	00098593          	mv	a1,s3
    cf2c:	fc0f30ef          	jal	6ec <__adddf3>
    cf30:	02a12023          	sw	a0,32(sp)
    cf34:	00058993          	mv	s3,a1
    cf38:	000a0513          	mv	a0,s4
    cf3c:	000a5863          	bgez	s4,cf4c <__gdtoa+0x214>
    cf40:	02812703          	lw	a4,40(sp)
    cf44:	00100513          	li	a0,1
    cf48:	40e50533          	sub	a0,a0,a4
    cf4c:	bcb50513          	add	a0,a0,-1077
    cf50:	02a05863          	blez	a0,cf80 <__gdtoa+0x248>
    cf54:	e64f50ef          	jal	25b8 <__floatsidf>
    cf58:	8201a603          	lw	a2,-2016(gp) # 126d8 <__global_locale+0x190>
    cf5c:	8241a683          	lw	a3,-2012(gp) # 126dc <__global_locale+0x194>
    cf60:	841f40ef          	jal	17a0 <__muldf3>
    cf64:	00050613          	mv	a2,a0
    cf68:	02012503          	lw	a0,32(sp)
    cf6c:	00058693          	mv	a3,a1
    cf70:	00098593          	mv	a1,s3
    cf74:	f78f30ef          	jal	6ec <__adddf3>
    cf78:	02a12023          	sw	a0,32(sp)
    cf7c:	00058993          	mv	s3,a1
    cf80:	02012503          	lw	a0,32(sp)
    cf84:	00098593          	mv	a1,s3
    cf88:	db0f50ef          	jal	2538 <__fixdfsi>
    cf8c:	00050813          	mv	a6,a0
    cf90:	02012503          	lw	a0,32(sp)
    cf94:	00098593          	mv	a1,s3
    cf98:	00000613          	li	a2,0
    cf9c:	00000693          	li	a3,0
    cfa0:	01012e23          	sw	a6,28(sp)
    cfa4:	f20f40ef          	jal	16c4 <__ledf2>
    cfa8:	02055463          	bgez	a0,cfd0 <__gdtoa+0x298>
    cfac:	01c12503          	lw	a0,28(sp)
    cfb0:	e08f50ef          	jal	25b8 <__floatsidf>
    cfb4:	02012603          	lw	a2,32(sp)
    cfb8:	00098693          	mv	a3,s3
    cfbc:	da0f40ef          	jal	155c <__eqdf2>
    cfc0:	01c12783          	lw	a5,28(sp)
    cfc4:	00a03533          	snez	a0,a0
    cfc8:	40a787b3          	sub	a5,a5,a0
    cfcc:	00f12e23          	sw	a5,28(sp)
    cfd0:	03012783          	lw	a5,48(sp)
    cfd4:	014a1613          	sll	a2,s4,0x14
    cfd8:	01c12703          	lw	a4,28(sp)
    cfdc:	414c0a33          	sub	s4,s8,s4
    cfe0:	00f609b3          	add	s3,a2,a5
    cfe4:	fffa0793          	add	a5,s4,-1
    cfe8:	01600693          	li	a3,22
    cfec:	02f12023          	sw	a5,32(sp)
    cff0:	5ee6e063          	bltu	a3,a4,d5d0 <__gdtoa+0x898>
    cff4:	000127b7          	lui	a5,0x12
    cff8:	c2878613          	add	a2,a5,-984 # 11c28 <__mprec_tens>
    cffc:	00371693          	sll	a3,a4,0x3
    d000:	00c686b3          	add	a3,a3,a2
    d004:	04412883          	lw	a7,68(sp)
    d008:	0006a503          	lw	a0,0(a3)
    d00c:	0046a583          	lw	a1,4(a3)
    d010:	00088613          	mv	a2,a7
    d014:	00098693          	mv	a3,s3
    d018:	dd0f40ef          	jal	15e8 <__gedf2>
    d01c:	18a04ee3          	bgtz	a0,d9b8 <__gdtoa+0xc80>
    d020:	04012823          	sw	zero,80(sp)
    d024:	02012823          	sw	zero,48(sp)
    d028:	01404a63          	bgtz	s4,d03c <__gdtoa+0x304>
    d02c:	00100693          	li	a3,1
    d030:	414687b3          	sub	a5,a3,s4
    d034:	02f12823          	sw	a5,48(sp)
    d038:	02012023          	sw	zero,32(sp)
    d03c:	02012703          	lw	a4,32(sp)
    d040:	01c12783          	lw	a5,28(sp)
    d044:	02012c23          	sw	zero,56(sp)
    d048:	00f70733          	add	a4,a4,a5
    d04c:	02e12023          	sw	a4,32(sp)
    d050:	02f12e23          	sw	a5,60(sp)
    d054:	01012783          	lw	a5,16(sp)
    d058:	00900693          	li	a3,9
    d05c:	5cf6ea63          	bltu	a3,a5,d630 <__gdtoa+0x8f8>
    d060:	00500693          	li	a3,5
    d064:	16f6c4e3          	blt	a3,a5,d9cc <__gdtoa+0xc94>
    d068:	02812783          	lw	a5,40(sp)
    d06c:	00400613          	li	a2,4
    d070:	3fd78793          	add	a5,a5,1021
    d074:	7f87ba13          	sltiu	s4,a5,2040
    d078:	01012783          	lw	a5,16(sp)
    d07c:	00c79463          	bne	a5,a2,d084 <__gdtoa+0x34c>
    d080:	0580106f          	j	e0d8 <__gdtoa+0x13a0>
    d084:	00d79463          	bne	a5,a3,d08c <__gdtoa+0x354>
    d088:	0440106f          	j	e0cc <__gdtoa+0x1394>
    d08c:	00200693          	li	a3,2
    d090:	00d79463          	bne	a5,a3,d098 <__gdtoa+0x360>
    d094:	0500106f          	j	e0e4 <__gdtoa+0x13ac>
    d098:	00300693          	li	a3,3
    d09c:	04012023          	sw	zero,64(sp)
    d0a0:	5ad79063          	bne	a5,a3,d640 <__gdtoa+0x908>
    d0a4:	03c12783          	lw	a5,60(sp)
    d0a8:	01812703          	lw	a4,24(sp)
    d0ac:	00e787b3          	add	a5,a5,a4
    d0b0:	04f12a23          	sw	a5,84(sp)
    d0b4:	00178793          	add	a5,a5,1
    d0b8:	02f12a23          	sw	a5,52(sp)
    d0bc:	5ef056e3          	blez	a5,dea8 <__gdtoa+0x1170>
    d0c0:	00078693          	mv	a3,a5
    d0c4:	00078593          	mv	a1,a5
    d0c8:	00040513          	mv	a0,s0
    d0cc:	08d12623          	sw	a3,140(sp)
    d0d0:	7f4010ef          	jal	e8c4 <__rv_alloc_D2A>
    d0d4:	00050f13          	mv	t5,a0
    d0d8:	4c050263          	beqz	a0,d59c <__gdtoa+0x864>
    d0dc:	00cda783          	lw	a5,12(s11)
    d0e0:	fff78793          	add	a5,a5,-1
    d0e4:	02f12423          	sw	a5,40(sp)
    d0e8:	5a078263          	beqz	a5,d68c <__gdtoa+0x954>
    d0ec:	0c07c0e3          	bltz	a5,d9ac <__gdtoa+0xc74>
    d0f0:	100b7e13          	and	t3,s6,256
    d0f4:	580e1463          	bnez	t3,d67c <__gdtoa+0x944>
    d0f8:	02412783          	lw	a5,36(sp)
    d0fc:	0007c863          	bltz	a5,d10c <__gdtoa+0x3d4>
    d100:	03c12783          	lw	a5,60(sp)
    d104:	00e00693          	li	a3,14
    d108:	0ef6dae3          	bge	a3,a5,d9fc <__gdtoa+0xcc4>
    d10c:	04012783          	lw	a5,64(sp)
    d110:	080786e3          	beqz	a5,d99c <__gdtoa+0xc64>
    d114:	02412783          	lw	a5,36(sp)
    d118:	418b8333          	sub	t1,s7,s8
    d11c:	004da683          	lw	a3,4(s11)
    d120:	00130613          	add	a2,t1,1
    d124:	08c12623          	sw	a2,140(sp)
    d128:	40678333          	sub	t1,a5,t1
    d12c:	5cd35ee3          	bge	t1,a3,df08 <__gdtoa+0x11d0>
    d130:	01012703          	lw	a4,16(sp)
    d134:	ffd70613          	add	a2,a4,-3
    d138:	ffd67613          	and	a2,a2,-3
    d13c:	4a060ee3          	beqz	a2,ddf8 <__gdtoa+0x10c0>
    d140:	40d786b3          	sub	a3,a5,a3
    d144:	00168693          	add	a3,a3,1
    d148:	08d12623          	sw	a3,140(sp)
    d14c:	00100613          	li	a2,1
    d150:	00e65c63          	bge	a2,a4,d168 <__gdtoa+0x430>
    d154:	03412783          	lw	a5,52(sp)
    d158:	00f05863          	blez	a5,d168 <__gdtoa+0x430>
    d15c:	03412783          	lw	a5,52(sp)
    d160:	00d7d463          	bge	a5,a3,d168 <__gdtoa+0x430>
    d164:	5740106f          	j	e6d8 <__gdtoa+0x19a0>
    d168:	03012783          	lw	a5,48(sp)
    d16c:	02012703          	lw	a4,32(sp)
    d170:	03812b03          	lw	s6,56(sp)
    d174:	00078a13          	mv	s4,a5
    d178:	00d70733          	add	a4,a4,a3
    d17c:	00f687b3          	add	a5,a3,a5
    d180:	02e12023          	sw	a4,32(sp)
    d184:	02f12823          	sw	a5,48(sp)
    d188:	00100593          	li	a1,1
    d18c:	00040513          	mv	a0,s0
    d190:	03e12223          	sw	t5,36(sp)
    d194:	0b4020ef          	jal	f248 <__i2b>
    d198:	02412f03          	lw	t5,36(sp)
    d19c:	00050993          	mv	s3,a0
    d1a0:	3e050e63          	beqz	a0,d59c <__gdtoa+0x864>
    d1a4:	020a0c63          	beqz	s4,d1dc <__gdtoa+0x4a4>
    d1a8:	02012783          	lw	a5,32(sp)
    d1ac:	02f05863          	blez	a5,d1dc <__gdtoa+0x4a4>
    d1b0:	000a0693          	mv	a3,s4
    d1b4:	0147d463          	bge	a5,s4,d1bc <__gdtoa+0x484>
    d1b8:	00078693          	mv	a3,a5
    d1bc:	03012783          	lw	a5,48(sp)
    d1c0:	08d12623          	sw	a3,140(sp)
    d1c4:	40da0a33          	sub	s4,s4,a3
    d1c8:	40d787b3          	sub	a5,a5,a3
    d1cc:	02f12823          	sw	a5,48(sp)
    d1d0:	02012783          	lw	a5,32(sp)
    d1d4:	40d787b3          	sub	a5,a5,a3
    d1d8:	02f12023          	sw	a5,32(sp)
    d1dc:	03812783          	lw	a5,56(sp)
    d1e0:	02078863          	beqz	a5,d210 <__gdtoa+0x4d8>
    d1e4:	04012783          	lw	a5,64(sp)
    d1e8:	00078463          	beqz	a5,d1f0 <__gdtoa+0x4b8>
    d1ec:	600b16e3          	bnez	s6,dff8 <__gdtoa+0x12c0>
    d1f0:	03812603          	lw	a2,56(sp)
    d1f4:	00048593          	mv	a1,s1
    d1f8:	00040513          	mv	a0,s0
    d1fc:	03e12223          	sw	t5,36(sp)
    d200:	32c020ef          	jal	f52c <__pow5mult>
    d204:	02412f03          	lw	t5,36(sp)
    d208:	00050493          	mv	s1,a0
    d20c:	38050863          	beqz	a0,d59c <__gdtoa+0x864>
    d210:	00100593          	li	a1,1
    d214:	00040513          	mv	a0,s0
    d218:	03e12223          	sw	t5,36(sp)
    d21c:	02c020ef          	jal	f248 <__i2b>
    d220:	00050b93          	mv	s7,a0
    d224:	36050c63          	beqz	a0,d59c <__gdtoa+0x864>
    d228:	01c12783          	lw	a5,28(sp)
    d22c:	02412f03          	lw	t5,36(sp)
    d230:	480792e3          	bnez	a5,deb4 <__gdtoa+0x117c>
    d234:	01012783          	lw	a5,16(sp)
    d238:	00100693          	li	a3,1
    d23c:	18f6dce3          	bge	a3,a5,dbd4 <__gdtoa+0xe9c>
    d240:	01f00a93          	li	s5,31
    d244:	02012783          	lw	a5,32(sp)
    d248:	40fa8ab3          	sub	s5,s5,a5
    d24c:	03012783          	lw	a5,48(sp)
    d250:	ffca8a93          	add	s5,s5,-4
    d254:	01fafa93          	and	s5,s5,31
    d258:	00fa8633          	add	a2,s5,a5
    d25c:	09512623          	sw	s5,140(sp)
    d260:	000a8793          	mv	a5,s5
    d264:	26c048e3          	bgtz	a2,dcd4 <__gdtoa+0xf9c>
    d268:	02012703          	lw	a4,32(sp)
    d26c:	00f70633          	add	a2,a4,a5
    d270:	30c04863          	bgtz	a2,d580 <__gdtoa+0x848>
    d274:	05012783          	lw	a5,80(sp)
    d278:	280790e3          	bnez	a5,dcf8 <__gdtoa+0xfc0>
    d27c:	03412783          	lw	a5,52(sp)
    d280:	3af052e3          	blez	a5,de24 <__gdtoa+0x10ec>
    d284:	04012783          	lw	a5,64(sp)
    d288:	2c0784e3          	beqz	a5,dd50 <__gdtoa+0x1018>
    d28c:	014a8633          	add	a2,s5,s4
    d290:	60c046e3          	bgtz	a2,e09c <__gdtoa+0x1364>
    d294:	01c12783          	lw	a5,28(sp)
    d298:	00098a13          	mv	s4,s3
    d29c:	680790e3          	bnez	a5,e11c <__gdtoa+0x13e4>
    d2a0:	01a12e23          	sw	s10,28(sp)
    d2a4:	01012c83          	lw	s9,16(sp)
    d2a8:	03412d03          	lw	s10,52(sp)
    d2ac:	000f0c13          	mv	s8,t5
    d2b0:	00100793          	li	a5,1
    d2b4:	01e12c23          	sw	t5,24(sp)
    d2b8:	0b00006f          	j	d368 <__gdtoa+0x630>
    d2bc:	00040513          	mv	a0,s0
    d2c0:	389010ef          	jal	ee48 <_Bfree>
    d2c4:	000ad463          	bgez	s5,d2cc <__gdtoa+0x594>
    d2c8:	7e50006f          	j	e2ac <__gdtoa+0x1574>
    d2cc:	015ceab3          	or	s5,s9,s5
    d2d0:	000a9a63          	bnez	s5,d2e4 <__gdtoa+0x5ac>
    d2d4:	00092783          	lw	a5,0(s2)
    d2d8:	0017f793          	and	a5,a5,1
    d2dc:	00079463          	bnez	a5,d2e4 <__gdtoa+0x5ac>
    d2e0:	7cd0006f          	j	e2ac <__gdtoa+0x1574>
    d2e4:	02812783          	lw	a5,40(sp)
    d2e8:	00200713          	li	a4,2
    d2ec:	00e78463          	beq	a5,a4,d2f4 <__gdtoa+0x5bc>
    d2f0:	3140106f          	j	e604 <__gdtoa+0x18cc>
    d2f4:	01bc0023          	sb	s11,0(s8)
    d2f8:	08c12783          	lw	a5,140(sp)
    d2fc:	001c0c13          	add	s8,s8,1
    d300:	00fd1463          	bne	s10,a5,d308 <__gdtoa+0x5d0>
    d304:	2340106f          	j	e538 <__gdtoa+0x1800>
    d308:	00048593          	mv	a1,s1
    d30c:	00000693          	li	a3,0
    d310:	00a00613          	li	a2,10
    d314:	00040513          	mv	a0,s0
    d318:	355010ef          	jal	ee6c <__multadd>
    d31c:	00050493          	mv	s1,a0
    d320:	26050e63          	beqz	a0,d59c <__gdtoa+0x864>
    d324:	00000693          	li	a3,0
    d328:	00a00613          	li	a2,10
    d32c:	00098593          	mv	a1,s3
    d330:	00040513          	mv	a0,s0
    d334:	114980e3          	beq	s3,s4,dc34 <__gdtoa+0xefc>
    d338:	335010ef          	jal	ee6c <__multadd>
    d33c:	00050993          	mv	s3,a0
    d340:	24050e63          	beqz	a0,d59c <__gdtoa+0x864>
    d344:	000a0593          	mv	a1,s4
    d348:	00000693          	li	a3,0
    d34c:	00a00613          	li	a2,10
    d350:	00040513          	mv	a0,s0
    d354:	319010ef          	jal	ee6c <__multadd>
    d358:	00050a13          	mv	s4,a0
    d35c:	24050063          	beqz	a0,d59c <__gdtoa+0x864>
    d360:	08c12783          	lw	a5,140(sp)
    d364:	00178793          	add	a5,a5,1
    d368:	000b8593          	mv	a1,s7
    d36c:	00048513          	mv	a0,s1
    d370:	08f12623          	sw	a5,140(sp)
    d374:	66c010ef          	jal	e9e0 <__quorem_D2A>
    d378:	00050b13          	mv	s6,a0
    d37c:	00098593          	mv	a1,s3
    d380:	00048513          	mv	a0,s1
    d384:	488020ef          	jal	f80c <__mcmp>
    d388:	000b8593          	mv	a1,s7
    d38c:	00050a93          	mv	s5,a0
    d390:	000a0613          	mv	a2,s4
    d394:	00040513          	mv	a0,s0
    d398:	4cc020ef          	jal	f864 <__mdiff>
    d39c:	030b0d93          	add	s11,s6,48
    d3a0:	00050593          	mv	a1,a0
    d3a4:	1e050c63          	beqz	a0,d59c <__gdtoa+0x864>
    d3a8:	00c52783          	lw	a5,12(a0)
    d3ac:	f00798e3          	bnez	a5,d2bc <__gdtoa+0x584>
    d3b0:	00a12823          	sw	a0,16(sp)
    d3b4:	00048513          	mv	a0,s1
    d3b8:	454020ef          	jal	f80c <__mcmp>
    d3bc:	01012583          	lw	a1,16(sp)
    d3c0:	00050793          	mv	a5,a0
    d3c4:	00040513          	mv	a0,s0
    d3c8:	00f12823          	sw	a5,16(sp)
    d3cc:	27d010ef          	jal	ee48 <_Bfree>
    d3d0:	01012783          	lw	a5,16(sp)
    d3d4:	00fce733          	or	a4,s9,a5
    d3d8:	00070463          	beqz	a4,d3e0 <__gdtoa+0x6a8>
    d3dc:	4800106f          	j	e85c <__gdtoa+0x1b24>
    d3e0:	00092783          	lw	a5,0(s2)
    d3e4:	0017f793          	and	a5,a5,1
    d3e8:	060790e3          	bnez	a5,dc48 <__gdtoa+0xf10>
    d3ec:	02812783          	lw	a5,40(sp)
    d3f0:	00079463          	bnez	a5,d3f8 <__gdtoa+0x6c0>
    d3f4:	3580106f          	j	e74c <__gdtoa+0x1a14>
    d3f8:	ef504ee3          	bgtz	s5,d2f4 <__gdtoa+0x5bc>
    d3fc:	0104a683          	lw	a3,16(s1)
    d400:	00100793          	li	a5,1
    d404:	01812f03          	lw	t5,24(sp)
    d408:	01c12d03          	lw	s10,28(sp)
    d40c:	00070c93          	mv	s9,a4
    d410:	00d7c463          	blt	a5,a3,d418 <__gdtoa+0x6e0>
    d414:	4140106f          	j	e828 <__gdtoa+0x1af0>
    d418:	02812703          	lw	a4,40(sp)
    d41c:	00200793          	li	a5,2
    d420:	000f0b13          	mv	s6,t5
    d424:	02f71463          	bne	a4,a5,d44c <__gdtoa+0x714>
    d428:	3d40106f          	j	e7fc <__gdtoa+0x1ac4>
    d42c:	241010ef          	jal	ee6c <__multadd>
    d430:	000b8593          	mv	a1,s7
    d434:	00050493          	mv	s1,a0
    d438:	16050263          	beqz	a0,d59c <__gdtoa+0x864>
    d43c:	5a4010ef          	jal	e9e0 <__quorem_D2A>
    d440:	03050d93          	add	s11,a0,48
    d444:	00090c13          	mv	s8,s2
    d448:	000a8a13          	mv	s4,s5
    d44c:	000a0593          	mv	a1,s4
    d450:	000b8513          	mv	a0,s7
    d454:	3b8020ef          	jal	f80c <__mcmp>
    d458:	00050793          	mv	a5,a0
    d45c:	00000693          	li	a3,0
    d460:	00a00613          	li	a2,10
    d464:	000a0593          	mv	a1,s4
    d468:	00040513          	mv	a0,s0
    d46c:	001c0913          	add	s2,s8,1
    d470:	00f04463          	bgtz	a5,d478 <__gdtoa+0x740>
    d474:	3700106f          	j	e7e4 <__gdtoa+0x1aac>
    d478:	ffb90fa3          	sb	s11,-1(s2)
    d47c:	1f1010ef          	jal	ee6c <__multadd>
    d480:	00050a93          	mv	s5,a0
    d484:	00000693          	li	a3,0
    d488:	00a00613          	li	a2,10
    d48c:	00048593          	mv	a1,s1
    d490:	00040513          	mv	a0,s0
    d494:	100a8463          	beqz	s5,d59c <__gdtoa+0x864>
    d498:	f9499ae3          	bne	s3,s4,d42c <__gdtoa+0x6f4>
    d49c:	000a8993          	mv	s3,s5
    d4a0:	f8dff06f          	j	d42c <__gdtoa+0x6f4>
    d4a4:	00400793          	li	a5,4
    d4a8:	10f31c63          	bne	t1,a5,d5c0 <__gdtoa+0x888>
    d4ac:	00812703          	lw	a4,8(sp)
    d4b0:	00c12603          	lw	a2,12(sp)
    d4b4:	0a412c83          	lw	s9,164(sp)
    d4b8:	0cc12083          	lw	ra,204(sp)
    d4bc:	0b012b03          	lw	s6,176(sp)
    d4c0:	0a012d03          	lw	s10,160(sp)
    d4c4:	ffff87b7          	lui	a5,0xffff8
    d4c8:	00f72023          	sw	a5,0(a4)
    d4cc:	000115b7          	lui	a1,0x11
    d4d0:	00300693          	li	a3,3
    d4d4:	76058593          	add	a1,a1,1888 # 11760 <_getpid_r+0x644>
    d4d8:	0d010113          	add	sp,sp,208
    d4dc:	4380106f          	j	e914 <__nrv_alloc_D2A>
    d4e0:	00048593          	mv	a1,s1
    d4e4:	00040513          	mv	a0,s0
    d4e8:	161010ef          	jal	ee48 <_Bfree>
    d4ec:	0c412483          	lw	s1,196(sp)
    d4f0:	0c012903          	lw	s2,192(sp)
    d4f4:	0bc12983          	lw	s3,188(sp)
    d4f8:	0b412a83          	lw	s5,180(sp)
    d4fc:	0ac12b83          	lw	s7,172(sp)
    d500:	0a812c03          	lw	s8,168(sp)
    d504:	09c12d83          	lw	s11,156(sp)
    d508:	00812703          	lw	a4,8(sp)
    d50c:	00c12603          	lw	a2,12(sp)
    d510:	00100793          	li	a5,1
    d514:	000115b7          	lui	a1,0x11
    d518:	00040513          	mv	a0,s0
    d51c:	00f72023          	sw	a5,0(a4)
    d520:	00100693          	li	a3,1
    d524:	74058593          	add	a1,a1,1856 # 11740 <_getpid_r+0x624>
    d528:	3ec010ef          	jal	e914 <__nrv_alloc_D2A>
    d52c:	0c812403          	lw	s0,200(sp)
    d530:	00050f13          	mv	t5,a0
    d534:	0cc12083          	lw	ra,204(sp)
    d538:	0a412c83          	lw	s9,164(sp)
    d53c:	0b012b03          	lw	s6,176(sp)
    d540:	0a012d03          	lw	s10,160(sp)
    d544:	000f0513          	mv	a0,t5
    d548:	0d010113          	add	sp,sp,208
    d54c:	00008067          	ret
    d550:	00812703          	lw	a4,8(sp)
    d554:	00c12603          	lw	a2,12(sp)
    d558:	0cc12083          	lw	ra,204(sp)
    d55c:	0b012b03          	lw	s6,176(sp)
    d560:	0a012d03          	lw	s10,160(sp)
    d564:	ffff87b7          	lui	a5,0xffff8
    d568:	00f72023          	sw	a5,0(a4)
    d56c:	000115b7          	lui	a1,0x11
    d570:	00800693          	li	a3,8
    d574:	75458593          	add	a1,a1,1876 # 11754 <_getpid_r+0x638>
    d578:	0d010113          	add	sp,sp,208
    d57c:	3980106f          	j	e914 <__nrv_alloc_D2A>
    d580:	000b8593          	mv	a1,s7
    d584:	00040513          	mv	a0,s0
    d588:	03e12023          	sw	t5,32(sp)
    d58c:	0f0020ef          	jal	f67c <__lshift>
    d590:	02012f03          	lw	t5,32(sp)
    d594:	00050b93          	mv	s7,a0
    d598:	cc051ee3          	bnez	a0,d274 <__gdtoa+0x53c>
    d59c:	0c812403          	lw	s0,200(sp)
    d5a0:	0c412483          	lw	s1,196(sp)
    d5a4:	0c012903          	lw	s2,192(sp)
    d5a8:	0bc12983          	lw	s3,188(sp)
    d5ac:	0b812a03          	lw	s4,184(sp)
    d5b0:	0b412a83          	lw	s5,180(sp)
    d5b4:	0ac12b83          	lw	s7,172(sp)
    d5b8:	0a812c03          	lw	s8,168(sp)
    d5bc:	09c12d83          	lw	s11,156(sp)
    d5c0:	00000f13          	li	t5,0
    d5c4:	f71ff06f          	j	d534 <__gdtoa+0x7fc>
    d5c8:	0004a823          	sw	zero,16(s1)
    d5cc:	8a5ff06f          	j	ce70 <__gdtoa+0x138>
    d5d0:	00100793          	li	a5,1
    d5d4:	04f12823          	sw	a5,80(sp)
    d5d8:	02012823          	sw	zero,48(sp)
    d5dc:	fffa0793          	add	a5,s4,-1
    d5e0:	3a07c463          	bltz	a5,d988 <__gdtoa+0xc50>
    d5e4:	01c12783          	lw	a5,28(sp)
    d5e8:	a407dae3          	bgez	a5,d03c <__gdtoa+0x304>
    d5ec:	01c12783          	lw	a5,28(sp)
    d5f0:	03012703          	lw	a4,48(sp)
    d5f4:	00012e23          	sw	zero,28(sp)
    d5f8:	02f12e23          	sw	a5,60(sp)
    d5fc:	40f70733          	sub	a4,a4,a5
    d600:	02e12823          	sw	a4,48(sp)
    d604:	40f00733          	neg	a4,a5
    d608:	02e12c23          	sw	a4,56(sp)
    d60c:	a49ff06f          	j	d054 <__gdtoa+0x31c>
    d610:	00050593          	mv	a1,a0
    d614:	00048513          	mv	a0,s1
    d618:	5c0010ef          	jal	ebd8 <__rshift_D2A>
    d61c:	08c12683          	lw	a3,140(sp)
    d620:	015687b3          	add	a5,a3,s5
    d624:	02f12223          	sw	a5,36(sp)
    d628:	40dc0c33          	sub	s8,s8,a3
    d62c:	859ff06f          	j	ce84 <__gdtoa+0x14c>
    d630:	02812783          	lw	a5,40(sp)
    d634:	00012823          	sw	zero,16(sp)
    d638:	3fd78793          	add	a5,a5,1021 # ffff83fd <_end+0xfffe3199>
    d63c:	7f87ba13          	sltiu	s4,a5,2040
    d640:	000b8513          	mv	a0,s7
    d644:	f75f40ef          	jal	25b8 <__floatsidf>
    d648:	8281a603          	lw	a2,-2008(gp) # 126e0 <__global_locale+0x198>
    d64c:	82c1a683          	lw	a3,-2004(gp) # 126e4 <__global_locale+0x19c>
    d650:	950f40ef          	jal	17a0 <__muldf3>
    d654:	ee5f40ef          	jal	2538 <__fixdfsi>
    d658:	00100793          	li	a5,1
    d65c:	00350593          	add	a1,a0,3
    d660:	04f12023          	sw	a5,64(sp)
    d664:	fff00793          	li	a5,-1
    d668:	00058693          	mv	a3,a1
    d66c:	00012c23          	sw	zero,24(sp)
    d670:	04f12a23          	sw	a5,84(sp)
    d674:	02f12a23          	sw	a5,52(sp)
    d678:	a51ff06f          	j	d0c8 <__gdtoa+0x390>
    d67c:	02812783          	lw	a5,40(sp)
    d680:	00300693          	li	a3,3
    d684:	40f687b3          	sub	a5,a3,a5
    d688:	02f12423          	sw	a5,40(sp)
    d68c:	03412783          	lw	a5,52(sp)
    d690:	00e00693          	li	a3,14
    d694:	a6f6e2e3          	bltu	a3,a5,d0f8 <__gdtoa+0x3c0>
    d698:	a60a00e3          	beqz	s4,d0f8 <__gdtoa+0x3c0>
    d69c:	03c12703          	lw	a4,60(sp)
    d6a0:	02812683          	lw	a3,40(sp)
    d6a4:	00d766b3          	or	a3,a4,a3
    d6a8:	a40698e3          	bnez	a3,d0f8 <__gdtoa+0x3c0>
    d6ac:	05012703          	lw	a4,80(sp)
    d6b0:	08012623          	sw	zero,140(sp)
    d6b4:	05312c23          	sw	s3,88(sp)
    d6b8:	04412b03          	lw	s6,68(sp)
    d6bc:	02070263          	beqz	a4,d6e0 <__gdtoa+0x9a8>
    d6c0:	8301a603          	lw	a2,-2000(gp) # 126e8 <__global_locale+0x1a0>
    d6c4:	8341a683          	lw	a3,-1996(gp) # 126ec <__global_locale+0x1a4>
    d6c8:	000b0513          	mv	a0,s6
    d6cc:	00098593          	mv	a1,s3
    d6d0:	03e12423          	sw	t5,40(sp)
    d6d4:	ff1f30ef          	jal	16c4 <__ledf2>
    d6d8:	02812f03          	lw	t5,40(sp)
    d6dc:	66054ce3          	bltz	a0,e554 <__gdtoa+0x181c>
    d6e0:	04412783          	lw	a5,68(sp)
    d6e4:	03e12423          	sw	t5,40(sp)
    d6e8:	00078613          	mv	a2,a5
    d6ec:	00078513          	mv	a0,a5
    d6f0:	05812783          	lw	a5,88(sp)
    d6f4:	00078693          	mv	a3,a5
    d6f8:	00078593          	mv	a1,a5
    d6fc:	ff1f20ef          	jal	6ec <__adddf3>
    d700:	8481a603          	lw	a2,-1976(gp) # 12700 <__global_locale+0x1b8>
    d704:	84c1a683          	lw	a3,-1972(gp) # 12704 <__global_locale+0x1bc>
    d708:	fe5f20ef          	jal	6ec <__adddf3>
    d70c:	fcc007b7          	lui	a5,0xfcc00
    d710:	00b78a33          	add	s4,a5,a1
    d714:	03412783          	lw	a5,52(sp)
    d718:	02812f03          	lw	t5,40(sp)
    d71c:	00050713          	mv	a4,a0
    d720:	280782e3          	beqz	a5,e1a4 <__gdtoa+0x146c>
    d724:	03412783          	lw	a5,52(sp)
    d728:	04412e83          	lw	t4,68(sp)
    d72c:	05812803          	lw	a6,88(sp)
    d730:	06012023          	sw	zero,96(sp)
    d734:	04f12e23          	sw	a5,92(sp)
    d738:	05c12683          	lw	a3,92(sp)
    d73c:	000127b7          	lui	a5,0x12
    d740:	04012583          	lw	a1,64(sp)
    d744:	fff68693          	add	a3,a3,-1
    d748:	c2878613          	add	a2,a5,-984 # 11c28 <__mprec_tens>
    d74c:	00369693          	sll	a3,a3,0x3
    d750:	00c686b3          	add	a3,a3,a2
    d754:	07012223          	sw	a6,100(sp)
    d758:	03d12423          	sw	t4,40(sp)
    d75c:	0006a603          	lw	a2,0(a3)
    d760:	0046a683          	lw	a3,4(a3)
    d764:	42058ce3          	beqz	a1,e39c <__gdtoa+0x1664>
    d768:	8581a503          	lw	a0,-1960(gp) # 12710 <__global_locale+0x1c8>
    d76c:	85c1a583          	lw	a1,-1956(gp) # 12714 <__global_locale+0x1cc>
    d770:	06f12e23          	sw	a5,124(sp)
    d774:	001f0b13          	add	s6,t5,1
    d778:	07e12a23          	sw	t5,116(sp)
    d77c:	04e12423          	sw	a4,72(sp)
    d780:	f00f30ef          	jal	e80 <__divdf3>
    d784:	04812703          	lw	a4,72(sp)
    d788:	000a0693          	mv	a3,s4
    d78c:	00070613          	mv	a2,a4
    d790:	e00f40ef          	jal	1d90 <__subdf3>
    d794:	02812e83          	lw	t4,40(sp)
    d798:	06412803          	lw	a6,100(sp)
    d79c:	00050613          	mv	a2,a0
    d7a0:	00058693          	mv	a3,a1
    d7a4:	000e8513          	mv	a0,t4
    d7a8:	00080593          	mv	a1,a6
    d7ac:	07d12423          	sw	t4,104(sp)
    d7b0:	05012423          	sw	a6,72(sp)
    d7b4:	06c12623          	sw	a2,108(sp)
    d7b8:	06d12823          	sw	a3,112(sp)
    d7bc:	d7df40ef          	jal	2538 <__fixdfsi>
    d7c0:	02a12423          	sw	a0,40(sp)
    d7c4:	df5f40ef          	jal	25b8 <__floatsidf>
    d7c8:	06812e83          	lw	t4,104(sp)
    d7cc:	04812803          	lw	a6,72(sp)
    d7d0:	00050613          	mv	a2,a0
    d7d4:	00058693          	mv	a3,a1
    d7d8:	000e8513          	mv	a0,t4
    d7dc:	00080593          	mv	a1,a6
    d7e0:	db0f40ef          	jal	1d90 <__subdf3>
    d7e4:	02812e03          	lw	t3,40(sp)
    d7e8:	07412f03          	lw	t5,116(sp)
    d7ec:	00050613          	mv	a2,a0
    d7f0:	00058693          	mv	a3,a1
    d7f4:	00050a13          	mv	s4,a0
    d7f8:	00058993          	mv	s3,a1
    d7fc:	06c12503          	lw	a0,108(sp)
    d800:	07012583          	lw	a1,112(sp)
    d804:	030e0e13          	add	t3,t3,48
    d808:	01cf0023          	sb	t3,0(t5)
    d80c:	03e12423          	sw	t5,40(sp)
    d810:	dd9f30ef          	jal	15e8 <__gedf2>
    d814:	02812f03          	lw	t5,40(sp)
    d818:	68a042e3          	bgtz	a0,e69c <__gdtoa+0x1964>
    d81c:	8301a783          	lw	a5,-2000(gp) # 126e8 <__global_locale+0x1a0>
    d820:	8341a803          	lw	a6,-1996(gp) # 126ec <__global_locale+0x1a4>
    d824:	04f12423          	sw	a5,72(sp)
    d828:	05012623          	sw	a6,76(sp)
    d82c:	8381a783          	lw	a5,-1992(gp) # 126f0 <__global_locale+0x1a8>
    d830:	83c1a803          	lw	a6,-1988(gp) # 126f4 <__global_locale+0x1ac>
    d834:	06912223          	sw	s1,100(sp)
    d838:	07712a23          	sw	s7,116(sp)
    d83c:	07812c23          	sw	s8,120(sp)
    d840:	06c12483          	lw	s1,108(sp)
    d844:	05c12c03          	lw	s8,92(sp)
    d848:	07012b83          	lw	s7,112(sp)
    d84c:	02f12423          	sw	a5,40(sp)
    d850:	03012623          	sw	a6,44(sp)
    d854:	05e12e23          	sw	t5,92(sp)
    d858:	06812423          	sw	s0,104(sp)
    d85c:	0800006f          	j	d8dc <__gdtoa+0xba4>
    d860:	08c12783          	lw	a5,140(sp)
    d864:	00178793          	add	a5,a5,1
    d868:	08f12623          	sw	a5,140(sp)
    d86c:	6b87d6e3          	bge	a5,s8,e718 <__gdtoa+0x19e0>
    d870:	f31f30ef          	jal	17a0 <__muldf3>
    d874:	02812603          	lw	a2,40(sp)
    d878:	02c12683          	lw	a3,44(sp)
    d87c:	00050493          	mv	s1,a0
    d880:	00058b93          	mv	s7,a1
    d884:	000a0513          	mv	a0,s4
    d888:	00098593          	mv	a1,s3
    d88c:	f15f30ef          	jal	17a0 <__muldf3>
    d890:	00058a13          	mv	s4,a1
    d894:	00050413          	mv	s0,a0
    d898:	ca1f40ef          	jal	2538 <__fixdfsi>
    d89c:	00050993          	mv	s3,a0
    d8a0:	d19f40ef          	jal	25b8 <__floatsidf>
    d8a4:	00050613          	mv	a2,a0
    d8a8:	00058693          	mv	a3,a1
    d8ac:	00040513          	mv	a0,s0
    d8b0:	000a0593          	mv	a1,s4
    d8b4:	cdcf40ef          	jal	1d90 <__subdf3>
    d8b8:	03098793          	add	a5,s3,48
    d8bc:	00048613          	mv	a2,s1
    d8c0:	000b8693          	mv	a3,s7
    d8c4:	00fb0023          	sb	a5,0(s6)
    d8c8:	001b0b13          	add	s6,s6,1
    d8cc:	00050a13          	mv	s4,a0
    d8d0:	00058993          	mv	s3,a1
    d8d4:	df1f30ef          	jal	16c4 <__ledf2>
    d8d8:	5a054ce3          	bltz	a0,e690 <__gdtoa+0x1958>
    d8dc:	04812503          	lw	a0,72(sp)
    d8e0:	04c12583          	lw	a1,76(sp)
    d8e4:	000a0613          	mv	a2,s4
    d8e8:	00098693          	mv	a3,s3
    d8ec:	ca4f40ef          	jal	1d90 <__subdf3>
    d8f0:	00050613          	mv	a2,a0
    d8f4:	00058693          	mv	a3,a1
    d8f8:	00048513          	mv	a0,s1
    d8fc:	000b8593          	mv	a1,s7
    d900:	ce9f30ef          	jal	15e8 <__gedf2>
    d904:	00050793          	mv	a5,a0
    d908:	02812603          	lw	a2,40(sp)
    d90c:	02c12683          	lw	a3,44(sp)
    d910:	00048513          	mv	a0,s1
    d914:	000b8593          	mv	a1,s7
    d918:	f4f054e3          	blez	a5,d860 <__gdtoa+0xb28>
    d91c:	06012783          	lw	a5,96(sp)
    d920:	06412483          	lw	s1,100(sp)
    d924:	05c12f03          	lw	t5,92(sp)
    d928:	06812403          	lw	s0,104(sp)
    d92c:	fffb4b83          	lbu	s7,-1(s6)
    d930:	00178d93          	add	s11,a5,1
    d934:	03900693          	li	a3,57
    d938:	0100006f          	j	d948 <__gdtoa+0xc10>
    d93c:	24ff0ae3          	beq	t5,a5,e390 <__gdtoa+0x1658>
    d940:	fff7cb83          	lbu	s7,-1(a5)
    d944:	00078b13          	mv	s6,a5
    d948:	fffb0793          	add	a5,s6,-1
    d94c:	fedb88e3          	beq	s7,a3,d93c <__gdtoa+0xc04>
    d950:	001b8693          	add	a3,s7,1
    d954:	0ff6f693          	zext.b	a3,a3
    d958:	00d78023          	sb	a3,0(a5)
    d95c:	000d8b93          	mv	s7,s11
    d960:	02000c93          	li	s9,32
    d964:	2100006f          	j	db74 <__gdtoa+0xe3c>
    d968:	0c812403          	lw	s0,200(sp)
    d96c:	0c412483          	lw	s1,196(sp)
    d970:	0c012903          	lw	s2,192(sp)
    d974:	0b412a83          	lw	s5,180(sp)
    d978:	0ac12b83          	lw	s7,172(sp)
    d97c:	09c12d83          	lw	s11,156(sp)
    d980:	00000f13          	li	t5,0
    d984:	bb1ff06f          	j	d534 <__gdtoa+0x7fc>
    d988:	00100693          	li	a3,1
    d98c:	414687b3          	sub	a5,a3,s4
    d990:	02f12823          	sw	a5,48(sp)
    d994:	02012023          	sw	zero,32(sp)
    d998:	c4dff06f          	j	d5e4 <__gdtoa+0x8ac>
    d99c:	03812b03          	lw	s6,56(sp)
    d9a0:	03012a03          	lw	s4,48(sp)
    d9a4:	00000993          	li	s3,0
    d9a8:	ffcff06f          	j	d1a4 <__gdtoa+0x46c>
    d9ac:	00200793          	li	a5,2
    d9b0:	02f12423          	sw	a5,40(sp)
    d9b4:	f3cff06f          	j	d0f0 <__gdtoa+0x3b8>
    d9b8:	01c12783          	lw	a5,28(sp)
    d9bc:	04012823          	sw	zero,80(sp)
    d9c0:	fff78793          	add	a5,a5,-1
    d9c4:	00f12e23          	sw	a5,28(sp)
    d9c8:	c11ff06f          	j	d5d8 <__gdtoa+0x8a0>
    d9cc:	ffc78793          	add	a5,a5,-4
    d9d0:	00f12823          	sw	a5,16(sp)
    d9d4:	00400613          	li	a2,4
    d9d8:	22c78863          	beq	a5,a2,dc08 <__gdtoa+0xed0>
    d9dc:	6ed78063          	beq	a5,a3,e0bc <__gdtoa+0x1384>
    d9e0:	00200693          	li	a3,2
    d9e4:	04012023          	sw	zero,64(sp)
    d9e8:	00000a13          	li	s4,0
    d9ec:	22d78463          	beq	a5,a3,dc14 <__gdtoa+0xedc>
    d9f0:	00300793          	li	a5,3
    d9f4:	00f12823          	sw	a5,16(sp)
    d9f8:	eacff06f          	j	d0a4 <__gdtoa+0x36c>
    d9fc:	000126b7          	lui	a3,0x12
    da00:	00379793          	sll	a5,a5,0x3
    da04:	c2868693          	add	a3,a3,-984 # 11c28 <__mprec_tens>
    da08:	00d787b3          	add	a5,a5,a3
    da0c:	0007aa03          	lw	s4,0(a5)
    da10:	0047aa83          	lw	s5,4(a5)
    da14:	01812783          	lw	a5,24(sp)
    da18:	5407c263          	bltz	a5,df5c <__gdtoa+0x1224>
    da1c:	04812b03          	lw	s6,72(sp)
    da20:	00100793          	li	a5,1
    da24:	000a0613          	mv	a2,s4
    da28:	000a8693          	mv	a3,s5
    da2c:	000b0513          	mv	a0,s6
    da30:	00098593          	mv	a1,s3
    da34:	01e12823          	sw	t5,16(sp)
    da38:	08f12623          	sw	a5,140(sp)
    da3c:	c44f30ef          	jal	e80 <__divdf3>
    da40:	af9f40ef          	jal	2538 <__fixdfsi>
    da44:	00050913          	mv	s2,a0
    da48:	b71f40ef          	jal	25b8 <__floatsidf>
    da4c:	000a0613          	mv	a2,s4
    da50:	000a8693          	mv	a3,s5
    da54:	d4df30ef          	jal	17a0 <__muldf3>
    da58:	00050613          	mv	a2,a0
    da5c:	00058693          	mv	a3,a1
    da60:	000b0513          	mv	a0,s6
    da64:	00098593          	mv	a1,s3
    da68:	b28f40ef          	jal	1d90 <__subdf3>
    da6c:	01012f03          	lw	t5,16(sp)
    da70:	03c12703          	lw	a4,60(sp)
    da74:	03090793          	add	a5,s2,48
    da78:	00ff0023          	sb	a5,0(t5)
    da7c:	00000613          	li	a2,0
    da80:	00000693          	li	a3,0
    da84:	00170d93          	add	s11,a4,1
    da88:	001f0b13          	add	s6,t5,1
    da8c:	00050c13          	mv	s8,a0
    da90:	00058993          	mv	s3,a1
    da94:	ac9f30ef          	jal	155c <__eqdf2>
    da98:	01012f03          	lw	t5,16(sp)
    da9c:	000d8b93          	mv	s7,s11
    daa0:	0c050a63          	beqz	a0,db74 <__gdtoa+0xe3c>
    daa4:	83c1a803          	lw	a6,-1988(gp) # 126f4 <__global_locale+0x1ac>
    daa8:	8381a783          	lw	a5,-1992(gp) # 126f0 <__global_locale+0x1a8>
    daac:	01912e23          	sw	s9,28(sp)
    dab0:	01b12c23          	sw	s11,24(sp)
    dab4:	03412c83          	lw	s9,52(sp)
    dab8:	000c0d93          	mv	s11,s8
    dabc:	00f12823          	sw	a5,16(sp)
    dac0:	00098c13          	mv	s8,s3
    dac4:	01012a23          	sw	a6,20(sp)
    dac8:	000f0993          	mv	s3,t5
    dacc:	0700006f          	j	db3c <__gdtoa+0xe04>
    dad0:	09112623          	sw	a7,140(sp)
    dad4:	ccdf30ef          	jal	17a0 <__muldf3>
    dad8:	000a0613          	mv	a2,s4
    dadc:	000a8693          	mv	a3,s5
    dae0:	00050d93          	mv	s11,a0
    dae4:	00058c13          	mv	s8,a1
    dae8:	b98f30ef          	jal	e80 <__divdf3>
    daec:	a4df40ef          	jal	2538 <__fixdfsi>
    daf0:	00050913          	mv	s2,a0
    daf4:	ac5f40ef          	jal	25b8 <__floatsidf>
    daf8:	000a0613          	mv	a2,s4
    dafc:	000a8693          	mv	a3,s5
    db00:	ca1f30ef          	jal	17a0 <__muldf3>
    db04:	00050613          	mv	a2,a0
    db08:	00058693          	mv	a3,a1
    db0c:	000d8513          	mv	a0,s11
    db10:	000c0593          	mv	a1,s8
    db14:	a7cf40ef          	jal	1d90 <__subdf3>
    db18:	001b0b13          	add	s6,s6,1
    db1c:	03090793          	add	a5,s2,48
    db20:	fefb0fa3          	sb	a5,-1(s6)
    db24:	00000613          	li	a2,0
    db28:	00000693          	li	a3,0
    db2c:	00050d93          	mv	s11,a0
    db30:	00058c13          	mv	s8,a1
    db34:	a29f30ef          	jal	155c <__eqdf2>
    db38:	40050c63          	beqz	a0,df50 <__gdtoa+0x1218>
    db3c:	08c12803          	lw	a6,140(sp)
    db40:	01012603          	lw	a2,16(sp)
    db44:	01412683          	lw	a3,20(sp)
    db48:	000d8513          	mv	a0,s11
    db4c:	000c0593          	mv	a1,s8
    db50:	00180893          	add	a7,a6,1
    db54:	f7981ee3          	bne	a6,s9,dad0 <__gdtoa+0xd98>
    db58:	02812703          	lw	a4,40(sp)
    db5c:	01812d83          	lw	s11,24(sp)
    db60:	00098f13          	mv	t5,s3
    db64:	7a070a63          	beqz	a4,e318 <__gdtoa+0x15e0>
    db68:	00100793          	li	a5,1
    db6c:	01000c93          	li	s9,16
    db70:	1cf70ee3          	beq	a4,a5,e54c <__gdtoa+0x1814>
    db74:	00048593          	mv	a1,s1
    db78:	00040513          	mv	a0,s0
    db7c:	01e12823          	sw	t5,16(sp)
    db80:	2c8010ef          	jal	ee48 <_Bfree>
    db84:	00812783          	lw	a5,8(sp)
    db88:	000b0023          	sb	zero,0(s6)
    db8c:	01012f03          	lw	t5,16(sp)
    db90:	0177a023          	sw	s7,0(a5)
    db94:	00c12783          	lw	a5,12(sp)
    db98:	00078463          	beqz	a5,dba0 <__gdtoa+0xe68>
    db9c:	0167a023          	sw	s6,0(a5)
    dba0:	000d2783          	lw	a5,0(s10)
    dba4:	0c812403          	lw	s0,200(sp)
    dba8:	0c412483          	lw	s1,196(sp)
    dbac:	0197e7b3          	or	a5,a5,s9
    dbb0:	0c012903          	lw	s2,192(sp)
    dbb4:	0bc12983          	lw	s3,188(sp)
    dbb8:	0b812a03          	lw	s4,184(sp)
    dbbc:	0b412a83          	lw	s5,180(sp)
    dbc0:	0ac12b83          	lw	s7,172(sp)
    dbc4:	0a812c03          	lw	s8,168(sp)
    dbc8:	09c12d83          	lw	s11,156(sp)
    dbcc:	00fd2023          	sw	a5,0(s10)
    dbd0:	965ff06f          	j	d534 <__gdtoa+0x7fc>
    dbd4:	e6dc1663          	bne	s8,a3,d240 <__gdtoa+0x508>
    dbd8:	004da783          	lw	a5,4(s11)
    dbdc:	00178793          	add	a5,a5,1
    dbe0:	e757d063          	bge	a5,s5,d240 <__gdtoa+0x508>
    dbe4:	03012783          	lw	a5,48(sp)
    dbe8:	00178793          	add	a5,a5,1
    dbec:	02f12823          	sw	a5,48(sp)
    dbf0:	02012783          	lw	a5,32(sp)
    dbf4:	00178793          	add	a5,a5,1
    dbf8:	02f12023          	sw	a5,32(sp)
    dbfc:	00100793          	li	a5,1
    dc00:	00f12e23          	sw	a5,28(sp)
    dc04:	e3cff06f          	j	d240 <__gdtoa+0x508>
    dc08:	00100793          	li	a5,1
    dc0c:	00000a13          	li	s4,0
    dc10:	04f12023          	sw	a5,64(sp)
    dc14:	01812583          	lw	a1,24(sp)
    dc18:	00b04463          	bgtz	a1,dc20 <__gdtoa+0xee8>
    dc1c:	00100593          	li	a1,1
    dc20:	00058693          	mv	a3,a1
    dc24:	04b12a23          	sw	a1,84(sp)
    dc28:	02b12a23          	sw	a1,52(sp)
    dc2c:	00b12c23          	sw	a1,24(sp)
    dc30:	c98ff06f          	j	d0c8 <__gdtoa+0x390>
    dc34:	238010ef          	jal	ee6c <__multadd>
    dc38:	00050993          	mv	s3,a0
    dc3c:	960500e3          	beqz	a0,d59c <__gdtoa+0x864>
    dc40:	00050a13          	mv	s4,a0
    dc44:	f1cff06f          	j	d360 <__gdtoa+0x628>
    dc48:	ea0ad663          	bgez	s5,d2f4 <__gdtoa+0x5bc>
    dc4c:	02812783          	lw	a5,40(sp)
    dc50:	01812f03          	lw	t5,24(sp)
    dc54:	01c12d03          	lw	s10,28(sp)
    dc58:	00070c93          	mv	s9,a4
    dc5c:	3a079ee3          	bnez	a5,e818 <__gdtoa+0x1ae0>
    dc60:	0104a683          	lw	a3,16(s1)
    dc64:	00100793          	li	a5,1
    dc68:	01000c93          	li	s9,16
    dc6c:	001c0913          	add	s2,s8,1
    dc70:	34d7d0e3          	bge	a5,a3,e7b0 <__gdtoa+0x1a78>
    dc74:	00098a93          	mv	s5,s3
    dc78:	00090b13          	mv	s6,s2
    dc7c:	01bc0023          	sb	s11,0(s8)
    dc80:	000a0993          	mv	s3,s4
    dc84:	000b8593          	mv	a1,s7
    dc88:	00040513          	mv	a0,s0
    dc8c:	01e12823          	sw	t5,16(sp)
    dc90:	1b8010ef          	jal	ee48 <_Bfree>
    dc94:	03c12783          	lw	a5,60(sp)
    dc98:	01012f03          	lw	t5,16(sp)
    dc9c:	00178b93          	add	s7,a5,1
    dca0:	ec098ae3          	beqz	s3,db74 <__gdtoa+0xe3c>
    dca4:	000a8c63          	beqz	s5,dcbc <__gdtoa+0xf84>
    dca8:	013a8a63          	beq	s5,s3,dcbc <__gdtoa+0xf84>
    dcac:	000a8593          	mv	a1,s5
    dcb0:	00040513          	mv	a0,s0
    dcb4:	194010ef          	jal	ee48 <_Bfree>
    dcb8:	01012f03          	lw	t5,16(sp)
    dcbc:	00098593          	mv	a1,s3
    dcc0:	00040513          	mv	a0,s0
    dcc4:	01e12823          	sw	t5,16(sp)
    dcc8:	180010ef          	jal	ee48 <_Bfree>
    dccc:	01012f03          	lw	t5,16(sp)
    dcd0:	ea5ff06f          	j	db74 <__gdtoa+0xe3c>
    dcd4:	00048593          	mv	a1,s1
    dcd8:	00040513          	mv	a0,s0
    dcdc:	03e12223          	sw	t5,36(sp)
    dce0:	19d010ef          	jal	f67c <__lshift>
    dce4:	00050493          	mv	s1,a0
    dce8:	8a050ae3          	beqz	a0,d59c <__gdtoa+0x864>
    dcec:	08c12783          	lw	a5,140(sp)
    dcf0:	02412f03          	lw	t5,36(sp)
    dcf4:	d74ff06f          	j	d268 <__gdtoa+0x530>
    dcf8:	000b8593          	mv	a1,s7
    dcfc:	00048513          	mv	a0,s1
    dd00:	03e12023          	sw	t5,32(sp)
    dd04:	309010ef          	jal	f80c <__mcmp>
    dd08:	02012f03          	lw	t5,32(sp)
    dd0c:	d6055863          	bgez	a0,d27c <__gdtoa+0x544>
    dd10:	03c12783          	lw	a5,60(sp)
    dd14:	00048593          	mv	a1,s1
    dd18:	00000693          	li	a3,0
    dd1c:	fff78793          	add	a5,a5,-1
    dd20:	00a00613          	li	a2,10
    dd24:	00040513          	mv	a0,s0
    dd28:	02f12e23          	sw	a5,60(sp)
    dd2c:	140010ef          	jal	ee6c <__multadd>
    dd30:	00050493          	mv	s1,a0
    dd34:	860504e3          	beqz	a0,d59c <__gdtoa+0x864>
    dd38:	04012783          	lw	a5,64(sp)
    dd3c:	02012f03          	lw	t5,32(sp)
    dd40:	100792e3          	bnez	a5,e644 <__gdtoa+0x190c>
    dd44:	05412783          	lw	a5,84(sp)
    dd48:	1ef05863          	blez	a5,df38 <__gdtoa+0x1200>
    dd4c:	02f12a23          	sw	a5,52(sp)
    dd50:	03412903          	lw	s2,52(sp)
    dd54:	000f0c13          	mv	s8,t5
    dd58:	00100793          	li	a5,1
    dd5c:	000f0a13          	mv	s4,t5
    dd60:	0180006f          	j	dd78 <__gdtoa+0x1040>
    dd64:	108010ef          	jal	ee6c <__multadd>
    dd68:	00050493          	mv	s1,a0
    dd6c:	820508e3          	beqz	a0,d59c <__gdtoa+0x864>
    dd70:	08c12783          	lw	a5,140(sp)
    dd74:	00178793          	add	a5,a5,1
    dd78:	000b8593          	mv	a1,s7
    dd7c:	00048513          	mv	a0,s1
    dd80:	08f12623          	sw	a5,140(sp)
    dd84:	45d000ef          	jal	e9e0 <__quorem_D2A>
    dd88:	03050d93          	add	s11,a0,48
    dd8c:	01bc0023          	sb	s11,0(s8)
    dd90:	08c12783          	lw	a5,140(sp)
    dd94:	00000693          	li	a3,0
    dd98:	00a00613          	li	a2,10
    dd9c:	00048593          	mv	a1,s1
    dda0:	00040513          	mv	a0,s0
    dda4:	001c0c13          	add	s8,s8,1
    dda8:	fb27cee3          	blt	a5,s2,dd64 <__gdtoa+0x102c>
    ddac:	000a0f13          	mv	t5,s4
    ddb0:	00000a93          	li	s5,0
    ddb4:	02812703          	lw	a4,40(sp)
    ddb8:	48070463          	beqz	a4,e240 <__gdtoa+0x1508>
    ddbc:	00200793          	li	a5,2
    ddc0:	0104a683          	lw	a3,16(s1)
    ddc4:	4af70a63          	beq	a4,a5,e278 <__gdtoa+0x1540>
    ddc8:	00100793          	li	a5,1
    ddcc:	2ad7c263          	blt	a5,a3,e070 <__gdtoa+0x1338>
    ddd0:	0144a783          	lw	a5,20(s1)
    ddd4:	28079e63          	bnez	a5,e070 <__gdtoa+0x1338>
    ddd8:	00f037b3          	snez	a5,a5
    dddc:	00479c93          	sll	s9,a5,0x4
    dde0:	03000693          	li	a3,48
    dde4:	fffc4783          	lbu	a5,-1(s8)
    dde8:	000c0b13          	mv	s6,s8
    ddec:	fffc0c13          	add	s8,s8,-1
    ddf0:	fed78ae3          	beq	a5,a3,dde4 <__gdtoa+0x10ac>
    ddf4:	e91ff06f          	j	dc84 <__gdtoa+0xf4c>
    ddf8:	03412783          	lw	a5,52(sp)
    ddfc:	03812703          	lw	a4,56(sp)
    de00:	fff78693          	add	a3,a5,-1
    de04:	1ad74863          	blt	a4,a3,dfb4 <__gdtoa+0x127c>
    de08:	40d70b33          	sub	s6,a4,a3
    de0c:	7c07d263          	bgez	a5,e5d0 <__gdtoa+0x1898>
    de10:	03012783          	lw	a5,48(sp)
    de14:	03412703          	lw	a4,52(sp)
    de18:	08012623          	sw	zero,140(sp)
    de1c:	40e78a33          	sub	s4,a5,a4
    de20:	b68ff06f          	j	d188 <__gdtoa+0x450>
    de24:	01012703          	lw	a4,16(sp)
    de28:	00200793          	li	a5,2
    de2c:	c4e7dc63          	bge	a5,a4,d284 <__gdtoa+0x54c>
    de30:	000b8593          	mv	a1,s7
    de34:	00000693          	li	a3,0
    de38:	00500613          	li	a2,5
    de3c:	00040513          	mv	a0,s0
    de40:	01e12823          	sw	t5,16(sp)
    de44:	028010ef          	jal	ee6c <__multadd>
    de48:	00050593          	mv	a1,a0
    de4c:	f4050863          	beqz	a0,d59c <__gdtoa+0x864>
    de50:	03412783          	lw	a5,52(sp)
    de54:	01012f03          	lw	t5,16(sp)
    de58:	14079463          	bnez	a5,dfa0 <__gdtoa+0x1268>
    de5c:	00a12823          	sw	a0,16(sp)
    de60:	00048513          	mv	a0,s1
    de64:	01e12e23          	sw	t5,28(sp)
    de68:	1a5010ef          	jal	f80c <__mcmp>
    de6c:	01012583          	lw	a1,16(sp)
    de70:	01c12f03          	lw	t5,28(sp)
    de74:	12a05663          	blez	a0,dfa0 <__gdtoa+0x1268>
    de78:	03c12783          	lw	a5,60(sp)
    de7c:	00278b93          	add	s7,a5,2
    de80:	03100793          	li	a5,49
    de84:	001f0b13          	add	s6,t5,1
    de88:	00ff0023          	sb	a5,0(t5)
    de8c:	02000c93          	li	s9,32
    de90:	00040513          	mv	a0,s0
    de94:	01e12823          	sw	t5,16(sp)
    de98:	7b1000ef          	jal	ee48 <_Bfree>
    de9c:	01012f03          	lw	t5,16(sp)
    dea0:	cc098ae3          	beqz	s3,db74 <__gdtoa+0xe3c>
    dea4:	e19ff06f          	j	dcbc <__gdtoa+0xf84>
    dea8:	00100693          	li	a3,1
    deac:	00100593          	li	a1,1
    deb0:	a18ff06f          	j	d0c8 <__gdtoa+0x390>
    deb4:	00050593          	mv	a1,a0
    deb8:	00078613          	mv	a2,a5
    debc:	00040513          	mv	a0,s0
    dec0:	66c010ef          	jal	f52c <__pow5mult>
    dec4:	00050b93          	mv	s7,a0
    dec8:	ec050a63          	beqz	a0,d59c <__gdtoa+0x864>
    decc:	01012783          	lw	a5,16(sp)
    ded0:	00100693          	li	a3,1
    ded4:	02412f03          	lw	t5,36(sp)
    ded8:	20f6da63          	bge	a3,a5,e0ec <__gdtoa+0x13b4>
    dedc:	010ba783          	lw	a5,16(s7)
    dee0:	03e12223          	sw	t5,36(sp)
    dee4:	00378793          	add	a5,a5,3
    dee8:	00279793          	sll	a5,a5,0x2
    deec:	00fb87b3          	add	a5,s7,a5
    def0:	0047a503          	lw	a0,4(a5)
    def4:	1fc010ef          	jal	f0f0 <__hi0bits>
    def8:	02412f03          	lw	t5,36(sp)
    defc:	00050a93          	mv	s5,a0
    df00:	01912e23          	sw	s9,28(sp)
    df04:	b40ff06f          	j	d244 <__gdtoa+0x50c>
    df08:	01012783          	lw	a5,16(sp)
    df0c:	00100693          	li	a3,1
    df10:	eef6c4e3          	blt	a3,a5,ddf8 <__gdtoa+0x10c0>
    df14:	03012783          	lw	a5,48(sp)
    df18:	02012703          	lw	a4,32(sp)
    df1c:	03812b03          	lw	s6,56(sp)
    df20:	00078a13          	mv	s4,a5
    df24:	00c70733          	add	a4,a4,a2
    df28:	00f607b3          	add	a5,a2,a5
    df2c:	02e12023          	sw	a4,32(sp)
    df30:	02f12823          	sw	a5,48(sp)
    df34:	a54ff06f          	j	d188 <__gdtoa+0x450>
    df38:	01012703          	lw	a4,16(sp)
    df3c:	00200793          	li	a5,2
    df40:	08e7cce3          	blt	a5,a4,e7d8 <__gdtoa+0x1aa0>
    df44:	05412783          	lw	a5,84(sp)
    df48:	02f12a23          	sw	a5,52(sp)
    df4c:	e05ff06f          	j	dd50 <__gdtoa+0x1018>
    df50:	01c12c83          	lw	s9,28(sp)
    df54:	00098f13          	mv	t5,s3
    df58:	c1dff06f          	j	db74 <__gdtoa+0xe3c>
    df5c:	03412783          	lw	a5,52(sp)
    df60:	aaf04ee3          	bgtz	a5,da1c <__gdtoa+0xce4>
    df64:	02079a63          	bnez	a5,df98 <__gdtoa+0x1260>
    df68:	8501a603          	lw	a2,-1968(gp) # 12708 <__global_locale+0x1c0>
    df6c:	8541a683          	lw	a3,-1964(gp) # 1270c <__global_locale+0x1c4>
    df70:	000a0513          	mv	a0,s4
    df74:	000a8593          	mv	a1,s5
    df78:	01e12823          	sw	t5,16(sp)
    df7c:	825f30ef          	jal	17a0 <__muldf3>
    df80:	04812883          	lw	a7,72(sp)
    df84:	00098693          	mv	a3,s3
    df88:	00088613          	mv	a2,a7
    df8c:	e5cf30ef          	jal	15e8 <__gedf2>
    df90:	01012f03          	lw	t5,16(sp)
    df94:	68054e63          	bltz	a0,e630 <__gdtoa+0x18f8>
    df98:	00000593          	li	a1,0
    df9c:	00000993          	li	s3,0
    dfa0:	01812783          	lw	a5,24(sp)
    dfa4:	000f0b13          	mv	s6,t5
    dfa8:	01000c93          	li	s9,16
    dfac:	40f00bb3          	neg	s7,a5
    dfb0:	ee1ff06f          	j	de90 <__gdtoa+0x1158>
    dfb4:	03812783          	lw	a5,56(sp)
    dfb8:	03012703          	lw	a4,48(sp)
    dfbc:	00000b13          	li	s6,0
    dfc0:	40f68633          	sub	a2,a3,a5
    dfc4:	01c12783          	lw	a5,28(sp)
    dfc8:	00070a13          	mv	s4,a4
    dfcc:	02d12c23          	sw	a3,56(sp)
    dfd0:	00c787b3          	add	a5,a5,a2
    dfd4:	00f12e23          	sw	a5,28(sp)
    dfd8:	02012603          	lw	a2,32(sp)
    dfdc:	03412783          	lw	a5,52(sp)
    dfe0:	00f60633          	add	a2,a2,a5
    dfe4:	08f12623          	sw	a5,140(sp)
    dfe8:	00f707b3          	add	a5,a4,a5
    dfec:	02c12023          	sw	a2,32(sp)
    dff0:	02f12823          	sw	a5,48(sp)
    dff4:	994ff06f          	j	d188 <__gdtoa+0x450>
    dff8:	00098593          	mv	a1,s3
    dffc:	000b0613          	mv	a2,s6
    e000:	00040513          	mv	a0,s0
    e004:	03e12223          	sw	t5,36(sp)
    e008:	524010ef          	jal	f52c <__pow5mult>
    e00c:	00050993          	mv	s3,a0
    e010:	d8050663          	beqz	a0,d59c <__gdtoa+0x864>
    e014:	00050593          	mv	a1,a0
    e018:	00048613          	mv	a2,s1
    e01c:	00040513          	mv	a0,s0
    e020:	2d8010ef          	jal	f2f8 <__multiply>
    e024:	00050b93          	mv	s7,a0
    e028:	d6050a63          	beqz	a0,d59c <__gdtoa+0x864>
    e02c:	00048593          	mv	a1,s1
    e030:	00040513          	mv	a0,s0
    e034:	615000ef          	jal	ee48 <_Bfree>
    e038:	03812783          	lw	a5,56(sp)
    e03c:	02412f03          	lw	t5,36(sp)
    e040:	000b8493          	mv	s1,s7
    e044:	416787b3          	sub	a5,a5,s6
    e048:	02f12c23          	sw	a5,56(sp)
    e04c:	9c078263          	beqz	a5,d210 <__gdtoa+0x4d8>
    e050:	9a0ff06f          	j	d1f0 <__gdtoa+0x4b8>
    e054:	00098a93          	mv	s5,s3
    e058:	000c0793          	mv	a5,s8
    e05c:	001c0913          	add	s2,s8,1
    e060:	000a0993          	mv	s3,s4
    e064:	03900693          	li	a3,57
    e068:	00090c13          	mv	s8,s2
    e06c:	00d78023          	sb	a3,0(a5)
    e070:	03900693          	li	a3,57
    e074:	0080006f          	j	e07c <__gdtoa+0x1344>
    e078:	218f0c63          	beq	t5,s8,e290 <__gdtoa+0x1558>
    e07c:	fffc4783          	lbu	a5,-1(s8)
    e080:	000c0b13          	mv	s6,s8
    e084:	fffc0c13          	add	s8,s8,-1
    e088:	fed788e3          	beq	a5,a3,e078 <__gdtoa+0x1340>
    e08c:	00178793          	add	a5,a5,1
    e090:	00fc0023          	sb	a5,0(s8)
    e094:	02000c93          	li	s9,32
    e098:	bedff06f          	j	dc84 <__gdtoa+0xf4c>
    e09c:	00098593          	mv	a1,s3
    e0a0:	00040513          	mv	a0,s0
    e0a4:	01e12c23          	sw	t5,24(sp)
    e0a8:	5d4010ef          	jal	f67c <__lshift>
    e0ac:	01812f03          	lw	t5,24(sp)
    e0b0:	00050993          	mv	s3,a0
    e0b4:	9e051063          	bnez	a0,d294 <__gdtoa+0x55c>
    e0b8:	ce4ff06f          	j	d59c <__gdtoa+0x864>
    e0bc:	00100793          	li	a5,1
    e0c0:	00000a13          	li	s4,0
    e0c4:	04f12023          	sw	a5,64(sp)
    e0c8:	fddfe06f          	j	d0a4 <__gdtoa+0x36c>
    e0cc:	00100793          	li	a5,1
    e0d0:	04f12023          	sw	a5,64(sp)
    e0d4:	fd1fe06f          	j	d0a4 <__gdtoa+0x36c>
    e0d8:	00100793          	li	a5,1
    e0dc:	04f12023          	sw	a5,64(sp)
    e0e0:	b35ff06f          	j	dc14 <__gdtoa+0xedc>
    e0e4:	04012023          	sw	zero,64(sp)
    e0e8:	b2dff06f          	j	dc14 <__gdtoa+0xedc>
    e0ec:	dedc18e3          	bne	s8,a3,dedc <__gdtoa+0x11a4>
    e0f0:	004da783          	lw	a5,4(s11)
    e0f4:	00178793          	add	a5,a5,1
    e0f8:	df57d2e3          	bge	a5,s5,dedc <__gdtoa+0x11a4>
    e0fc:	03012783          	lw	a5,48(sp)
    e100:	00100c93          	li	s9,1
    e104:	00178793          	add	a5,a5,1
    e108:	02f12823          	sw	a5,48(sp)
    e10c:	02012783          	lw	a5,32(sp)
    e110:	00178793          	add	a5,a5,1
    e114:	02f12023          	sw	a5,32(sp)
    e118:	dc5ff06f          	j	dedc <__gdtoa+0x11a4>
    e11c:	0049a583          	lw	a1,4(s3)
    e120:	00040513          	mv	a0,s0
    e124:	01e12c23          	sw	t5,24(sp)
    e128:	46d000ef          	jal	ed94 <_Balloc>
    e12c:	00050a13          	mv	s4,a0
    e130:	c6050663          	beqz	a0,d59c <__gdtoa+0x864>
    e134:	0109a603          	lw	a2,16(s3)
    e138:	00c98593          	add	a1,s3,12
    e13c:	00c50513          	add	a0,a0,12
    e140:	00260613          	add	a2,a2,2
    e144:	00261613          	sll	a2,a2,0x2
    e148:	c70fe0ef          	jal	c5b8 <memcpy>
    e14c:	000a0593          	mv	a1,s4
    e150:	00100613          	li	a2,1
    e154:	00040513          	mv	a0,s0
    e158:	524010ef          	jal	f67c <__lshift>
    e15c:	01812f03          	lw	t5,24(sp)
    e160:	00050a13          	mv	s4,a0
    e164:	00050463          	beqz	a0,e16c <__gdtoa+0x1434>
    e168:	938ff06f          	j	d2a0 <__gdtoa+0x568>
    e16c:	c30ff06f          	j	d59c <__gdtoa+0x864>
    e170:	000b0613          	mv	a2,s6
    e174:	00098693          	mv	a3,s3
    e178:	000b0513          	mv	a0,s6
    e17c:	00098593          	mv	a1,s3
    e180:	03e12423          	sw	t5,40(sp)
    e184:	d68f20ef          	jal	6ec <__adddf3>
    e188:	8481a603          	lw	a2,-1976(gp) # 12700 <__global_locale+0x1b8>
    e18c:	84c1a683          	lw	a3,-1972(gp) # 12704 <__global_locale+0x1bc>
    e190:	d5cf20ef          	jal	6ec <__adddf3>
    e194:	02812f03          	lw	t5,40(sp)
    e198:	fcc007b7          	lui	a5,0xfcc00
    e19c:	00050713          	mv	a4,a0
    e1a0:	00b78a33          	add	s4,a5,a1
    e1a4:	8501a603          	lw	a2,-1968(gp) # 12708 <__global_locale+0x1c0>
    e1a8:	04412503          	lw	a0,68(sp)
    e1ac:	8541a683          	lw	a3,-1964(gp) # 1270c <__global_locale+0x1c4>
    e1b0:	05812583          	lw	a1,88(sp)
    e1b4:	03e12423          	sw	t5,40(sp)
    e1b8:	04e12423          	sw	a4,72(sp)
    e1bc:	bd5f30ef          	jal	1d90 <__subdf3>
    e1c0:	04812703          	lw	a4,72(sp)
    e1c4:	000a0693          	mv	a3,s4
    e1c8:	00050993          	mv	s3,a0
    e1cc:	00070613          	mv	a2,a4
    e1d0:	00058b13          	mv	s6,a1
    e1d4:	c14f30ef          	jal	15e8 <__gedf2>
    e1d8:	02812f03          	lw	t5,40(sp)
    e1dc:	40a04c63          	bgtz	a0,e5f4 <__gdtoa+0x18bc>
    e1e0:	04812703          	lw	a4,72(sp)
    e1e4:	800008b7          	lui	a7,0x80000
    e1e8:	0148c8b3          	xor	a7,a7,s4
    e1ec:	00070613          	mv	a2,a4
    e1f0:	00098513          	mv	a0,s3
    e1f4:	00088693          	mv	a3,a7
    e1f8:	000b0593          	mv	a1,s6
    e1fc:	cc8f30ef          	jal	16c4 <__ledf2>
    e200:	02812f03          	lw	t5,40(sp)
    e204:	d8054ae3          	bltz	a0,df98 <__gdtoa+0x1260>
    e208:	04412783          	lw	a5,68(sp)
    e20c:	02412703          	lw	a4,36(sp)
    e210:	05812983          	lw	s3,88(sp)
    e214:	04f12423          	sw	a5,72(sp)
    e218:	000127b7          	lui	a5,0x12
    e21c:	4e074a63          	bltz	a4,e710 <__gdtoa+0x19d8>
    e220:	c287aa03          	lw	s4,-984(a5) # 11c28 <__mprec_tens>
    e224:	c2c7aa83          	lw	s5,-980(a5)
    e228:	01812783          	lw	a5,24(sp)
    e22c:	02012423          	sw	zero,40(sp)
    e230:	fe07d663          	bgez	a5,da1c <__gdtoa+0xce4>
    e234:	03412783          	lw	a5,52(sp)
    e238:	fe079263          	bnez	a5,da1c <__gdtoa+0xce4>
    e23c:	d2dff06f          	j	df68 <__gdtoa+0x1230>
    e240:	00048593          	mv	a1,s1
    e244:	00100613          	li	a2,1
    e248:	00040513          	mv	a0,s0
    e24c:	01e12823          	sw	t5,16(sp)
    e250:	42c010ef          	jal	f67c <__lshift>
    e254:	00050493          	mv	s1,a0
    e258:	b4050263          	beqz	a0,d59c <__gdtoa+0x864>
    e25c:	000b8593          	mv	a1,s7
    e260:	5ac010ef          	jal	f80c <__mcmp>
    e264:	01012f03          	lw	t5,16(sp)
    e268:	e0a044e3          	bgtz	a0,e070 <__gdtoa+0x1338>
    e26c:	00051663          	bnez	a0,e278 <__gdtoa+0x1540>
    e270:	001dfd93          	and	s11,s11,1
    e274:	de0d9ee3          	bnez	s11,e070 <__gdtoa+0x1338>
    e278:	0104a683          	lw	a3,16(s1)
    e27c:	00100793          	li	a5,1
    e280:	01000c93          	li	s9,16
    e284:	b4d7cee3          	blt	a5,a3,dde0 <__gdtoa+0x10a8>
    e288:	0144a783          	lw	a5,20(s1)
    e28c:	b4dff06f          	j	ddd8 <__gdtoa+0x10a0>
    e290:	03c12783          	lw	a5,60(sp)
    e294:	02000c93          	li	s9,32
    e298:	00178793          	add	a5,a5,1
    e29c:	02f12e23          	sw	a5,60(sp)
    e2a0:	03100793          	li	a5,49
    e2a4:	00ff0023          	sb	a5,0(t5)
    e2a8:	9ddff06f          	j	dc84 <__gdtoa+0xf4c>
    e2ac:	02812783          	lw	a5,40(sp)
    e2b0:	01812f03          	lw	t5,24(sp)
    e2b4:	01c12d03          	lw	s10,28(sp)
    e2b8:	00078e63          	beqz	a5,e2d4 <__gdtoa+0x159c>
    e2bc:	0104a683          	lw	a3,16(s1)
    e2c0:	00100793          	li	a5,1
    e2c4:	94d7ca63          	blt	a5,a3,d418 <__gdtoa+0x6e0>
    e2c8:	0144a783          	lw	a5,20(s1)
    e2cc:	00078463          	beqz	a5,e2d4 <__gdtoa+0x159c>
    e2d0:	948ff06f          	j	d418 <__gdtoa+0x6e0>
    e2d4:	00048593          	mv	a1,s1
    e2d8:	00100613          	li	a2,1
    e2dc:	00040513          	mv	a0,s0
    e2e0:	01e12823          	sw	t5,16(sp)
    e2e4:	398010ef          	jal	f67c <__lshift>
    e2e8:	00050493          	mv	s1,a0
    e2ec:	aa050863          	beqz	a0,d59c <__gdtoa+0x864>
    e2f0:	000b8593          	mv	a1,s7
    e2f4:	518010ef          	jal	f80c <__mcmp>
    e2f8:	01012f03          	lw	t5,16(sp)
    e2fc:	4ca05263          	blez	a0,e7c0 <__gdtoa+0x1a88>
    e300:	03900793          	li	a5,57
    e304:	d4fd88e3          	beq	s11,a5,e054 <__gdtoa+0x131c>
    e308:	02000793          	li	a5,32
    e30c:	031b0d93          	add	s11,s6,49
    e310:	02f12423          	sw	a5,40(sp)
    e314:	94dff06f          	j	dc60 <__gdtoa+0xf28>
    e318:	00050613          	mv	a2,a0
    e31c:	00058693          	mv	a3,a1
    e320:	01e12823          	sw	t5,16(sp)
    e324:	bc8f20ef          	jal	6ec <__adddf3>
    e328:	000a0613          	mv	a2,s4
    e32c:	000a8693          	mv	a3,s5
    e330:	00050c13          	mv	s8,a0
    e334:	00058993          	mv	s3,a1
    e338:	ab0f30ef          	jal	15e8 <__gedf2>
    e33c:	fffb4b83          	lbu	s7,-1(s6)
    e340:	01012f03          	lw	t5,16(sp)
    e344:	dea04863          	bgtz	a0,d934 <__gdtoa+0xbfc>
    e348:	000c0513          	mv	a0,s8
    e34c:	00098593          	mv	a1,s3
    e350:	000a0613          	mv	a2,s4
    e354:	000a8693          	mv	a3,s5
    e358:	a04f30ef          	jal	155c <__eqdf2>
    e35c:	01012f03          	lw	t5,16(sp)
    e360:	00051663          	bnez	a0,e36c <__gdtoa+0x1634>
    e364:	00197913          	and	s2,s2,1
    e368:	dc091663          	bnez	s2,d934 <__gdtoa+0xbfc>
    e36c:	000b0793          	mv	a5,s6
    e370:	01000c93          	li	s9,16
    e374:	03000613          	li	a2,48
    e378:	fff7c703          	lbu	a4,-1(a5)
    e37c:	00078b13          	mv	s6,a5
    e380:	fff78793          	add	a5,a5,-1
    e384:	fec70ae3          	beq	a4,a2,e378 <__gdtoa+0x1640>
    e388:	000d8b93          	mv	s7,s11
    e38c:	fe8ff06f          	j	db74 <__gdtoa+0xe3c>
    e390:	03100693          	li	a3,49
    e394:	001d8d93          	add	s11,s11,1
    e398:	dc0ff06f          	j	d958 <__gdtoa+0xc20>
    e39c:	00070513          	mv	a0,a4
    e3a0:	000a0593          	mv	a1,s4
    e3a4:	06f12e23          	sw	a5,124(sp)
    e3a8:	07e12823          	sw	t5,112(sp)
    e3ac:	bf4f30ef          	jal	17a0 <__muldf3>
    e3b0:	8381a783          	lw	a5,-1992(gp) # 126f0 <__global_locale+0x1a8>
    e3b4:	07012f03          	lw	t5,112(sp)
    e3b8:	83c1a803          	lw	a6,-1988(gp) # 126f4 <__global_locale+0x1ac>
    e3bc:	04812603          	lw	a2,72(sp)
    e3c0:	02f12423          	sw	a5,40(sp)
    e3c4:	07c12783          	lw	a5,124(sp)
    e3c8:	06b12623          	sw	a1,108(sp)
    e3cc:	00000693          	li	a3,0
    e3d0:	00100593          	li	a1,1
    e3d4:	06912823          	sw	s1,112(sp)
    e3d8:	06812a23          	sw	s0,116(sp)
    e3dc:	05c12483          	lw	s1,92(sp)
    e3e0:	07212c23          	sw	s2,120(sp)
    e3e4:	03012623          	sw	a6,44(sp)
    e3e8:	06a12423          	sw	a0,104(sp)
    e3ec:	08b12623          	sw	a1,140(sp)
    e3f0:	07312223          	sw	s3,100(sp)
    e3f4:	000f0b13          	mv	s6,t5
    e3f8:	05e12e23          	sw	t5,92(sp)
    e3fc:	00068413          	mv	s0,a3
    e400:	00078b93          	mv	s7,a5
    e404:	00060913          	mv	s2,a2
    e408:	0180006f          	j	e420 <__gdtoa+0x16e8>
    e40c:	08612623          	sw	t1,140(sp)
    e410:	b90f30ef          	jal	17a0 <__muldf3>
    e414:	00050913          	mv	s2,a0
    e418:	00058993          	mv	s3,a1
    e41c:	00100413          	li	s0,1
    e420:	00090513          	mv	a0,s2
    e424:	00098593          	mv	a1,s3
    e428:	910f40ef          	jal	2538 <__fixdfsi>
    e42c:	00050a13          	mv	s4,a0
    e430:	02050463          	beqz	a0,e458 <__gdtoa+0x1720>
    e434:	984f40ef          	jal	25b8 <__floatsidf>
    e438:	00050613          	mv	a2,a0
    e43c:	00058693          	mv	a3,a1
    e440:	00090513          	mv	a0,s2
    e444:	00098593          	mv	a1,s3
    e448:	949f30ef          	jal	1d90 <__subdf3>
    e44c:	00050913          	mv	s2,a0
    e450:	00058993          	mv	s3,a1
    e454:	00100413          	li	s0,1
    e458:	030a0793          	add	a5,s4,48
    e45c:	001b0b13          	add	s6,s6,1
    e460:	0ff7f793          	zext.b	a5,a5
    e464:	fefb0fa3          	sb	a5,-1(s6)
    e468:	08c12883          	lw	a7,140(sp)
    e46c:	02812603          	lw	a2,40(sp)
    e470:	02c12683          	lw	a3,44(sp)
    e474:	00090513          	mv	a0,s2
    e478:	00098593          	mv	a1,s3
    e47c:	00188313          	add	t1,a7,1 # 80000001 <_end+0x7ffead9d>
    e480:	f89896e3          	bne	a7,s1,e40c <__gdtoa+0x16d4>
    e484:	000b8713          	mv	a4,s7
    e488:	00040693          	mv	a3,s0
    e48c:	00078b93          	mv	s7,a5
    e490:	07012483          	lw	s1,112(sp)
    e494:	05c12f03          	lw	t5,92(sp)
    e498:	07412403          	lw	s0,116(sp)
    e49c:	07812903          	lw	s2,120(sp)
    e4a0:	00070793          	mv	a5,a4
    e4a4:	00068663          	beqz	a3,e4b0 <__gdtoa+0x1778>
    e4a8:	04a12423          	sw	a0,72(sp)
    e4ac:	07312223          	sw	s3,100(sp)
    e4b0:	8581a603          	lw	a2,-1960(gp) # 12710 <__global_locale+0x1c8>
    e4b4:	85c1a683          	lw	a3,-1956(gp) # 12714 <__global_locale+0x1cc>
    e4b8:	06812503          	lw	a0,104(sp)
    e4bc:	06c12583          	lw	a1,108(sp)
    e4c0:	03e12423          	sw	t5,40(sp)
    e4c4:	04f12e23          	sw	a5,92(sp)
    e4c8:	a24f20ef          	jal	6ec <__adddf3>
    e4cc:	06412a03          	lw	s4,100(sp)
    e4d0:	04812603          	lw	a2,72(sp)
    e4d4:	000a0693          	mv	a3,s4
    e4d8:	9ecf30ef          	jal	16c4 <__ledf2>
    e4dc:	02812f03          	lw	t5,40(sp)
    e4e0:	1e054663          	bltz	a0,e6cc <__gdtoa+0x1994>
    e4e4:	06812603          	lw	a2,104(sp)
    e4e8:	06c12683          	lw	a3,108(sp)
    e4ec:	8581a503          	lw	a0,-1960(gp) # 12710 <__global_locale+0x1c8>
    e4f0:	85c1a583          	lw	a1,-1956(gp) # 12714 <__global_locale+0x1cc>
    e4f4:	89df30ef          	jal	1d90 <__subdf3>
    e4f8:	04812603          	lw	a2,72(sp)
    e4fc:	000a0693          	mv	a3,s4
    e500:	8e8f30ef          	jal	15e8 <__gedf2>
    e504:	02812f03          	lw	t5,40(sp)
    e508:	05c12783          	lw	a5,92(sp)
    e50c:	26a04863          	bgtz	a0,e77c <__gdtoa+0x1a44>
    e510:	04412703          	lw	a4,68(sp)
    e514:	05812983          	lw	s3,88(sp)
    e518:	04e12423          	sw	a4,72(sp)
    e51c:	02412703          	lw	a4,36(sp)
    e520:	d00750e3          	bgez	a4,e220 <__gdtoa+0x14e8>
    e524:	03812b03          	lw	s6,56(sp)
    e528:	03012a03          	lw	s4,48(sp)
    e52c:	02012423          	sw	zero,40(sp)
    e530:	00000993          	li	s3,0
    e534:	c71fe06f          	j	d1a4 <__gdtoa+0x46c>
    e538:	00098a93          	mv	s5,s3
    e53c:	01812f03          	lw	t5,24(sp)
    e540:	01c12d03          	lw	s10,28(sp)
    e544:	000a0993          	mv	s3,s4
    e548:	86dff06f          	j	ddb4 <__gdtoa+0x107c>
    e54c:	fffb4b83          	lbu	s7,-1(s6)
    e550:	be4ff06f          	j	d934 <__gdtoa+0xbfc>
    e554:	03412783          	lw	a5,52(sp)
    e558:	c0078ce3          	beqz	a5,e170 <__gdtoa+0x1438>
    e55c:	05412783          	lw	a5,84(sp)
    e560:	caf054e3          	blez	a5,e208 <__gdtoa+0x14d0>
    e564:	8381a603          	lw	a2,-1992(gp) # 126f0 <__global_locale+0x1a8>
    e568:	83c1a683          	lw	a3,-1988(gp) # 126f4 <__global_locale+0x1ac>
    e56c:	00098593          	mv	a1,s3
    e570:	000b0513          	mv	a0,s6
    e574:	07e12423          	sw	t5,104(sp)
    e578:	a28f30ef          	jal	17a0 <__muldf3>
    e57c:	8401a603          	lw	a2,-1984(gp) # 126f8 <__global_locale+0x1b0>
    e580:	8441a683          	lw	a3,-1980(gp) # 126fc <__global_locale+0x1b4>
    e584:	00058993          	mv	s3,a1
    e588:	04a12423          	sw	a0,72(sp)
    e58c:	06a12223          	sw	a0,100(sp)
    e590:	02b12423          	sw	a1,40(sp)
    e594:	a0cf30ef          	jal	17a0 <__muldf3>
    e598:	8481a603          	lw	a2,-1976(gp) # 12700 <__global_locale+0x1b8>
    e59c:	84c1a683          	lw	a3,-1972(gp) # 12704 <__global_locale+0x1bc>
    e5a0:	94cf20ef          	jal	6ec <__adddf3>
    e5a4:	fcc007b7          	lui	a5,0xfcc00
    e5a8:	00b78a33          	add	s4,a5,a1
    e5ac:	05412783          	lw	a5,84(sp)
    e5b0:	06412e83          	lw	t4,100(sp)
    e5b4:	06812f03          	lw	t5,104(sp)
    e5b8:	04f12e23          	sw	a5,92(sp)
    e5bc:	fff00793          	li	a5,-1
    e5c0:	00050713          	mv	a4,a0
    e5c4:	06f12023          	sw	a5,96(sp)
    e5c8:	00098813          	mv	a6,s3
    e5cc:	96cff06f          	j	d738 <__gdtoa+0xa00>
    e5d0:	03012703          	lw	a4,48(sp)
    e5d4:	02012683          	lw	a3,32(sp)
    e5d8:	08f12623          	sw	a5,140(sp)
    e5dc:	00070a13          	mv	s4,a4
    e5e0:	00f686b3          	add	a3,a3,a5
    e5e4:	00f707b3          	add	a5,a4,a5
    e5e8:	02d12023          	sw	a3,32(sp)
    e5ec:	02f12823          	sw	a5,48(sp)
    e5f0:	b99fe06f          	j	d188 <__gdtoa+0x450>
    e5f4:	00200b93          	li	s7,2
    e5f8:	00000593          	li	a1,0
    e5fc:	00000993          	li	s3,0
    e600:	881ff06f          	j	de80 <__gdtoa+0x1148>
    e604:	03900793          	li	a5,57
    e608:	01812f03          	lw	t5,24(sp)
    e60c:	01c12d03          	lw	s10,28(sp)
    e610:	a4fd82e3          	beq	s11,a5,e054 <__gdtoa+0x131c>
    e614:	001d8d93          	add	s11,s11,1
    e618:	00098a93          	mv	s5,s3
    e61c:	001c0b13          	add	s6,s8,1
    e620:	01bc0023          	sb	s11,0(s8)
    e624:	000a0993          	mv	s3,s4
    e628:	02000c93          	li	s9,32
    e62c:	e58ff06f          	j	dc84 <__gdtoa+0xf4c>
    e630:	03c12783          	lw	a5,60(sp)
    e634:	00000593          	li	a1,0
    e638:	00000993          	li	s3,0
    e63c:	00278b93          	add	s7,a5,2 # fcc00002 <_end+0xfcbead9e>
    e640:	841ff06f          	j	de80 <__gdtoa+0x1148>
    e644:	00098593          	mv	a1,s3
    e648:	00000693          	li	a3,0
    e64c:	00a00613          	li	a2,10
    e650:	00040513          	mv	a0,s0
    e654:	019000ef          	jal	ee6c <__multadd>
    e658:	00050993          	mv	s3,a0
    e65c:	00051463          	bnez	a0,e664 <__gdtoa+0x192c>
    e660:	f3dfe06f          	j	d59c <__gdtoa+0x864>
    e664:	05412783          	lw	a5,84(sp)
    e668:	02012f03          	lw	t5,32(sp)
    e66c:	00f05663          	blez	a5,e678 <__gdtoa+0x1940>
    e670:	02f12a23          	sw	a5,52(sp)
    e674:	c19fe06f          	j	d28c <__gdtoa+0x554>
    e678:	01012703          	lw	a4,16(sp)
    e67c:	00200793          	li	a5,2
    e680:	14e7cc63          	blt	a5,a4,e7d8 <__gdtoa+0x1aa0>
    e684:	05412783          	lw	a5,84(sp)
    e688:	02f12a23          	sw	a5,52(sp)
    e68c:	c01fe06f          	j	d28c <__gdtoa+0x554>
    e690:	06412483          	lw	s1,100(sp)
    e694:	05c12f03          	lw	t5,92(sp)
    e698:	06812403          	lw	s0,104(sp)
    e69c:	000a0513          	mv	a0,s4
    e6a0:	00098593          	mv	a1,s3
    e6a4:	00000613          	li	a2,0
    e6a8:	00000693          	li	a3,0
    e6ac:	01e12823          	sw	t5,16(sp)
    e6b0:	eadf20ef          	jal	155c <__eqdf2>
    e6b4:	00a037b3          	snez	a5,a0
    e6b8:	00479c93          	sll	s9,a5,0x4
    e6bc:	06012783          	lw	a5,96(sp)
    e6c0:	01012f03          	lw	t5,16(sp)
    e6c4:	00178b93          	add	s7,a5,1
    e6c8:	cacff06f          	j	db74 <__gdtoa+0xe3c>
    e6cc:	06012783          	lw	a5,96(sp)
    e6d0:	00178d93          	add	s11,a5,1
    e6d4:	a60ff06f          	j	d934 <__gdtoa+0xbfc>
    e6d8:	03412783          	lw	a5,52(sp)
    e6dc:	03812703          	lw	a4,56(sp)
    e6e0:	fff78693          	add	a3,a5,-1
    e6e4:	8cd748e3          	blt	a4,a3,dfb4 <__gdtoa+0x127c>
    e6e8:	03012583          	lw	a1,48(sp)
    e6ec:	02012603          	lw	a2,32(sp)
    e6f0:	08f12623          	sw	a5,140(sp)
    e6f4:	00058a13          	mv	s4,a1
    e6f8:	00f60633          	add	a2,a2,a5
    e6fc:	00f587b3          	add	a5,a1,a5
    e700:	02c12023          	sw	a2,32(sp)
    e704:	40d70b33          	sub	s6,a4,a3
    e708:	02f12823          	sw	a5,48(sp)
    e70c:	a7dfe06f          	j	d188 <__gdtoa+0x450>
    e710:	02012423          	sw	zero,40(sp)
    e714:	9f9fe06f          	j	d10c <__gdtoa+0x3d4>
    e718:	04412703          	lw	a4,68(sp)
    e71c:	06412483          	lw	s1,100(sp)
    e720:	07412b83          	lw	s7,116(sp)
    e724:	04e12423          	sw	a4,72(sp)
    e728:	02412703          	lw	a4,36(sp)
    e72c:	07812c03          	lw	s8,120(sp)
    e730:	05c12f03          	lw	t5,92(sp)
    e734:	06812403          	lw	s0,104(sp)
    e738:	07c12783          	lw	a5,124(sp)
    e73c:	05812983          	lw	s3,88(sp)
    e740:	ae0750e3          	bgez	a4,e220 <__gdtoa+0x14e8>
    e744:	02012423          	sw	zero,40(sp)
    e748:	9cdfe06f          	j	d114 <__gdtoa+0x3dc>
    e74c:	03900793          	li	a5,57
    e750:	01812f03          	lw	t5,24(sp)
    e754:	01c12d03          	lw	s10,28(sp)
    e758:	8efd8ee3          	beq	s11,a5,e054 <__gdtoa+0x131c>
    e75c:	0f505063          	blez	s5,e83c <__gdtoa+0x1b04>
    e760:	031b0d93          	add	s11,s6,49
    e764:	02000c93          	li	s9,32
    e768:	00098a93          	mv	s5,s3
    e76c:	001c0b13          	add	s6,s8,1
    e770:	01bc0023          	sb	s11,0(s8)
    e774:	000a0993          	mv	s3,s4
    e778:	d0cff06f          	j	dc84 <__gdtoa+0xf4c>
    e77c:	04812503          	lw	a0,72(sp)
    e780:	000a0593          	mv	a1,s4
    e784:	00000613          	li	a2,0
    e788:	00000693          	li	a3,0
    e78c:	01e12823          	sw	t5,16(sp)
    e790:	dcdf20ef          	jal	155c <__eqdf2>
    e794:	06012703          	lw	a4,96(sp)
    e798:	00a037b3          	snez	a5,a0
    e79c:	00479c93          	sll	s9,a5,0x4
    e7a0:	01012f03          	lw	t5,16(sp)
    e7a4:	000b0793          	mv	a5,s6
    e7a8:	00170d93          	add	s11,a4,1
    e7ac:	bc9ff06f          	j	e374 <__gdtoa+0x163c>
    e7b0:	0144a783          	lw	a5,20(s1)
    e7b4:	cc079063          	bnez	a5,dc74 <__gdtoa+0xf3c>
    e7b8:	02812c83          	lw	s9,40(sp)
    e7bc:	cb8ff06f          	j	dc74 <__gdtoa+0xf3c>
    e7c0:	00051663          	bnez	a0,e7cc <__gdtoa+0x1a94>
    e7c4:	001df793          	and	a5,s11,1
    e7c8:	b2079ce3          	bnez	a5,e300 <__gdtoa+0x15c8>
    e7cc:	02000793          	li	a5,32
    e7d0:	02f12423          	sw	a5,40(sp)
    e7d4:	c8cff06f          	j	dc60 <__gdtoa+0xf28>
    e7d8:	05412783          	lw	a5,84(sp)
    e7dc:	02f12a23          	sw	a5,52(sp)
    e7e0:	e50ff06f          	j	de30 <__gdtoa+0x10f8>
    e7e4:	03900793          	li	a5,57
    e7e8:	000b0f13          	mv	t5,s6
    e7ec:	00fd8e63          	beq	s11,a5,e808 <__gdtoa+0x1ad0>
    e7f0:	001d8d93          	add	s11,s11,1
    e7f4:	02000c93          	li	s9,32
    e7f8:	c7cff06f          	j	dc74 <__gdtoa+0xf3c>
    e7fc:	01000c93          	li	s9,16
    e800:	001c0913          	add	s2,s8,1
    e804:	c70ff06f          	j	dc74 <__gdtoa+0xf3c>
    e808:	00098a93          	mv	s5,s3
    e80c:	000c0793          	mv	a5,s8
    e810:	000a0993          	mv	s3,s4
    e814:	851ff06f          	j	e064 <__gdtoa+0x132c>
    e818:	0104a683          	lw	a3,16(s1)
    e81c:	00100793          	li	a5,1
    e820:	00d7d463          	bge	a5,a3,e828 <__gdtoa+0x1af0>
    e824:	bf5fe06f          	j	d418 <__gdtoa+0x6e0>
    e828:	0144a783          	lw	a5,20(s1)
    e82c:	00078463          	beqz	a5,e834 <__gdtoa+0x1afc>
    e830:	be9fe06f          	j	d418 <__gdtoa+0x6e0>
    e834:	001c0913          	add	s2,s8,1
    e838:	c3cff06f          	j	dc74 <__gdtoa+0xf3c>
    e83c:	0104a683          	lw	a3,16(s1)
    e840:	00100793          	li	a5,1
    e844:	01000c93          	li	s9,16
    e848:	f2d7c0e3          	blt	a5,a3,e768 <__gdtoa+0x1a30>
    e84c:	0144a783          	lw	a5,20(s1)
    e850:	00f037b3          	snez	a5,a5
    e854:	00479c93          	sll	s9,a5,0x4
    e858:	f11ff06f          	j	e768 <__gdtoa+0x1a30>
    e85c:	020ac263          	bltz	s5,e880 <__gdtoa+0x1b48>
    e860:	015ceab3          	or	s5,s9,s5
    e864:	000a9863          	bnez	s5,e874 <__gdtoa+0x1b3c>
    e868:	00092703          	lw	a4,0(s2)
    e86c:	00177713          	and	a4,a4,1
    e870:	00070863          	beqz	a4,e880 <__gdtoa+0x1b48>
    e874:	00f04463          	bgtz	a5,e87c <__gdtoa+0x1b44>
    e878:	a7dfe06f          	j	d2f4 <__gdtoa+0x5bc>
    e87c:	a69fe06f          	j	d2e4 <__gdtoa+0x5ac>
    e880:	02812703          	lw	a4,40(sp)
    e884:	01812f03          	lw	t5,24(sp)
    e888:	01c12d03          	lw	s10,28(sp)
    e88c:	02070863          	beqz	a4,e8bc <__gdtoa+0x1b84>
    e890:	0104a603          	lw	a2,16(s1)
    e894:	00100693          	li	a3,1
    e898:	00c6d463          	bge	a3,a2,e8a0 <__gdtoa+0x1b68>
    e89c:	b7dfe06f          	j	d418 <__gdtoa+0x6e0>
    e8a0:	0144a683          	lw	a3,20(s1)
    e8a4:	00068463          	beqz	a3,e8ac <__gdtoa+0x1b74>
    e8a8:	b71fe06f          	j	d418 <__gdtoa+0x6e0>
    e8ac:	a2f044e3          	bgtz	a5,e2d4 <__gdtoa+0x159c>
    e8b0:	00000c93          	li	s9,0
    e8b4:	001c0913          	add	s2,s8,1
    e8b8:	bbcff06f          	j	dc74 <__gdtoa+0xf3c>
    e8bc:	baf05263          	blez	a5,dc60 <__gdtoa+0xf28>
    e8c0:	a15ff06f          	j	e2d4 <__gdtoa+0x159c>

0000e8c4 <__rv_alloc_D2A>:
    e8c4:	ff010113          	add	sp,sp,-16
    e8c8:	00812423          	sw	s0,8(sp)
    e8cc:	00112623          	sw	ra,12(sp)
    e8d0:	01300793          	li	a5,19
    e8d4:	00000413          	li	s0,0
    e8d8:	00b7fc63          	bgeu	a5,a1,e8f0 <__rv_alloc_D2A+0x2c>
    e8dc:	00400793          	li	a5,4
    e8e0:	00179793          	sll	a5,a5,0x1
    e8e4:	01078713          	add	a4,a5,16
    e8e8:	00140413          	add	s0,s0,1
    e8ec:	fee5fae3          	bgeu	a1,a4,e8e0 <__rv_alloc_D2A+0x1c>
    e8f0:	00040593          	mv	a1,s0
    e8f4:	4a0000ef          	jal	ed94 <_Balloc>
    e8f8:	00050663          	beqz	a0,e904 <__rv_alloc_D2A+0x40>
    e8fc:	00852023          	sw	s0,0(a0)
    e900:	00450513          	add	a0,a0,4
    e904:	00c12083          	lw	ra,12(sp)
    e908:	00812403          	lw	s0,8(sp)
    e90c:	01010113          	add	sp,sp,16
    e910:	00008067          	ret

0000e914 <__nrv_alloc_D2A>:
    e914:	ff010113          	add	sp,sp,-16
    e918:	00812423          	sw	s0,8(sp)
    e91c:	01212023          	sw	s2,0(sp)
    e920:	00112623          	sw	ra,12(sp)
    e924:	00912223          	sw	s1,4(sp)
    e928:	01300793          	li	a5,19
    e92c:	00058413          	mv	s0,a1
    e930:	00060913          	mv	s2,a2
    e934:	06d7fe63          	bgeu	a5,a3,e9b0 <__nrv_alloc_D2A+0x9c>
    e938:	00400793          	li	a5,4
    e93c:	00000493          	li	s1,0
    e940:	00179793          	sll	a5,a5,0x1
    e944:	01078713          	add	a4,a5,16
    e948:	00148493          	add	s1,s1,1
    e94c:	fee6fae3          	bgeu	a3,a4,e940 <__nrv_alloc_D2A+0x2c>
    e950:	00048593          	mv	a1,s1
    e954:	440000ef          	jal	ed94 <_Balloc>
    e958:	00050793          	mv	a5,a0
    e95c:	04050e63          	beqz	a0,e9b8 <__nrv_alloc_D2A+0xa4>
    e960:	00952023          	sw	s1,0(a0)
    e964:	00044703          	lbu	a4,0(s0)
    e968:	00450513          	add	a0,a0,4
    e96c:	00140593          	add	a1,s0,1
    e970:	00e78223          	sb	a4,4(a5)
    e974:	00050793          	mv	a5,a0
    e978:	00070c63          	beqz	a4,e990 <__nrv_alloc_D2A+0x7c>
    e97c:	0005c703          	lbu	a4,0(a1)
    e980:	00178793          	add	a5,a5,1
    e984:	00158593          	add	a1,a1,1
    e988:	00e78023          	sb	a4,0(a5)
    e98c:	fe0718e3          	bnez	a4,e97c <__nrv_alloc_D2A+0x68>
    e990:	00090463          	beqz	s2,e998 <__nrv_alloc_D2A+0x84>
    e994:	00f92023          	sw	a5,0(s2)
    e998:	00c12083          	lw	ra,12(sp)
    e99c:	00812403          	lw	s0,8(sp)
    e9a0:	00412483          	lw	s1,4(sp)
    e9a4:	00012903          	lw	s2,0(sp)
    e9a8:	01010113          	add	sp,sp,16
    e9ac:	00008067          	ret
    e9b0:	00000493          	li	s1,0
    e9b4:	f9dff06f          	j	e950 <__nrv_alloc_D2A+0x3c>
    e9b8:	00000513          	li	a0,0
    e9bc:	fddff06f          	j	e998 <__nrv_alloc_D2A+0x84>

0000e9c0 <__freedtoa>:
    e9c0:	ffc5a683          	lw	a3,-4(a1)
    e9c4:	00100713          	li	a4,1
    e9c8:	00058793          	mv	a5,a1
    e9cc:	00d71733          	sll	a4,a4,a3
    e9d0:	ffc58593          	add	a1,a1,-4
    e9d4:	00d7a023          	sw	a3,0(a5)
    e9d8:	00e7a223          	sw	a4,4(a5)
    e9dc:	46c0006f          	j	ee48 <_Bfree>

0000e9e0 <__quorem_D2A>:
    e9e0:	fe010113          	add	sp,sp,-32
    e9e4:	00912a23          	sw	s1,20(sp)
    e9e8:	01052783          	lw	a5,16(a0)
    e9ec:	0105a483          	lw	s1,16(a1)
    e9f0:	00112e23          	sw	ra,28(sp)
    e9f4:	1c97c863          	blt	a5,s1,ebc4 <__quorem_D2A+0x1e4>
    e9f8:	fff48493          	add	s1,s1,-1
    e9fc:	00249313          	sll	t1,s1,0x2
    ea00:	00812c23          	sw	s0,24(sp)
    ea04:	01458413          	add	s0,a1,20
    ea08:	01312623          	sw	s3,12(sp)
    ea0c:	01412423          	sw	s4,8(sp)
    ea10:	006409b3          	add	s3,s0,t1
    ea14:	01450a13          	add	s4,a0,20
    ea18:	0009a783          	lw	a5,0(s3)
    ea1c:	006a0333          	add	t1,s4,t1
    ea20:	00032703          	lw	a4,0(t1)
    ea24:	01212823          	sw	s2,16(sp)
    ea28:	01512223          	sw	s5,4(sp)
    ea2c:	00178793          	add	a5,a5,1
    ea30:	02f75933          	divu	s2,a4,a5
    ea34:	00050a93          	mv	s5,a0
    ea38:	0af76e63          	bltu	a4,a5,eaf4 <__quorem_D2A+0x114>
    ea3c:	00010537          	lui	a0,0x10
    ea40:	00040893          	mv	a7,s0
    ea44:	000a0813          	mv	a6,s4
    ea48:	00000f13          	li	t5,0
    ea4c:	00000e93          	li	t4,0
    ea50:	fff50513          	add	a0,a0,-1 # ffff <_realloc_r+0x57>
    ea54:	0008a783          	lw	a5,0(a7)
    ea58:	00082603          	lw	a2,0(a6)
    ea5c:	00480813          	add	a6,a6,4
    ea60:	00a7f6b3          	and	a3,a5,a0
    ea64:	0107d793          	srl	a5,a5,0x10
    ea68:	00a67733          	and	a4,a2,a0
    ea6c:	01065e13          	srl	t3,a2,0x10
    ea70:	00488893          	add	a7,a7,4
    ea74:	032686b3          	mul	a3,a3,s2
    ea78:	032787b3          	mul	a5,a5,s2
    ea7c:	01e686b3          	add	a3,a3,t5
    ea80:	00a6f633          	and	a2,a3,a0
    ea84:	40c70733          	sub	a4,a4,a2
    ea88:	41d70733          	sub	a4,a4,t4
    ea8c:	0106d693          	srl	a3,a3,0x10
    ea90:	01075613          	srl	a2,a4,0x10
    ea94:	00167613          	and	a2,a2,1
    ea98:	00a77733          	and	a4,a4,a0
    ea9c:	00d787b3          	add	a5,a5,a3
    eaa0:	00a7f6b3          	and	a3,a5,a0
    eaa4:	00d60633          	add	a2,a2,a3
    eaa8:	40ce06b3          	sub	a3,t3,a2
    eaac:	01069613          	sll	a2,a3,0x10
    eab0:	00e66733          	or	a4,a2,a4
    eab4:	0106d693          	srl	a3,a3,0x10
    eab8:	fee82e23          	sw	a4,-4(a6)
    eabc:	0107df13          	srl	t5,a5,0x10
    eac0:	0016fe93          	and	t4,a3,1
    eac4:	f919f8e3          	bgeu	s3,a7,ea54 <__quorem_D2A+0x74>
    eac8:	00032783          	lw	a5,0(t1)
    eacc:	02079463          	bnez	a5,eaf4 <__quorem_D2A+0x114>
    ead0:	ffc30313          	add	t1,t1,-4
    ead4:	006a6863          	bltu	s4,t1,eae4 <__quorem_D2A+0x104>
    ead8:	0180006f          	j	eaf0 <__quorem_D2A+0x110>
    eadc:	fff48493          	add	s1,s1,-1
    eae0:	006a7863          	bgeu	s4,t1,eaf0 <__quorem_D2A+0x110>
    eae4:	00032783          	lw	a5,0(t1)
    eae8:	ffc30313          	add	t1,t1,-4
    eaec:	fe0788e3          	beqz	a5,eadc <__quorem_D2A+0xfc>
    eaf0:	009aa823          	sw	s1,16(s5)
    eaf4:	000a8513          	mv	a0,s5
    eaf8:	515000ef          	jal	f80c <__mcmp>
    eafc:	0a054063          	bltz	a0,eb9c <__quorem_D2A+0x1bc>
    eb00:	00010537          	lui	a0,0x10
    eb04:	000a0593          	mv	a1,s4
    eb08:	00000693          	li	a3,0
    eb0c:	fff50513          	add	a0,a0,-1 # ffff <_realloc_r+0x57>
    eb10:	0005a783          	lw	a5,0(a1)
    eb14:	00042603          	lw	a2,0(s0)
    eb18:	00458593          	add	a1,a1,4
    eb1c:	00a7f733          	and	a4,a5,a0
    eb20:	00a67833          	and	a6,a2,a0
    eb24:	41070733          	sub	a4,a4,a6
    eb28:	40d70733          	sub	a4,a4,a3
    eb2c:	01075693          	srl	a3,a4,0x10
    eb30:	0016f693          	and	a3,a3,1
    eb34:	01065613          	srl	a2,a2,0x10
    eb38:	00c686b3          	add	a3,a3,a2
    eb3c:	0107d793          	srl	a5,a5,0x10
    eb40:	40d787b3          	sub	a5,a5,a3
    eb44:	01079693          	sll	a3,a5,0x10
    eb48:	00a77733          	and	a4,a4,a0
    eb4c:	00e6e733          	or	a4,a3,a4
    eb50:	0107d793          	srl	a5,a5,0x10
    eb54:	00440413          	add	s0,s0,4
    eb58:	fee5ae23          	sw	a4,-4(a1)
    eb5c:	0017f693          	and	a3,a5,1
    eb60:	fa89f8e3          	bgeu	s3,s0,eb10 <__quorem_D2A+0x130>
    eb64:	00249793          	sll	a5,s1,0x2
    eb68:	00fa07b3          	add	a5,s4,a5
    eb6c:	0007a703          	lw	a4,0(a5)
    eb70:	02071463          	bnez	a4,eb98 <__quorem_D2A+0x1b8>
    eb74:	ffc78793          	add	a5,a5,-4
    eb78:	00fa6863          	bltu	s4,a5,eb88 <__quorem_D2A+0x1a8>
    eb7c:	0180006f          	j	eb94 <__quorem_D2A+0x1b4>
    eb80:	fff48493          	add	s1,s1,-1
    eb84:	00fa7863          	bgeu	s4,a5,eb94 <__quorem_D2A+0x1b4>
    eb88:	0007a703          	lw	a4,0(a5)
    eb8c:	ffc78793          	add	a5,a5,-4
    eb90:	fe0708e3          	beqz	a4,eb80 <__quorem_D2A+0x1a0>
    eb94:	009aa823          	sw	s1,16(s5)
    eb98:	00190913          	add	s2,s2,1
    eb9c:	01812403          	lw	s0,24(sp)
    eba0:	01c12083          	lw	ra,28(sp)
    eba4:	00c12983          	lw	s3,12(sp)
    eba8:	00812a03          	lw	s4,8(sp)
    ebac:	00412a83          	lw	s5,4(sp)
    ebb0:	01412483          	lw	s1,20(sp)
    ebb4:	00090513          	mv	a0,s2
    ebb8:	01012903          	lw	s2,16(sp)
    ebbc:	02010113          	add	sp,sp,32
    ebc0:	00008067          	ret
    ebc4:	01c12083          	lw	ra,28(sp)
    ebc8:	01412483          	lw	s1,20(sp)
    ebcc:	00000513          	li	a0,0
    ebd0:	02010113          	add	sp,sp,32
    ebd4:	00008067          	ret

0000ebd8 <__rshift_D2A>:
    ebd8:	01052803          	lw	a6,16(a0)
    ebdc:	4055de13          	sra	t3,a1,0x5
    ebe0:	010e4863          	blt	t3,a6,ebf0 <__rshift_D2A+0x18>
    ebe4:	00052823          	sw	zero,16(a0)
    ebe8:	00052a23          	sw	zero,20(a0)
    ebec:	00008067          	ret
    ebf0:	01450313          	add	t1,a0,20
    ebf4:	00281613          	sll	a2,a6,0x2
    ebf8:	002e1793          	sll	a5,t3,0x2
    ebfc:	01f5f593          	and	a1,a1,31
    ec00:	00c30633          	add	a2,t1,a2
    ec04:	00f307b3          	add	a5,t1,a5
    ec08:	06058263          	beqz	a1,ec6c <__rshift_D2A+0x94>
    ec0c:	0007a683          	lw	a3,0(a5)
    ec10:	02000e93          	li	t4,32
    ec14:	00478793          	add	a5,a5,4
    ec18:	40be8eb3          	sub	t4,t4,a1
    ec1c:	00b6d6b3          	srl	a3,a3,a1
    ec20:	08c7f463          	bgeu	a5,a2,eca8 <__rshift_D2A+0xd0>
    ec24:	00030893          	mv	a7,t1
    ec28:	0007a703          	lw	a4,0(a5)
    ec2c:	00488893          	add	a7,a7,4
    ec30:	00478793          	add	a5,a5,4
    ec34:	01d71733          	sll	a4,a4,t4
    ec38:	00d76733          	or	a4,a4,a3
    ec3c:	fee8ae23          	sw	a4,-4(a7)
    ec40:	ffc7a683          	lw	a3,-4(a5)
    ec44:	00b6d6b3          	srl	a3,a3,a1
    ec48:	fec7e0e3          	bltu	a5,a2,ec28 <__rshift_D2A+0x50>
    ec4c:	41c80833          	sub	a6,a6,t3
    ec50:	00281813          	sll	a6,a6,0x2
    ec54:	ffc80813          	add	a6,a6,-4
    ec58:	01030833          	add	a6,t1,a6
    ec5c:	00d82023          	sw	a3,0(a6)
    ec60:	02068a63          	beqz	a3,ec94 <__rshift_D2A+0xbc>
    ec64:	00480813          	add	a6,a6,4
    ec68:	02c0006f          	j	ec94 <__rshift_D2A+0xbc>
    ec6c:	00030713          	mv	a4,t1
    ec70:	f6c7fae3          	bgeu	a5,a2,ebe4 <__rshift_D2A+0xc>
    ec74:	0007a683          	lw	a3,0(a5)
    ec78:	00478793          	add	a5,a5,4
    ec7c:	00470713          	add	a4,a4,4
    ec80:	fed72e23          	sw	a3,-4(a4)
    ec84:	fec7e8e3          	bltu	a5,a2,ec74 <__rshift_D2A+0x9c>
    ec88:	41c80833          	sub	a6,a6,t3
    ec8c:	00281813          	sll	a6,a6,0x2
    ec90:	01030833          	add	a6,t1,a6
    ec94:	406807b3          	sub	a5,a6,t1
    ec98:	4027d793          	sra	a5,a5,0x2
    ec9c:	00f52823          	sw	a5,16(a0)
    eca0:	f46804e3          	beq	a6,t1,ebe8 <__rshift_D2A+0x10>
    eca4:	00008067          	ret
    eca8:	00d52a23          	sw	a3,20(a0)
    ecac:	f2068ce3          	beqz	a3,ebe4 <__rshift_D2A+0xc>
    ecb0:	00030813          	mv	a6,t1
    ecb4:	00480813          	add	a6,a6,4
    ecb8:	fddff06f          	j	ec94 <__rshift_D2A+0xbc>

0000ecbc <__trailz_D2A>:
    ecbc:	01052703          	lw	a4,16(a0)
    ecc0:	fe010113          	add	sp,sp,-32
    ecc4:	01450513          	add	a0,a0,20
    ecc8:	00271713          	sll	a4,a4,0x2
    eccc:	00812c23          	sw	s0,24(sp)
    ecd0:	00112e23          	sw	ra,28(sp)
    ecd4:	00e50733          	add	a4,a0,a4
    ecd8:	00000413          	li	s0,0
    ecdc:	00e56a63          	bltu	a0,a4,ecf0 <__trailz_D2A+0x34>
    ece0:	02c0006f          	j	ed0c <__trailz_D2A+0x50>
    ece4:	00450513          	add	a0,a0,4
    ece8:	02040413          	add	s0,s0,32
    ecec:	02e57063          	bgeu	a0,a4,ed0c <__trailz_D2A+0x50>
    ecf0:	00052783          	lw	a5,0(a0)
    ecf4:	fe0788e3          	beqz	a5,ece4 <__trailz_D2A+0x28>
    ecf8:	00e57a63          	bgeu	a0,a4,ed0c <__trailz_D2A+0x50>
    ecfc:	00c10513          	add	a0,sp,12
    ed00:	00f12623          	sw	a5,12(sp)
    ed04:	464000ef          	jal	f168 <__lo0bits>
    ed08:	00a40433          	add	s0,s0,a0
    ed0c:	01c12083          	lw	ra,28(sp)
    ed10:	00040513          	mv	a0,s0
    ed14:	01812403          	lw	s0,24(sp)
    ed18:	02010113          	add	sp,sp,32
    ed1c:	00008067          	ret

0000ed20 <_mbtowc_r>:
    ed20:	000127b7          	lui	a5,0x12
    ed24:	62c7a783          	lw	a5,1580(a5) # 1262c <__global_locale+0xe4>
    ed28:	00078067          	jr	a5

0000ed2c <__ascii_mbtowc>:
    ed2c:	02058063          	beqz	a1,ed4c <__ascii_mbtowc+0x20>
    ed30:	04060263          	beqz	a2,ed74 <__ascii_mbtowc+0x48>
    ed34:	04068863          	beqz	a3,ed84 <__ascii_mbtowc+0x58>
    ed38:	00064783          	lbu	a5,0(a2)
    ed3c:	00f5a023          	sw	a5,0(a1)
    ed40:	00064503          	lbu	a0,0(a2)
    ed44:	00a03533          	snez	a0,a0
    ed48:	00008067          	ret
    ed4c:	ff010113          	add	sp,sp,-16
    ed50:	00c10593          	add	a1,sp,12
    ed54:	02060463          	beqz	a2,ed7c <__ascii_mbtowc+0x50>
    ed58:	02068a63          	beqz	a3,ed8c <__ascii_mbtowc+0x60>
    ed5c:	00064783          	lbu	a5,0(a2)
    ed60:	00f5a023          	sw	a5,0(a1)
    ed64:	00064503          	lbu	a0,0(a2)
    ed68:	00a03533          	snez	a0,a0
    ed6c:	01010113          	add	sp,sp,16
    ed70:	00008067          	ret
    ed74:	00000513          	li	a0,0
    ed78:	00008067          	ret
    ed7c:	00000513          	li	a0,0
    ed80:	fedff06f          	j	ed6c <__ascii_mbtowc+0x40>
    ed84:	ffe00513          	li	a0,-2
    ed88:	00008067          	ret
    ed8c:	ffe00513          	li	a0,-2
    ed90:	fddff06f          	j	ed6c <__ascii_mbtowc+0x40>

0000ed94 <_Balloc>:
    ed94:	04452783          	lw	a5,68(a0)
    ed98:	ff010113          	add	sp,sp,-16
    ed9c:	00812423          	sw	s0,8(sp)
    eda0:	00912223          	sw	s1,4(sp)
    eda4:	00112623          	sw	ra,12(sp)
    eda8:	00050413          	mv	s0,a0
    edac:	00058493          	mv	s1,a1
    edb0:	02078c63          	beqz	a5,ede8 <_Balloc+0x54>
    edb4:	00249713          	sll	a4,s1,0x2
    edb8:	00e787b3          	add	a5,a5,a4
    edbc:	0007a503          	lw	a0,0(a5)
    edc0:	04050463          	beqz	a0,ee08 <_Balloc+0x74>
    edc4:	00052703          	lw	a4,0(a0)
    edc8:	00e7a023          	sw	a4,0(a5)
    edcc:	00052823          	sw	zero,16(a0)
    edd0:	00052623          	sw	zero,12(a0)
    edd4:	00c12083          	lw	ra,12(sp)
    edd8:	00812403          	lw	s0,8(sp)
    eddc:	00412483          	lw	s1,4(sp)
    ede0:	01010113          	add	sp,sp,16
    ede4:	00008067          	ret
    ede8:	02100613          	li	a2,33
    edec:	00400593          	li	a1,4
    edf0:	405010ef          	jal	109f4 <_calloc_r>
    edf4:	04a42223          	sw	a0,68(s0)
    edf8:	00050793          	mv	a5,a0
    edfc:	fa051ce3          	bnez	a0,edb4 <_Balloc+0x20>
    ee00:	00000513          	li	a0,0
    ee04:	fd1ff06f          	j	edd4 <_Balloc+0x40>
    ee08:	01212023          	sw	s2,0(sp)
    ee0c:	00100913          	li	s2,1
    ee10:	00991933          	sll	s2,s2,s1
    ee14:	00590613          	add	a2,s2,5
    ee18:	00261613          	sll	a2,a2,0x2
    ee1c:	00100593          	li	a1,1
    ee20:	00040513          	mv	a0,s0
    ee24:	3d1010ef          	jal	109f4 <_calloc_r>
    ee28:	00050a63          	beqz	a0,ee3c <_Balloc+0xa8>
    ee2c:	01252423          	sw	s2,8(a0)
    ee30:	00952223          	sw	s1,4(a0)
    ee34:	00012903          	lw	s2,0(sp)
    ee38:	f95ff06f          	j	edcc <_Balloc+0x38>
    ee3c:	00012903          	lw	s2,0(sp)
    ee40:	00000513          	li	a0,0
    ee44:	f91ff06f          	j	edd4 <_Balloc+0x40>

0000ee48 <_Bfree>:
    ee48:	02058063          	beqz	a1,ee68 <_Bfree+0x20>
    ee4c:	0045a703          	lw	a4,4(a1)
    ee50:	04452783          	lw	a5,68(a0)
    ee54:	00271713          	sll	a4,a4,0x2
    ee58:	00e787b3          	add	a5,a5,a4
    ee5c:	0007a703          	lw	a4,0(a5)
    ee60:	00e5a023          	sw	a4,0(a1)
    ee64:	00b7a023          	sw	a1,0(a5)
    ee68:	00008067          	ret

0000ee6c <__multadd>:
    ee6c:	fe010113          	add	sp,sp,-32
    ee70:	00912a23          	sw	s1,20(sp)
    ee74:	0105a483          	lw	s1,16(a1)
    ee78:	00010337          	lui	t1,0x10
    ee7c:	00812c23          	sw	s0,24(sp)
    ee80:	01212823          	sw	s2,16(sp)
    ee84:	01312623          	sw	s3,12(sp)
    ee88:	00112e23          	sw	ra,28(sp)
    ee8c:	00058913          	mv	s2,a1
    ee90:	00050993          	mv	s3,a0
    ee94:	00068413          	mv	s0,a3
    ee98:	01458813          	add	a6,a1,20
    ee9c:	00000893          	li	a7,0
    eea0:	fff30313          	add	t1,t1,-1 # ffff <_realloc_r+0x57>
    eea4:	00082783          	lw	a5,0(a6)
    eea8:	00480813          	add	a6,a6,4
    eeac:	00188893          	add	a7,a7,1
    eeb0:	0067f733          	and	a4,a5,t1
    eeb4:	02c70733          	mul	a4,a4,a2
    eeb8:	0107d693          	srl	a3,a5,0x10
    eebc:	02c686b3          	mul	a3,a3,a2
    eec0:	008707b3          	add	a5,a4,s0
    eec4:	0107d713          	srl	a4,a5,0x10
    eec8:	0067f7b3          	and	a5,a5,t1
    eecc:	00e686b3          	add	a3,a3,a4
    eed0:	01069713          	sll	a4,a3,0x10
    eed4:	00f707b3          	add	a5,a4,a5
    eed8:	fef82e23          	sw	a5,-4(a6)
    eedc:	0106d413          	srl	s0,a3,0x10
    eee0:	fc98c2e3          	blt	a7,s1,eea4 <__multadd+0x38>
    eee4:	02040263          	beqz	s0,ef08 <__multadd+0x9c>
    eee8:	00892783          	lw	a5,8(s2)
    eeec:	02f4de63          	bge	s1,a5,ef28 <__multadd+0xbc>
    eef0:	00448793          	add	a5,s1,4
    eef4:	00279793          	sll	a5,a5,0x2
    eef8:	00f907b3          	add	a5,s2,a5
    eefc:	0087a223          	sw	s0,4(a5)
    ef00:	00148493          	add	s1,s1,1
    ef04:	00992823          	sw	s1,16(s2)
    ef08:	01c12083          	lw	ra,28(sp)
    ef0c:	01812403          	lw	s0,24(sp)
    ef10:	01412483          	lw	s1,20(sp)
    ef14:	00c12983          	lw	s3,12(sp)
    ef18:	00090513          	mv	a0,s2
    ef1c:	01012903          	lw	s2,16(sp)
    ef20:	02010113          	add	sp,sp,32
    ef24:	00008067          	ret
    ef28:	00492583          	lw	a1,4(s2)
    ef2c:	00098513          	mv	a0,s3
    ef30:	01412423          	sw	s4,8(sp)
    ef34:	00158593          	add	a1,a1,1
    ef38:	e5dff0ef          	jal	ed94 <_Balloc>
    ef3c:	00050a13          	mv	s4,a0
    ef40:	04050e63          	beqz	a0,ef9c <__multadd+0x130>
    ef44:	01092603          	lw	a2,16(s2)
    ef48:	00c90593          	add	a1,s2,12
    ef4c:	00c50513          	add	a0,a0,12
    ef50:	00260613          	add	a2,a2,2
    ef54:	00261613          	sll	a2,a2,0x2
    ef58:	e60fd0ef          	jal	c5b8 <memcpy>
    ef5c:	00492703          	lw	a4,4(s2)
    ef60:	0449a783          	lw	a5,68(s3)
    ef64:	00271713          	sll	a4,a4,0x2
    ef68:	00e787b3          	add	a5,a5,a4
    ef6c:	0007a703          	lw	a4,0(a5)
    ef70:	00e92023          	sw	a4,0(s2)
    ef74:	0127a023          	sw	s2,0(a5)
    ef78:	00448793          	add	a5,s1,4
    ef7c:	000a0913          	mv	s2,s4
    ef80:	00279793          	sll	a5,a5,0x2
    ef84:	00f907b3          	add	a5,s2,a5
    ef88:	00812a03          	lw	s4,8(sp)
    ef8c:	00148493          	add	s1,s1,1
    ef90:	0087a223          	sw	s0,4(a5)
    ef94:	00992823          	sw	s1,16(s2)
    ef98:	f71ff06f          	j	ef08 <__multadd+0x9c>
    ef9c:	000116b7          	lui	a3,0x11
    efa0:	00011537          	lui	a0,0x11
    efa4:	76468693          	add	a3,a3,1892 # 11764 <_getpid_r+0x648>
    efa8:	00000613          	li	a2,0
    efac:	0ba00593          	li	a1,186
    efb0:	77850513          	add	a0,a0,1912 # 11778 <_getpid_r+0x65c>
    efb4:	1d9010ef          	jal	1098c <__assert_func>

0000efb8 <__s2b>:
    efb8:	fe010113          	add	sp,sp,-32
    efbc:	00812c23          	sw	s0,24(sp)
    efc0:	00912a23          	sw	s1,20(sp)
    efc4:	01212823          	sw	s2,16(sp)
    efc8:	01312623          	sw	s3,12(sp)
    efcc:	01412423          	sw	s4,8(sp)
    efd0:	00068993          	mv	s3,a3
    efd4:	00900793          	li	a5,9
    efd8:	00868693          	add	a3,a3,8
    efdc:	00112e23          	sw	ra,28(sp)
    efe0:	02f6c6b3          	div	a3,a3,a5
    efe4:	00050913          	mv	s2,a0
    efe8:	00058413          	mv	s0,a1
    efec:	00060a13          	mv	s4,a2
    eff0:	00070493          	mv	s1,a4
    eff4:	0d37da63          	bge	a5,s3,f0c8 <__s2b+0x110>
    eff8:	00100793          	li	a5,1
    effc:	00000593          	li	a1,0
    f000:	00179793          	sll	a5,a5,0x1
    f004:	00158593          	add	a1,a1,1
    f008:	fed7cce3          	blt	a5,a3,f000 <__s2b+0x48>
    f00c:	00090513          	mv	a0,s2
    f010:	d85ff0ef          	jal	ed94 <_Balloc>
    f014:	00050593          	mv	a1,a0
    f018:	0a050c63          	beqz	a0,f0d0 <__s2b+0x118>
    f01c:	00100793          	li	a5,1
    f020:	00f52823          	sw	a5,16(a0)
    f024:	00952a23          	sw	s1,20(a0)
    f028:	00900793          	li	a5,9
    f02c:	0947d863          	bge	a5,s4,f0bc <__s2b+0x104>
    f030:	01512223          	sw	s5,4(sp)
    f034:	00940a93          	add	s5,s0,9
    f038:	000a8493          	mv	s1,s5
    f03c:	01440433          	add	s0,s0,s4
    f040:	0004c683          	lbu	a3,0(s1)
    f044:	00a00613          	li	a2,10
    f048:	00090513          	mv	a0,s2
    f04c:	fd068693          	add	a3,a3,-48
    f050:	e1dff0ef          	jal	ee6c <__multadd>
    f054:	00148493          	add	s1,s1,1
    f058:	00050593          	mv	a1,a0
    f05c:	fe8492e3          	bne	s1,s0,f040 <__s2b+0x88>
    f060:	ff8a0413          	add	s0,s4,-8
    f064:	008a8433          	add	s0,s5,s0
    f068:	00412a83          	lw	s5,4(sp)
    f06c:	033a5663          	bge	s4,s3,f098 <__s2b+0xe0>
    f070:	414989b3          	sub	s3,s3,s4
    f074:	013409b3          	add	s3,s0,s3
    f078:	00044683          	lbu	a3,0(s0)
    f07c:	00a00613          	li	a2,10
    f080:	00090513          	mv	a0,s2
    f084:	fd068693          	add	a3,a3,-48
    f088:	de5ff0ef          	jal	ee6c <__multadd>
    f08c:	00140413          	add	s0,s0,1
    f090:	00050593          	mv	a1,a0
    f094:	ff3412e3          	bne	s0,s3,f078 <__s2b+0xc0>
    f098:	01c12083          	lw	ra,28(sp)
    f09c:	01812403          	lw	s0,24(sp)
    f0a0:	01412483          	lw	s1,20(sp)
    f0a4:	01012903          	lw	s2,16(sp)
    f0a8:	00c12983          	lw	s3,12(sp)
    f0ac:	00812a03          	lw	s4,8(sp)
    f0b0:	00058513          	mv	a0,a1
    f0b4:	02010113          	add	sp,sp,32
    f0b8:	00008067          	ret
    f0bc:	00a40413          	add	s0,s0,10
    f0c0:	00900a13          	li	s4,9
    f0c4:	fa9ff06f          	j	f06c <__s2b+0xb4>
    f0c8:	00000593          	li	a1,0
    f0cc:	f41ff06f          	j	f00c <__s2b+0x54>
    f0d0:	000116b7          	lui	a3,0x11
    f0d4:	00011537          	lui	a0,0x11
    f0d8:	76468693          	add	a3,a3,1892 # 11764 <_getpid_r+0x648>
    f0dc:	00000613          	li	a2,0
    f0e0:	0d300593          	li	a1,211
    f0e4:	77850513          	add	a0,a0,1912 # 11778 <_getpid_r+0x65c>
    f0e8:	01512223          	sw	s5,4(sp)
    f0ec:	0a1010ef          	jal	1098c <__assert_func>

0000f0f0 <__hi0bits>:
    f0f0:	00050793          	mv	a5,a0
    f0f4:	00010737          	lui	a4,0x10
    f0f8:	00000513          	li	a0,0
    f0fc:	00e7f663          	bgeu	a5,a4,f108 <__hi0bits+0x18>
    f100:	01079793          	sll	a5,a5,0x10
    f104:	01000513          	li	a0,16
    f108:	01000737          	lui	a4,0x1000
    f10c:	00e7f663          	bgeu	a5,a4,f118 <__hi0bits+0x28>
    f110:	00850513          	add	a0,a0,8
    f114:	00879793          	sll	a5,a5,0x8
    f118:	10000737          	lui	a4,0x10000
    f11c:	00e7f663          	bgeu	a5,a4,f128 <__hi0bits+0x38>
    f120:	00450513          	add	a0,a0,4
    f124:	00479793          	sll	a5,a5,0x4
    f128:	40000737          	lui	a4,0x40000
    f12c:	00e7ea63          	bltu	a5,a4,f140 <__hi0bits+0x50>
    f130:	fff7c793          	not	a5,a5
    f134:	01f7d793          	srl	a5,a5,0x1f
    f138:	00f50533          	add	a0,a0,a5
    f13c:	00008067          	ret
    f140:	00279793          	sll	a5,a5,0x2
    f144:	0007ca63          	bltz	a5,f158 <__hi0bits+0x68>
    f148:	00179713          	sll	a4,a5,0x1
    f14c:	00074a63          	bltz	a4,f160 <__hi0bits+0x70>
    f150:	02000513          	li	a0,32
    f154:	00008067          	ret
    f158:	00250513          	add	a0,a0,2
    f15c:	00008067          	ret
    f160:	00350513          	add	a0,a0,3
    f164:	00008067          	ret

0000f168 <__lo0bits>:
    f168:	00052783          	lw	a5,0(a0)
    f16c:	00050713          	mv	a4,a0
    f170:	0077f693          	and	a3,a5,7
    f174:	02068463          	beqz	a3,f19c <__lo0bits+0x34>
    f178:	0017f693          	and	a3,a5,1
    f17c:	00000513          	li	a0,0
    f180:	04069e63          	bnez	a3,f1dc <__lo0bits+0x74>
    f184:	0027f693          	and	a3,a5,2
    f188:	0a068863          	beqz	a3,f238 <__lo0bits+0xd0>
    f18c:	0017d793          	srl	a5,a5,0x1
    f190:	00f72023          	sw	a5,0(a4) # 40000000 <_end+0x3ffead9c>
    f194:	00100513          	li	a0,1
    f198:	00008067          	ret
    f19c:	01079693          	sll	a3,a5,0x10
    f1a0:	0106d693          	srl	a3,a3,0x10
    f1a4:	00000513          	li	a0,0
    f1a8:	06068e63          	beqz	a3,f224 <__lo0bits+0xbc>
    f1ac:	0ff7f693          	zext.b	a3,a5
    f1b0:	06068063          	beqz	a3,f210 <__lo0bits+0xa8>
    f1b4:	00f7f693          	and	a3,a5,15
    f1b8:	04068263          	beqz	a3,f1fc <__lo0bits+0x94>
    f1bc:	0037f693          	and	a3,a5,3
    f1c0:	02068463          	beqz	a3,f1e8 <__lo0bits+0x80>
    f1c4:	0017f693          	and	a3,a5,1
    f1c8:	00069c63          	bnez	a3,f1e0 <__lo0bits+0x78>
    f1cc:	0017d793          	srl	a5,a5,0x1
    f1d0:	00150513          	add	a0,a0,1
    f1d4:	00079663          	bnez	a5,f1e0 <__lo0bits+0x78>
    f1d8:	02000513          	li	a0,32
    f1dc:	00008067          	ret
    f1e0:	00f72023          	sw	a5,0(a4)
    f1e4:	00008067          	ret
    f1e8:	0027d793          	srl	a5,a5,0x2
    f1ec:	0017f693          	and	a3,a5,1
    f1f0:	00250513          	add	a0,a0,2
    f1f4:	fe0696e3          	bnez	a3,f1e0 <__lo0bits+0x78>
    f1f8:	fd5ff06f          	j	f1cc <__lo0bits+0x64>
    f1fc:	0047d793          	srl	a5,a5,0x4
    f200:	0037f693          	and	a3,a5,3
    f204:	00450513          	add	a0,a0,4
    f208:	fa069ee3          	bnez	a3,f1c4 <__lo0bits+0x5c>
    f20c:	fddff06f          	j	f1e8 <__lo0bits+0x80>
    f210:	0087d793          	srl	a5,a5,0x8
    f214:	00f7f693          	and	a3,a5,15
    f218:	00850513          	add	a0,a0,8
    f21c:	fa0690e3          	bnez	a3,f1bc <__lo0bits+0x54>
    f220:	fddff06f          	j	f1fc <__lo0bits+0x94>
    f224:	0107d793          	srl	a5,a5,0x10
    f228:	0ff7f693          	zext.b	a3,a5
    f22c:	01000513          	li	a0,16
    f230:	f80692e3          	bnez	a3,f1b4 <__lo0bits+0x4c>
    f234:	fddff06f          	j	f210 <__lo0bits+0xa8>
    f238:	0027d793          	srl	a5,a5,0x2
    f23c:	00f72023          	sw	a5,0(a4)
    f240:	00200513          	li	a0,2
    f244:	00008067          	ret

0000f248 <__i2b>:
    f248:	04452783          	lw	a5,68(a0)
    f24c:	ff010113          	add	sp,sp,-16
    f250:	00812423          	sw	s0,8(sp)
    f254:	00912223          	sw	s1,4(sp)
    f258:	00112623          	sw	ra,12(sp)
    f25c:	00050413          	mv	s0,a0
    f260:	00058493          	mv	s1,a1
    f264:	02078c63          	beqz	a5,f29c <__i2b+0x54>
    f268:	0047a503          	lw	a0,4(a5)
    f26c:	06050263          	beqz	a0,f2d0 <__i2b+0x88>
    f270:	00052703          	lw	a4,0(a0)
    f274:	00e7a223          	sw	a4,4(a5)
    f278:	00c12083          	lw	ra,12(sp)
    f27c:	00812403          	lw	s0,8(sp)
    f280:	00100793          	li	a5,1
    f284:	00952a23          	sw	s1,20(a0)
    f288:	00052623          	sw	zero,12(a0)
    f28c:	00f52823          	sw	a5,16(a0)
    f290:	00412483          	lw	s1,4(sp)
    f294:	01010113          	add	sp,sp,16
    f298:	00008067          	ret
    f29c:	02100613          	li	a2,33
    f2a0:	00400593          	li	a1,4
    f2a4:	750010ef          	jal	109f4 <_calloc_r>
    f2a8:	04a42223          	sw	a0,68(s0)
    f2ac:	00050793          	mv	a5,a0
    f2b0:	fa051ce3          	bnez	a0,f268 <__i2b+0x20>
    f2b4:	000116b7          	lui	a3,0x11
    f2b8:	00011537          	lui	a0,0x11
    f2bc:	76468693          	add	a3,a3,1892 # 11764 <_getpid_r+0x648>
    f2c0:	00000613          	li	a2,0
    f2c4:	14500593          	li	a1,325
    f2c8:	77850513          	add	a0,a0,1912 # 11778 <_getpid_r+0x65c>
    f2cc:	6c0010ef          	jal	1098c <__assert_func>
    f2d0:	01c00613          	li	a2,28
    f2d4:	00100593          	li	a1,1
    f2d8:	00040513          	mv	a0,s0
    f2dc:	718010ef          	jal	109f4 <_calloc_r>
    f2e0:	fc050ae3          	beqz	a0,f2b4 <__i2b+0x6c>
    f2e4:	00100793          	li	a5,1
    f2e8:	00f52223          	sw	a5,4(a0)
    f2ec:	00200793          	li	a5,2
    f2f0:	00f52423          	sw	a5,8(a0)
    f2f4:	f85ff06f          	j	f278 <__i2b+0x30>

0000f2f8 <__multiply>:
    f2f8:	fe010113          	add	sp,sp,-32
    f2fc:	01212823          	sw	s2,16(sp)
    f300:	01312623          	sw	s3,12(sp)
    f304:	0105a903          	lw	s2,16(a1)
    f308:	01062983          	lw	s3,16(a2)
    f30c:	00912a23          	sw	s1,20(sp)
    f310:	01412423          	sw	s4,8(sp)
    f314:	00112e23          	sw	ra,28(sp)
    f318:	00812c23          	sw	s0,24(sp)
    f31c:	00058a13          	mv	s4,a1
    f320:	00060493          	mv	s1,a2
    f324:	01394c63          	blt	s2,s3,f33c <__multiply+0x44>
    f328:	00098713          	mv	a4,s3
    f32c:	00058493          	mv	s1,a1
    f330:	00090993          	mv	s3,s2
    f334:	00060a13          	mv	s4,a2
    f338:	00070913          	mv	s2,a4
    f33c:	0084a783          	lw	a5,8(s1)
    f340:	0044a583          	lw	a1,4(s1)
    f344:	01298433          	add	s0,s3,s2
    f348:	0087a7b3          	slt	a5,a5,s0
    f34c:	00f585b3          	add	a1,a1,a5
    f350:	a45ff0ef          	jal	ed94 <_Balloc>
    f354:	1a050e63          	beqz	a0,f510 <__multiply+0x218>
    f358:	01450313          	add	t1,a0,20
    f35c:	00241893          	sll	a7,s0,0x2
    f360:	011308b3          	add	a7,t1,a7
    f364:	00030793          	mv	a5,t1
    f368:	01137863          	bgeu	t1,a7,f378 <__multiply+0x80>
    f36c:	0007a023          	sw	zero,0(a5)
    f370:	00478793          	add	a5,a5,4
    f374:	ff17ece3          	bltu	a5,a7,f36c <__multiply+0x74>
    f378:	014a0813          	add	a6,s4,20
    f37c:	00291e13          	sll	t3,s2,0x2
    f380:	01448e93          	add	t4,s1,20
    f384:	00299593          	sll	a1,s3,0x2
    f388:	01c80e33          	add	t3,a6,t3
    f38c:	00be85b3          	add	a1,t4,a1
    f390:	13c87663          	bgeu	a6,t3,f4bc <__multiply+0x1c4>
    f394:	01548793          	add	a5,s1,21
    f398:	00400f13          	li	t5,4
    f39c:	16f5f063          	bgeu	a1,a5,f4fc <__multiply+0x204>
    f3a0:	000106b7          	lui	a3,0x10
    f3a4:	fff68693          	add	a3,a3,-1 # ffff <_realloc_r+0x57>
    f3a8:	0180006f          	j	f3c0 <__multiply+0xc8>
    f3ac:	010fdf93          	srl	t6,t6,0x10
    f3b0:	080f9863          	bnez	t6,f440 <__multiply+0x148>
    f3b4:	00480813          	add	a6,a6,4
    f3b8:	00430313          	add	t1,t1,4
    f3bc:	11c87063          	bgeu	a6,t3,f4bc <__multiply+0x1c4>
    f3c0:	00082f83          	lw	t6,0(a6)
    f3c4:	00dff3b3          	and	t2,t6,a3
    f3c8:	fe0382e3          	beqz	t2,f3ac <__multiply+0xb4>
    f3cc:	00030293          	mv	t0,t1
    f3d0:	000e8f93          	mv	t6,t4
    f3d4:	00000493          	li	s1,0
    f3d8:	000fa783          	lw	a5,0(t6)
    f3dc:	0002a603          	lw	a2,0(t0)
    f3e0:	00428293          	add	t0,t0,4
    f3e4:	00d7f733          	and	a4,a5,a3
    f3e8:	02770733          	mul	a4,a4,t2
    f3ec:	0107d793          	srl	a5,a5,0x10
    f3f0:	00d67933          	and	s2,a2,a3
    f3f4:	01065613          	srl	a2,a2,0x10
    f3f8:	004f8f93          	add	t6,t6,4
    f3fc:	027787b3          	mul	a5,a5,t2
    f400:	01270733          	add	a4,a4,s2
    f404:	00970733          	add	a4,a4,s1
    f408:	01075493          	srl	s1,a4,0x10
    f40c:	00d77733          	and	a4,a4,a3
    f410:	00c787b3          	add	a5,a5,a2
    f414:	009787b3          	add	a5,a5,s1
    f418:	01079613          	sll	a2,a5,0x10
    f41c:	00e66733          	or	a4,a2,a4
    f420:	fee2ae23          	sw	a4,-4(t0)
    f424:	0107d493          	srl	s1,a5,0x10
    f428:	fabfe8e3          	bltu	t6,a1,f3d8 <__multiply+0xe0>
    f42c:	01e307b3          	add	a5,t1,t5
    f430:	0097a023          	sw	s1,0(a5)
    f434:	00082f83          	lw	t6,0(a6)
    f438:	010fdf93          	srl	t6,t6,0x10
    f43c:	f60f8ce3          	beqz	t6,f3b4 <__multiply+0xbc>
    f440:	00032703          	lw	a4,0(t1)
    f444:	00030293          	mv	t0,t1
    f448:	000e8613          	mv	a2,t4
    f44c:	00070493          	mv	s1,a4
    f450:	00000393          	li	t2,0
    f454:	00062783          	lw	a5,0(a2)
    f458:	0104d993          	srl	s3,s1,0x10
    f45c:	00d77733          	and	a4,a4,a3
    f460:	00d7f7b3          	and	a5,a5,a3
    f464:	03f787b3          	mul	a5,a5,t6
    f468:	0042a483          	lw	s1,4(t0)
    f46c:	00428293          	add	t0,t0,4
    f470:	00460613          	add	a2,a2,4
    f474:	00d4f933          	and	s2,s1,a3
    f478:	007787b3          	add	a5,a5,t2
    f47c:	013787b3          	add	a5,a5,s3
    f480:	01079393          	sll	t2,a5,0x10
    f484:	00e3e733          	or	a4,t2,a4
    f488:	fee2ae23          	sw	a4,-4(t0)
    f48c:	ffe65703          	lhu	a4,-2(a2)
    f490:	0107d793          	srl	a5,a5,0x10
    f494:	03f70733          	mul	a4,a4,t6
    f498:	01270733          	add	a4,a4,s2
    f49c:	00f70733          	add	a4,a4,a5
    f4a0:	01075393          	srl	t2,a4,0x10
    f4a4:	fab668e3          	bltu	a2,a1,f454 <__multiply+0x15c>
    f4a8:	01e307b3          	add	a5,t1,t5
    f4ac:	00e7a023          	sw	a4,0(a5)
    f4b0:	00480813          	add	a6,a6,4
    f4b4:	00430313          	add	t1,t1,4
    f4b8:	f1c864e3          	bltu	a6,t3,f3c0 <__multiply+0xc8>
    f4bc:	00804863          	bgtz	s0,f4cc <__multiply+0x1d4>
    f4c0:	0180006f          	j	f4d8 <__multiply+0x1e0>
    f4c4:	fff40413          	add	s0,s0,-1
    f4c8:	00040863          	beqz	s0,f4d8 <__multiply+0x1e0>
    f4cc:	ffc8a783          	lw	a5,-4(a7)
    f4d0:	ffc88893          	add	a7,a7,-4
    f4d4:	fe0788e3          	beqz	a5,f4c4 <__multiply+0x1cc>
    f4d8:	01c12083          	lw	ra,28(sp)
    f4dc:	00852823          	sw	s0,16(a0)
    f4e0:	01812403          	lw	s0,24(sp)
    f4e4:	01412483          	lw	s1,20(sp)
    f4e8:	01012903          	lw	s2,16(sp)
    f4ec:	00c12983          	lw	s3,12(sp)
    f4f0:	00812a03          	lw	s4,8(sp)
    f4f4:	02010113          	add	sp,sp,32
    f4f8:	00008067          	ret
    f4fc:	409587b3          	sub	a5,a1,s1
    f500:	feb78793          	add	a5,a5,-21
    f504:	ffc7f793          	and	a5,a5,-4
    f508:	00478f13          	add	t5,a5,4
    f50c:	e95ff06f          	j	f3a0 <__multiply+0xa8>
    f510:	000116b7          	lui	a3,0x11
    f514:	00011537          	lui	a0,0x11
    f518:	76468693          	add	a3,a3,1892 # 11764 <_getpid_r+0x648>
    f51c:	00000613          	li	a2,0
    f520:	16200593          	li	a1,354
    f524:	77850513          	add	a0,a0,1912 # 11778 <_getpid_r+0x65c>
    f528:	464010ef          	jal	1098c <__assert_func>

0000f52c <__pow5mult>:
    f52c:	fe010113          	add	sp,sp,-32
    f530:	00812c23          	sw	s0,24(sp)
    f534:	01212823          	sw	s2,16(sp)
    f538:	01312623          	sw	s3,12(sp)
    f53c:	00112e23          	sw	ra,28(sp)
    f540:	00367793          	and	a5,a2,3
    f544:	00060413          	mv	s0,a2
    f548:	00050993          	mv	s3,a0
    f54c:	00058913          	mv	s2,a1
    f550:	0a079c63          	bnez	a5,f608 <__pow5mult+0xdc>
    f554:	40245413          	sra	s0,s0,0x2
    f558:	06040a63          	beqz	s0,f5cc <__pow5mult+0xa0>
    f55c:	00912a23          	sw	s1,20(sp)
    f560:	0409a483          	lw	s1,64(s3)
    f564:	0c048663          	beqz	s1,f630 <__pow5mult+0x104>
    f568:	00147793          	and	a5,s0,1
    f56c:	02079063          	bnez	a5,f58c <__pow5mult+0x60>
    f570:	40145413          	sra	s0,s0,0x1
    f574:	04040a63          	beqz	s0,f5c8 <__pow5mult+0x9c>
    f578:	0004a503          	lw	a0,0(s1)
    f57c:	06050663          	beqz	a0,f5e8 <__pow5mult+0xbc>
    f580:	00050493          	mv	s1,a0
    f584:	00147793          	and	a5,s0,1
    f588:	fe0784e3          	beqz	a5,f570 <__pow5mult+0x44>
    f58c:	00048613          	mv	a2,s1
    f590:	00090593          	mv	a1,s2
    f594:	00098513          	mv	a0,s3
    f598:	d61ff0ef          	jal	f2f8 <__multiply>
    f59c:	02090063          	beqz	s2,f5bc <__pow5mult+0x90>
    f5a0:	00492703          	lw	a4,4(s2)
    f5a4:	0449a783          	lw	a5,68(s3)
    f5a8:	00271713          	sll	a4,a4,0x2
    f5ac:	00e787b3          	add	a5,a5,a4
    f5b0:	0007a703          	lw	a4,0(a5)
    f5b4:	00e92023          	sw	a4,0(s2)
    f5b8:	0127a023          	sw	s2,0(a5)
    f5bc:	40145413          	sra	s0,s0,0x1
    f5c0:	00050913          	mv	s2,a0
    f5c4:	fa041ae3          	bnez	s0,f578 <__pow5mult+0x4c>
    f5c8:	01412483          	lw	s1,20(sp)
    f5cc:	01c12083          	lw	ra,28(sp)
    f5d0:	01812403          	lw	s0,24(sp)
    f5d4:	00c12983          	lw	s3,12(sp)
    f5d8:	00090513          	mv	a0,s2
    f5dc:	01012903          	lw	s2,16(sp)
    f5e0:	02010113          	add	sp,sp,32
    f5e4:	00008067          	ret
    f5e8:	00048613          	mv	a2,s1
    f5ec:	00048593          	mv	a1,s1
    f5f0:	00098513          	mv	a0,s3
    f5f4:	d05ff0ef          	jal	f2f8 <__multiply>
    f5f8:	00a4a023          	sw	a0,0(s1)
    f5fc:	00052023          	sw	zero,0(a0)
    f600:	00050493          	mv	s1,a0
    f604:	f81ff06f          	j	f584 <__pow5mult+0x58>
    f608:	fff78793          	add	a5,a5,-1
    f60c:	00012737          	lui	a4,0x12
    f610:	bcc70713          	add	a4,a4,-1076 # 11bcc <p05.0>
    f614:	00279793          	sll	a5,a5,0x2
    f618:	00f707b3          	add	a5,a4,a5
    f61c:	0007a603          	lw	a2,0(a5)
    f620:	00000693          	li	a3,0
    f624:	849ff0ef          	jal	ee6c <__multadd>
    f628:	00050913          	mv	s2,a0
    f62c:	f29ff06f          	j	f554 <__pow5mult+0x28>
    f630:	00100593          	li	a1,1
    f634:	00098513          	mv	a0,s3
    f638:	f5cff0ef          	jal	ed94 <_Balloc>
    f63c:	00050493          	mv	s1,a0
    f640:	02050063          	beqz	a0,f660 <__pow5mult+0x134>
    f644:	27100793          	li	a5,625
    f648:	00f52a23          	sw	a5,20(a0)
    f64c:	00100793          	li	a5,1
    f650:	00f52823          	sw	a5,16(a0)
    f654:	04a9a023          	sw	a0,64(s3)
    f658:	00052023          	sw	zero,0(a0)
    f65c:	f0dff06f          	j	f568 <__pow5mult+0x3c>
    f660:	000116b7          	lui	a3,0x11
    f664:	00011537          	lui	a0,0x11
    f668:	76468693          	add	a3,a3,1892 # 11764 <_getpid_r+0x648>
    f66c:	00000613          	li	a2,0
    f670:	14500593          	li	a1,325
    f674:	77850513          	add	a0,a0,1912 # 11778 <_getpid_r+0x65c>
    f678:	314010ef          	jal	1098c <__assert_func>

0000f67c <__lshift>:
    f67c:	fe010113          	add	sp,sp,-32
    f680:	01512223          	sw	s5,4(sp)
    f684:	0105aa83          	lw	s5,16(a1)
    f688:	0085a783          	lw	a5,8(a1)
    f68c:	01312623          	sw	s3,12(sp)
    f690:	40565993          	sra	s3,a2,0x5
    f694:	01598ab3          	add	s5,s3,s5
    f698:	00812c23          	sw	s0,24(sp)
    f69c:	00912a23          	sw	s1,20(sp)
    f6a0:	01212823          	sw	s2,16(sp)
    f6a4:	01412423          	sw	s4,8(sp)
    f6a8:	00112e23          	sw	ra,28(sp)
    f6ac:	001a8913          	add	s2,s5,1
    f6b0:	00058493          	mv	s1,a1
    f6b4:	00060413          	mv	s0,a2
    f6b8:	0045a583          	lw	a1,4(a1)
    f6bc:	00050a13          	mv	s4,a0
    f6c0:	0127d863          	bge	a5,s2,f6d0 <__lshift+0x54>
    f6c4:	00179793          	sll	a5,a5,0x1
    f6c8:	00158593          	add	a1,a1,1
    f6cc:	ff27cce3          	blt	a5,s2,f6c4 <__lshift+0x48>
    f6d0:	000a0513          	mv	a0,s4
    f6d4:	ec0ff0ef          	jal	ed94 <_Balloc>
    f6d8:	10050c63          	beqz	a0,f7f0 <__lshift+0x174>
    f6dc:	01450813          	add	a6,a0,20
    f6e0:	03305463          	blez	s3,f708 <__lshift+0x8c>
    f6e4:	00598993          	add	s3,s3,5
    f6e8:	00299993          	sll	s3,s3,0x2
    f6ec:	01350733          	add	a4,a0,s3
    f6f0:	00080793          	mv	a5,a6
    f6f4:	00478793          	add	a5,a5,4
    f6f8:	fe07ae23          	sw	zero,-4(a5)
    f6fc:	fee79ce3          	bne	a5,a4,f6f4 <__lshift+0x78>
    f700:	fec98993          	add	s3,s3,-20
    f704:	01380833          	add	a6,a6,s3
    f708:	0104a883          	lw	a7,16(s1)
    f70c:	01448793          	add	a5,s1,20
    f710:	01f47613          	and	a2,s0,31
    f714:	00289893          	sll	a7,a7,0x2
    f718:	011788b3          	add	a7,a5,a7
    f71c:	0a060463          	beqz	a2,f7c4 <__lshift+0x148>
    f720:	02000593          	li	a1,32
    f724:	40c585b3          	sub	a1,a1,a2
    f728:	00080313          	mv	t1,a6
    f72c:	00000693          	li	a3,0
    f730:	0007a703          	lw	a4,0(a5)
    f734:	00430313          	add	t1,t1,4
    f738:	00478793          	add	a5,a5,4
    f73c:	00c71733          	sll	a4,a4,a2
    f740:	00d76733          	or	a4,a4,a3
    f744:	fee32e23          	sw	a4,-4(t1)
    f748:	ffc7a683          	lw	a3,-4(a5)
    f74c:	00b6d6b3          	srl	a3,a3,a1
    f750:	ff17e0e3          	bltu	a5,a7,f730 <__lshift+0xb4>
    f754:	01548793          	add	a5,s1,21
    f758:	00400713          	li	a4,4
    f75c:	00f8ea63          	bltu	a7,a5,f770 <__lshift+0xf4>
    f760:	409887b3          	sub	a5,a7,s1
    f764:	feb78793          	add	a5,a5,-21
    f768:	ffc7f793          	and	a5,a5,-4
    f76c:	00478713          	add	a4,a5,4
    f770:	00e80833          	add	a6,a6,a4
    f774:	00d82023          	sw	a3,0(a6)
    f778:	00069463          	bnez	a3,f780 <__lshift+0x104>
    f77c:	000a8913          	mv	s2,s5
    f780:	0044a703          	lw	a4,4(s1)
    f784:	044a2783          	lw	a5,68(s4)
    f788:	01c12083          	lw	ra,28(sp)
    f78c:	00271713          	sll	a4,a4,0x2
    f790:	00e787b3          	add	a5,a5,a4
    f794:	0007a703          	lw	a4,0(a5)
    f798:	01252823          	sw	s2,16(a0)
    f79c:	01812403          	lw	s0,24(sp)
    f7a0:	00e4a023          	sw	a4,0(s1)
    f7a4:	0097a023          	sw	s1,0(a5)
    f7a8:	01012903          	lw	s2,16(sp)
    f7ac:	01412483          	lw	s1,20(sp)
    f7b0:	00c12983          	lw	s3,12(sp)
    f7b4:	00812a03          	lw	s4,8(sp)
    f7b8:	00412a83          	lw	s5,4(sp)
    f7bc:	02010113          	add	sp,sp,32
    f7c0:	00008067          	ret
    f7c4:	0007a703          	lw	a4,0(a5)
    f7c8:	00478793          	add	a5,a5,4
    f7cc:	00480813          	add	a6,a6,4
    f7d0:	fee82e23          	sw	a4,-4(a6)
    f7d4:	fb17f4e3          	bgeu	a5,a7,f77c <__lshift+0x100>
    f7d8:	0007a703          	lw	a4,0(a5)
    f7dc:	00478793          	add	a5,a5,4
    f7e0:	00480813          	add	a6,a6,4
    f7e4:	fee82e23          	sw	a4,-4(a6)
    f7e8:	fd17eee3          	bltu	a5,a7,f7c4 <__lshift+0x148>
    f7ec:	f91ff06f          	j	f77c <__lshift+0x100>
    f7f0:	000116b7          	lui	a3,0x11
    f7f4:	00011537          	lui	a0,0x11
    f7f8:	76468693          	add	a3,a3,1892 # 11764 <_getpid_r+0x648>
    f7fc:	00000613          	li	a2,0
    f800:	1de00593          	li	a1,478
    f804:	77850513          	add	a0,a0,1912 # 11778 <_getpid_r+0x65c>
    f808:	184010ef          	jal	1098c <__assert_func>

0000f80c <__mcmp>:
    f80c:	01052703          	lw	a4,16(a0)
    f810:	0105a783          	lw	a5,16(a1)
    f814:	00050813          	mv	a6,a0
    f818:	40f70533          	sub	a0,a4,a5
    f81c:	04f71263          	bne	a4,a5,f860 <__mcmp+0x54>
    f820:	00279793          	sll	a5,a5,0x2
    f824:	01480813          	add	a6,a6,20
    f828:	01458593          	add	a1,a1,20
    f82c:	00f80733          	add	a4,a6,a5
    f830:	00f587b3          	add	a5,a1,a5
    f834:	0080006f          	j	f83c <__mcmp+0x30>
    f838:	02e87463          	bgeu	a6,a4,f860 <__mcmp+0x54>
    f83c:	ffc72603          	lw	a2,-4(a4)
    f840:	ffc7a683          	lw	a3,-4(a5)
    f844:	ffc70713          	add	a4,a4,-4
    f848:	ffc78793          	add	a5,a5,-4
    f84c:	fed606e3          	beq	a2,a3,f838 <__mcmp+0x2c>
    f850:	00100513          	li	a0,1
    f854:	00d67663          	bgeu	a2,a3,f860 <__mcmp+0x54>
    f858:	fff00513          	li	a0,-1
    f85c:	00008067          	ret
    f860:	00008067          	ret

0000f864 <__mdiff>:
    f864:	0105a703          	lw	a4,16(a1)
    f868:	01062783          	lw	a5,16(a2)
    f86c:	ff010113          	add	sp,sp,-16
    f870:	00812423          	sw	s0,8(sp)
    f874:	00912223          	sw	s1,4(sp)
    f878:	00112623          	sw	ra,12(sp)
    f87c:	01212023          	sw	s2,0(sp)
    f880:	00058413          	mv	s0,a1
    f884:	00060493          	mv	s1,a2
    f888:	40f706b3          	sub	a3,a4,a5
    f88c:	18f71e63          	bne	a4,a5,fa28 <__mdiff+0x1c4>
    f890:	00279693          	sll	a3,a5,0x2
    f894:	01458613          	add	a2,a1,20
    f898:	01448713          	add	a4,s1,20
    f89c:	00d607b3          	add	a5,a2,a3
    f8a0:	00d70733          	add	a4,a4,a3
    f8a4:	0080006f          	j	f8ac <__mdiff+0x48>
    f8a8:	18f67c63          	bgeu	a2,a5,fa40 <__mdiff+0x1dc>
    f8ac:	ffc7a583          	lw	a1,-4(a5)
    f8b0:	ffc72683          	lw	a3,-4(a4)
    f8b4:	ffc78793          	add	a5,a5,-4
    f8b8:	ffc70713          	add	a4,a4,-4
    f8bc:	fed586e3          	beq	a1,a3,f8a8 <__mdiff+0x44>
    f8c0:	00100913          	li	s2,1
    f8c4:	00d5ea63          	bltu	a1,a3,f8d8 <__mdiff+0x74>
    f8c8:	00048793          	mv	a5,s1
    f8cc:	00000913          	li	s2,0
    f8d0:	00040493          	mv	s1,s0
    f8d4:	00078413          	mv	s0,a5
    f8d8:	0044a583          	lw	a1,4(s1)
    f8dc:	cb8ff0ef          	jal	ed94 <_Balloc>
    f8e0:	1a050663          	beqz	a0,fa8c <__mdiff+0x228>
    f8e4:	0104a883          	lw	a7,16(s1)
    f8e8:	01042283          	lw	t0,16(s0)
    f8ec:	01448f93          	add	t6,s1,20
    f8f0:	00289313          	sll	t1,a7,0x2
    f8f4:	01440813          	add	a6,s0,20
    f8f8:	00229293          	sll	t0,t0,0x2
    f8fc:	01450593          	add	a1,a0,20
    f900:	00010e37          	lui	t3,0x10
    f904:	01252623          	sw	s2,12(a0)
    f908:	006f8333          	add	t1,t6,t1
    f90c:	005802b3          	add	t0,a6,t0
    f910:	00058f13          	mv	t5,a1
    f914:	000f8e93          	mv	t4,t6
    f918:	00000693          	li	a3,0
    f91c:	fffe0e13          	add	t3,t3,-1 # ffff <_realloc_r+0x57>
    f920:	000ea703          	lw	a4,0(t4)
    f924:	00082603          	lw	a2,0(a6)
    f928:	004f0f13          	add	t5,t5,4
    f92c:	01c777b3          	and	a5,a4,t3
    f930:	01c673b3          	and	t2,a2,t3
    f934:	407787b3          	sub	a5,a5,t2
    f938:	00d787b3          	add	a5,a5,a3
    f93c:	01075713          	srl	a4,a4,0x10
    f940:	01065613          	srl	a2,a2,0x10
    f944:	4107d693          	sra	a3,a5,0x10
    f948:	40c70733          	sub	a4,a4,a2
    f94c:	00d70733          	add	a4,a4,a3
    f950:	01071693          	sll	a3,a4,0x10
    f954:	01c7f7b3          	and	a5,a5,t3
    f958:	00d7e7b3          	or	a5,a5,a3
    f95c:	00480813          	add	a6,a6,4
    f960:	feff2e23          	sw	a5,-4(t5)
    f964:	004e8e93          	add	t4,t4,4
    f968:	41075693          	sra	a3,a4,0x10
    f96c:	fa586ae3          	bltu	a6,t0,f920 <__mdiff+0xbc>
    f970:	01540713          	add	a4,s0,21
    f974:	40828433          	sub	s0,t0,s0
    f978:	feb40413          	add	s0,s0,-21
    f97c:	00e2b2b3          	sltu	t0,t0,a4
    f980:	0012cf13          	xor	t5,t0,1
    f984:	00245413          	srl	s0,s0,0x2
    f988:	00400713          	li	a4,4
    f98c:	0a028463          	beqz	t0,fa34 <__mdiff+0x1d0>
    f990:	00ef8fb3          	add	t6,t6,a4
    f994:	00e58833          	add	a6,a1,a4
    f998:	00010eb7          	lui	t4,0x10
    f99c:	00080e13          	mv	t3,a6
    f9a0:	000f8613          	mv	a2,t6
    f9a4:	fffe8e93          	add	t4,t4,-1 # ffff <_realloc_r+0x57>
    f9a8:	0c6ff463          	bgeu	t6,t1,fa70 <__mdiff+0x20c>
    f9ac:	00062783          	lw	a5,0(a2)
    f9b0:	004e0e13          	add	t3,t3,4
    f9b4:	00460613          	add	a2,a2,4
    f9b8:	01d7f733          	and	a4,a5,t4
    f9bc:	00d70733          	add	a4,a4,a3
    f9c0:	0107d593          	srl	a1,a5,0x10
    f9c4:	41075713          	sra	a4,a4,0x10
    f9c8:	00b70733          	add	a4,a4,a1
    f9cc:	00d787b3          	add	a5,a5,a3
    f9d0:	01d7f7b3          	and	a5,a5,t4
    f9d4:	01071693          	sll	a3,a4,0x10
    f9d8:	00d7e7b3          	or	a5,a5,a3
    f9dc:	fefe2e23          	sw	a5,-4(t3)
    f9e0:	41075693          	sra	a3,a4,0x10
    f9e4:	fc6664e3          	bltu	a2,t1,f9ac <__mdiff+0x148>
    f9e8:	fff30313          	add	t1,t1,-1
    f9ec:	41f30333          	sub	t1,t1,t6
    f9f0:	ffc37313          	and	t1,t1,-4
    f9f4:	00680733          	add	a4,a6,t1
    f9f8:	00079a63          	bnez	a5,fa0c <__mdiff+0x1a8>
    f9fc:	ffc72783          	lw	a5,-4(a4)
    fa00:	fff88893          	add	a7,a7,-1
    fa04:	ffc70713          	add	a4,a4,-4
    fa08:	fe078ae3          	beqz	a5,f9fc <__mdiff+0x198>
    fa0c:	00c12083          	lw	ra,12(sp)
    fa10:	00812403          	lw	s0,8(sp)
    fa14:	01152823          	sw	a7,16(a0)
    fa18:	00412483          	lw	s1,4(sp)
    fa1c:	00012903          	lw	s2,0(sp)
    fa20:	01010113          	add	sp,sp,16
    fa24:	00008067          	ret
    fa28:	00100913          	li	s2,1
    fa2c:	e806dee3          	bgez	a3,f8c8 <__mdiff+0x64>
    fa30:	ea9ff06f          	j	f8d8 <__mdiff+0x74>
    fa34:	00140713          	add	a4,s0,1
    fa38:	00271713          	sll	a4,a4,0x2
    fa3c:	f55ff06f          	j	f990 <__mdiff+0x12c>
    fa40:	00000593          	li	a1,0
    fa44:	b50ff0ef          	jal	ed94 <_Balloc>
    fa48:	06050063          	beqz	a0,faa8 <__mdiff+0x244>
    fa4c:	00c12083          	lw	ra,12(sp)
    fa50:	00812403          	lw	s0,8(sp)
    fa54:	00100793          	li	a5,1
    fa58:	00f52823          	sw	a5,16(a0)
    fa5c:	00052a23          	sw	zero,20(a0)
    fa60:	00412483          	lw	s1,4(sp)
    fa64:	00012903          	lw	s2,0(sp)
    fa68:	01010113          	add	sp,sp,16
    fa6c:	00008067          	ret
    fa70:	00000713          	li	a4,0
    fa74:	000f1663          	bnez	t5,fa80 <__mdiff+0x21c>
    fa78:	00e58733          	add	a4,a1,a4
    fa7c:	f7dff06f          	j	f9f8 <__mdiff+0x194>
    fa80:	00241713          	sll	a4,s0,0x2
    fa84:	00e58733          	add	a4,a1,a4
    fa88:	f71ff06f          	j	f9f8 <__mdiff+0x194>
    fa8c:	000116b7          	lui	a3,0x11
    fa90:	00011537          	lui	a0,0x11
    fa94:	76468693          	add	a3,a3,1892 # 11764 <_getpid_r+0x648>
    fa98:	00000613          	li	a2,0
    fa9c:	24500593          	li	a1,581
    faa0:	77850513          	add	a0,a0,1912 # 11778 <_getpid_r+0x65c>
    faa4:	6e9000ef          	jal	1098c <__assert_func>
    faa8:	000116b7          	lui	a3,0x11
    faac:	00011537          	lui	a0,0x11
    fab0:	76468693          	add	a3,a3,1892 # 11764 <_getpid_r+0x648>
    fab4:	00000613          	li	a2,0
    fab8:	23700593          	li	a1,567
    fabc:	77850513          	add	a0,a0,1912 # 11778 <_getpid_r+0x65c>
    fac0:	6cd000ef          	jal	1098c <__assert_func>

0000fac4 <__ulp>:
    fac4:	7ff007b7          	lui	a5,0x7ff00
    fac8:	00b7f5b3          	and	a1,a5,a1
    facc:	fcc007b7          	lui	a5,0xfcc00
    fad0:	00f585b3          	add	a1,a1,a5
    fad4:	00000793          	li	a5,0
    fad8:	00b05663          	blez	a1,fae4 <__ulp+0x20>
    fadc:	00078513          	mv	a0,a5
    fae0:	00008067          	ret
    fae4:	40b005b3          	neg	a1,a1
    fae8:	4145d593          	sra	a1,a1,0x14
    faec:	01300793          	li	a5,19
    faf0:	00b7cc63          	blt	a5,a1,fb08 <__ulp+0x44>
    faf4:	000807b7          	lui	a5,0x80
    faf8:	40b7d5b3          	sra	a1,a5,a1
    fafc:	00000793          	li	a5,0
    fb00:	00078513          	mv	a0,a5
    fb04:	00008067          	ret
    fb08:	fec58593          	add	a1,a1,-20
    fb0c:	01e00713          	li	a4,30
    fb10:	00100793          	li	a5,1
    fb14:	00b74663          	blt	a4,a1,fb20 <__ulp+0x5c>
    fb18:	800007b7          	lui	a5,0x80000
    fb1c:	00b7d7b3          	srl	a5,a5,a1
    fb20:	00000593          	li	a1,0
    fb24:	00078513          	mv	a0,a5
    fb28:	00008067          	ret

0000fb2c <__b2d>:
    fb2c:	fe010113          	add	sp,sp,-32
    fb30:	00912a23          	sw	s1,20(sp)
    fb34:	01052483          	lw	s1,16(a0)
    fb38:	00812c23          	sw	s0,24(sp)
    fb3c:	01450413          	add	s0,a0,20
    fb40:	00249493          	sll	s1,s1,0x2
    fb44:	009404b3          	add	s1,s0,s1
    fb48:	01212823          	sw	s2,16(sp)
    fb4c:	ffc4a903          	lw	s2,-4(s1)
    fb50:	01312623          	sw	s3,12(sp)
    fb54:	01412423          	sw	s4,8(sp)
    fb58:	00090513          	mv	a0,s2
    fb5c:	00058993          	mv	s3,a1
    fb60:	00112e23          	sw	ra,28(sp)
    fb64:	d8cff0ef          	jal	f0f0 <__hi0bits>
    fb68:	02000713          	li	a4,32
    fb6c:	40a707b3          	sub	a5,a4,a0
    fb70:	00f9a023          	sw	a5,0(s3)
    fb74:	00a00793          	li	a5,10
    fb78:	ffc48a13          	add	s4,s1,-4
    fb7c:	08a7dc63          	bge	a5,a0,fc14 <__b2d+0xe8>
    fb80:	ff550613          	add	a2,a0,-11
    fb84:	05447063          	bgeu	s0,s4,fbc4 <__b2d+0x98>
    fb88:	ff84a783          	lw	a5,-8(s1)
    fb8c:	04060c63          	beqz	a2,fbe4 <__b2d+0xb8>
    fb90:	40c706b3          	sub	a3,a4,a2
    fb94:	00d7d733          	srl	a4,a5,a3
    fb98:	00c91933          	sll	s2,s2,a2
    fb9c:	00e96933          	or	s2,s2,a4
    fba0:	ff848593          	add	a1,s1,-8
    fba4:	3ff00737          	lui	a4,0x3ff00
    fba8:	00e96733          	or	a4,s2,a4
    fbac:	00c797b3          	sll	a5,a5,a2
    fbb0:	02b47e63          	bgeu	s0,a1,fbec <__b2d+0xc0>
    fbb4:	ff44a603          	lw	a2,-12(s1)
    fbb8:	00d656b3          	srl	a3,a2,a3
    fbbc:	00d7e7b3          	or	a5,a5,a3
    fbc0:	02c0006f          	j	fbec <__b2d+0xc0>
    fbc4:	00b00793          	li	a5,11
    fbc8:	00f50c63          	beq	a0,a5,fbe0 <__b2d+0xb4>
    fbcc:	00c91933          	sll	s2,s2,a2
    fbd0:	3ff00737          	lui	a4,0x3ff00
    fbd4:	00e96733          	or	a4,s2,a4
    fbd8:	00000793          	li	a5,0
    fbdc:	0100006f          	j	fbec <__b2d+0xc0>
    fbe0:	00000793          	li	a5,0
    fbe4:	3ff00737          	lui	a4,0x3ff00
    fbe8:	00e96733          	or	a4,s2,a4
    fbec:	01c12083          	lw	ra,28(sp)
    fbf0:	01812403          	lw	s0,24(sp)
    fbf4:	01412483          	lw	s1,20(sp)
    fbf8:	01012903          	lw	s2,16(sp)
    fbfc:	00c12983          	lw	s3,12(sp)
    fc00:	00812a03          	lw	s4,8(sp)
    fc04:	00078513          	mv	a0,a5
    fc08:	00070593          	mv	a1,a4
    fc0c:	02010113          	add	sp,sp,32
    fc10:	00008067          	ret
    fc14:	00b00693          	li	a3,11
    fc18:	40a686b3          	sub	a3,a3,a0
    fc1c:	3ff007b7          	lui	a5,0x3ff00
    fc20:	00d95733          	srl	a4,s2,a3
    fc24:	00f76733          	or	a4,a4,a5
    fc28:	00000793          	li	a5,0
    fc2c:	01447663          	bgeu	s0,s4,fc38 <__b2d+0x10c>
    fc30:	ff84a783          	lw	a5,-8(s1)
    fc34:	00d7d7b3          	srl	a5,a5,a3
    fc38:	01550513          	add	a0,a0,21
    fc3c:	00a91933          	sll	s2,s2,a0
    fc40:	00f967b3          	or	a5,s2,a5
    fc44:	fa9ff06f          	j	fbec <__b2d+0xc0>

0000fc48 <__d2b>:
    fc48:	fd010113          	add	sp,sp,-48
    fc4c:	01512a23          	sw	s5,20(sp)
    fc50:	00058a93          	mv	s5,a1
    fc54:	00100593          	li	a1,1
    fc58:	02912223          	sw	s1,36(sp)
    fc5c:	01312e23          	sw	s3,28(sp)
    fc60:	01412c23          	sw	s4,24(sp)
    fc64:	02112623          	sw	ra,44(sp)
    fc68:	02812423          	sw	s0,40(sp)
    fc6c:	03212023          	sw	s2,32(sp)
    fc70:	00060493          	mv	s1,a2
    fc74:	00068a13          	mv	s4,a3
    fc78:	00070993          	mv	s3,a4
    fc7c:	918ff0ef          	jal	ed94 <_Balloc>
    fc80:	10050263          	beqz	a0,fd84 <__d2b+0x13c>
    fc84:	00100737          	lui	a4,0x100
    fc88:	0144d913          	srl	s2,s1,0x14
    fc8c:	fff70793          	add	a5,a4,-1 # fffff <_end+0xead9b>
    fc90:	7ff97913          	and	s2,s2,2047
    fc94:	00050413          	mv	s0,a0
    fc98:	0097f7b3          	and	a5,a5,s1
    fc9c:	00090463          	beqz	s2,fca4 <__d2b+0x5c>
    fca0:	00e7e7b3          	or	a5,a5,a4
    fca4:	00f12623          	sw	a5,12(sp)
    fca8:	060a9263          	bnez	s5,fd0c <__d2b+0xc4>
    fcac:	00c10513          	add	a0,sp,12
    fcb0:	cb8ff0ef          	jal	f168 <__lo0bits>
    fcb4:	00c12703          	lw	a4,12(sp)
    fcb8:	00100493          	li	s1,1
    fcbc:	00942823          	sw	s1,16(s0)
    fcc0:	00e42a23          	sw	a4,20(s0)
    fcc4:	02050793          	add	a5,a0,32
    fcc8:	08090863          	beqz	s2,fd58 <__d2b+0x110>
    fccc:	bcd90913          	add	s2,s2,-1075
    fcd0:	00f90933          	add	s2,s2,a5
    fcd4:	03500493          	li	s1,53
    fcd8:	012a2023          	sw	s2,0(s4)
    fcdc:	40f48533          	sub	a0,s1,a5
    fce0:	00a9a023          	sw	a0,0(s3)
    fce4:	02c12083          	lw	ra,44(sp)
    fce8:	00040513          	mv	a0,s0
    fcec:	02812403          	lw	s0,40(sp)
    fcf0:	02412483          	lw	s1,36(sp)
    fcf4:	02012903          	lw	s2,32(sp)
    fcf8:	01c12983          	lw	s3,28(sp)
    fcfc:	01812a03          	lw	s4,24(sp)
    fd00:	01412a83          	lw	s5,20(sp)
    fd04:	03010113          	add	sp,sp,48
    fd08:	00008067          	ret
    fd0c:	00810513          	add	a0,sp,8
    fd10:	01512423          	sw	s5,8(sp)
    fd14:	c54ff0ef          	jal	f168 <__lo0bits>
    fd18:	00c12703          	lw	a4,12(sp)
    fd1c:	00050793          	mv	a5,a0
    fd20:	04050e63          	beqz	a0,fd7c <__d2b+0x134>
    fd24:	00812603          	lw	a2,8(sp)
    fd28:	02000693          	li	a3,32
    fd2c:	40a686b3          	sub	a3,a3,a0
    fd30:	00d716b3          	sll	a3,a4,a3
    fd34:	00a75733          	srl	a4,a4,a0
    fd38:	00c6e6b3          	or	a3,a3,a2
    fd3c:	00e12623          	sw	a4,12(sp)
    fd40:	00e034b3          	snez	s1,a4
    fd44:	00148493          	add	s1,s1,1
    fd48:	00d42a23          	sw	a3,20(s0)
    fd4c:	00e42c23          	sw	a4,24(s0)
    fd50:	00942823          	sw	s1,16(s0)
    fd54:	f6091ce3          	bnez	s2,fccc <__d2b+0x84>
    fd58:	00249713          	sll	a4,s1,0x2
    fd5c:	00e40733          	add	a4,s0,a4
    fd60:	01072503          	lw	a0,16(a4)
    fd64:	bce78793          	add	a5,a5,-1074 # 3feffbce <_end+0x3feea96a>
    fd68:	00fa2023          	sw	a5,0(s4)
    fd6c:	b84ff0ef          	jal	f0f0 <__hi0bits>
    fd70:	00549493          	sll	s1,s1,0x5
    fd74:	40a48533          	sub	a0,s1,a0
    fd78:	f69ff06f          	j	fce0 <__d2b+0x98>
    fd7c:	00812683          	lw	a3,8(sp)
    fd80:	fc1ff06f          	j	fd40 <__d2b+0xf8>
    fd84:	000116b7          	lui	a3,0x11
    fd88:	00011537          	lui	a0,0x11
    fd8c:	76468693          	add	a3,a3,1892 # 11764 <_getpid_r+0x648>
    fd90:	00000613          	li	a2,0
    fd94:	30f00593          	li	a1,783
    fd98:	77850513          	add	a0,a0,1912 # 11778 <_getpid_r+0x65c>
    fd9c:	3f1000ef          	jal	1098c <__assert_func>

0000fda0 <__ratio>:
    fda0:	fd010113          	add	sp,sp,-48
    fda4:	03212023          	sw	s2,32(sp)
    fda8:	00058913          	mv	s2,a1
    fdac:	00810593          	add	a1,sp,8
    fdb0:	02112623          	sw	ra,44(sp)
    fdb4:	02812423          	sw	s0,40(sp)
    fdb8:	02912223          	sw	s1,36(sp)
    fdbc:	01312e23          	sw	s3,28(sp)
    fdc0:	00050993          	mv	s3,a0
    fdc4:	d69ff0ef          	jal	fb2c <__b2d>
    fdc8:	00050493          	mv	s1,a0
    fdcc:	00058413          	mv	s0,a1
    fdd0:	00090513          	mv	a0,s2
    fdd4:	00c10593          	add	a1,sp,12
    fdd8:	d55ff0ef          	jal	fb2c <__b2d>
    fddc:	01092703          	lw	a4,16(s2)
    fde0:	0109a783          	lw	a5,16(s3)
    fde4:	00c12683          	lw	a3,12(sp)
    fde8:	40e787b3          	sub	a5,a5,a4
    fdec:	00812703          	lw	a4,8(sp)
    fdf0:	00579793          	sll	a5,a5,0x5
    fdf4:	40d70733          	sub	a4,a4,a3
    fdf8:	00e787b3          	add	a5,a5,a4
    fdfc:	00050713          	mv	a4,a0
    fe00:	02f05e63          	blez	a5,fe3c <__ratio+0x9c>
    fe04:	01479793          	sll	a5,a5,0x14
    fe08:	00878433          	add	s0,a5,s0
    fe0c:	00058693          	mv	a3,a1
    fe10:	00048513          	mv	a0,s1
    fe14:	00040593          	mv	a1,s0
    fe18:	00070613          	mv	a2,a4
    fe1c:	864f10ef          	jal	e80 <__divdf3>
    fe20:	02c12083          	lw	ra,44(sp)
    fe24:	02812403          	lw	s0,40(sp)
    fe28:	02412483          	lw	s1,36(sp)
    fe2c:	02012903          	lw	s2,32(sp)
    fe30:	01c12983          	lw	s3,28(sp)
    fe34:	03010113          	add	sp,sp,48
    fe38:	00008067          	ret
    fe3c:	01479793          	sll	a5,a5,0x14
    fe40:	40f585b3          	sub	a1,a1,a5
    fe44:	fc9ff06f          	j	fe0c <__ratio+0x6c>

0000fe48 <_mprec_log10>:
    fe48:	ff010113          	add	sp,sp,-16
    fe4c:	01212023          	sw	s2,0(sp)
    fe50:	00112623          	sw	ra,12(sp)
    fe54:	01700793          	li	a5,23
    fe58:	00050913          	mv	s2,a0
    fe5c:	04a7da63          	bge	a5,a0,feb0 <_mprec_log10+0x68>
    fe60:	8301a783          	lw	a5,-2000(gp) # 126e8 <__global_locale+0x1a0>
    fe64:	8341a583          	lw	a1,-1996(gp) # 126ec <__global_locale+0x1a4>
    fe68:	00812423          	sw	s0,8(sp)
    fe6c:	00912223          	sw	s1,4(sp)
    fe70:	8381a403          	lw	s0,-1992(gp) # 126f0 <__global_locale+0x1a8>
    fe74:	83c1a483          	lw	s1,-1988(gp) # 126f4 <__global_locale+0x1ac>
    fe78:	00078513          	mv	a0,a5
    fe7c:	00040613          	mv	a2,s0
    fe80:	00048693          	mv	a3,s1
    fe84:	91df10ef          	jal	17a0 <__muldf3>
    fe88:	fff90913          	add	s2,s2,-1
    fe8c:	00050793          	mv	a5,a0
    fe90:	fe0914e3          	bnez	s2,fe78 <_mprec_log10+0x30>
    fe94:	00812403          	lw	s0,8(sp)
    fe98:	00c12083          	lw	ra,12(sp)
    fe9c:	00412483          	lw	s1,4(sp)
    fea0:	00012903          	lw	s2,0(sp)
    fea4:	00078513          	mv	a0,a5
    fea8:	01010113          	add	sp,sp,16
    feac:	00008067          	ret
    feb0:	00012737          	lui	a4,0x12
    feb4:	00351913          	sll	s2,a0,0x3
    feb8:	c2870713          	add	a4,a4,-984 # 11c28 <__mprec_tens>
    febc:	01270733          	add	a4,a4,s2
    fec0:	00072783          	lw	a5,0(a4)
    fec4:	00c12083          	lw	ra,12(sp)
    fec8:	00472583          	lw	a1,4(a4)
    fecc:	00012903          	lw	s2,0(sp)
    fed0:	00078513          	mv	a0,a5
    fed4:	01010113          	add	sp,sp,16
    fed8:	00008067          	ret

0000fedc <__copybits>:
    fedc:	01062683          	lw	a3,16(a2)
    fee0:	fff58593          	add	a1,a1,-1
    fee4:	4055d593          	sra	a1,a1,0x5
    fee8:	00158593          	add	a1,a1,1
    feec:	01460793          	add	a5,a2,20
    fef0:	00269693          	sll	a3,a3,0x2
    fef4:	00259593          	sll	a1,a1,0x2
    fef8:	00d786b3          	add	a3,a5,a3
    fefc:	00b505b3          	add	a1,a0,a1
    ff00:	02d7f863          	bgeu	a5,a3,ff30 <__copybits+0x54>
    ff04:	00050713          	mv	a4,a0
    ff08:	0007a803          	lw	a6,0(a5)
    ff0c:	00478793          	add	a5,a5,4
    ff10:	00470713          	add	a4,a4,4
    ff14:	ff072e23          	sw	a6,-4(a4)
    ff18:	fed7e8e3          	bltu	a5,a3,ff08 <__copybits+0x2c>
    ff1c:	40c687b3          	sub	a5,a3,a2
    ff20:	feb78793          	add	a5,a5,-21
    ff24:	ffc7f793          	and	a5,a5,-4
    ff28:	00478793          	add	a5,a5,4
    ff2c:	00f50533          	add	a0,a0,a5
    ff30:	00b57863          	bgeu	a0,a1,ff40 <__copybits+0x64>
    ff34:	00450513          	add	a0,a0,4
    ff38:	fe052e23          	sw	zero,-4(a0)
    ff3c:	feb56ce3          	bltu	a0,a1,ff34 <__copybits+0x58>
    ff40:	00008067          	ret

0000ff44 <__any_on>:
    ff44:	01052703          	lw	a4,16(a0)
    ff48:	4055d613          	sra	a2,a1,0x5
    ff4c:	01450693          	add	a3,a0,20
    ff50:	02c75263          	bge	a4,a2,ff74 <__any_on+0x30>
    ff54:	00271713          	sll	a4,a4,0x2
    ff58:	00e687b3          	add	a5,a3,a4
    ff5c:	04f6f263          	bgeu	a3,a5,ffa0 <__any_on+0x5c>
    ff60:	ffc7a703          	lw	a4,-4(a5)
    ff64:	ffc78793          	add	a5,a5,-4
    ff68:	fe070ae3          	beqz	a4,ff5c <__any_on+0x18>
    ff6c:	00100513          	li	a0,1
    ff70:	00008067          	ret
    ff74:	00261793          	sll	a5,a2,0x2
    ff78:	00f687b3          	add	a5,a3,a5
    ff7c:	fee650e3          	bge	a2,a4,ff5c <__any_on+0x18>
    ff80:	01f5f593          	and	a1,a1,31
    ff84:	fc058ce3          	beqz	a1,ff5c <__any_on+0x18>
    ff88:	0007a603          	lw	a2,0(a5)
    ff8c:	00100513          	li	a0,1
    ff90:	00b65733          	srl	a4,a2,a1
    ff94:	00b71733          	sll	a4,a4,a1
    ff98:	fce602e3          	beq	a2,a4,ff5c <__any_on+0x18>
    ff9c:	00008067          	ret
    ffa0:	00000513          	li	a0,0
    ffa4:	00008067          	ret

0000ffa8 <_realloc_r>:
    ffa8:	fd010113          	add	sp,sp,-48
    ffac:	02912223          	sw	s1,36(sp)
    ffb0:	02112623          	sw	ra,44(sp)
    ffb4:	00060493          	mv	s1,a2
    ffb8:	1e058863          	beqz	a1,101a8 <_realloc_r+0x200>
    ffbc:	02812423          	sw	s0,40(sp)
    ffc0:	03212023          	sw	s2,32(sp)
    ffc4:	00058413          	mv	s0,a1
    ffc8:	01312e23          	sw	s3,28(sp)
    ffcc:	01512a23          	sw	s5,20(sp)
    ffd0:	01412c23          	sw	s4,24(sp)
    ffd4:	00050913          	mv	s2,a0
    ffd8:	b6cf60ef          	jal	6344 <__malloc_lock>
    ffdc:	ffc42703          	lw	a4,-4(s0)
    ffe0:	00b48793          	add	a5,s1,11
    ffe4:	01600693          	li	a3,22
    ffe8:	ff840a93          	add	s5,s0,-8
    ffec:	ffc77993          	and	s3,a4,-4
    fff0:	10f6f263          	bgeu	a3,a5,100f4 <_realloc_r+0x14c>
    fff4:	ff87fa13          	and	s4,a5,-8
    fff8:	1007c263          	bltz	a5,100fc <_realloc_r+0x154>
    fffc:	109a6063          	bltu	s4,s1,100fc <_realloc_r+0x154>
   10000:	1349d263          	bge	s3,s4,10124 <_realloc_r+0x17c>
   10004:	000127b7          	lui	a5,0x12
   10008:	01812423          	sw	s8,8(sp)
   1000c:	01078c13          	add	s8,a5,16 # 12010 <__malloc_av_>
   10010:	008c2603          	lw	a2,8(s8)
   10014:	013a86b3          	add	a3,s5,s3
   10018:	0046a783          	lw	a5,4(a3)
   1001c:	1cd60863          	beq	a2,a3,101ec <_realloc_r+0x244>
   10020:	ffe7f613          	and	a2,a5,-2
   10024:	00c68633          	add	a2,a3,a2
   10028:	00462603          	lw	a2,4(a2)
   1002c:	00167613          	and	a2,a2,1
   10030:	14061a63          	bnez	a2,10184 <_realloc_r+0x1dc>
   10034:	ffc7f793          	and	a5,a5,-4
   10038:	00f98633          	add	a2,s3,a5
   1003c:	0d465863          	bge	a2,s4,1010c <_realloc_r+0x164>
   10040:	00177713          	and	a4,a4,1
   10044:	02071c63          	bnez	a4,1007c <_realloc_r+0xd4>
   10048:	01712623          	sw	s7,12(sp)
   1004c:	ff842b83          	lw	s7,-8(s0)
   10050:	01612823          	sw	s6,16(sp)
   10054:	417a8bb3          	sub	s7,s5,s7
   10058:	004ba703          	lw	a4,4(s7)
   1005c:	ffc77713          	and	a4,a4,-4
   10060:	00e787b3          	add	a5,a5,a4
   10064:	01378b33          	add	s6,a5,s3
   10068:	334b5c63          	bge	s6,s4,103a0 <_realloc_r+0x3f8>
   1006c:	00e98b33          	add	s6,s3,a4
   10070:	294b5863          	bge	s6,s4,10300 <_realloc_r+0x358>
   10074:	01012b03          	lw	s6,16(sp)
   10078:	00c12b83          	lw	s7,12(sp)
   1007c:	00048593          	mv	a1,s1
   10080:	00090513          	mv	a0,s2
   10084:	afdf50ef          	jal	5b80 <_malloc_r>
   10088:	00050493          	mv	s1,a0
   1008c:	40050863          	beqz	a0,1049c <_realloc_r+0x4f4>
   10090:	ffc42783          	lw	a5,-4(s0)
   10094:	ff850713          	add	a4,a0,-8
   10098:	ffe7f793          	and	a5,a5,-2
   1009c:	00fa87b3          	add	a5,s5,a5
   100a0:	24e78663          	beq	a5,a4,102ec <_realloc_r+0x344>
   100a4:	ffc98613          	add	a2,s3,-4
   100a8:	02400793          	li	a5,36
   100ac:	2ec7e463          	bltu	a5,a2,10394 <_realloc_r+0x3ec>
   100b0:	01300713          	li	a4,19
   100b4:	20c76a63          	bltu	a4,a2,102c8 <_realloc_r+0x320>
   100b8:	00050793          	mv	a5,a0
   100bc:	00040713          	mv	a4,s0
   100c0:	00072683          	lw	a3,0(a4)
   100c4:	00d7a023          	sw	a3,0(a5)
   100c8:	00472683          	lw	a3,4(a4)
   100cc:	00d7a223          	sw	a3,4(a5)
   100d0:	00872703          	lw	a4,8(a4)
   100d4:	00e7a423          	sw	a4,8(a5)
   100d8:	00040593          	mv	a1,s0
   100dc:	00090513          	mv	a0,s2
   100e0:	808f70ef          	jal	70e8 <_free_r>
   100e4:	00090513          	mv	a0,s2
   100e8:	a60f60ef          	jal	6348 <__malloc_unlock>
   100ec:	00812c03          	lw	s8,8(sp)
   100f0:	06c0006f          	j	1015c <_realloc_r+0x1b4>
   100f4:	01000a13          	li	s4,16
   100f8:	f09a74e3          	bgeu	s4,s1,10000 <_realloc_r+0x58>
   100fc:	00c00793          	li	a5,12
   10100:	00f92023          	sw	a5,0(s2)
   10104:	00000493          	li	s1,0
   10108:	0540006f          	j	1015c <_realloc_r+0x1b4>
   1010c:	00c6a783          	lw	a5,12(a3)
   10110:	0086a703          	lw	a4,8(a3)
   10114:	00812c03          	lw	s8,8(sp)
   10118:	00060993          	mv	s3,a2
   1011c:	00f72623          	sw	a5,12(a4)
   10120:	00e7a423          	sw	a4,8(a5)
   10124:	004aa783          	lw	a5,4(s5)
   10128:	414986b3          	sub	a3,s3,s4
   1012c:	00f00613          	li	a2,15
   10130:	0017f793          	and	a5,a5,1
   10134:	013a8733          	add	a4,s5,s3
   10138:	08d66263          	bltu	a2,a3,101bc <_realloc_r+0x214>
   1013c:	0137e7b3          	or	a5,a5,s3
   10140:	00faa223          	sw	a5,4(s5)
   10144:	00472783          	lw	a5,4(a4)
   10148:	0017e793          	or	a5,a5,1
   1014c:	00f72223          	sw	a5,4(a4)
   10150:	00090513          	mv	a0,s2
   10154:	9f4f60ef          	jal	6348 <__malloc_unlock>
   10158:	00040493          	mv	s1,s0
   1015c:	02812403          	lw	s0,40(sp)
   10160:	02c12083          	lw	ra,44(sp)
   10164:	02012903          	lw	s2,32(sp)
   10168:	01c12983          	lw	s3,28(sp)
   1016c:	01812a03          	lw	s4,24(sp)
   10170:	01412a83          	lw	s5,20(sp)
   10174:	00048513          	mv	a0,s1
   10178:	02412483          	lw	s1,36(sp)
   1017c:	03010113          	add	sp,sp,48
   10180:	00008067          	ret
   10184:	00177713          	and	a4,a4,1
   10188:	ee071ae3          	bnez	a4,1007c <_realloc_r+0xd4>
   1018c:	01712623          	sw	s7,12(sp)
   10190:	ff842b83          	lw	s7,-8(s0)
   10194:	01612823          	sw	s6,16(sp)
   10198:	417a8bb3          	sub	s7,s5,s7
   1019c:	004ba703          	lw	a4,4(s7)
   101a0:	ffc77713          	and	a4,a4,-4
   101a4:	ec9ff06f          	j	1006c <_realloc_r+0xc4>
   101a8:	02c12083          	lw	ra,44(sp)
   101ac:	02412483          	lw	s1,36(sp)
   101b0:	00060593          	mv	a1,a2
   101b4:	03010113          	add	sp,sp,48
   101b8:	9c9f506f          	j	5b80 <_malloc_r>
   101bc:	0147e7b3          	or	a5,a5,s4
   101c0:	00faa223          	sw	a5,4(s5)
   101c4:	014a85b3          	add	a1,s5,s4
   101c8:	0016e693          	or	a3,a3,1
   101cc:	00d5a223          	sw	a3,4(a1)
   101d0:	00472783          	lw	a5,4(a4)
   101d4:	00858593          	add	a1,a1,8
   101d8:	00090513          	mv	a0,s2
   101dc:	0017e793          	or	a5,a5,1
   101e0:	00f72223          	sw	a5,4(a4)
   101e4:	f05f60ef          	jal	70e8 <_free_r>
   101e8:	f69ff06f          	j	10150 <_realloc_r+0x1a8>
   101ec:	ffc7f793          	and	a5,a5,-4
   101f0:	013786b3          	add	a3,a5,s3
   101f4:	010a0613          	add	a2,s4,16
   101f8:	26c6d063          	bge	a3,a2,10458 <_realloc_r+0x4b0>
   101fc:	00177713          	and	a4,a4,1
   10200:	e6071ee3          	bnez	a4,1007c <_realloc_r+0xd4>
   10204:	01712623          	sw	s7,12(sp)
   10208:	ff842b83          	lw	s7,-8(s0)
   1020c:	01612823          	sw	s6,16(sp)
   10210:	417a8bb3          	sub	s7,s5,s7
   10214:	004ba703          	lw	a4,4(s7)
   10218:	ffc77713          	and	a4,a4,-4
   1021c:	00e787b3          	add	a5,a5,a4
   10220:	01378b33          	add	s6,a5,s3
   10224:	e4cb44e3          	blt	s6,a2,1006c <_realloc_r+0xc4>
   10228:	00cba783          	lw	a5,12(s7)
   1022c:	008ba703          	lw	a4,8(s7)
   10230:	ffc98613          	add	a2,s3,-4
   10234:	02400693          	li	a3,36
   10238:	00f72623          	sw	a5,12(a4)
   1023c:	00e7a423          	sw	a4,8(a5)
   10240:	008b8493          	add	s1,s7,8
   10244:	28c6e463          	bltu	a3,a2,104cc <_realloc_r+0x524>
   10248:	01300713          	li	a4,19
   1024c:	00048793          	mv	a5,s1
   10250:	02c77263          	bgeu	a4,a2,10274 <_realloc_r+0x2cc>
   10254:	00042703          	lw	a4,0(s0)
   10258:	01b00793          	li	a5,27
   1025c:	00eba423          	sw	a4,8(s7)
   10260:	00442703          	lw	a4,4(s0)
   10264:	00eba623          	sw	a4,12(s7)
   10268:	26c7ea63          	bltu	a5,a2,104dc <_realloc_r+0x534>
   1026c:	00840413          	add	s0,s0,8
   10270:	010b8793          	add	a5,s7,16
   10274:	00042703          	lw	a4,0(s0)
   10278:	00e7a023          	sw	a4,0(a5)
   1027c:	00442703          	lw	a4,4(s0)
   10280:	00e7a223          	sw	a4,4(a5)
   10284:	00842703          	lw	a4,8(s0)
   10288:	00e7a423          	sw	a4,8(a5)
   1028c:	014b8733          	add	a4,s7,s4
   10290:	414b0b33          	sub	s6,s6,s4
   10294:	00ec2423          	sw	a4,8(s8)
   10298:	001b6793          	or	a5,s6,1
   1029c:	00f72223          	sw	a5,4(a4)
   102a0:	004ba783          	lw	a5,4(s7)
   102a4:	00090513          	mv	a0,s2
   102a8:	0017f793          	and	a5,a5,1
   102ac:	0147e7b3          	or	a5,a5,s4
   102b0:	00fba223          	sw	a5,4(s7)
   102b4:	894f60ef          	jal	6348 <__malloc_unlock>
   102b8:	01012b03          	lw	s6,16(sp)
   102bc:	00c12b83          	lw	s7,12(sp)
   102c0:	00812c03          	lw	s8,8(sp)
   102c4:	e99ff06f          	j	1015c <_realloc_r+0x1b4>
   102c8:	00042683          	lw	a3,0(s0)
   102cc:	01b00713          	li	a4,27
   102d0:	00d52023          	sw	a3,0(a0)
   102d4:	00442683          	lw	a3,4(s0)
   102d8:	00d52223          	sw	a3,4(a0)
   102dc:	14c76e63          	bltu	a4,a2,10438 <_realloc_r+0x490>
   102e0:	00840713          	add	a4,s0,8
   102e4:	00850793          	add	a5,a0,8
   102e8:	dd9ff06f          	j	100c0 <_realloc_r+0x118>
   102ec:	ffc52783          	lw	a5,-4(a0)
   102f0:	00812c03          	lw	s8,8(sp)
   102f4:	ffc7f793          	and	a5,a5,-4
   102f8:	00f989b3          	add	s3,s3,a5
   102fc:	e29ff06f          	j	10124 <_realloc_r+0x17c>
   10300:	00cba783          	lw	a5,12(s7)
   10304:	008ba703          	lw	a4,8(s7)
   10308:	ffc98613          	add	a2,s3,-4
   1030c:	02400693          	li	a3,36
   10310:	00f72623          	sw	a5,12(a4)
   10314:	00e7a423          	sw	a4,8(a5)
   10318:	008b8493          	add	s1,s7,8
   1031c:	10c6e663          	bltu	a3,a2,10428 <_realloc_r+0x480>
   10320:	01300713          	li	a4,19
   10324:	00048793          	mv	a5,s1
   10328:	02c77c63          	bgeu	a4,a2,10360 <_realloc_r+0x3b8>
   1032c:	00042703          	lw	a4,0(s0)
   10330:	01b00793          	li	a5,27
   10334:	00eba423          	sw	a4,8(s7)
   10338:	00442703          	lw	a4,4(s0)
   1033c:	00eba623          	sw	a4,12(s7)
   10340:	14c7f863          	bgeu	a5,a2,10490 <_realloc_r+0x4e8>
   10344:	00842783          	lw	a5,8(s0)
   10348:	00fba823          	sw	a5,16(s7)
   1034c:	00c42783          	lw	a5,12(s0)
   10350:	00fbaa23          	sw	a5,20(s7)
   10354:	0ad60c63          	beq	a2,a3,1040c <_realloc_r+0x464>
   10358:	01040413          	add	s0,s0,16
   1035c:	018b8793          	add	a5,s7,24
   10360:	00042703          	lw	a4,0(s0)
   10364:	00e7a023          	sw	a4,0(a5)
   10368:	00442703          	lw	a4,4(s0)
   1036c:	00e7a223          	sw	a4,4(a5)
   10370:	00842703          	lw	a4,8(s0)
   10374:	00e7a423          	sw	a4,8(a5)
   10378:	000b0993          	mv	s3,s6
   1037c:	000b8a93          	mv	s5,s7
   10380:	01012b03          	lw	s6,16(sp)
   10384:	00c12b83          	lw	s7,12(sp)
   10388:	00812c03          	lw	s8,8(sp)
   1038c:	00048413          	mv	s0,s1
   10390:	d95ff06f          	j	10124 <_realloc_r+0x17c>
   10394:	00040593          	mv	a1,s0
   10398:	914fc0ef          	jal	c4ac <memmove>
   1039c:	d3dff06f          	j	100d8 <_realloc_r+0x130>
   103a0:	00c6a783          	lw	a5,12(a3)
   103a4:	0086a703          	lw	a4,8(a3)
   103a8:	ffc98613          	add	a2,s3,-4
   103ac:	02400693          	li	a3,36
   103b0:	00f72623          	sw	a5,12(a4)
   103b4:	00e7a423          	sw	a4,8(a5)
   103b8:	008ba703          	lw	a4,8(s7)
   103bc:	00cba783          	lw	a5,12(s7)
   103c0:	008b8493          	add	s1,s7,8
   103c4:	00f72623          	sw	a5,12(a4)
   103c8:	00e7a423          	sw	a4,8(a5)
   103cc:	04c6ee63          	bltu	a3,a2,10428 <_realloc_r+0x480>
   103d0:	01300713          	li	a4,19
   103d4:	00048793          	mv	a5,s1
   103d8:	f8c774e3          	bgeu	a4,a2,10360 <_realloc_r+0x3b8>
   103dc:	00042703          	lw	a4,0(s0)
   103e0:	01b00793          	li	a5,27
   103e4:	00eba423          	sw	a4,8(s7)
   103e8:	00442703          	lw	a4,4(s0)
   103ec:	00eba623          	sw	a4,12(s7)
   103f0:	0ac7f063          	bgeu	a5,a2,10490 <_realloc_r+0x4e8>
   103f4:	00842703          	lw	a4,8(s0)
   103f8:	02400793          	li	a5,36
   103fc:	00eba823          	sw	a4,16(s7)
   10400:	00c42703          	lw	a4,12(s0)
   10404:	00ebaa23          	sw	a4,20(s7)
   10408:	f4f618e3          	bne	a2,a5,10358 <_realloc_r+0x3b0>
   1040c:	01042703          	lw	a4,16(s0)
   10410:	020b8793          	add	a5,s7,32
   10414:	01840413          	add	s0,s0,24
   10418:	00ebac23          	sw	a4,24(s7)
   1041c:	ffc42703          	lw	a4,-4(s0)
   10420:	00ebae23          	sw	a4,28(s7)
   10424:	f3dff06f          	j	10360 <_realloc_r+0x3b8>
   10428:	00040593          	mv	a1,s0
   1042c:	00048513          	mv	a0,s1
   10430:	87cfc0ef          	jal	c4ac <memmove>
   10434:	f45ff06f          	j	10378 <_realloc_r+0x3d0>
   10438:	00842703          	lw	a4,8(s0)
   1043c:	00e52423          	sw	a4,8(a0)
   10440:	00c42703          	lw	a4,12(s0)
   10444:	00e52623          	sw	a4,12(a0)
   10448:	06f60463          	beq	a2,a5,104b0 <_realloc_r+0x508>
   1044c:	01040713          	add	a4,s0,16
   10450:	01050793          	add	a5,a0,16
   10454:	c6dff06f          	j	100c0 <_realloc_r+0x118>
   10458:	014a8ab3          	add	s5,s5,s4
   1045c:	414686b3          	sub	a3,a3,s4
   10460:	015c2423          	sw	s5,8(s8)
   10464:	0016e793          	or	a5,a3,1
   10468:	00faa223          	sw	a5,4(s5)
   1046c:	ffc42783          	lw	a5,-4(s0)
   10470:	00090513          	mv	a0,s2
   10474:	00040493          	mv	s1,s0
   10478:	0017f793          	and	a5,a5,1
   1047c:	0147e7b3          	or	a5,a5,s4
   10480:	fef42e23          	sw	a5,-4(s0)
   10484:	ec5f50ef          	jal	6348 <__malloc_unlock>
   10488:	00812c03          	lw	s8,8(sp)
   1048c:	cd1ff06f          	j	1015c <_realloc_r+0x1b4>
   10490:	00840413          	add	s0,s0,8
   10494:	010b8793          	add	a5,s7,16
   10498:	ec9ff06f          	j	10360 <_realloc_r+0x3b8>
   1049c:	00090513          	mv	a0,s2
   104a0:	ea9f50ef          	jal	6348 <__malloc_unlock>
   104a4:	00000493          	li	s1,0
   104a8:	00812c03          	lw	s8,8(sp)
   104ac:	cb1ff06f          	j	1015c <_realloc_r+0x1b4>
   104b0:	01042683          	lw	a3,16(s0)
   104b4:	01840713          	add	a4,s0,24
   104b8:	01850793          	add	a5,a0,24
   104bc:	00d52823          	sw	a3,16(a0)
   104c0:	01442683          	lw	a3,20(s0)
   104c4:	00d52a23          	sw	a3,20(a0)
   104c8:	bf9ff06f          	j	100c0 <_realloc_r+0x118>
   104cc:	00040593          	mv	a1,s0
   104d0:	00048513          	mv	a0,s1
   104d4:	fd9fb0ef          	jal	c4ac <memmove>
   104d8:	db5ff06f          	j	1028c <_realloc_r+0x2e4>
   104dc:	00842783          	lw	a5,8(s0)
   104e0:	00fba823          	sw	a5,16(s7)
   104e4:	00c42783          	lw	a5,12(s0)
   104e8:	00fbaa23          	sw	a5,20(s7)
   104ec:	00d60863          	beq	a2,a3,104fc <_realloc_r+0x554>
   104f0:	01040413          	add	s0,s0,16
   104f4:	018b8793          	add	a5,s7,24
   104f8:	d7dff06f          	j	10274 <_realloc_r+0x2cc>
   104fc:	01042703          	lw	a4,16(s0)
   10500:	020b8793          	add	a5,s7,32
   10504:	01840413          	add	s0,s0,24
   10508:	00ebac23          	sw	a4,24(s7)
   1050c:	ffc42703          	lw	a4,-4(s0)
   10510:	00ebae23          	sw	a4,28(s7)
   10514:	d61ff06f          	j	10274 <_realloc_r+0x2cc>

00010518 <_wctomb_r>:
   10518:	000127b7          	lui	a5,0x12
   1051c:	6287a783          	lw	a5,1576(a5) # 12628 <__global_locale+0xe0>
   10520:	00078067          	jr	a5

00010524 <__ascii_wctomb>:
   10524:	02058463          	beqz	a1,1054c <__ascii_wctomb+0x28>
   10528:	0ff00793          	li	a5,255
   1052c:	00c7e863          	bltu	a5,a2,1053c <__ascii_wctomb+0x18>
   10530:	00c58023          	sb	a2,0(a1)
   10534:	00100513          	li	a0,1
   10538:	00008067          	ret
   1053c:	08a00793          	li	a5,138
   10540:	00f52023          	sw	a5,0(a0)
   10544:	fff00513          	li	a0,-1
   10548:	00008067          	ret
   1054c:	00000513          	li	a0,0
   10550:	00008067          	ret

00010554 <_wcrtomb_r>:
   10554:	fe010113          	add	sp,sp,-32
   10558:	00812c23          	sw	s0,24(sp)
   1055c:	00912a23          	sw	s1,20(sp)
   10560:	000127b7          	lui	a5,0x12
   10564:	00112e23          	sw	ra,28(sp)
   10568:	6287a783          	lw	a5,1576(a5) # 12628 <__global_locale+0xe0>
   1056c:	00050413          	mv	s0,a0
   10570:	00068493          	mv	s1,a3
   10574:	02058263          	beqz	a1,10598 <_wcrtomb_r+0x44>
   10578:	000780e7          	jalr	a5
   1057c:	fff00793          	li	a5,-1
   10580:	02f50663          	beq	a0,a5,105ac <_wcrtomb_r+0x58>
   10584:	01c12083          	lw	ra,28(sp)
   10588:	01812403          	lw	s0,24(sp)
   1058c:	01412483          	lw	s1,20(sp)
   10590:	02010113          	add	sp,sp,32
   10594:	00008067          	ret
   10598:	00000613          	li	a2,0
   1059c:	00410593          	add	a1,sp,4
   105a0:	000780e7          	jalr	a5
   105a4:	fff00793          	li	a5,-1
   105a8:	fcf51ee3          	bne	a0,a5,10584 <_wcrtomb_r+0x30>
   105ac:	0004a023          	sw	zero,0(s1)
   105b0:	08a00793          	li	a5,138
   105b4:	01c12083          	lw	ra,28(sp)
   105b8:	00f42023          	sw	a5,0(s0)
   105bc:	01812403          	lw	s0,24(sp)
   105c0:	01412483          	lw	s1,20(sp)
   105c4:	02010113          	add	sp,sp,32
   105c8:	00008067          	ret

000105cc <wcrtomb>:
   105cc:	fe010113          	add	sp,sp,-32
   105d0:	00812c23          	sw	s0,24(sp)
   105d4:	00912a23          	sw	s1,20(sp)
   105d8:	00112e23          	sw	ra,28(sp)
   105dc:	86c1a483          	lw	s1,-1940(gp) # 12724 <_impure_ptr>
   105e0:	000127b7          	lui	a5,0x12
   105e4:	6287a783          	lw	a5,1576(a5) # 12628 <__global_locale+0xe0>
   105e8:	00060413          	mv	s0,a2
   105ec:	02050a63          	beqz	a0,10620 <wcrtomb+0x54>
   105f0:	00058613          	mv	a2,a1
   105f4:	00040693          	mv	a3,s0
   105f8:	00050593          	mv	a1,a0
   105fc:	00048513          	mv	a0,s1
   10600:	000780e7          	jalr	a5
   10604:	fff00793          	li	a5,-1
   10608:	02f50a63          	beq	a0,a5,1063c <wcrtomb+0x70>
   1060c:	01c12083          	lw	ra,28(sp)
   10610:	01812403          	lw	s0,24(sp)
   10614:	01412483          	lw	s1,20(sp)
   10618:	02010113          	add	sp,sp,32
   1061c:	00008067          	ret
   10620:	00060693          	mv	a3,a2
   10624:	00410593          	add	a1,sp,4
   10628:	00000613          	li	a2,0
   1062c:	00048513          	mv	a0,s1
   10630:	000780e7          	jalr	a5
   10634:	fff00793          	li	a5,-1
   10638:	fcf51ae3          	bne	a0,a5,1060c <wcrtomb+0x40>
   1063c:	00042023          	sw	zero,0(s0)
   10640:	01c12083          	lw	ra,28(sp)
   10644:	01812403          	lw	s0,24(sp)
   10648:	08a00793          	li	a5,138
   1064c:	00f4a023          	sw	a5,0(s1)
   10650:	01412483          	lw	s1,20(sp)
   10654:	02010113          	add	sp,sp,32
   10658:	00008067          	ret

0001065c <__smakebuf_r>:
   1065c:	00c59783          	lh	a5,12(a1)
   10660:	f8010113          	add	sp,sp,-128
   10664:	06812c23          	sw	s0,120(sp)
   10668:	06112e23          	sw	ra,124(sp)
   1066c:	0027f713          	and	a4,a5,2
   10670:	00058413          	mv	s0,a1
   10674:	02070463          	beqz	a4,1069c <__smakebuf_r+0x40>
   10678:	04358793          	add	a5,a1,67
   1067c:	00f5a023          	sw	a5,0(a1)
   10680:	00f5a823          	sw	a5,16(a1)
   10684:	00100793          	li	a5,1
   10688:	00f5aa23          	sw	a5,20(a1)
   1068c:	07c12083          	lw	ra,124(sp)
   10690:	07812403          	lw	s0,120(sp)
   10694:	08010113          	add	sp,sp,128
   10698:	00008067          	ret
   1069c:	00e59583          	lh	a1,14(a1)
   106a0:	06912a23          	sw	s1,116(sp)
   106a4:	07212823          	sw	s2,112(sp)
   106a8:	07312623          	sw	s3,108(sp)
   106ac:	07412423          	sw	s4,104(sp)
   106b0:	00050493          	mv	s1,a0
   106b4:	0805c663          	bltz	a1,10740 <__smakebuf_r+0xe4>
   106b8:	00810613          	add	a2,sp,8
   106bc:	210000ef          	jal	108cc <_fstat_r>
   106c0:	06054e63          	bltz	a0,1073c <__smakebuf_r+0xe0>
   106c4:	00c12783          	lw	a5,12(sp)
   106c8:	0000f937          	lui	s2,0xf
   106cc:	000019b7          	lui	s3,0x1
   106d0:	00f97933          	and	s2,s2,a5
   106d4:	ffffe7b7          	lui	a5,0xffffe
   106d8:	00f90933          	add	s2,s2,a5
   106dc:	00193913          	seqz	s2,s2
   106e0:	40000a13          	li	s4,1024
   106e4:	80098993          	add	s3,s3,-2048 # 800 <__adddf3+0x114>
   106e8:	000a0593          	mv	a1,s4
   106ec:	00048513          	mv	a0,s1
   106f0:	c90f50ef          	jal	5b80 <_malloc_r>
   106f4:	00c41783          	lh	a5,12(s0)
   106f8:	06050863          	beqz	a0,10768 <__smakebuf_r+0x10c>
   106fc:	0807e793          	or	a5,a5,128
   10700:	00a42023          	sw	a0,0(s0)
   10704:	00a42823          	sw	a0,16(s0)
   10708:	00f41623          	sh	a5,12(s0)
   1070c:	01442a23          	sw	s4,20(s0)
   10710:	0a091063          	bnez	s2,107b0 <__smakebuf_r+0x154>
   10714:	0137e7b3          	or	a5,a5,s3
   10718:	07c12083          	lw	ra,124(sp)
   1071c:	00f41623          	sh	a5,12(s0)
   10720:	07812403          	lw	s0,120(sp)
   10724:	07412483          	lw	s1,116(sp)
   10728:	07012903          	lw	s2,112(sp)
   1072c:	06c12983          	lw	s3,108(sp)
   10730:	06812a03          	lw	s4,104(sp)
   10734:	08010113          	add	sp,sp,128
   10738:	00008067          	ret
   1073c:	00c41783          	lh	a5,12(s0)
   10740:	0807f793          	and	a5,a5,128
   10744:	00000913          	li	s2,0
   10748:	04078e63          	beqz	a5,107a4 <__smakebuf_r+0x148>
   1074c:	04000a13          	li	s4,64
   10750:	000a0593          	mv	a1,s4
   10754:	00048513          	mv	a0,s1
   10758:	c28f50ef          	jal	5b80 <_malloc_r>
   1075c:	00c41783          	lh	a5,12(s0)
   10760:	00000993          	li	s3,0
   10764:	f8051ce3          	bnez	a0,106fc <__smakebuf_r+0xa0>
   10768:	2007f713          	and	a4,a5,512
   1076c:	04071e63          	bnez	a4,107c8 <__smakebuf_r+0x16c>
   10770:	ffc7f793          	and	a5,a5,-4
   10774:	0027e793          	or	a5,a5,2
   10778:	04340713          	add	a4,s0,67
   1077c:	00f41623          	sh	a5,12(s0)
   10780:	00100793          	li	a5,1
   10784:	07412483          	lw	s1,116(sp)
   10788:	07012903          	lw	s2,112(sp)
   1078c:	06c12983          	lw	s3,108(sp)
   10790:	06812a03          	lw	s4,104(sp)
   10794:	00e42023          	sw	a4,0(s0)
   10798:	00e42823          	sw	a4,16(s0)
   1079c:	00f42a23          	sw	a5,20(s0)
   107a0:	eedff06f          	j	1068c <__smakebuf_r+0x30>
   107a4:	40000a13          	li	s4,1024
   107a8:	00000993          	li	s3,0
   107ac:	f3dff06f          	j	106e8 <__smakebuf_r+0x8c>
   107b0:	00e41583          	lh	a1,14(s0)
   107b4:	00048513          	mv	a0,s1
   107b8:	178000ef          	jal	10930 <_isatty_r>
   107bc:	02051063          	bnez	a0,107dc <__smakebuf_r+0x180>
   107c0:	00c41783          	lh	a5,12(s0)
   107c4:	f51ff06f          	j	10714 <__smakebuf_r+0xb8>
   107c8:	07412483          	lw	s1,116(sp)
   107cc:	07012903          	lw	s2,112(sp)
   107d0:	06c12983          	lw	s3,108(sp)
   107d4:	06812a03          	lw	s4,104(sp)
   107d8:	eb5ff06f          	j	1068c <__smakebuf_r+0x30>
   107dc:	00c45783          	lhu	a5,12(s0)
   107e0:	ffc7f793          	and	a5,a5,-4
   107e4:	0017e793          	or	a5,a5,1
   107e8:	01079793          	sll	a5,a5,0x10
   107ec:	4107d793          	sra	a5,a5,0x10
   107f0:	f25ff06f          	j	10714 <__smakebuf_r+0xb8>

000107f4 <__swhatbuf_r>:
   107f4:	f9010113          	add	sp,sp,-112
   107f8:	06812423          	sw	s0,104(sp)
   107fc:	00058413          	mv	s0,a1
   10800:	00e59583          	lh	a1,14(a1)
   10804:	06912223          	sw	s1,100(sp)
   10808:	07212023          	sw	s2,96(sp)
   1080c:	06112623          	sw	ra,108(sp)
   10810:	00060493          	mv	s1,a2
   10814:	00068913          	mv	s2,a3
   10818:	0405ca63          	bltz	a1,1086c <__swhatbuf_r+0x78>
   1081c:	00810613          	add	a2,sp,8
   10820:	0ac000ef          	jal	108cc <_fstat_r>
   10824:	04054463          	bltz	a0,1086c <__swhatbuf_r+0x78>
   10828:	00c12703          	lw	a4,12(sp)
   1082c:	0000f7b7          	lui	a5,0xf
   10830:	06c12083          	lw	ra,108(sp)
   10834:	00e7f7b3          	and	a5,a5,a4
   10838:	ffffe737          	lui	a4,0xffffe
   1083c:	00e787b3          	add	a5,a5,a4
   10840:	06812403          	lw	s0,104(sp)
   10844:	0017b793          	seqz	a5,a5
   10848:	00f92023          	sw	a5,0(s2) # f000 <__s2b+0x48>
   1084c:	40000713          	li	a4,1024
   10850:	00e4a023          	sw	a4,0(s1)
   10854:	00001537          	lui	a0,0x1
   10858:	06412483          	lw	s1,100(sp)
   1085c:	06012903          	lw	s2,96(sp)
   10860:	80050513          	add	a0,a0,-2048 # 800 <__adddf3+0x114>
   10864:	07010113          	add	sp,sp,112
   10868:	00008067          	ret
   1086c:	00c45783          	lhu	a5,12(s0)
   10870:	0807f793          	and	a5,a5,128
   10874:	02078863          	beqz	a5,108a4 <__swhatbuf_r+0xb0>
   10878:	06c12083          	lw	ra,108(sp)
   1087c:	06812403          	lw	s0,104(sp)
   10880:	00000793          	li	a5,0
   10884:	00f92023          	sw	a5,0(s2)
   10888:	04000713          	li	a4,64
   1088c:	00e4a023          	sw	a4,0(s1)
   10890:	06012903          	lw	s2,96(sp)
   10894:	06412483          	lw	s1,100(sp)
   10898:	00000513          	li	a0,0
   1089c:	07010113          	add	sp,sp,112
   108a0:	00008067          	ret
   108a4:	06c12083          	lw	ra,108(sp)
   108a8:	06812403          	lw	s0,104(sp)
   108ac:	00f92023          	sw	a5,0(s2)
   108b0:	40000713          	li	a4,1024
   108b4:	00e4a023          	sw	a4,0(s1)
   108b8:	06012903          	lw	s2,96(sp)
   108bc:	06412483          	lw	s1,100(sp)
   108c0:	00000513          	li	a0,0
   108c4:	07010113          	add	sp,sp,112
   108c8:	00008067          	ret

000108cc <_fstat_r>:
   108cc:	ff010113          	add	sp,sp,-16
   108d0:	00058713          	mv	a4,a1
   108d4:	00812423          	sw	s0,8(sp)
   108d8:	00912223          	sw	s1,4(sp)
   108dc:	00050413          	mv	s0,a0
   108e0:	00060593          	mv	a1,a2
   108e4:	00070513          	mv	a0,a4
   108e8:	00112623          	sw	ra,12(sp)
   108ec:	8a01ae23          	sw	zero,-1860(gp) # 12774 <errno>
   108f0:	b55ef0ef          	jal	444 <_fstat>
   108f4:	fff00793          	li	a5,-1
   108f8:	00f50c63          	beq	a0,a5,10910 <_fstat_r+0x44>
   108fc:	00c12083          	lw	ra,12(sp)
   10900:	00812403          	lw	s0,8(sp)
   10904:	00412483          	lw	s1,4(sp)
   10908:	01010113          	add	sp,sp,16
   1090c:	00008067          	ret
   10910:	8bc1a783          	lw	a5,-1860(gp) # 12774 <errno>
   10914:	fe0784e3          	beqz	a5,108fc <_fstat_r+0x30>
   10918:	00c12083          	lw	ra,12(sp)
   1091c:	00f42023          	sw	a5,0(s0)
   10920:	00812403          	lw	s0,8(sp)
   10924:	00412483          	lw	s1,4(sp)
   10928:	01010113          	add	sp,sp,16
   1092c:	00008067          	ret

00010930 <_isatty_r>:
   10930:	ff010113          	add	sp,sp,-16
   10934:	00812423          	sw	s0,8(sp)
   10938:	00912223          	sw	s1,4(sp)
   1093c:	00050413          	mv	s0,a0
   10940:	00058513          	mv	a0,a1
   10944:	00112623          	sw	ra,12(sp)
   10948:	8a01ae23          	sw	zero,-1860(gp) # 12774 <errno>
   1094c:	a9def0ef          	jal	3e8 <_access>
   10950:	fff00793          	li	a5,-1
   10954:	00f50c63          	beq	a0,a5,1096c <_isatty_r+0x3c>
   10958:	00c12083          	lw	ra,12(sp)
   1095c:	00812403          	lw	s0,8(sp)
   10960:	00412483          	lw	s1,4(sp)
   10964:	01010113          	add	sp,sp,16
   10968:	00008067          	ret
   1096c:	8bc1a783          	lw	a5,-1860(gp) # 12774 <errno>
   10970:	fe0784e3          	beqz	a5,10958 <_isatty_r+0x28>
   10974:	00c12083          	lw	ra,12(sp)
   10978:	00f42023          	sw	a5,0(s0)
   1097c:	00812403          	lw	s0,8(sp)
   10980:	00412483          	lw	s1,4(sp)
   10984:	01010113          	add	sp,sp,16
   10988:	00008067          	ret

0001098c <__assert_func>:
   1098c:	86c1a703          	lw	a4,-1940(gp) # 12724 <_impure_ptr>
   10990:	ff010113          	add	sp,sp,-16
   10994:	00068793          	mv	a5,a3
   10998:	00060813          	mv	a6,a2
   1099c:	00112623          	sw	ra,12(sp)
   109a0:	00c72883          	lw	a7,12(a4) # ffffe00c <_end+0xfffe8da8>
   109a4:	00050693          	mv	a3,a0
   109a8:	00058713          	mv	a4,a1
   109ac:	00078613          	mv	a2,a5
   109b0:	02080063          	beqz	a6,109d0 <__assert_func+0x44>
   109b4:	000117b7          	lui	a5,0x11
   109b8:	7c878793          	add	a5,a5,1992 # 117c8 <_getpid_r+0x6ac>
   109bc:	000115b7          	lui	a1,0x11
   109c0:	7d858593          	add	a1,a1,2008 # 117d8 <_getpid_r+0x6bc>
   109c4:	00088513          	mv	a0,a7
   109c8:	14c000ef          	jal	10b14 <fiprintf>
   109cc:	194000ef          	jal	10b60 <abort>
   109d0:	00011837          	lui	a6,0x11
   109d4:	2e880793          	add	a5,a6,744 # 112e8 <_getpid_r+0x1cc>
   109d8:	2e880813          	add	a6,a6,744
   109dc:	fe1ff06f          	j	109bc <__assert_func+0x30>

000109e0 <__assert>:
   109e0:	ff010113          	add	sp,sp,-16
   109e4:	00060693          	mv	a3,a2
   109e8:	00000613          	li	a2,0
   109ec:	00112623          	sw	ra,12(sp)
   109f0:	f9dff0ef          	jal	1098c <__assert_func>

000109f4 <_calloc_r>:
   109f4:	02c5b7b3          	mulhu	a5,a1,a2
   109f8:	ff010113          	add	sp,sp,-16
   109fc:	00112623          	sw	ra,12(sp)
   10a00:	00812423          	sw	s0,8(sp)
   10a04:	02c585b3          	mul	a1,a1,a2
   10a08:	0a079063          	bnez	a5,10aa8 <_calloc_r+0xb4>
   10a0c:	974f50ef          	jal	5b80 <_malloc_r>
   10a10:	00050413          	mv	s0,a0
   10a14:	0a050063          	beqz	a0,10ab4 <_calloc_r+0xc0>
   10a18:	ffc52603          	lw	a2,-4(a0)
   10a1c:	02400713          	li	a4,36
   10a20:	ffc67613          	and	a2,a2,-4
   10a24:	ffc60613          	add	a2,a2,-4
   10a28:	04c76863          	bltu	a4,a2,10a78 <_calloc_r+0x84>
   10a2c:	01300693          	li	a3,19
   10a30:	00050793          	mv	a5,a0
   10a34:	02c6f263          	bgeu	a3,a2,10a58 <_calloc_r+0x64>
   10a38:	00052023          	sw	zero,0(a0)
   10a3c:	00052223          	sw	zero,4(a0)
   10a40:	01b00793          	li	a5,27
   10a44:	04c7f863          	bgeu	a5,a2,10a94 <_calloc_r+0xa0>
   10a48:	00052423          	sw	zero,8(a0)
   10a4c:	00052623          	sw	zero,12(a0)
   10a50:	01050793          	add	a5,a0,16
   10a54:	06e60c63          	beq	a2,a4,10acc <_calloc_r+0xd8>
   10a58:	0007a023          	sw	zero,0(a5)
   10a5c:	0007a223          	sw	zero,4(a5)
   10a60:	0007a423          	sw	zero,8(a5)
   10a64:	00c12083          	lw	ra,12(sp)
   10a68:	00040513          	mv	a0,s0
   10a6c:	00812403          	lw	s0,8(sp)
   10a70:	01010113          	add	sp,sp,16
   10a74:	00008067          	ret
   10a78:	00000593          	li	a1,0
   10a7c:	a19ef0ef          	jal	494 <memset>
   10a80:	00c12083          	lw	ra,12(sp)
   10a84:	00040513          	mv	a0,s0
   10a88:	00812403          	lw	s0,8(sp)
   10a8c:	01010113          	add	sp,sp,16
   10a90:	00008067          	ret
   10a94:	00850793          	add	a5,a0,8
   10a98:	0007a023          	sw	zero,0(a5)
   10a9c:	0007a223          	sw	zero,4(a5)
   10aa0:	0007a423          	sw	zero,8(a5)
   10aa4:	fc1ff06f          	j	10a64 <_calloc_r+0x70>
   10aa8:	a88f60ef          	jal	6d30 <__errno>
   10aac:	00c00793          	li	a5,12
   10ab0:	00f52023          	sw	a5,0(a0)
   10ab4:	00000413          	li	s0,0
   10ab8:	00c12083          	lw	ra,12(sp)
   10abc:	00040513          	mv	a0,s0
   10ac0:	00812403          	lw	s0,8(sp)
   10ac4:	01010113          	add	sp,sp,16
   10ac8:	00008067          	ret
   10acc:	00052823          	sw	zero,16(a0)
   10ad0:	01850793          	add	a5,a0,24
   10ad4:	00052a23          	sw	zero,20(a0)
   10ad8:	f81ff06f          	j	10a58 <_calloc_r+0x64>

00010adc <_fiprintf_r>:
   10adc:	fc010113          	add	sp,sp,-64
   10ae0:	02c10313          	add	t1,sp,44
   10ae4:	02d12623          	sw	a3,44(sp)
   10ae8:	00030693          	mv	a3,t1
   10aec:	00112e23          	sw	ra,28(sp)
   10af0:	02e12823          	sw	a4,48(sp)
   10af4:	02f12a23          	sw	a5,52(sp)
   10af8:	03012c23          	sw	a6,56(sp)
   10afc:	03112e23          	sw	a7,60(sp)
   10b00:	00612623          	sw	t1,12(sp)
   10b04:	b8cf90ef          	jal	9e90 <_vfiprintf_r>
   10b08:	01c12083          	lw	ra,28(sp)
   10b0c:	04010113          	add	sp,sp,64
   10b10:	00008067          	ret

00010b14 <fiprintf>:
   10b14:	00050e13          	mv	t3,a0
   10b18:	fc010113          	add	sp,sp,-64
   10b1c:	86c1a503          	lw	a0,-1940(gp) # 12724 <_impure_ptr>
   10b20:	02810313          	add	t1,sp,40
   10b24:	02c12423          	sw	a2,40(sp)
   10b28:	02d12623          	sw	a3,44(sp)
   10b2c:	00058613          	mv	a2,a1
   10b30:	00030693          	mv	a3,t1
   10b34:	000e0593          	mv	a1,t3
   10b38:	00112e23          	sw	ra,28(sp)
   10b3c:	02e12823          	sw	a4,48(sp)
   10b40:	02f12a23          	sw	a5,52(sp)
   10b44:	03012c23          	sw	a6,56(sp)
   10b48:	03112e23          	sw	a7,60(sp)
   10b4c:	00612623          	sw	t1,12(sp)
   10b50:	b40f90ef          	jal	9e90 <_vfiprintf_r>
   10b54:	01c12083          	lw	ra,28(sp)
   10b58:	04010113          	add	sp,sp,64
   10b5c:	00008067          	ret

00010b60 <abort>:
   10b60:	ff010113          	add	sp,sp,-16
   10b64:	00600513          	li	a0,6
   10b68:	00112623          	sw	ra,12(sp)
   10b6c:	2a8000ef          	jal	10e14 <raise>
   10b70:	00100513          	li	a0,1
   10b74:	91def0ef          	jal	490 <_exit>

00010b78 <_init_signal_r>:
   10b78:	11852783          	lw	a5,280(a0)
   10b7c:	00078663          	beqz	a5,10b88 <_init_signal_r+0x10>
   10b80:	00000513          	li	a0,0
   10b84:	00008067          	ret
   10b88:	ff010113          	add	sp,sp,-16
   10b8c:	08000593          	li	a1,128
   10b90:	00812423          	sw	s0,8(sp)
   10b94:	00112623          	sw	ra,12(sp)
   10b98:	00050413          	mv	s0,a0
   10b9c:	fe5f40ef          	jal	5b80 <_malloc_r>
   10ba0:	10a42c23          	sw	a0,280(s0)
   10ba4:	02050463          	beqz	a0,10bcc <_init_signal_r+0x54>
   10ba8:	08050793          	add	a5,a0,128
   10bac:	00052023          	sw	zero,0(a0)
   10bb0:	00450513          	add	a0,a0,4
   10bb4:	fef51ce3          	bne	a0,a5,10bac <_init_signal_r+0x34>
   10bb8:	00000513          	li	a0,0
   10bbc:	00c12083          	lw	ra,12(sp)
   10bc0:	00812403          	lw	s0,8(sp)
   10bc4:	01010113          	add	sp,sp,16
   10bc8:	00008067          	ret
   10bcc:	fff00513          	li	a0,-1
   10bd0:	fedff06f          	j	10bbc <_init_signal_r+0x44>

00010bd4 <_signal_r>:
   10bd4:	fe010113          	add	sp,sp,-32
   10bd8:	00912a23          	sw	s1,20(sp)
   10bdc:	00112e23          	sw	ra,28(sp)
   10be0:	01f00793          	li	a5,31
   10be4:	00050493          	mv	s1,a0
   10be8:	02b7ec63          	bltu	a5,a1,10c20 <_signal_r+0x4c>
   10bec:	11852783          	lw	a5,280(a0)
   10bf0:	00812c23          	sw	s0,24(sp)
   10bf4:	00058413          	mv	s0,a1
   10bf8:	02078c63          	beqz	a5,10c30 <_signal_r+0x5c>
   10bfc:	00241413          	sll	s0,s0,0x2
   10c00:	008787b3          	add	a5,a5,s0
   10c04:	01812403          	lw	s0,24(sp)
   10c08:	0007a503          	lw	a0,0(a5)
   10c0c:	00c7a023          	sw	a2,0(a5)
   10c10:	01c12083          	lw	ra,28(sp)
   10c14:	01412483          	lw	s1,20(sp)
   10c18:	02010113          	add	sp,sp,32
   10c1c:	00008067          	ret
   10c20:	01600793          	li	a5,22
   10c24:	00f52023          	sw	a5,0(a0)
   10c28:	fff00513          	li	a0,-1
   10c2c:	fe5ff06f          	j	10c10 <_signal_r+0x3c>
   10c30:	08000593          	li	a1,128
   10c34:	00c12623          	sw	a2,12(sp)
   10c38:	f49f40ef          	jal	5b80 <_malloc_r>
   10c3c:	10a4ac23          	sw	a0,280(s1)
   10c40:	00c12603          	lw	a2,12(sp)
   10c44:	00050793          	mv	a5,a0
   10c48:	00050713          	mv	a4,a0
   10c4c:	08050693          	add	a3,a0,128
   10c50:	00050a63          	beqz	a0,10c64 <_signal_r+0x90>
   10c54:	00072023          	sw	zero,0(a4)
   10c58:	00470713          	add	a4,a4,4
   10c5c:	fed71ce3          	bne	a4,a3,10c54 <_signal_r+0x80>
   10c60:	f9dff06f          	j	10bfc <_signal_r+0x28>
   10c64:	01812403          	lw	s0,24(sp)
   10c68:	fff00513          	li	a0,-1
   10c6c:	fa5ff06f          	j	10c10 <_signal_r+0x3c>

00010c70 <_raise_r>:
   10c70:	ff010113          	add	sp,sp,-16
   10c74:	00912223          	sw	s1,4(sp)
   10c78:	00112623          	sw	ra,12(sp)
   10c7c:	01f00793          	li	a5,31
   10c80:	00050493          	mv	s1,a0
   10c84:	0ab7e063          	bltu	a5,a1,10d24 <_raise_r+0xb4>
   10c88:	11852783          	lw	a5,280(a0)
   10c8c:	00812423          	sw	s0,8(sp)
   10c90:	00058413          	mv	s0,a1
   10c94:	04078463          	beqz	a5,10cdc <_raise_r+0x6c>
   10c98:	00259713          	sll	a4,a1,0x2
   10c9c:	00e787b3          	add	a5,a5,a4
   10ca0:	0007a703          	lw	a4,0(a5)
   10ca4:	02070c63          	beqz	a4,10cdc <_raise_r+0x6c>
   10ca8:	00100693          	li	a3,1
   10cac:	00d70c63          	beq	a4,a3,10cc4 <_raise_r+0x54>
   10cb0:	fff00693          	li	a3,-1
   10cb4:	04d70863          	beq	a4,a3,10d04 <_raise_r+0x94>
   10cb8:	0007a023          	sw	zero,0(a5)
   10cbc:	00058513          	mv	a0,a1
   10cc0:	000700e7          	jalr	a4
   10cc4:	00812403          	lw	s0,8(sp)
   10cc8:	00000513          	li	a0,0
   10ccc:	00c12083          	lw	ra,12(sp)
   10cd0:	00412483          	lw	s1,4(sp)
   10cd4:	01010113          	add	sp,sp,16
   10cd8:	00008067          	ret
   10cdc:	00048513          	mv	a0,s1
   10ce0:	43c000ef          	jal	1111c <_getpid_r>
   10ce4:	00040613          	mv	a2,s0
   10ce8:	00812403          	lw	s0,8(sp)
   10cec:	00c12083          	lw	ra,12(sp)
   10cf0:	00050593          	mv	a1,a0
   10cf4:	00048513          	mv	a0,s1
   10cf8:	00412483          	lw	s1,4(sp)
   10cfc:	01010113          	add	sp,sp,16
   10d00:	3b80006f          	j	110b8 <_kill_r>
   10d04:	00812403          	lw	s0,8(sp)
   10d08:	00c12083          	lw	ra,12(sp)
   10d0c:	01600793          	li	a5,22
   10d10:	00f52023          	sw	a5,0(a0)
   10d14:	00412483          	lw	s1,4(sp)
   10d18:	00100513          	li	a0,1
   10d1c:	01010113          	add	sp,sp,16
   10d20:	00008067          	ret
   10d24:	01600793          	li	a5,22
   10d28:	00f52023          	sw	a5,0(a0)
   10d2c:	fff00513          	li	a0,-1
   10d30:	f9dff06f          	j	10ccc <_raise_r+0x5c>

00010d34 <__sigtramp_r>:
   10d34:	01f00793          	li	a5,31
   10d38:	0cb7ea63          	bltu	a5,a1,10e0c <__sigtramp_r+0xd8>
   10d3c:	11852783          	lw	a5,280(a0)
   10d40:	ff010113          	add	sp,sp,-16
   10d44:	00812423          	sw	s0,8(sp)
   10d48:	00912223          	sw	s1,4(sp)
   10d4c:	00112623          	sw	ra,12(sp)
   10d50:	00058413          	mv	s0,a1
   10d54:	00050493          	mv	s1,a0
   10d58:	08078063          	beqz	a5,10dd8 <__sigtramp_r+0xa4>
   10d5c:	00241713          	sll	a4,s0,0x2
   10d60:	00e787b3          	add	a5,a5,a4
   10d64:	0007a703          	lw	a4,0(a5)
   10d68:	02070c63          	beqz	a4,10da0 <__sigtramp_r+0x6c>
   10d6c:	fff00693          	li	a3,-1
   10d70:	06d70063          	beq	a4,a3,10dd0 <__sigtramp_r+0x9c>
   10d74:	00100693          	li	a3,1
   10d78:	04d70063          	beq	a4,a3,10db8 <__sigtramp_r+0x84>
   10d7c:	00040513          	mv	a0,s0
   10d80:	0007a023          	sw	zero,0(a5)
   10d84:	000700e7          	jalr	a4
   10d88:	00000513          	li	a0,0
   10d8c:	00c12083          	lw	ra,12(sp)
   10d90:	00812403          	lw	s0,8(sp)
   10d94:	00412483          	lw	s1,4(sp)
   10d98:	01010113          	add	sp,sp,16
   10d9c:	00008067          	ret
   10da0:	00c12083          	lw	ra,12(sp)
   10da4:	00812403          	lw	s0,8(sp)
   10da8:	00412483          	lw	s1,4(sp)
   10dac:	00100513          	li	a0,1
   10db0:	01010113          	add	sp,sp,16
   10db4:	00008067          	ret
   10db8:	00c12083          	lw	ra,12(sp)
   10dbc:	00812403          	lw	s0,8(sp)
   10dc0:	00412483          	lw	s1,4(sp)
   10dc4:	00300513          	li	a0,3
   10dc8:	01010113          	add	sp,sp,16
   10dcc:	00008067          	ret
   10dd0:	00200513          	li	a0,2
   10dd4:	fb9ff06f          	j	10d8c <__sigtramp_r+0x58>
   10dd8:	08000593          	li	a1,128
   10ddc:	da5f40ef          	jal	5b80 <_malloc_r>
   10de0:	10a4ac23          	sw	a0,280(s1)
   10de4:	00050793          	mv	a5,a0
   10de8:	00050e63          	beqz	a0,10e04 <__sigtramp_r+0xd0>
   10dec:	00050713          	mv	a4,a0
   10df0:	08050693          	add	a3,a0,128
   10df4:	00072023          	sw	zero,0(a4)
   10df8:	00470713          	add	a4,a4,4
   10dfc:	fed71ce3          	bne	a4,a3,10df4 <__sigtramp_r+0xc0>
   10e00:	f5dff06f          	j	10d5c <__sigtramp_r+0x28>
   10e04:	fff00513          	li	a0,-1
   10e08:	f85ff06f          	j	10d8c <__sigtramp_r+0x58>
   10e0c:	fff00513          	li	a0,-1
   10e10:	00008067          	ret

00010e14 <raise>:
   10e14:	ff010113          	add	sp,sp,-16
   10e18:	00912223          	sw	s1,4(sp)
   10e1c:	00112623          	sw	ra,12(sp)
   10e20:	01f00793          	li	a5,31
   10e24:	86c1a483          	lw	s1,-1940(gp) # 12724 <_impure_ptr>
   10e28:	08a7ee63          	bltu	a5,a0,10ec4 <raise+0xb0>
   10e2c:	1184a783          	lw	a5,280(s1)
   10e30:	00812423          	sw	s0,8(sp)
   10e34:	00050413          	mv	s0,a0
   10e38:	04078263          	beqz	a5,10e7c <raise+0x68>
   10e3c:	00251713          	sll	a4,a0,0x2
   10e40:	00e787b3          	add	a5,a5,a4
   10e44:	0007a703          	lw	a4,0(a5)
   10e48:	02070a63          	beqz	a4,10e7c <raise+0x68>
   10e4c:	00100693          	li	a3,1
   10e50:	00d70a63          	beq	a4,a3,10e64 <raise+0x50>
   10e54:	fff00693          	li	a3,-1
   10e58:	04d70663          	beq	a4,a3,10ea4 <raise+0x90>
   10e5c:	0007a023          	sw	zero,0(a5)
   10e60:	000700e7          	jalr	a4
   10e64:	00812403          	lw	s0,8(sp)
   10e68:	00000513          	li	a0,0
   10e6c:	00c12083          	lw	ra,12(sp)
   10e70:	00412483          	lw	s1,4(sp)
   10e74:	01010113          	add	sp,sp,16
   10e78:	00008067          	ret
   10e7c:	00048513          	mv	a0,s1
   10e80:	29c000ef          	jal	1111c <_getpid_r>
   10e84:	00040613          	mv	a2,s0
   10e88:	00812403          	lw	s0,8(sp)
   10e8c:	00c12083          	lw	ra,12(sp)
   10e90:	00050593          	mv	a1,a0
   10e94:	00048513          	mv	a0,s1
   10e98:	00412483          	lw	s1,4(sp)
   10e9c:	01010113          	add	sp,sp,16
   10ea0:	2180006f          	j	110b8 <_kill_r>
   10ea4:	00812403          	lw	s0,8(sp)
   10ea8:	00c12083          	lw	ra,12(sp)
   10eac:	01600793          	li	a5,22
   10eb0:	00f4a023          	sw	a5,0(s1)
   10eb4:	00100513          	li	a0,1
   10eb8:	00412483          	lw	s1,4(sp)
   10ebc:	01010113          	add	sp,sp,16
   10ec0:	00008067          	ret
   10ec4:	01600793          	li	a5,22
   10ec8:	00f4a023          	sw	a5,0(s1)
   10ecc:	fff00513          	li	a0,-1
   10ed0:	f9dff06f          	j	10e6c <raise+0x58>

00010ed4 <signal>:
   10ed4:	ff010113          	add	sp,sp,-16
   10ed8:	01212023          	sw	s2,0(sp)
   10edc:	00112623          	sw	ra,12(sp)
   10ee0:	01f00793          	li	a5,31
   10ee4:	86c1a903          	lw	s2,-1940(gp) # 12724 <_impure_ptr>
   10ee8:	04a7e263          	bltu	a5,a0,10f2c <signal+0x58>
   10eec:	00812423          	sw	s0,8(sp)
   10ef0:	00050413          	mv	s0,a0
   10ef4:	11892503          	lw	a0,280(s2)
   10ef8:	00912223          	sw	s1,4(sp)
   10efc:	00058493          	mv	s1,a1
   10f00:	02050e63          	beqz	a0,10f3c <signal+0x68>
   10f04:	00241413          	sll	s0,s0,0x2
   10f08:	008507b3          	add	a5,a0,s0
   10f0c:	0007a503          	lw	a0,0(a5)
   10f10:	00812403          	lw	s0,8(sp)
   10f14:	0097a023          	sw	s1,0(a5)
   10f18:	00412483          	lw	s1,4(sp)
   10f1c:	00c12083          	lw	ra,12(sp)
   10f20:	00012903          	lw	s2,0(sp)
   10f24:	01010113          	add	sp,sp,16
   10f28:	00008067          	ret
   10f2c:	01600793          	li	a5,22
   10f30:	00f92023          	sw	a5,0(s2)
   10f34:	fff00513          	li	a0,-1
   10f38:	fe5ff06f          	j	10f1c <signal+0x48>
   10f3c:	08000593          	li	a1,128
   10f40:	00090513          	mv	a0,s2
   10f44:	c3df40ef          	jal	5b80 <_malloc_r>
   10f48:	10a92c23          	sw	a0,280(s2)
   10f4c:	00050793          	mv	a5,a0
   10f50:	08050713          	add	a4,a0,128
   10f54:	00050a63          	beqz	a0,10f68 <signal+0x94>
   10f58:	0007a023          	sw	zero,0(a5)
   10f5c:	00478793          	add	a5,a5,4
   10f60:	fef71ce3          	bne	a4,a5,10f58 <signal+0x84>
   10f64:	fa1ff06f          	j	10f04 <signal+0x30>
   10f68:	00812403          	lw	s0,8(sp)
   10f6c:	00412483          	lw	s1,4(sp)
   10f70:	fff00513          	li	a0,-1
   10f74:	fa9ff06f          	j	10f1c <signal+0x48>

00010f78 <_init_signal>:
   10f78:	ff010113          	add	sp,sp,-16
   10f7c:	00812423          	sw	s0,8(sp)
   10f80:	86c1a403          	lw	s0,-1940(gp) # 12724 <_impure_ptr>
   10f84:	00112623          	sw	ra,12(sp)
   10f88:	11842783          	lw	a5,280(s0)
   10f8c:	00078c63          	beqz	a5,10fa4 <_init_signal+0x2c>
   10f90:	00000513          	li	a0,0
   10f94:	00c12083          	lw	ra,12(sp)
   10f98:	00812403          	lw	s0,8(sp)
   10f9c:	01010113          	add	sp,sp,16
   10fa0:	00008067          	ret
   10fa4:	08000593          	li	a1,128
   10fa8:	00040513          	mv	a0,s0
   10fac:	bd5f40ef          	jal	5b80 <_malloc_r>
   10fb0:	10a42c23          	sw	a0,280(s0)
   10fb4:	00050c63          	beqz	a0,10fcc <_init_signal+0x54>
   10fb8:	08050793          	add	a5,a0,128
   10fbc:	00052023          	sw	zero,0(a0)
   10fc0:	00450513          	add	a0,a0,4
   10fc4:	fef51ce3          	bne	a0,a5,10fbc <_init_signal+0x44>
   10fc8:	fc9ff06f          	j	10f90 <_init_signal+0x18>
   10fcc:	fff00513          	li	a0,-1
   10fd0:	fc5ff06f          	j	10f94 <_init_signal+0x1c>

00010fd4 <__sigtramp>:
   10fd4:	ff010113          	add	sp,sp,-16
   10fd8:	00912223          	sw	s1,4(sp)
   10fdc:	00112623          	sw	ra,12(sp)
   10fe0:	01f00793          	li	a5,31
   10fe4:	86c1a483          	lw	s1,-1940(gp) # 12724 <_impure_ptr>
   10fe8:	0ca7e463          	bltu	a5,a0,110b0 <__sigtramp+0xdc>
   10fec:	1184a783          	lw	a5,280(s1)
   10ff0:	00812423          	sw	s0,8(sp)
   10ff4:	00050413          	mv	s0,a0
   10ff8:	08078263          	beqz	a5,1107c <__sigtramp+0xa8>
   10ffc:	00241713          	sll	a4,s0,0x2
   11000:	00e787b3          	add	a5,a5,a4
   11004:	0007a703          	lw	a4,0(a5)
   11008:	02070c63          	beqz	a4,11040 <__sigtramp+0x6c>
   1100c:	fff00693          	li	a3,-1
   11010:	06d70063          	beq	a4,a3,11070 <__sigtramp+0x9c>
   11014:	00100693          	li	a3,1
   11018:	04d70063          	beq	a4,a3,11058 <__sigtramp+0x84>
   1101c:	00040513          	mv	a0,s0
   11020:	0007a023          	sw	zero,0(a5)
   11024:	000700e7          	jalr	a4
   11028:	00812403          	lw	s0,8(sp)
   1102c:	00000513          	li	a0,0
   11030:	00c12083          	lw	ra,12(sp)
   11034:	00412483          	lw	s1,4(sp)
   11038:	01010113          	add	sp,sp,16
   1103c:	00008067          	ret
   11040:	00812403          	lw	s0,8(sp)
   11044:	00c12083          	lw	ra,12(sp)
   11048:	00412483          	lw	s1,4(sp)
   1104c:	00100513          	li	a0,1
   11050:	01010113          	add	sp,sp,16
   11054:	00008067          	ret
   11058:	00812403          	lw	s0,8(sp)
   1105c:	00c12083          	lw	ra,12(sp)
   11060:	00412483          	lw	s1,4(sp)
   11064:	00300513          	li	a0,3
   11068:	01010113          	add	sp,sp,16
   1106c:	00008067          	ret
   11070:	00812403          	lw	s0,8(sp)
   11074:	00200513          	li	a0,2
   11078:	fb9ff06f          	j	11030 <__sigtramp+0x5c>
   1107c:	08000593          	li	a1,128
   11080:	00048513          	mv	a0,s1
   11084:	afdf40ef          	jal	5b80 <_malloc_r>
   11088:	10a4ac23          	sw	a0,280(s1)
   1108c:	00050793          	mv	a5,a0
   11090:	00050e63          	beqz	a0,110ac <__sigtramp+0xd8>
   11094:	00050713          	mv	a4,a0
   11098:	08050693          	add	a3,a0,128
   1109c:	00072023          	sw	zero,0(a4)
   110a0:	00470713          	add	a4,a4,4
   110a4:	fee69ce3          	bne	a3,a4,1109c <__sigtramp+0xc8>
   110a8:	f55ff06f          	j	10ffc <__sigtramp+0x28>
   110ac:	00812403          	lw	s0,8(sp)
   110b0:	fff00513          	li	a0,-1
   110b4:	f7dff06f          	j	11030 <__sigtramp+0x5c>

000110b8 <_kill_r>:
   110b8:	ff010113          	add	sp,sp,-16
   110bc:	00058713          	mv	a4,a1
   110c0:	00812423          	sw	s0,8(sp)
   110c4:	00912223          	sw	s1,4(sp)
   110c8:	00050413          	mv	s0,a0
   110cc:	00060593          	mv	a1,a2
   110d0:	00070513          	mv	a0,a4
   110d4:	00112623          	sw	ra,12(sp)
   110d8:	8a01ae23          	sw	zero,-1860(gp) # 12774 <errno>
   110dc:	b0cef0ef          	jal	3e8 <_access>
   110e0:	fff00793          	li	a5,-1
   110e4:	00f50c63          	beq	a0,a5,110fc <_kill_r+0x44>
   110e8:	00c12083          	lw	ra,12(sp)
   110ec:	00812403          	lw	s0,8(sp)
   110f0:	00412483          	lw	s1,4(sp)
   110f4:	01010113          	add	sp,sp,16
   110f8:	00008067          	ret
   110fc:	8bc1a783          	lw	a5,-1860(gp) # 12774 <errno>
   11100:	fe0784e3          	beqz	a5,110e8 <_kill_r+0x30>
   11104:	00c12083          	lw	ra,12(sp)
   11108:	00f42023          	sw	a5,0(s0)
   1110c:	00812403          	lw	s0,8(sp)
   11110:	00412483          	lw	s1,4(sp)
   11114:	01010113          	add	sp,sp,16
   11118:	00008067          	ret

0001111c <_getpid_r>:
   1111c:	accef06f          	j	3e8 <_access>
