
./rv32ui-p-lw:     file format elf32-littleriscv


Disassembly of section .text.init:

00008000 <_start>:
    8000:	0500006f          	j	8050 <reset_vector>

00008004 <trap_vector>:
    8004:	34202f73          	csrr	t5,mcause
    8008:	00800f93          	li	t6,8
    800c:	03ff0863          	beq	t5,t6,803c <write_tohost>
    8010:	00900f93          	li	t6,9
    8014:	03ff0463          	beq	t5,t6,803c <write_tohost>
    8018:	00b00f93          	li	t6,11
    801c:	03ff0063          	beq	t5,t6,803c <write_tohost>
    8020:	00000f13          	li	t5,0
    8024:	000f0463          	beqz	t5,802c <trap_vector+0x28>
    8028:	000f0067          	jr	t5
    802c:	34202f73          	csrr	t5,mcause
    8030:	000f5463          	bgez	t5,8038 <handle_exception>
    8034:	0040006f          	j	8038 <handle_exception>

00008038 <handle_exception>:
    8038:	5391e193          	or	gp,gp,1337

0000803c <write_tohost>:
    803c:	00001f17          	auipc	t5,0x1
    8040:	fc3f2223          	sw	gp,-60(t5) # 9000 <tohost>
    8044:	00001f17          	auipc	t5,0x1
    8048:	fc0f2023          	sw	zero,-64(t5) # 9004 <tohost+0x4>
    804c:	ff1ff06f          	j	803c <write_tohost>

00008050 <reset_vector>:
    8050:	00000093          	li	ra,0
    8054:	00000113          	li	sp,0
    8058:	00000193          	li	gp,0
    805c:	00000213          	li	tp,0
    8060:	00000293          	li	t0,0
    8064:	00000313          	li	t1,0
    8068:	00000393          	li	t2,0
    806c:	00000413          	li	s0,0
    8070:	00000493          	li	s1,0
    8074:	00000513          	li	a0,0
    8078:	00000593          	li	a1,0
    807c:	00000613          	li	a2,0
    8080:	00000693          	li	a3,0
    8084:	00000713          	li	a4,0
    8088:	00000793          	li	a5,0
    808c:	00000813          	li	a6,0
    8090:	00000893          	li	a7,0
    8094:	00000913          	li	s2,0
    8098:	00000993          	li	s3,0
    809c:	00000a13          	li	s4,0
    80a0:	00000a93          	li	s5,0
    80a4:	00000b13          	li	s6,0
    80a8:	00000b93          	li	s7,0
    80ac:	00000c13          	li	s8,0
    80b0:	00000c93          	li	s9,0
    80b4:	00000d13          	li	s10,0
    80b8:	00000d93          	li	s11,0
    80bc:	00000e13          	li	t3,0
    80c0:	00000e93          	li	t4,0
    80c4:	00000f13          	li	t5,0
    80c8:	00000f93          	li	t6,0
    80cc:	f1402573          	csrr	a0,mhartid
    80d0:	00051063          	bnez	a0,80d0 <reset_vector+0x80>
    80d4:	00000297          	auipc	t0,0x0
    80d8:	01028293          	add	t0,t0,16 # 80e4 <reset_vector+0x94>
    80dc:	30529073          	csrw	mtvec,t0
    80e0:	74445073          	csrw	0x744,8
    80e4:	00000297          	auipc	t0,0x0
    80e8:	01028293          	add	t0,t0,16 # 80f4 <reset_vector+0xa4>
    80ec:	30529073          	csrw	mtvec,t0
    80f0:	18005073          	csrw	satp,0
    80f4:	00000297          	auipc	t0,0x0
    80f8:	02028293          	add	t0,t0,32 # 8114 <reset_vector+0xc4>
    80fc:	30529073          	csrw	mtvec,t0
    8100:	800002b7          	lui	t0,0x80000
    8104:	fff28293          	add	t0,t0,-1 # 7fffffff <_end+0x7fff5fef>
    8108:	3b029073          	csrw	pmpaddr0,t0
    810c:	01f00293          	li	t0,31
    8110:	3a029073          	csrw	pmpcfg0,t0
    8114:	30405073          	csrw	mie,0
    8118:	00000297          	auipc	t0,0x0
    811c:	01428293          	add	t0,t0,20 # 812c <reset_vector+0xdc>
    8120:	30529073          	csrw	mtvec,t0
    8124:	30205073          	csrw	medeleg,0
    8128:	30305073          	csrw	mideleg,0
    812c:	00000193          	li	gp,0
    8130:	00000297          	auipc	t0,0x0
    8134:	ed428293          	add	t0,t0,-300 # 8004 <trap_vector>
    8138:	30529073          	csrw	mtvec,t0
    813c:	00100513          	li	a0,1
    8140:	01f51513          	sll	a0,a0,0x1f
    8144:	00054c63          	bltz	a0,815c <reset_vector+0x10c>
    8148:	0ff0000f          	fence
    814c:	00100193          	li	gp,1
    8150:	05d00893          	li	a7,93
    8154:	00000513          	li	a0,0
    8158:	00000073          	ecall
    815c:	00000293          	li	t0,0
    8160:	00028a63          	beqz	t0,8174 <reset_vector+0x124>
    8164:	10529073          	csrw	stvec,t0
    8168:	0000b2b7          	lui	t0,0xb
    816c:	10928293          	add	t0,t0,265 # b109 <_end+0x10f9>
    8170:	30229073          	csrw	medeleg,t0
    8174:	30005073          	csrw	mstatus,0
    8178:	00000297          	auipc	t0,0x0
    817c:	01428293          	add	t0,t0,20 # 818c <test_2>
    8180:	34129073          	csrw	mepc,t0
    8184:	f1402573          	csrr	a0,mhartid
    8188:	30200073          	mret

0000818c <test_2>:
    818c:	00200193          	li	gp,2
    8190:	00ff07b7          	lui	a5,0xff0
    8194:	0ff78793          	add	a5,a5,255 # ff00ff <_end+0xfe60ef>
    8198:	00002097          	auipc	ra,0x2
    819c:	e6808093          	add	ra,ra,-408 # a000 <begin_signature>
    81a0:	0000a703          	lw	a4,0(ra)
    81a4:	00ff03b7          	lui	t2,0xff0
    81a8:	0ff38393          	add	t2,t2,255 # ff00ff <_end+0xfe60ef>
    81ac:	2a771663          	bne	a4,t2,8458 <fail>

000081b0 <test_3>:
    81b0:	00300193          	li	gp,3
    81b4:	ff0107b7          	lui	a5,0xff010
    81b8:	f0078793          	add	a5,a5,-256 # ff00ff00 <_end+0xff005ef0>
    81bc:	00002097          	auipc	ra,0x2
    81c0:	e4408093          	add	ra,ra,-444 # a000 <begin_signature>
    81c4:	0040a703          	lw	a4,4(ra)
    81c8:	ff0103b7          	lui	t2,0xff010
    81cc:	f0038393          	add	t2,t2,-256 # ff00ff00 <_end+0xff005ef0>
    81d0:	28771463          	bne	a4,t2,8458 <fail>

000081d4 <test_4>:
    81d4:	00400193          	li	gp,4
    81d8:	0ff017b7          	lui	a5,0xff01
    81dc:	ff078793          	add	a5,a5,-16 # ff00ff0 <_end+0xfef6fe0>
    81e0:	00002097          	auipc	ra,0x2
    81e4:	e2008093          	add	ra,ra,-480 # a000 <begin_signature>
    81e8:	0080a703          	lw	a4,8(ra)
    81ec:	0ff013b7          	lui	t2,0xff01
    81f0:	ff038393          	add	t2,t2,-16 # ff00ff0 <_end+0xfef6fe0>
    81f4:	26771263          	bne	a4,t2,8458 <fail>

000081f8 <test_5>:
    81f8:	00500193          	li	gp,5
    81fc:	f00ff7b7          	lui	a5,0xf00ff
    8200:	00f78793          	add	a5,a5,15 # f00ff00f <_end+0xf00f4fff>
    8204:	00002097          	auipc	ra,0x2
    8208:	dfc08093          	add	ra,ra,-516 # a000 <begin_signature>
    820c:	00c0a703          	lw	a4,12(ra)
    8210:	f00ff3b7          	lui	t2,0xf00ff
    8214:	00f38393          	add	t2,t2,15 # f00ff00f <_end+0xf00f4fff>
    8218:	24771063          	bne	a4,t2,8458 <fail>

0000821c <test_6>:
    821c:	00600193          	li	gp,6
    8220:	00ff07b7          	lui	a5,0xff0
    8224:	0ff78793          	add	a5,a5,255 # ff00ff <_end+0xfe60ef>
    8228:	00002097          	auipc	ra,0x2
    822c:	de408093          	add	ra,ra,-540 # a00c <tdat4>
    8230:	ff40a703          	lw	a4,-12(ra)
    8234:	00ff03b7          	lui	t2,0xff0
    8238:	0ff38393          	add	t2,t2,255 # ff00ff <_end+0xfe60ef>
    823c:	20771e63          	bne	a4,t2,8458 <fail>

00008240 <test_7>:
    8240:	00700193          	li	gp,7
    8244:	ff0107b7          	lui	a5,0xff010
    8248:	f0078793          	add	a5,a5,-256 # ff00ff00 <_end+0xff005ef0>
    824c:	00002097          	auipc	ra,0x2
    8250:	dc008093          	add	ra,ra,-576 # a00c <tdat4>
    8254:	ff80a703          	lw	a4,-8(ra)
    8258:	ff0103b7          	lui	t2,0xff010
    825c:	f0038393          	add	t2,t2,-256 # ff00ff00 <_end+0xff005ef0>
    8260:	1e771c63          	bne	a4,t2,8458 <fail>

00008264 <test_8>:
    8264:	00800193          	li	gp,8
    8268:	0ff017b7          	lui	a5,0xff01
    826c:	ff078793          	add	a5,a5,-16 # ff00ff0 <_end+0xfef6fe0>
    8270:	00002097          	auipc	ra,0x2
    8274:	d9c08093          	add	ra,ra,-612 # a00c <tdat4>
    8278:	ffc0a703          	lw	a4,-4(ra)
    827c:	0ff013b7          	lui	t2,0xff01
    8280:	ff038393          	add	t2,t2,-16 # ff00ff0 <_end+0xfef6fe0>
    8284:	1c771a63          	bne	a4,t2,8458 <fail>

00008288 <test_9>:
    8288:	00900193          	li	gp,9
    828c:	f00ff7b7          	lui	a5,0xf00ff
    8290:	00f78793          	add	a5,a5,15 # f00ff00f <_end+0xf00f4fff>
    8294:	00002097          	auipc	ra,0x2
    8298:	d7808093          	add	ra,ra,-648 # a00c <tdat4>
    829c:	0000a703          	lw	a4,0(ra)
    82a0:	f00ff3b7          	lui	t2,0xf00ff
    82a4:	00f38393          	add	t2,t2,15 # f00ff00f <_end+0xf00f4fff>
    82a8:	1a771863          	bne	a4,t2,8458 <fail>

000082ac <test_10>:
    82ac:	00a00193          	li	gp,10
    82b0:	00002097          	auipc	ra,0x2
    82b4:	d5008093          	add	ra,ra,-688 # a000 <begin_signature>
    82b8:	fe008093          	add	ra,ra,-32
    82bc:	0200a283          	lw	t0,32(ra)
    82c0:	00ff03b7          	lui	t2,0xff0
    82c4:	0ff38393          	add	t2,t2,255 # ff00ff <_end+0xfe60ef>
    82c8:	18729863          	bne	t0,t2,8458 <fail>

000082cc <test_11>:
    82cc:	00b00193          	li	gp,11
    82d0:	00002097          	auipc	ra,0x2
    82d4:	d3008093          	add	ra,ra,-720 # a000 <begin_signature>
    82d8:	ffd08093          	add	ra,ra,-3
    82dc:	0070a283          	lw	t0,7(ra)
    82e0:	ff0103b7          	lui	t2,0xff010
    82e4:	f0038393          	add	t2,t2,-256 # ff00ff00 <_end+0xff005ef0>
    82e8:	16729863          	bne	t0,t2,8458 <fail>

000082ec <test_12>:
    82ec:	00c00193          	li	gp,12
    82f0:	00000213          	li	tp,0
    82f4:	00002097          	auipc	ra,0x2
    82f8:	d1008093          	add	ra,ra,-752 # a004 <tdat2>
    82fc:	0040a703          	lw	a4,4(ra)
    8300:	00070313          	mv	t1,a4
    8304:	0ff013b7          	lui	t2,0xff01
    8308:	ff038393          	add	t2,t2,-16 # ff00ff0 <_end+0xfef6fe0>
    830c:	14731663          	bne	t1,t2,8458 <fail>
    8310:	00120213          	add	tp,tp,1 # 1 <_start-0x7fff>
    8314:	00200293          	li	t0,2
    8318:	fc521ee3          	bne	tp,t0,82f4 <test_12+0x8>

0000831c <test_13>:
    831c:	00d00193          	li	gp,13
    8320:	00000213          	li	tp,0
    8324:	00002097          	auipc	ra,0x2
    8328:	ce408093          	add	ra,ra,-796 # a008 <tdat3>
    832c:	0040a703          	lw	a4,4(ra)
    8330:	00000013          	nop
    8334:	00070313          	mv	t1,a4
    8338:	f00ff3b7          	lui	t2,0xf00ff
    833c:	00f38393          	add	t2,t2,15 # f00ff00f <_end+0xf00f4fff>
    8340:	10731c63          	bne	t1,t2,8458 <fail>
    8344:	00120213          	add	tp,tp,1 # 1 <_start-0x7fff>
    8348:	00200293          	li	t0,2
    834c:	fc521ce3          	bne	tp,t0,8324 <test_13+0x8>

00008350 <test_14>:
    8350:	00e00193          	li	gp,14
    8354:	00000213          	li	tp,0
    8358:	00002097          	auipc	ra,0x2
    835c:	ca808093          	add	ra,ra,-856 # a000 <begin_signature>
    8360:	0040a703          	lw	a4,4(ra)
    8364:	00000013          	nop
    8368:	00000013          	nop
    836c:	00070313          	mv	t1,a4
    8370:	ff0103b7          	lui	t2,0xff010
    8374:	f0038393          	add	t2,t2,-256 # ff00ff00 <_end+0xff005ef0>
    8378:	0e731063          	bne	t1,t2,8458 <fail>
    837c:	00120213          	add	tp,tp,1 # 1 <_start-0x7fff>
    8380:	00200293          	li	t0,2
    8384:	fc521ae3          	bne	tp,t0,8358 <test_14+0x8>

00008388 <test_15>:
    8388:	00f00193          	li	gp,15
    838c:	00000213          	li	tp,0
    8390:	00002097          	auipc	ra,0x2
    8394:	c7408093          	add	ra,ra,-908 # a004 <tdat2>
    8398:	0040a703          	lw	a4,4(ra)
    839c:	0ff013b7          	lui	t2,0xff01
    83a0:	ff038393          	add	t2,t2,-16 # ff00ff0 <_end+0xfef6fe0>
    83a4:	0a771a63          	bne	a4,t2,8458 <fail>
    83a8:	00120213          	add	tp,tp,1 # 1 <_start-0x7fff>
    83ac:	00200293          	li	t0,2
    83b0:	fe5210e3          	bne	tp,t0,8390 <test_15+0x8>

000083b4 <test_16>:
    83b4:	01000193          	li	gp,16
    83b8:	00000213          	li	tp,0
    83bc:	00002097          	auipc	ra,0x2
    83c0:	c4c08093          	add	ra,ra,-948 # a008 <tdat3>
    83c4:	00000013          	nop
    83c8:	0040a703          	lw	a4,4(ra)
    83cc:	f00ff3b7          	lui	t2,0xf00ff
    83d0:	00f38393          	add	t2,t2,15 # f00ff00f <_end+0xf00f4fff>
    83d4:	08771263          	bne	a4,t2,8458 <fail>
    83d8:	00120213          	add	tp,tp,1 # 1 <_start-0x7fff>
    83dc:	00200293          	li	t0,2
    83e0:	fc521ee3          	bne	tp,t0,83bc <test_16+0x8>

000083e4 <test_17>:
    83e4:	01100193          	li	gp,17
    83e8:	00000213          	li	tp,0
    83ec:	00002097          	auipc	ra,0x2
    83f0:	c1408093          	add	ra,ra,-1004 # a000 <begin_signature>
    83f4:	00000013          	nop
    83f8:	00000013          	nop
    83fc:	0040a703          	lw	a4,4(ra)
    8400:	ff0103b7          	lui	t2,0xff010
    8404:	f0038393          	add	t2,t2,-256 # ff00ff00 <_end+0xff005ef0>
    8408:	04771863          	bne	a4,t2,8458 <fail>
    840c:	00120213          	add	tp,tp,1 # 1 <_start-0x7fff>
    8410:	00200293          	li	t0,2
    8414:	fc521ce3          	bne	tp,t0,83ec <test_17+0x8>

00008418 <test_18>:
    8418:	01200193          	li	gp,18
    841c:	00002297          	auipc	t0,0x2
    8420:	be428293          	add	t0,t0,-1052 # a000 <begin_signature>
    8424:	0002a103          	lw	sp,0(t0)
    8428:	00200113          	li	sp,2
    842c:	00200393          	li	t2,2
    8430:	02711463          	bne	sp,t2,8458 <fail>

00008434 <test_19>:
    8434:	01300193          	li	gp,19
    8438:	00002297          	auipc	t0,0x2
    843c:	bc828293          	add	t0,t0,-1080 # a000 <begin_signature>
    8440:	0002a103          	lw	sp,0(t0)
    8444:	00000013          	nop
    8448:	00200113          	li	sp,2
    844c:	00200393          	li	t2,2
    8450:	00711463          	bne	sp,t2,8458 <fail>
    8454:	02301063          	bne	zero,gp,8474 <pass>

00008458 <fail>:
    8458:	0ff0000f          	fence
    845c:	00018063          	beqz	gp,845c <fail+0x4>
    8460:	00119193          	sll	gp,gp,0x1
    8464:	0011e193          	or	gp,gp,1
    8468:	05d00893          	li	a7,93
    846c:	00018513          	mv	a0,gp
    8470:	00000073          	ecall

00008474 <pass>:
    8474:	0ff0000f          	fence
    8478:	00100193          	li	gp,1
    847c:	05d00893          	li	a7,93
    8480:	00000513          	li	a0,0
    8484:	00000073          	ecall
    8488:	c0001073          	unimp
	...
