
./rv32ui-p-srli:     file format elf32-littleriscv


Disassembly of section .text.init:

00008000 <_start>:
    8000:	0500006f          	j	8050 <reset_vector>

00008004 <trap_vector>:
    8004:	34202f73          	csrr	t5,mcause
    8008:	00800f93          	li	t6,8
    800c:	03ff0863          	beq	t5,t6,803c <write_tohost>
    8010:	00900f93          	li	t6,9
    8014:	03ff0463          	beq	t5,t6,803c <write_tohost>
    8018:	00b00f93          	li	t6,11
    801c:	03ff0063          	beq	t5,t6,803c <write_tohost>
    8020:	00000f13          	li	t5,0
    8024:	000f0463          	beqz	t5,802c <trap_vector+0x28>
    8028:	000f0067          	jr	t5
    802c:	34202f73          	csrr	t5,mcause
    8030:	000f5463          	bgez	t5,8038 <handle_exception>
    8034:	0040006f          	j	8038 <handle_exception>

00008038 <handle_exception>:
    8038:	5391e193          	ori	gp,gp,1337

0000803c <write_tohost>:
    803c:	00001f17          	auipc	t5,0x1
    8040:	fc3f2223          	sw	gp,-60(t5) # 9000 <tohost>
    8044:	00001f17          	auipc	t5,0x1
    8048:	fc0f2023          	sw	zero,-64(t5) # 9004 <tohost+0x4>
    804c:	ff1ff06f          	j	803c <write_tohost>

00008050 <reset_vector>:
    8050:	00000093          	li	ra,0
    8054:	00000113          	li	sp,0
    8058:	00000193          	li	gp,0
    805c:	00000213          	li	tp,0
    8060:	00000293          	li	t0,0
    8064:	00000313          	li	t1,0
    8068:	00000393          	li	t2,0
    806c:	00000413          	li	s0,0
    8070:	00000493          	li	s1,0
    8074:	00000513          	li	a0,0
    8078:	00000593          	li	a1,0
    807c:	00000613          	li	a2,0
    8080:	00000693          	li	a3,0
    8084:	00000713          	li	a4,0
    8088:	00000793          	li	a5,0
    808c:	00000813          	li	a6,0
    8090:	00000893          	li	a7,0
    8094:	00000913          	li	s2,0
    8098:	00000993          	li	s3,0
    809c:	00000a13          	li	s4,0
    80a0:	00000a93          	li	s5,0
    80a4:	00000b13          	li	s6,0
    80a8:	00000b93          	li	s7,0
    80ac:	00000c13          	li	s8,0
    80b0:	00000c93          	li	s9,0
    80b4:	00000d13          	li	s10,0
    80b8:	00000d93          	li	s11,0
    80bc:	00000e13          	li	t3,0
    80c0:	00000e93          	li	t4,0
    80c4:	00000f13          	li	t5,0
    80c8:	00000f93          	li	t6,0
    80cc:	f1402573          	csrr	a0,mhartid
    80d0:	00051063          	bnez	a0,80d0 <reset_vector+0x80>
    80d4:	00000297          	auipc	t0,0x0
    80d8:	01028293          	addi	t0,t0,16 # 80e4 <reset_vector+0x94>
    80dc:	30529073          	csrw	mtvec,t0
    80e0:	74445073          	csrwi	0x744,8
    80e4:	00000297          	auipc	t0,0x0
    80e8:	01028293          	addi	t0,t0,16 # 80f4 <reset_vector+0xa4>
    80ec:	30529073          	csrw	mtvec,t0
    80f0:	18005073          	csrwi	satp,0
    80f4:	00000297          	auipc	t0,0x0
    80f8:	02028293          	addi	t0,t0,32 # 8114 <reset_vector+0xc4>
    80fc:	30529073          	csrw	mtvec,t0
    8100:	800002b7          	lui	t0,0x80000
    8104:	fff28293          	addi	t0,t0,-1 # 7fffffff <_end+0x7fff5fff>
    8108:	3b029073          	csrw	pmpaddr0,t0
    810c:	01f00293          	li	t0,31
    8110:	3a029073          	csrw	pmpcfg0,t0
    8114:	30405073          	csrwi	mie,0
    8118:	00000297          	auipc	t0,0x0
    811c:	01428293          	addi	t0,t0,20 # 812c <reset_vector+0xdc>
    8120:	30529073          	csrw	mtvec,t0
    8124:	30205073          	csrwi	medeleg,0
    8128:	30305073          	csrwi	mideleg,0
    812c:	00000193          	li	gp,0
    8130:	00000297          	auipc	t0,0x0
    8134:	ed428293          	addi	t0,t0,-300 # 8004 <trap_vector>
    8138:	30529073          	csrw	mtvec,t0
    813c:	00100513          	li	a0,1
    8140:	01f51513          	slli	a0,a0,0x1f
    8144:	00054c63          	bltz	a0,815c <reset_vector+0x10c>
    8148:	0ff0000f          	fence
    814c:	00100193          	li	gp,1
    8150:	05d00893          	li	a7,93
    8154:	00000513          	li	a0,0
    8158:	00000073          	ecall
    815c:	00000293          	li	t0,0
    8160:	00028a63          	beqz	t0,8174 <reset_vector+0x124>
    8164:	10529073          	csrw	stvec,t0
    8168:	0000b2b7          	lui	t0,0xb
    816c:	10928293          	addi	t0,t0,265 # b109 <_end+0x1109>
    8170:	30229073          	csrw	medeleg,t0
    8174:	30005073          	csrwi	mstatus,0
    8178:	00000297          	auipc	t0,0x0
    817c:	01428293          	addi	t0,t0,20 # 818c <test_2>
    8180:	34129073          	csrw	mepc,t0
    8184:	f1402573          	csrr	a0,mhartid
    8188:	30200073          	mret

0000818c <test_2>:
    818c:	00200193          	li	gp,2
    8190:	800000b7          	lui	ra,0x80000
    8194:	0000d713          	srli	a4,ra,0x0
    8198:	800003b7          	lui	t2,0x80000
    819c:	28771863          	bne	a4,t2,842c <fail>

000081a0 <test_3>:
    81a0:	00300193          	li	gp,3
    81a4:	800000b7          	lui	ra,0x80000
    81a8:	0010d713          	srli	a4,ra,0x1
    81ac:	400003b7          	lui	t2,0x40000
    81b0:	26771e63          	bne	a4,t2,842c <fail>

000081b4 <test_4>:
    81b4:	00400193          	li	gp,4
    81b8:	800000b7          	lui	ra,0x80000
    81bc:	0070d713          	srli	a4,ra,0x7
    81c0:	010003b7          	lui	t2,0x1000
    81c4:	26771463          	bne	a4,t2,842c <fail>

000081c8 <test_5>:
    81c8:	00500193          	li	gp,5
    81cc:	800000b7          	lui	ra,0x80000
    81d0:	00e0d713          	srli	a4,ra,0xe
    81d4:	000203b7          	lui	t2,0x20
    81d8:	24771a63          	bne	a4,t2,842c <fail>

000081dc <test_6>:
    81dc:	00600193          	li	gp,6
    81e0:	800000b7          	lui	ra,0x80000
    81e4:	00108093          	addi	ra,ra,1 # 80000001 <_end+0x7fff6001>
    81e8:	01f0d713          	srli	a4,ra,0x1f
    81ec:	00100393          	li	t2,1
    81f0:	22771e63          	bne	a4,t2,842c <fail>

000081f4 <test_7>:
    81f4:	00700193          	li	gp,7
    81f8:	fff00093          	li	ra,-1
    81fc:	0000d713          	srli	a4,ra,0x0
    8200:	fff00393          	li	t2,-1
    8204:	22771463          	bne	a4,t2,842c <fail>

00008208 <test_8>:
    8208:	00800193          	li	gp,8
    820c:	fff00093          	li	ra,-1
    8210:	0010d713          	srli	a4,ra,0x1
    8214:	800003b7          	lui	t2,0x80000
    8218:	fff38393          	addi	t2,t2,-1 # 7fffffff <_end+0x7fff5fff>
    821c:	20771863          	bne	a4,t2,842c <fail>

00008220 <test_9>:
    8220:	00900193          	li	gp,9
    8224:	fff00093          	li	ra,-1
    8228:	0070d713          	srli	a4,ra,0x7
    822c:	020003b7          	lui	t2,0x2000
    8230:	fff38393          	addi	t2,t2,-1 # 1ffffff <_end+0x1ff5fff>
    8234:	1e771c63          	bne	a4,t2,842c <fail>

00008238 <test_10>:
    8238:	00a00193          	li	gp,10
    823c:	fff00093          	li	ra,-1
    8240:	00e0d713          	srli	a4,ra,0xe
    8244:	000403b7          	lui	t2,0x40
    8248:	fff38393          	addi	t2,t2,-1 # 3ffff <_end+0x35fff>
    824c:	1e771063          	bne	a4,t2,842c <fail>

00008250 <test_11>:
    8250:	00b00193          	li	gp,11
    8254:	fff00093          	li	ra,-1
    8258:	01f0d713          	srli	a4,ra,0x1f
    825c:	00100393          	li	t2,1
    8260:	1c771663          	bne	a4,t2,842c <fail>

00008264 <test_12>:
    8264:	00c00193          	li	gp,12
    8268:	212120b7          	lui	ra,0x21212
    826c:	12108093          	addi	ra,ra,289 # 21212121 <_end+0x21208121>
    8270:	0000d713          	srli	a4,ra,0x0
    8274:	212123b7          	lui	t2,0x21212
    8278:	12138393          	addi	t2,t2,289 # 21212121 <_end+0x21208121>
    827c:	1a771863          	bne	a4,t2,842c <fail>

00008280 <test_13>:
    8280:	00d00193          	li	gp,13
    8284:	212120b7          	lui	ra,0x21212
    8288:	12108093          	addi	ra,ra,289 # 21212121 <_end+0x21208121>
    828c:	0010d713          	srli	a4,ra,0x1
    8290:	109093b7          	lui	t2,0x10909
    8294:	09038393          	addi	t2,t2,144 # 10909090 <_end+0x108ff090>
    8298:	18771a63          	bne	a4,t2,842c <fail>

0000829c <test_14>:
    829c:	00e00193          	li	gp,14
    82a0:	212120b7          	lui	ra,0x21212
    82a4:	12108093          	addi	ra,ra,289 # 21212121 <_end+0x21208121>
    82a8:	0070d713          	srli	a4,ra,0x7
    82ac:	004243b7          	lui	t2,0x424
    82b0:	24238393          	addi	t2,t2,578 # 424242 <_end+0x41a242>
    82b4:	16771c63          	bne	a4,t2,842c <fail>

000082b8 <test_15>:
    82b8:	00f00193          	li	gp,15
    82bc:	212120b7          	lui	ra,0x21212
    82c0:	12108093          	addi	ra,ra,289 # 21212121 <_end+0x21208121>
    82c4:	00e0d713          	srli	a4,ra,0xe
    82c8:	000083b7          	lui	t2,0x8
    82cc:	48438393          	addi	t2,t2,1156 # 8484 <pass+0x3c>
    82d0:	14771e63          	bne	a4,t2,842c <fail>

000082d4 <test_16>:
    82d4:	01000193          	li	gp,16
    82d8:	212120b7          	lui	ra,0x21212
    82dc:	12108093          	addi	ra,ra,289 # 21212121 <_end+0x21208121>
    82e0:	01f0d713          	srli	a4,ra,0x1f
    82e4:	00000393          	li	t2,0
    82e8:	14771263          	bne	a4,t2,842c <fail>

000082ec <test_17>:
    82ec:	01100193          	li	gp,17
    82f0:	800000b7          	lui	ra,0x80000
    82f4:	0070d093          	srli	ra,ra,0x7
    82f8:	010003b7          	lui	t2,0x1000
    82fc:	12709863          	bne	ra,t2,842c <fail>

00008300 <test_18>:
    8300:	01200193          	li	gp,18
    8304:	00000213          	li	tp,0
    8308:	800000b7          	lui	ra,0x80000
    830c:	0070d713          	srli	a4,ra,0x7
    8310:	00070313          	mv	t1,a4
    8314:	00120213          	addi	tp,tp,1 # 1 <_start-0x7fff>
    8318:	00200293          	li	t0,2
    831c:	fe5216e3          	bne	tp,t0,8308 <test_18+0x8>
    8320:	010003b7          	lui	t2,0x1000
    8324:	10731463          	bne	t1,t2,842c <fail>

00008328 <test_19>:
    8328:	01300193          	li	gp,19
    832c:	00000213          	li	tp,0
    8330:	800000b7          	lui	ra,0x80000
    8334:	00e0d713          	srli	a4,ra,0xe
    8338:	00000013          	nop
    833c:	00070313          	mv	t1,a4
    8340:	00120213          	addi	tp,tp,1 # 1 <_start-0x7fff>
    8344:	00200293          	li	t0,2
    8348:	fe5214e3          	bne	tp,t0,8330 <test_19+0x8>
    834c:	000203b7          	lui	t2,0x20
    8350:	0c731e63          	bne	t1,t2,842c <fail>

00008354 <test_20>:
    8354:	01400193          	li	gp,20
    8358:	00000213          	li	tp,0
    835c:	800000b7          	lui	ra,0x80000
    8360:	00108093          	addi	ra,ra,1 # 80000001 <_end+0x7fff6001>
    8364:	01f0d713          	srli	a4,ra,0x1f
    8368:	00000013          	nop
    836c:	00000013          	nop
    8370:	00070313          	mv	t1,a4
    8374:	00120213          	addi	tp,tp,1 # 1 <_start-0x7fff>
    8378:	00200293          	li	t0,2
    837c:	fe5210e3          	bne	tp,t0,835c <test_20+0x8>
    8380:	00100393          	li	t2,1
    8384:	0a731463          	bne	t1,t2,842c <fail>

00008388 <test_21>:
    8388:	01500193          	li	gp,21
    838c:	00000213          	li	tp,0
    8390:	800000b7          	lui	ra,0x80000
    8394:	0070d713          	srli	a4,ra,0x7
    8398:	00120213          	addi	tp,tp,1 # 1 <_start-0x7fff>
    839c:	00200293          	li	t0,2
    83a0:	fe5218e3          	bne	tp,t0,8390 <test_21+0x8>
    83a4:	010003b7          	lui	t2,0x1000
    83a8:	08771263          	bne	a4,t2,842c <fail>

000083ac <test_22>:
    83ac:	01600193          	li	gp,22
    83b0:	00000213          	li	tp,0
    83b4:	800000b7          	lui	ra,0x80000
    83b8:	00000013          	nop
    83bc:	00e0d713          	srli	a4,ra,0xe
    83c0:	00120213          	addi	tp,tp,1 # 1 <_start-0x7fff>
    83c4:	00200293          	li	t0,2
    83c8:	fe5216e3          	bne	tp,t0,83b4 <test_22+0x8>
    83cc:	000203b7          	lui	t2,0x20
    83d0:	04771e63          	bne	a4,t2,842c <fail>

000083d4 <test_23>:
    83d4:	01700193          	li	gp,23
    83d8:	00000213          	li	tp,0
    83dc:	800000b7          	lui	ra,0x80000
    83e0:	00108093          	addi	ra,ra,1 # 80000001 <_end+0x7fff6001>
    83e4:	00000013          	nop
    83e8:	00000013          	nop
    83ec:	01f0d713          	srli	a4,ra,0x1f
    83f0:	00120213          	addi	tp,tp,1 # 1 <_start-0x7fff>
    83f4:	00200293          	li	t0,2
    83f8:	fe5212e3          	bne	tp,t0,83dc <test_23+0x8>
    83fc:	00100393          	li	t2,1
    8400:	02771663          	bne	a4,t2,842c <fail>

00008404 <test_24>:
    8404:	01800193          	li	gp,24
    8408:	00405093          	srli	ra,zero,0x4
    840c:	00000393          	li	t2,0
    8410:	00709e63          	bne	ra,t2,842c <fail>

00008414 <test_25>:
    8414:	01900193          	li	gp,25
    8418:	02100093          	li	ra,33
    841c:	00a0d013          	srli	zero,ra,0xa
    8420:	00000393          	li	t2,0
    8424:	00701463          	bne	zero,t2,842c <fail>
    8428:	02301063          	bne	zero,gp,8448 <pass>

0000842c <fail>:
    842c:	0ff0000f          	fence
    8430:	00018063          	beqz	gp,8430 <fail+0x4>
    8434:	00119193          	slli	gp,gp,0x1
    8438:	0011e193          	ori	gp,gp,1
    843c:	05d00893          	li	a7,93
    8440:	00018513          	mv	a0,gp
    8444:	00000073          	ecall

00008448 <pass>:
    8448:	0ff0000f          	fence
    844c:	00100193          	li	gp,1
    8450:	05d00893          	li	a7,93
    8454:	00000513          	li	a0,0
    8458:	00000073          	ecall
    845c:	c0001073          	unimp
	...
