
./rv32ui-p-ma_data:     file format elf32-littleriscv


Disassembly of section .text.init:

00008000 <_start>:
    8000:	0500006f          	j	8050 <reset_vector>

00008004 <trap_vector>:
    8004:	34202f73          	csrr	t5,mcause
    8008:	00800f93          	li	t6,8
    800c:	03ff0863          	beq	t5,t6,803c <write_tohost>
    8010:	00900f93          	li	t6,9
    8014:	03ff0463          	beq	t5,t6,803c <write_tohost>
    8018:	00b00f93          	li	t6,11
    801c:	03ff0063          	beq	t5,t6,803c <write_tohost>
    8020:	00000f13          	li	t5,0
    8024:	000f0463          	beqz	t5,802c <trap_vector+0x28>
    8028:	000f0067          	jr	t5
    802c:	34202f73          	csrr	t5,mcause
    8030:	000f5463          	bgez	t5,8038 <handle_exception>
    8034:	0040006f          	j	8038 <handle_exception>

00008038 <handle_exception>:
    8038:	5391e193          	or	gp,gp,1337

0000803c <write_tohost>:
    803c:	00001f17          	auipc	t5,0x1
    8040:	fc3f2223          	sw	gp,-60(t5) # 9000 <tohost>
    8044:	00001f17          	auipc	t5,0x1
    8048:	fc0f2023          	sw	zero,-64(t5) # 9004 <tohost+0x4>
    804c:	ff1ff06f          	j	803c <write_tohost>

00008050 <reset_vector>:
    8050:	00000093          	li	ra,0
    8054:	00000113          	li	sp,0
    8058:	00000193          	li	gp,0
    805c:	00000213          	li	tp,0
    8060:	00000293          	li	t0,0
    8064:	00000313          	li	t1,0
    8068:	00000393          	li	t2,0
    806c:	00000413          	li	s0,0
    8070:	00000493          	li	s1,0
    8074:	00000513          	li	a0,0
    8078:	00000593          	li	a1,0
    807c:	00000613          	li	a2,0
    8080:	00000693          	li	a3,0
    8084:	00000713          	li	a4,0
    8088:	00000793          	li	a5,0
    808c:	00000813          	li	a6,0
    8090:	00000893          	li	a7,0
    8094:	00000913          	li	s2,0
    8098:	00000993          	li	s3,0
    809c:	00000a13          	li	s4,0
    80a0:	00000a93          	li	s5,0
    80a4:	00000b13          	li	s6,0
    80a8:	00000b93          	li	s7,0
    80ac:	00000c13          	li	s8,0
    80b0:	00000c93          	li	s9,0
    80b4:	00000d13          	li	s10,0
    80b8:	00000d93          	li	s11,0
    80bc:	00000e13          	li	t3,0
    80c0:	00000e93          	li	t4,0
    80c4:	00000f13          	li	t5,0
    80c8:	00000f93          	li	t6,0
    80cc:	f1402573          	csrr	a0,mhartid
    80d0:	00051063          	bnez	a0,80d0 <reset_vector+0x80>
    80d4:	00000297          	auipc	t0,0x0
    80d8:	01028293          	add	t0,t0,16 # 80e4 <reset_vector+0x94>
    80dc:	30529073          	csrw	mtvec,t0
    80e0:	74445073          	csrw	0x744,8
    80e4:	00000297          	auipc	t0,0x0
    80e8:	01028293          	add	t0,t0,16 # 80f4 <reset_vector+0xa4>
    80ec:	30529073          	csrw	mtvec,t0
    80f0:	18005073          	csrw	satp,0
    80f4:	00000297          	auipc	t0,0x0
    80f8:	02028293          	add	t0,t0,32 # 8114 <reset_vector+0xc4>
    80fc:	30529073          	csrw	mtvec,t0
    8100:	800002b7          	lui	t0,0x80000
    8104:	fff28293          	add	t0,t0,-1 # 7fffffff <_end+0x7fff5e7f>
    8108:	3b029073          	csrw	pmpaddr0,t0
    810c:	01f00293          	li	t0,31
    8110:	3a029073          	csrw	pmpcfg0,t0
    8114:	30405073          	csrw	mie,0
    8118:	00000297          	auipc	t0,0x0
    811c:	01428293          	add	t0,t0,20 # 812c <reset_vector+0xdc>
    8120:	30529073          	csrw	mtvec,t0
    8124:	30205073          	csrw	medeleg,0
    8128:	30305073          	csrw	mideleg,0
    812c:	00000193          	li	gp,0
    8130:	00000297          	auipc	t0,0x0
    8134:	ed428293          	add	t0,t0,-300 # 8004 <trap_vector>
    8138:	30529073          	csrw	mtvec,t0
    813c:	00100513          	li	a0,1
    8140:	01f51513          	sll	a0,a0,0x1f
    8144:	00054c63          	bltz	a0,815c <reset_vector+0x10c>
    8148:	0ff0000f          	fence
    814c:	00100193          	li	gp,1
    8150:	05d00893          	li	a7,93
    8154:	00000513          	li	a0,0
    8158:	00000073          	ecall
    815c:	00000293          	li	t0,0
    8160:	00028a63          	beqz	t0,8174 <reset_vector+0x124>
    8164:	10529073          	csrw	stvec,t0
    8168:	0000b2b7          	lui	t0,0xb
    816c:	10928293          	add	t0,t0,265 # b109 <_end+0xf89>
    8170:	30229073          	csrw	medeleg,t0
    8174:	30005073          	csrw	mstatus,0
    8178:	00000297          	auipc	t0,0x0
    817c:	01428293          	add	t0,t0,20 # 818c <reset_vector+0x13c>
    8180:	34129073          	csrw	mepc,t0
    8184:	f1402573          	csrr	a0,mhartid
    8188:	30200073          	mret
    818c:	00002417          	auipc	s0,0x2
    8190:	e7440413          	add	s0,s0,-396 # a000 <begin_signature>
    8194:	00100193          	li	gp,1
    8198:	20100313          	li	t1,513
    819c:	00141383          	lh	t2,1(s0)
    81a0:	52731c63          	bne	t1,t2,86d8 <fail>
    81a4:	00200193          	li	gp,2
    81a8:	20100313          	li	t1,513
    81ac:	00145383          	lhu	t2,1(s0)
    81b0:	52731463          	bne	t1,t2,86d8 <fail>
    81b4:	00300193          	li	gp,3
    81b8:	04030337          	lui	t1,0x4030
    81bc:	20130313          	add	t1,t1,513 # 4030201 <_end+0x4026081>
    81c0:	00142383          	lw	t2,1(s0)
    81c4:	50731a63          	bne	t1,t2,86d8 <fail>
    81c8:	00400193          	li	gp,4
    81cc:	05040337          	lui	t1,0x5040
    81d0:	30230313          	add	t1,t1,770 # 5040302 <_end+0x5036182>
    81d4:	00242383          	lw	t2,2(s0)
    81d8:	50731063          	bne	t1,t2,86d8 <fail>
    81dc:	00500193          	li	gp,5
    81e0:	06050337          	lui	t1,0x6050
    81e4:	40330313          	add	t1,t1,1027 # 6050403 <_end+0x6046283>
    81e8:	00342383          	lw	t2,3(s0)
    81ec:	4e731663          	bne	t1,t2,86d8 <fail>
    81f0:	01000193          	li	gp,16
    81f4:	00002337          	lui	t1,0x2
    81f8:	01f30313          	add	t1,t1,31 # 201f <_start-0x5fe1>
    81fc:	01f41383          	lh	t2,31(s0)
    8200:	4c731c63          	bne	t1,t2,86d8 <fail>
    8204:	01100193          	li	gp,17
    8208:	00002337          	lui	t1,0x2
    820c:	01f30313          	add	t1,t1,31 # 201f <_start-0x5fe1>
    8210:	01f45383          	lhu	t2,31(s0)
    8214:	4c731263          	bne	t1,t2,86d8 <fail>
    8218:	01200193          	li	gp,18
    821c:	201f2337          	lui	t1,0x201f2
    8220:	e1d30313          	add	t1,t1,-483 # 201f1e1d <_end+0x201e7c9d>
    8224:	01d42383          	lw	t2,29(s0)
    8228:	4a731863          	bne	t1,t2,86d8 <fail>
    822c:	01300193          	li	gp,19
    8230:	21202337          	lui	t1,0x21202
    8234:	f1e30313          	add	t1,t1,-226 # 21201f1e <_end+0x211f7d9e>
    8238:	01e42383          	lw	t2,30(s0)
    823c:	48731e63          	bne	t1,t2,86d8 <fail>
    8240:	01400193          	li	gp,20
    8244:	22212337          	lui	t1,0x22212
    8248:	01f30313          	add	t1,t1,31 # 2221201f <_end+0x22207e9f>
    824c:	01f42383          	lw	t2,31(s0)
    8250:	48731463          	bne	t1,t2,86d8 <fail>
    8254:	01f00193          	li	gp,31
    8258:	00004337          	lui	t1,0x4
    825c:	03f30313          	add	t1,t1,63 # 403f <_start-0x3fc1>
    8260:	03f41383          	lh	t2,63(s0)
    8264:	46731a63          	bne	t1,t2,86d8 <fail>
    8268:	02000193          	li	gp,32
    826c:	00004337          	lui	t1,0x4
    8270:	03f30313          	add	t1,t1,63 # 403f <_start-0x3fc1>
    8274:	03f45383          	lhu	t2,63(s0)
    8278:	46731063          	bne	t1,t2,86d8 <fail>
    827c:	02100193          	li	gp,33
    8280:	403f4337          	lui	t1,0x403f4
    8284:	e3d30313          	add	t1,t1,-451 # 403f3e3d <_end+0x403e9cbd>
    8288:	03d42383          	lw	t2,61(s0)
    828c:	44731663          	bne	t1,t2,86d8 <fail>
    8290:	02200193          	li	gp,34
    8294:	41404337          	lui	t1,0x41404
    8298:	f3e30313          	add	t1,t1,-194 # 41403f3e <_end+0x413f9dbe>
    829c:	03e42383          	lw	t2,62(s0)
    82a0:	42731c63          	bne	t1,t2,86d8 <fail>
    82a4:	02300193          	li	gp,35
    82a8:	42414337          	lui	t1,0x42414
    82ac:	03f30313          	add	t1,t1,63 # 4241403f <_end+0x42409ebf>
    82b0:	03f42383          	lw	t2,63(s0)
    82b4:	42731263          	bne	t1,t2,86d8 <fail>
    82b8:	02e00193          	li	gp,46
    82bc:	ffff8337          	lui	t1,0xffff8
    82c0:	18030313          	add	t1,t1,384 # ffff8180 <_end+0xfffee000>
    82c4:	006410a3          	sh	t1,1(s0)
    82c8:	00141383          	lh	t2,1(s0)
    82cc:	40731663          	bne	t1,t2,86d8 <fail>
    82d0:	02f00193          	li	gp,47
    82d4:	00008337          	lui	t1,0x8
    82d8:	38230313          	add	t1,t1,898 # 8382 <reset_vector+0x332>
    82dc:	006410a3          	sh	t1,1(s0)
    82e0:	00145383          	lhu	t2,1(s0)
    82e4:	3e731a63          	bne	t1,t2,86d8 <fail>
    82e8:	03000193          	li	gp,48
    82ec:	87868337          	lui	t1,0x87868
    82f0:	58430313          	add	t1,t1,1412 # 87868584 <_end+0x8785e404>
    82f4:	006420a3          	sw	t1,1(s0)
    82f8:	00142383          	lw	t2,1(s0)
    82fc:	3c731e63          	bne	t1,t2,86d8 <fail>
    8300:	03100193          	li	gp,49
    8304:	8b8a9337          	lui	t1,0x8b8a9
    8308:	98830313          	add	t1,t1,-1656 # 8b8a8988 <_end+0x8b89e808>
    830c:	00642123          	sw	t1,2(s0)
    8310:	00242383          	lw	t2,2(s0)
    8314:	3c731263          	bne	t1,t2,86d8 <fail>
    8318:	03200193          	li	gp,50
    831c:	8f8e9337          	lui	t1,0x8f8e9
    8320:	d8c30313          	add	t1,t1,-628 # 8f8e8d8c <_end+0x8f8dec0c>
    8324:	006421a3          	sw	t1,3(s0)
    8328:	00342383          	lw	t2,3(s0)
    832c:	3a731663          	bne	t1,t2,86d8 <fail>
    8330:	03d00193          	li	gp,61
    8334:	ffffd337          	lui	t1,0xffffd
    8338:	5d430313          	add	t1,t1,1492 # ffffd5d4 <_end+0xffff3454>
    833c:	00641fa3          	sh	t1,31(s0)
    8340:	01f41383          	lh	t2,31(s0)
    8344:	38731a63          	bne	t1,t2,86d8 <fail>
    8348:	03e00193          	li	gp,62
    834c:	0000d337          	lui	t1,0xd
    8350:	7d630313          	add	t1,t1,2006 # d7d6 <_end+0x3656>
    8354:	00641fa3          	sh	t1,31(s0)
    8358:	01f45383          	lhu	t2,31(s0)
    835c:	36731e63          	bne	t1,t2,86d8 <fail>
    8360:	03f00193          	li	gp,63
    8364:	dbdae337          	lui	t1,0xdbdae
    8368:	9d830313          	add	t1,t1,-1576 # dbdad9d8 <_end+0xdbda3858>
    836c:	00642ea3          	sw	t1,29(s0)
    8370:	01d42383          	lw	t2,29(s0)
    8374:	36731263          	bne	t1,t2,86d8 <fail>
    8378:	04000193          	li	gp,64
    837c:	dfdee337          	lui	t1,0xdfdee
    8380:	ddc30313          	add	t1,t1,-548 # dfdedddc <_end+0xdfde3c5c>
    8384:	00642f23          	sw	t1,30(s0)
    8388:	01e42383          	lw	t2,30(s0)
    838c:	34731663          	bne	t1,t2,86d8 <fail>
    8390:	04100193          	li	gp,65
    8394:	e3e2e337          	lui	t1,0xe3e2e
    8398:	1e030313          	add	t1,t1,480 # e3e2e1e0 <_end+0xe3e24060>
    839c:	00642fa3          	sw	t1,31(s0)
    83a0:	01f42383          	lw	t2,31(s0)
    83a4:	32731a63          	bne	t1,t2,86d8 <fail>
    83a8:	04c00193          	li	gp,76
    83ac:	00003337          	lui	t1,0x3
    83b0:	53430313          	add	t1,t1,1332 # 3534 <_start-0x4acc>
    83b4:	02641fa3          	sh	t1,63(s0)
    83b8:	03f41383          	lh	t2,63(s0)
    83bc:	30731e63          	bne	t1,t2,86d8 <fail>
    83c0:	04d00193          	li	gp,77
    83c4:	00003337          	lui	t1,0x3
    83c8:	73630313          	add	t1,t1,1846 # 3736 <_start-0x48ca>
    83cc:	02641fa3          	sh	t1,63(s0)
    83d0:	03f45383          	lhu	t2,63(s0)
    83d4:	30731263          	bne	t1,t2,86d8 <fail>
    83d8:	04e00193          	li	gp,78
    83dc:	3b3a4337          	lui	t1,0x3b3a4
    83e0:	93830313          	add	t1,t1,-1736 # 3b3a3938 <_end+0x3b3997b8>
    83e4:	02642ea3          	sw	t1,61(s0)
    83e8:	03d42383          	lw	t2,61(s0)
    83ec:	2e731663          	bne	t1,t2,86d8 <fail>
    83f0:	04f00193          	li	gp,79
    83f4:	3f3e4337          	lui	t1,0x3f3e4
    83f8:	d3c30313          	add	t1,t1,-708 # 3f3e3d3c <_end+0x3f3d9bbc>
    83fc:	02642f23          	sw	t1,62(s0)
    8400:	03e42383          	lw	t2,62(s0)
    8404:	2c731a63          	bne	t1,t2,86d8 <fail>
    8408:	05000193          	li	gp,80
    840c:	43424337          	lui	t1,0x43424
    8410:	14030313          	add	t1,t1,320 # 43424140 <_end+0x43419fc0>
    8414:	02642fa3          	sw	t1,63(s0)
    8418:	03f42383          	lw	t2,63(s0)
    841c:	2a731e63          	bne	t1,t2,86d8 <fail>
    8420:	05b00193          	li	gp,91
    8424:	0000a337          	lui	t1,0xa
    8428:	99830313          	add	t1,t1,-1640 # 9998 <fromhost+0x958>
    842c:	f9800393          	li	t2,-104
    8430:	006410a3          	sh	t1,1(s0)
    8434:	00140e03          	lb	t3,1(s0)
    8438:	2bc39063          	bne	t2,t3,86d8 <fail>
    843c:	05c00193          	li	gp,92
    8440:	0000a337          	lui	t1,0xa
    8444:	b9a30313          	add	t1,t1,-1126 # 9b9a <fromhost+0xb5a>
    8448:	f9b00393          	li	t2,-101
    844c:	006410a3          	sh	t1,1(s0)
    8450:	00240e03          	lb	t3,2(s0)
    8454:	29c39263          	bne	t2,t3,86d8 <fail>
    8458:	05d00193          	li	gp,93
    845c:	0000a337          	lui	t1,0xa
    8460:	d9c30313          	add	t1,t1,-612 # 9d9c <fromhost+0xd5c>
    8464:	09c00393          	li	t2,156
    8468:	006410a3          	sh	t1,1(s0)
    846c:	00144e03          	lbu	t3,1(s0)
    8470:	27c39463          	bne	t2,t3,86d8 <fail>
    8474:	05e00193          	li	gp,94
    8478:	0000a337          	lui	t1,0xa
    847c:	f9e30313          	add	t1,t1,-98 # 9f9e <fromhost+0xf5e>
    8480:	09f00393          	li	t2,159
    8484:	006410a3          	sh	t1,1(s0)
    8488:	00244e03          	lbu	t3,2(s0)
    848c:	25c39663          	bne	t2,t3,86d8 <fail>
    8490:	05f00193          	li	gp,95
    8494:	a3a2a337          	lui	t1,0xa3a2a
    8498:	1a030313          	add	t1,t1,416 # a3a2a1a0 <_end+0xa3a20020>
    849c:	fa000393          	li	t2,-96
    84a0:	006420a3          	sw	t1,1(s0)
    84a4:	00140e03          	lb	t3,1(s0)
    84a8:	23c39863          	bne	t2,t3,86d8 <fail>
    84ac:	06000193          	li	gp,96
    84b0:	a7a6a337          	lui	t1,0xa7a6a
    84b4:	5a430313          	add	t1,t1,1444 # a7a6a5a4 <_end+0xa7a60424>
    84b8:	0a500393          	li	t2,165
    84bc:	00642123          	sw	t1,2(s0)
    84c0:	00344e03          	lbu	t3,3(s0)
    84c4:	21c39a63          	bne	t2,t3,86d8 <fail>
    84c8:	06100193          	li	gp,97
    84cc:	abaab337          	lui	t1,0xabaab
    84d0:	9a830313          	add	t1,t1,-1624 # abaaa9a8 <_end+0xabaa0828>
    84d4:	ffffb3b7          	lui	t2,0xffffb
    84d8:	aa938393          	add	t2,t2,-1367 # ffffaaa9 <_end+0xffff0929>
    84dc:	006421a3          	sw	t1,3(s0)
    84e0:	00441e03          	lh	t3,4(s0)
    84e4:	1fc39a63          	bne	t2,t3,86d8 <fail>
    84e8:	06200193          	li	gp,98
    84ec:	afaeb337          	lui	t1,0xafaeb
    84f0:	dac30313          	add	t1,t1,-596 # afaeadac <_end+0xafae0c2c>
    84f4:	0000b3b7          	lui	t2,0xb
    84f8:	fae38393          	add	t2,t2,-82 # afae <_end+0xe2e>
    84fc:	006421a3          	sw	t1,3(s0)
    8500:	00545e03          	lhu	t3,5(s0)
    8504:	1dc39a63          	bne	t2,t3,86d8 <fail>
    8508:	06a00193          	li	gp,106
    850c:	0000f337          	lui	t1,0xf
    8510:	9e830313          	add	t1,t1,-1560 # e9e8 <_end+0x4868>
    8514:	fe800393          	li	t2,-24
    8518:	00641fa3          	sh	t1,31(s0)
    851c:	01f40e03          	lb	t3,31(s0)
    8520:	1bc39c63          	bne	t2,t3,86d8 <fail>
    8524:	06b00193          	li	gp,107
    8528:	0000f337          	lui	t1,0xf
    852c:	bea30313          	add	t1,t1,-1046 # ebea <_end+0x4a6a>
    8530:	feb00393          	li	t2,-21
    8534:	00641fa3          	sh	t1,31(s0)
    8538:	02040e03          	lb	t3,32(s0)
    853c:	19c39e63          	bne	t2,t3,86d8 <fail>
    8540:	06c00193          	li	gp,108
    8544:	0000f337          	lui	t1,0xf
    8548:	dec30313          	add	t1,t1,-532 # edec <_end+0x4c6c>
    854c:	0ec00393          	li	t2,236
    8550:	00641fa3          	sh	t1,31(s0)
    8554:	01f44e03          	lbu	t3,31(s0)
    8558:	19c39063          	bne	t2,t3,86d8 <fail>
    855c:	06d00193          	li	gp,109
    8560:	0000f337          	lui	t1,0xf
    8564:	fee30313          	add	t1,t1,-18 # efee <_end+0x4e6e>
    8568:	0ef00393          	li	t2,239
    856c:	00641fa3          	sh	t1,31(s0)
    8570:	02044e03          	lbu	t3,32(s0)
    8574:	17c39263          	bne	t2,t3,86d8 <fail>
    8578:	06e00193          	li	gp,110
    857c:	f3f2f337          	lui	t1,0xf3f2f
    8580:	1f030313          	add	t1,t1,496 # f3f2f1f0 <_end+0xf3f25070>
    8584:	ff000393          	li	t2,-16
    8588:	00642ea3          	sw	t1,29(s0)
    858c:	01d40e03          	lb	t3,29(s0)
    8590:	15c39463          	bne	t2,t3,86d8 <fail>
    8594:	06f00193          	li	gp,111
    8598:	f7f6f337          	lui	t1,0xf7f6f
    859c:	5f430313          	add	t1,t1,1524 # f7f6f5f4 <_end+0xf7f65474>
    85a0:	0f600393          	li	t2,246
    85a4:	00642f23          	sw	t1,30(s0)
    85a8:	02044e03          	lbu	t3,32(s0)
    85ac:	13c39663          	bne	t2,t3,86d8 <fail>
    85b0:	07000193          	li	gp,112
    85b4:	fbfb0337          	lui	t1,0xfbfb0
    85b8:	9f830313          	add	t1,t1,-1544 # fbfaf9f8 <_end+0xfbfa5878>
    85bc:	bfa00393          	li	t2,-1030
    85c0:	00642ea3          	sw	t1,29(s0)
    85c4:	01f41e03          	lh	t3,31(s0)
    85c8:	11c39863          	bne	t2,t3,86d8 <fail>
    85cc:	07100193          	li	gp,113
    85d0:	ffff0337          	lui	t1,0xffff0
    85d4:	dfc30313          	add	t1,t1,-516 # fffefdfc <_end+0xfffe5c7c>
    85d8:	000103b7          	lui	t2,0x10
    85dc:	dfc38393          	add	t2,t2,-516 # fdfc <_end+0x5c7c>
    85e0:	00642fa3          	sw	t1,31(s0)
    85e4:	01f45e03          	lhu	t3,31(s0)
    85e8:	0fc39863          	bne	t2,t3,86d8 <fail>
    85ec:	07900193          	li	gp,121
    85f0:	00005337          	lui	t1,0x5
    85f4:	94830313          	add	t1,t1,-1720 # 4948 <_start-0x36b8>
    85f8:	04800393          	li	t2,72
    85fc:	02641fa3          	sh	t1,63(s0)
    8600:	03f40e03          	lb	t3,63(s0)
    8604:	0dc39a63          	bne	t2,t3,86d8 <fail>
    8608:	07a00193          	li	gp,122
    860c:	00005337          	lui	t1,0x5
    8610:	b4a30313          	add	t1,t1,-1206 # 4b4a <_start-0x34b6>
    8614:	04b00393          	li	t2,75
    8618:	02641fa3          	sh	t1,63(s0)
    861c:	04040e03          	lb	t3,64(s0)
    8620:	0bc39c63          	bne	t2,t3,86d8 <fail>
    8624:	07b00193          	li	gp,123
    8628:	00005337          	lui	t1,0x5
    862c:	d4c30313          	add	t1,t1,-692 # 4d4c <_start-0x32b4>
    8630:	04c00393          	li	t2,76
    8634:	02641fa3          	sh	t1,63(s0)
    8638:	03f44e03          	lbu	t3,63(s0)
    863c:	09c39e63          	bne	t2,t3,86d8 <fail>
    8640:	07c00193          	li	gp,124
    8644:	00005337          	lui	t1,0x5
    8648:	f4e30313          	add	t1,t1,-178 # 4f4e <_start-0x30b2>
    864c:	04f00393          	li	t2,79
    8650:	02641fa3          	sh	t1,63(s0)
    8654:	04044e03          	lbu	t3,64(s0)
    8658:	09c39063          	bne	t2,t3,86d8 <fail>
    865c:	07d00193          	li	gp,125
    8660:	53525337          	lui	t1,0x53525
    8664:	15030313          	add	t1,t1,336 # 53525150 <_end+0x5351afd0>
    8668:	05000393          	li	t2,80
    866c:	02642ea3          	sw	t1,61(s0)
    8670:	03d40e03          	lb	t3,61(s0)
    8674:	07c39263          	bne	t2,t3,86d8 <fail>
    8678:	07e00193          	li	gp,126
    867c:	57565337          	lui	t1,0x57565
    8680:	55430313          	add	t1,t1,1364 # 57565554 <_end+0x5755b3d4>
    8684:	05600393          	li	t2,86
    8688:	02642f23          	sw	t1,62(s0)
    868c:	04044e03          	lbu	t3,64(s0)
    8690:	05c39463          	bne	t2,t3,86d8 <fail>
    8694:	07f00193          	li	gp,127
    8698:	5b5a6337          	lui	t1,0x5b5a6
    869c:	95830313          	add	t1,t1,-1704 # 5b5a5958 <_end+0x5b59b7d8>
    86a0:	000063b7          	lui	t2,0x6
    86a4:	b5a38393          	add	t2,t2,-1190 # 5b5a <_start-0x24a6>
    86a8:	02642ea3          	sw	t1,61(s0)
    86ac:	03f41e03          	lh	t3,63(s0)
    86b0:	03c39463          	bne	t2,t3,86d8 <fail>
    86b4:	08000193          	li	gp,128
    86b8:	5f5e6337          	lui	t1,0x5f5e6
    86bc:	d5c30313          	add	t1,t1,-676 # 5f5e5d5c <_end+0x5f5dbbdc>
    86c0:	000063b7          	lui	t2,0x6
    86c4:	d5c38393          	add	t2,t2,-676 # 5d5c <_start-0x22a4>
    86c8:	02642fa3          	sw	t1,63(s0)
    86cc:	03f45e03          	lhu	t3,63(s0)
    86d0:	01c39463          	bne	t2,t3,86d8 <fail>
    86d4:	02301063          	bne	zero,gp,86f4 <pass>

000086d8 <fail>:
    86d8:	0ff0000f          	fence
    86dc:	00018063          	beqz	gp,86dc <fail+0x4>
    86e0:	00119193          	sll	gp,gp,0x1
    86e4:	0011e193          	or	gp,gp,1
    86e8:	05d00893          	li	a7,93
    86ec:	00018513          	mv	a0,gp
    86f0:	00000073          	ecall

000086f4 <pass>:
    86f4:	0ff0000f          	fence
    86f8:	00100193          	li	gp,1
    86fc:	05d00893          	li	a7,93
    8700:	00000513          	li	a0,0
    8704:	00000073          	ecall
    8708:	c0001073          	unimp
	...
