
./rv32ui-p-sub:     file format elf32-littleriscv


Disassembly of section .text.init:

00008000 <_start>:
    8000:	0500006f          	j	8050 <reset_vector>

00008004 <trap_vector>:
    8004:	34202f73          	csrr	t5,mcause
    8008:	00800f93          	li	t6,8
    800c:	03ff0863          	beq	t5,t6,803c <write_tohost>
    8010:	00900f93          	li	t6,9
    8014:	03ff0463          	beq	t5,t6,803c <write_tohost>
    8018:	00b00f93          	li	t6,11
    801c:	03ff0063          	beq	t5,t6,803c <write_tohost>
    8020:	00000f13          	li	t5,0
    8024:	000f0463          	beqz	t5,802c <trap_vector+0x28>
    8028:	000f0067          	jr	t5
    802c:	34202f73          	csrr	t5,mcause
    8030:	000f5463          	bgez	t5,8038 <handle_exception>
    8034:	0040006f          	j	8038 <handle_exception>

00008038 <handle_exception>:
    8038:	5391e193          	or	gp,gp,1337

0000803c <write_tohost>:
    803c:	00001f17          	auipc	t5,0x1
    8040:	fc3f2223          	sw	gp,-60(t5) # 9000 <tohost>
    8044:	00001f17          	auipc	t5,0x1
    8048:	fc0f2023          	sw	zero,-64(t5) # 9004 <tohost+0x4>
    804c:	ff1ff06f          	j	803c <write_tohost>

00008050 <reset_vector>:
    8050:	00000093          	li	ra,0
    8054:	00000113          	li	sp,0
    8058:	00000193          	li	gp,0
    805c:	00000213          	li	tp,0
    8060:	00000293          	li	t0,0
    8064:	00000313          	li	t1,0
    8068:	00000393          	li	t2,0
    806c:	00000413          	li	s0,0
    8070:	00000493          	li	s1,0
    8074:	00000513          	li	a0,0
    8078:	00000593          	li	a1,0
    807c:	00000613          	li	a2,0
    8080:	00000693          	li	a3,0
    8084:	00000713          	li	a4,0
    8088:	00000793          	li	a5,0
    808c:	00000813          	li	a6,0
    8090:	00000893          	li	a7,0
    8094:	00000913          	li	s2,0
    8098:	00000993          	li	s3,0
    809c:	00000a13          	li	s4,0
    80a0:	00000a93          	li	s5,0
    80a4:	00000b13          	li	s6,0
    80a8:	00000b93          	li	s7,0
    80ac:	00000c13          	li	s8,0
    80b0:	00000c93          	li	s9,0
    80b4:	00000d13          	li	s10,0
    80b8:	00000d93          	li	s11,0
    80bc:	00000e13          	li	t3,0
    80c0:	00000e93          	li	t4,0
    80c4:	00000f13          	li	t5,0
    80c8:	00000f93          	li	t6,0
    80cc:	f1402573          	csrr	a0,mhartid
    80d0:	00051063          	bnez	a0,80d0 <reset_vector+0x80>
    80d4:	00000297          	auipc	t0,0x0
    80d8:	01028293          	add	t0,t0,16 # 80e4 <reset_vector+0x94>
    80dc:	30529073          	csrw	mtvec,t0
    80e0:	74445073          	csrw	0x744,8
    80e4:	00000297          	auipc	t0,0x0
    80e8:	01028293          	add	t0,t0,16 # 80f4 <reset_vector+0xa4>
    80ec:	30529073          	csrw	mtvec,t0
    80f0:	18005073          	csrw	satp,0
    80f4:	00000297          	auipc	t0,0x0
    80f8:	02028293          	add	t0,t0,32 # 8114 <reset_vector+0xc4>
    80fc:	30529073          	csrw	mtvec,t0
    8100:	800002b7          	lui	t0,0x80000
    8104:	fff28293          	add	t0,t0,-1 # 7fffffff <_end+0x7fff5fff>
    8108:	3b029073          	csrw	pmpaddr0,t0
    810c:	01f00293          	li	t0,31
    8110:	3a029073          	csrw	pmpcfg0,t0
    8114:	30405073          	csrw	mie,0
    8118:	00000297          	auipc	t0,0x0
    811c:	01428293          	add	t0,t0,20 # 812c <reset_vector+0xdc>
    8120:	30529073          	csrw	mtvec,t0
    8124:	30205073          	csrw	medeleg,0
    8128:	30305073          	csrw	mideleg,0
    812c:	00000193          	li	gp,0
    8130:	00000297          	auipc	t0,0x0
    8134:	ed428293          	add	t0,t0,-300 # 8004 <trap_vector>
    8138:	30529073          	csrw	mtvec,t0
    813c:	00100513          	li	a0,1
    8140:	01f51513          	sll	a0,a0,0x1f
    8144:	00054c63          	bltz	a0,815c <reset_vector+0x10c>
    8148:	0ff0000f          	fence
    814c:	00100193          	li	gp,1
    8150:	05d00893          	li	a7,93
    8154:	00000513          	li	a0,0
    8158:	00000073          	ecall
    815c:	00000293          	li	t0,0
    8160:	00028a63          	beqz	t0,8174 <reset_vector+0x124>
    8164:	10529073          	csrw	stvec,t0
    8168:	0000b2b7          	lui	t0,0xb
    816c:	10928293          	add	t0,t0,265 # b109 <_end+0x1109>
    8170:	30229073          	csrw	medeleg,t0
    8174:	30005073          	csrw	mstatus,0
    8178:	00000297          	auipc	t0,0x0
    817c:	01428293          	add	t0,t0,20 # 818c <test_2>
    8180:	34129073          	csrw	mepc,t0
    8184:	f1402573          	csrr	a0,mhartid
    8188:	30200073          	mret

0000818c <test_2>:
    818c:	00200193          	li	gp,2
    8190:	00000093          	li	ra,0
    8194:	00000113          	li	sp,0
    8198:	40208733          	sub	a4,ra,sp
    819c:	00000393          	li	t2,0
    81a0:	4a771663          	bne	a4,t2,864c <fail>

000081a4 <test_3>:
    81a4:	00300193          	li	gp,3
    81a8:	00100093          	li	ra,1
    81ac:	00100113          	li	sp,1
    81b0:	40208733          	sub	a4,ra,sp
    81b4:	00000393          	li	t2,0
    81b8:	48771a63          	bne	a4,t2,864c <fail>

000081bc <test_4>:
    81bc:	00400193          	li	gp,4
    81c0:	00300093          	li	ra,3
    81c4:	00700113          	li	sp,7
    81c8:	40208733          	sub	a4,ra,sp
    81cc:	ffc00393          	li	t2,-4
    81d0:	46771e63          	bne	a4,t2,864c <fail>

000081d4 <test_5>:
    81d4:	00500193          	li	gp,5
    81d8:	00000093          	li	ra,0
    81dc:	ffff8137          	lui	sp,0xffff8
    81e0:	40208733          	sub	a4,ra,sp
    81e4:	000083b7          	lui	t2,0x8
    81e8:	46771263          	bne	a4,t2,864c <fail>

000081ec <test_6>:
    81ec:	00600193          	li	gp,6
    81f0:	800000b7          	lui	ra,0x80000
    81f4:	00000113          	li	sp,0
    81f8:	40208733          	sub	a4,ra,sp
    81fc:	800003b7          	lui	t2,0x80000
    8200:	44771663          	bne	a4,t2,864c <fail>

00008204 <test_7>:
    8204:	00700193          	li	gp,7
    8208:	800000b7          	lui	ra,0x80000
    820c:	ffff8137          	lui	sp,0xffff8
    8210:	40208733          	sub	a4,ra,sp
    8214:	800083b7          	lui	t2,0x80008
    8218:	42771a63          	bne	a4,t2,864c <fail>

0000821c <test_8>:
    821c:	00800193          	li	gp,8
    8220:	00000093          	li	ra,0
    8224:	00008137          	lui	sp,0x8
    8228:	fff10113          	add	sp,sp,-1 # 7fff <_start-0x1>
    822c:	40208733          	sub	a4,ra,sp
    8230:	ffff83b7          	lui	t2,0xffff8
    8234:	00138393          	add	t2,t2,1 # ffff8001 <_end+0xfffee001>
    8238:	40771a63          	bne	a4,t2,864c <fail>

0000823c <test_9>:
    823c:	00900193          	li	gp,9
    8240:	800000b7          	lui	ra,0x80000
    8244:	fff08093          	add	ra,ra,-1 # 7fffffff <_end+0x7fff5fff>
    8248:	00000113          	li	sp,0
    824c:	40208733          	sub	a4,ra,sp
    8250:	800003b7          	lui	t2,0x80000
    8254:	fff38393          	add	t2,t2,-1 # 7fffffff <_end+0x7fff5fff>
    8258:	3e771a63          	bne	a4,t2,864c <fail>

0000825c <test_10>:
    825c:	00a00193          	li	gp,10
    8260:	800000b7          	lui	ra,0x80000
    8264:	fff08093          	add	ra,ra,-1 # 7fffffff <_end+0x7fff5fff>
    8268:	00008137          	lui	sp,0x8
    826c:	fff10113          	add	sp,sp,-1 # 7fff <_start-0x1>
    8270:	40208733          	sub	a4,ra,sp
    8274:	7fff83b7          	lui	t2,0x7fff8
    8278:	3c771a63          	bne	a4,t2,864c <fail>

0000827c <test_11>:
    827c:	00b00193          	li	gp,11
    8280:	800000b7          	lui	ra,0x80000
    8284:	00008137          	lui	sp,0x8
    8288:	fff10113          	add	sp,sp,-1 # 7fff <_start-0x1>
    828c:	40208733          	sub	a4,ra,sp
    8290:	7fff83b7          	lui	t2,0x7fff8
    8294:	00138393          	add	t2,t2,1 # 7fff8001 <_end+0x7ffee001>
    8298:	3a771a63          	bne	a4,t2,864c <fail>

0000829c <test_12>:
    829c:	00c00193          	li	gp,12
    82a0:	800000b7          	lui	ra,0x80000
    82a4:	fff08093          	add	ra,ra,-1 # 7fffffff <_end+0x7fff5fff>
    82a8:	ffff8137          	lui	sp,0xffff8
    82ac:	40208733          	sub	a4,ra,sp
    82b0:	800083b7          	lui	t2,0x80008
    82b4:	fff38393          	add	t2,t2,-1 # 80007fff <_end+0x7fffdfff>
    82b8:	38771a63          	bne	a4,t2,864c <fail>

000082bc <test_13>:
    82bc:	00d00193          	li	gp,13
    82c0:	00000093          	li	ra,0
    82c4:	fff00113          	li	sp,-1
    82c8:	40208733          	sub	a4,ra,sp
    82cc:	00100393          	li	t2,1
    82d0:	36771e63          	bne	a4,t2,864c <fail>

000082d4 <test_14>:
    82d4:	00e00193          	li	gp,14
    82d8:	fff00093          	li	ra,-1
    82dc:	00100113          	li	sp,1
    82e0:	40208733          	sub	a4,ra,sp
    82e4:	ffe00393          	li	t2,-2
    82e8:	36771263          	bne	a4,t2,864c <fail>

000082ec <test_15>:
    82ec:	00f00193          	li	gp,15
    82f0:	fff00093          	li	ra,-1
    82f4:	fff00113          	li	sp,-1
    82f8:	40208733          	sub	a4,ra,sp
    82fc:	00000393          	li	t2,0
    8300:	34771663          	bne	a4,t2,864c <fail>

00008304 <test_16>:
    8304:	01000193          	li	gp,16
    8308:	00d00093          	li	ra,13
    830c:	00b00113          	li	sp,11
    8310:	402080b3          	sub	ra,ra,sp
    8314:	00200393          	li	t2,2
    8318:	32709a63          	bne	ra,t2,864c <fail>

0000831c <test_17>:
    831c:	01100193          	li	gp,17
    8320:	00e00093          	li	ra,14
    8324:	00b00113          	li	sp,11
    8328:	40208133          	sub	sp,ra,sp
    832c:	00300393          	li	t2,3
    8330:	30711e63          	bne	sp,t2,864c <fail>

00008334 <test_18>:
    8334:	01200193          	li	gp,18
    8338:	00d00093          	li	ra,13
    833c:	401080b3          	sub	ra,ra,ra
    8340:	00000393          	li	t2,0
    8344:	30709463          	bne	ra,t2,864c <fail>

00008348 <test_19>:
    8348:	01300193          	li	gp,19
    834c:	00000213          	li	tp,0
    8350:	00d00093          	li	ra,13
    8354:	00b00113          	li	sp,11
    8358:	40208733          	sub	a4,ra,sp
    835c:	00070313          	mv	t1,a4
    8360:	00120213          	add	tp,tp,1 # 1 <_start-0x7fff>
    8364:	00200293          	li	t0,2
    8368:	fe5214e3          	bne	tp,t0,8350 <test_19+0x8>
    836c:	00200393          	li	t2,2
    8370:	2c731e63          	bne	t1,t2,864c <fail>

00008374 <test_20>:
    8374:	01400193          	li	gp,20
    8378:	00000213          	li	tp,0
    837c:	00e00093          	li	ra,14
    8380:	00b00113          	li	sp,11
    8384:	40208733          	sub	a4,ra,sp
    8388:	00000013          	nop
    838c:	00070313          	mv	t1,a4
    8390:	00120213          	add	tp,tp,1 # 1 <_start-0x7fff>
    8394:	00200293          	li	t0,2
    8398:	fe5212e3          	bne	tp,t0,837c <test_20+0x8>
    839c:	00300393          	li	t2,3
    83a0:	2a731663          	bne	t1,t2,864c <fail>

000083a4 <test_21>:
    83a4:	01500193          	li	gp,21
    83a8:	00000213          	li	tp,0
    83ac:	00f00093          	li	ra,15
    83b0:	00b00113          	li	sp,11
    83b4:	40208733          	sub	a4,ra,sp
    83b8:	00000013          	nop
    83bc:	00000013          	nop
    83c0:	00070313          	mv	t1,a4
    83c4:	00120213          	add	tp,tp,1 # 1 <_start-0x7fff>
    83c8:	00200293          	li	t0,2
    83cc:	fe5210e3          	bne	tp,t0,83ac <test_21+0x8>
    83d0:	00400393          	li	t2,4
    83d4:	26731c63          	bne	t1,t2,864c <fail>

000083d8 <test_22>:
    83d8:	01600193          	li	gp,22
    83dc:	00000213          	li	tp,0
    83e0:	00d00093          	li	ra,13
    83e4:	00b00113          	li	sp,11
    83e8:	40208733          	sub	a4,ra,sp
    83ec:	00120213          	add	tp,tp,1 # 1 <_start-0x7fff>
    83f0:	00200293          	li	t0,2
    83f4:	fe5216e3          	bne	tp,t0,83e0 <test_22+0x8>
    83f8:	00200393          	li	t2,2
    83fc:	24771863          	bne	a4,t2,864c <fail>

00008400 <test_23>:
    8400:	01700193          	li	gp,23
    8404:	00000213          	li	tp,0
    8408:	00e00093          	li	ra,14
    840c:	00b00113          	li	sp,11
    8410:	00000013          	nop
    8414:	40208733          	sub	a4,ra,sp
    8418:	00120213          	add	tp,tp,1 # 1 <_start-0x7fff>
    841c:	00200293          	li	t0,2
    8420:	fe5214e3          	bne	tp,t0,8408 <test_23+0x8>
    8424:	00300393          	li	t2,3
    8428:	22771263          	bne	a4,t2,864c <fail>

0000842c <test_24>:
    842c:	01800193          	li	gp,24
    8430:	00000213          	li	tp,0
    8434:	00f00093          	li	ra,15
    8438:	00b00113          	li	sp,11
    843c:	00000013          	nop
    8440:	00000013          	nop
    8444:	40208733          	sub	a4,ra,sp
    8448:	00120213          	add	tp,tp,1 # 1 <_start-0x7fff>
    844c:	00200293          	li	t0,2
    8450:	fe5212e3          	bne	tp,t0,8434 <test_24+0x8>
    8454:	00400393          	li	t2,4
    8458:	1e771a63          	bne	a4,t2,864c <fail>

0000845c <test_25>:
    845c:	01900193          	li	gp,25
    8460:	00000213          	li	tp,0
    8464:	00d00093          	li	ra,13
    8468:	00000013          	nop
    846c:	00b00113          	li	sp,11
    8470:	40208733          	sub	a4,ra,sp
    8474:	00120213          	add	tp,tp,1 # 1 <_start-0x7fff>
    8478:	00200293          	li	t0,2
    847c:	fe5214e3          	bne	tp,t0,8464 <test_25+0x8>
    8480:	00200393          	li	t2,2
    8484:	1c771463          	bne	a4,t2,864c <fail>

00008488 <test_26>:
    8488:	01a00193          	li	gp,26
    848c:	00000213          	li	tp,0
    8490:	00e00093          	li	ra,14
    8494:	00000013          	nop
    8498:	00b00113          	li	sp,11
    849c:	00000013          	nop
    84a0:	40208733          	sub	a4,ra,sp
    84a4:	00120213          	add	tp,tp,1 # 1 <_start-0x7fff>
    84a8:	00200293          	li	t0,2
    84ac:	fe5212e3          	bne	tp,t0,8490 <test_26+0x8>
    84b0:	00300393          	li	t2,3
    84b4:	18771c63          	bne	a4,t2,864c <fail>

000084b8 <test_27>:
    84b8:	01b00193          	li	gp,27
    84bc:	00000213          	li	tp,0
    84c0:	00f00093          	li	ra,15
    84c4:	00000013          	nop
    84c8:	00000013          	nop
    84cc:	00b00113          	li	sp,11
    84d0:	40208733          	sub	a4,ra,sp
    84d4:	00120213          	add	tp,tp,1 # 1 <_start-0x7fff>
    84d8:	00200293          	li	t0,2
    84dc:	fe5212e3          	bne	tp,t0,84c0 <test_27+0x8>
    84e0:	00400393          	li	t2,4
    84e4:	16771463          	bne	a4,t2,864c <fail>

000084e8 <test_28>:
    84e8:	01c00193          	li	gp,28
    84ec:	00000213          	li	tp,0
    84f0:	00b00113          	li	sp,11
    84f4:	00d00093          	li	ra,13
    84f8:	40208733          	sub	a4,ra,sp
    84fc:	00120213          	add	tp,tp,1 # 1 <_start-0x7fff>
    8500:	00200293          	li	t0,2
    8504:	fe5216e3          	bne	tp,t0,84f0 <test_28+0x8>
    8508:	00200393          	li	t2,2
    850c:	14771063          	bne	a4,t2,864c <fail>

00008510 <test_29>:
    8510:	01d00193          	li	gp,29
    8514:	00000213          	li	tp,0
    8518:	00b00113          	li	sp,11
    851c:	00e00093          	li	ra,14
    8520:	00000013          	nop
    8524:	40208733          	sub	a4,ra,sp
    8528:	00120213          	add	tp,tp,1 # 1 <_start-0x7fff>
    852c:	00200293          	li	t0,2
    8530:	fe5214e3          	bne	tp,t0,8518 <test_29+0x8>
    8534:	00300393          	li	t2,3
    8538:	10771a63          	bne	a4,t2,864c <fail>

0000853c <test_30>:
    853c:	01e00193          	li	gp,30
    8540:	00000213          	li	tp,0
    8544:	00b00113          	li	sp,11
    8548:	00f00093          	li	ra,15
    854c:	00000013          	nop
    8550:	00000013          	nop
    8554:	40208733          	sub	a4,ra,sp
    8558:	00120213          	add	tp,tp,1 # 1 <_start-0x7fff>
    855c:	00200293          	li	t0,2
    8560:	fe5212e3          	bne	tp,t0,8544 <test_30+0x8>
    8564:	00400393          	li	t2,4
    8568:	0e771263          	bne	a4,t2,864c <fail>

0000856c <test_31>:
    856c:	01f00193          	li	gp,31
    8570:	00000213          	li	tp,0
    8574:	00b00113          	li	sp,11
    8578:	00000013          	nop
    857c:	00d00093          	li	ra,13
    8580:	40208733          	sub	a4,ra,sp
    8584:	00120213          	add	tp,tp,1 # 1 <_start-0x7fff>
    8588:	00200293          	li	t0,2
    858c:	fe5214e3          	bne	tp,t0,8574 <test_31+0x8>
    8590:	00200393          	li	t2,2
    8594:	0a771c63          	bne	a4,t2,864c <fail>

00008598 <test_32>:
    8598:	02000193          	li	gp,32
    859c:	00000213          	li	tp,0
    85a0:	00b00113          	li	sp,11
    85a4:	00000013          	nop
    85a8:	00e00093          	li	ra,14
    85ac:	00000013          	nop
    85b0:	40208733          	sub	a4,ra,sp
    85b4:	00120213          	add	tp,tp,1 # 1 <_start-0x7fff>
    85b8:	00200293          	li	t0,2
    85bc:	fe5212e3          	bne	tp,t0,85a0 <test_32+0x8>
    85c0:	00300393          	li	t2,3
    85c4:	08771463          	bne	a4,t2,864c <fail>

000085c8 <test_33>:
    85c8:	02100193          	li	gp,33
    85cc:	00000213          	li	tp,0
    85d0:	00b00113          	li	sp,11
    85d4:	00000013          	nop
    85d8:	00000013          	nop
    85dc:	00f00093          	li	ra,15
    85e0:	40208733          	sub	a4,ra,sp
    85e4:	00120213          	add	tp,tp,1 # 1 <_start-0x7fff>
    85e8:	00200293          	li	t0,2
    85ec:	fe5212e3          	bne	tp,t0,85d0 <test_33+0x8>
    85f0:	00400393          	li	t2,4
    85f4:	04771c63          	bne	a4,t2,864c <fail>

000085f8 <test_34>:
    85f8:	02200193          	li	gp,34
    85fc:	ff100093          	li	ra,-15
    8600:	40100133          	neg	sp,ra
    8604:	00f00393          	li	t2,15
    8608:	04711263          	bne	sp,t2,864c <fail>

0000860c <test_35>:
    860c:	02300193          	li	gp,35
    8610:	02000093          	li	ra,32
    8614:	40008133          	sub	sp,ra,zero
    8618:	02000393          	li	t2,32
    861c:	02711863          	bne	sp,t2,864c <fail>

00008620 <test_36>:
    8620:	02400193          	li	gp,36
    8624:	400000b3          	neg	ra,zero
    8628:	00000393          	li	t2,0
    862c:	02709063          	bne	ra,t2,864c <fail>

00008630 <test_37>:
    8630:	02500193          	li	gp,37
    8634:	01000093          	li	ra,16
    8638:	01e00113          	li	sp,30
    863c:	40208033          	sub	zero,ra,sp
    8640:	00000393          	li	t2,0
    8644:	00701463          	bne	zero,t2,864c <fail>
    8648:	02301063          	bne	zero,gp,8668 <pass>

0000864c <fail>:
    864c:	0ff0000f          	fence
    8650:	00018063          	beqz	gp,8650 <fail+0x4>
    8654:	00119193          	sll	gp,gp,0x1
    8658:	0011e193          	or	gp,gp,1
    865c:	05d00893          	li	a7,93
    8660:	00018513          	mv	a0,gp
    8664:	00000073          	ecall

00008668 <pass>:
    8668:	0ff0000f          	fence
    866c:	00100193          	li	gp,1
    8670:	05d00893          	li	a7,93
    8674:	00000513          	li	a0,0
    8678:	00000073          	ecall
    867c:	c0001073          	unimp
	...
