
./rv32ui-p-slli:     file format elf32-littleriscv


Disassembly of section .text.init:

00008000 <_start>:
    8000:	0500006f          	j	8050 <reset_vector>

00008004 <trap_vector>:
    8004:	34202f73          	csrr	t5,mcause
    8008:	00800f93          	li	t6,8
    800c:	03ff0863          	beq	t5,t6,803c <write_tohost>
    8010:	00900f93          	li	t6,9
    8014:	03ff0463          	beq	t5,t6,803c <write_tohost>
    8018:	00b00f93          	li	t6,11
    801c:	03ff0063          	beq	t5,t6,803c <write_tohost>
    8020:	00000f13          	li	t5,0
    8024:	000f0463          	beqz	t5,802c <trap_vector+0x28>
    8028:	000f0067          	jr	t5
    802c:	34202f73          	csrr	t5,mcause
    8030:	000f5463          	bgez	t5,8038 <handle_exception>
    8034:	0040006f          	j	8038 <handle_exception>

00008038 <handle_exception>:
    8038:	5391e193          	ori	gp,gp,1337

0000803c <write_tohost>:
    803c:	00001f17          	auipc	t5,0x1
    8040:	fc3f2223          	sw	gp,-60(t5) # 9000 <tohost>
    8044:	00001f17          	auipc	t5,0x1
    8048:	fc0f2023          	sw	zero,-64(t5) # 9004 <tohost+0x4>
    804c:	ff1ff06f          	j	803c <write_tohost>

00008050 <reset_vector>:
    8050:	00000093          	li	ra,0
    8054:	00000113          	li	sp,0
    8058:	00000193          	li	gp,0
    805c:	00000213          	li	tp,0
    8060:	00000293          	li	t0,0
    8064:	00000313          	li	t1,0
    8068:	00000393          	li	t2,0
    806c:	00000413          	li	s0,0
    8070:	00000493          	li	s1,0
    8074:	00000513          	li	a0,0
    8078:	00000593          	li	a1,0
    807c:	00000613          	li	a2,0
    8080:	00000693          	li	a3,0
    8084:	00000713          	li	a4,0
    8088:	00000793          	li	a5,0
    808c:	00000813          	li	a6,0
    8090:	00000893          	li	a7,0
    8094:	00000913          	li	s2,0
    8098:	00000993          	li	s3,0
    809c:	00000a13          	li	s4,0
    80a0:	00000a93          	li	s5,0
    80a4:	00000b13          	li	s6,0
    80a8:	00000b93          	li	s7,0
    80ac:	00000c13          	li	s8,0
    80b0:	00000c93          	li	s9,0
    80b4:	00000d13          	li	s10,0
    80b8:	00000d93          	li	s11,0
    80bc:	00000e13          	li	t3,0
    80c0:	00000e93          	li	t4,0
    80c4:	00000f13          	li	t5,0
    80c8:	00000f93          	li	t6,0
    80cc:	f1402573          	csrr	a0,mhartid
    80d0:	00051063          	bnez	a0,80d0 <reset_vector+0x80>
    80d4:	00000297          	auipc	t0,0x0
    80d8:	01028293          	addi	t0,t0,16 # 80e4 <reset_vector+0x94>
    80dc:	30529073          	csrw	mtvec,t0
    80e0:	74445073          	csrwi	0x744,8
    80e4:	00000297          	auipc	t0,0x0
    80e8:	01028293          	addi	t0,t0,16 # 80f4 <reset_vector+0xa4>
    80ec:	30529073          	csrw	mtvec,t0
    80f0:	18005073          	csrwi	satp,0
    80f4:	00000297          	auipc	t0,0x0
    80f8:	02028293          	addi	t0,t0,32 # 8114 <reset_vector+0xc4>
    80fc:	30529073          	csrw	mtvec,t0
    8100:	800002b7          	lui	t0,0x80000
    8104:	fff28293          	addi	t0,t0,-1 # 7fffffff <_end+0x7fff5fff>
    8108:	3b029073          	csrw	pmpaddr0,t0
    810c:	01f00293          	li	t0,31
    8110:	3a029073          	csrw	pmpcfg0,t0
    8114:	30405073          	csrwi	mie,0
    8118:	00000297          	auipc	t0,0x0
    811c:	01428293          	addi	t0,t0,20 # 812c <reset_vector+0xdc>
    8120:	30529073          	csrw	mtvec,t0
    8124:	30205073          	csrwi	medeleg,0
    8128:	30305073          	csrwi	mideleg,0
    812c:	00000193          	li	gp,0
    8130:	00000297          	auipc	t0,0x0
    8134:	ed428293          	addi	t0,t0,-300 # 8004 <trap_vector>
    8138:	30529073          	csrw	mtvec,t0
    813c:	00100513          	li	a0,1
    8140:	01f51513          	slli	a0,a0,0x1f
    8144:	00054c63          	bltz	a0,815c <reset_vector+0x10c>
    8148:	0ff0000f          	fence
    814c:	00100193          	li	gp,1
    8150:	05d00893          	li	a7,93
    8154:	00000513          	li	a0,0
    8158:	00000073          	ecall
    815c:	00000293          	li	t0,0
    8160:	00028a63          	beqz	t0,8174 <reset_vector+0x124>
    8164:	10529073          	csrw	stvec,t0
    8168:	0000b2b7          	lui	t0,0xb
    816c:	10928293          	addi	t0,t0,265 # b109 <_end+0x1109>
    8170:	30229073          	csrw	medeleg,t0
    8174:	30005073          	csrwi	mstatus,0
    8178:	00000297          	auipc	t0,0x0
    817c:	01428293          	addi	t0,t0,20 # 818c <test_2>
    8180:	34129073          	csrw	mepc,t0
    8184:	f1402573          	csrr	a0,mhartid
    8188:	30200073          	mret

0000818c <test_2>:
    818c:	00200193          	li	gp,2
    8190:	00100093          	li	ra,1
    8194:	00009713          	slli	a4,ra,0x0
    8198:	00100393          	li	t2,1
    819c:	26771a63          	bne	a4,t2,8410 <fail>

000081a0 <test_3>:
    81a0:	00300193          	li	gp,3
    81a4:	00100093          	li	ra,1
    81a8:	00109713          	slli	a4,ra,0x1
    81ac:	00200393          	li	t2,2
    81b0:	26771063          	bne	a4,t2,8410 <fail>

000081b4 <test_4>:
    81b4:	00400193          	li	gp,4
    81b8:	00100093          	li	ra,1
    81bc:	00709713          	slli	a4,ra,0x7
    81c0:	08000393          	li	t2,128
    81c4:	24771663          	bne	a4,t2,8410 <fail>

000081c8 <test_5>:
    81c8:	00500193          	li	gp,5
    81cc:	00100093          	li	ra,1
    81d0:	00e09713          	slli	a4,ra,0xe
    81d4:	000043b7          	lui	t2,0x4
    81d8:	22771c63          	bne	a4,t2,8410 <fail>

000081dc <test_6>:
    81dc:	00600193          	li	gp,6
    81e0:	00100093          	li	ra,1
    81e4:	01f09713          	slli	a4,ra,0x1f
    81e8:	800003b7          	lui	t2,0x80000
    81ec:	22771263          	bne	a4,t2,8410 <fail>

000081f0 <test_7>:
    81f0:	00700193          	li	gp,7
    81f4:	fff00093          	li	ra,-1
    81f8:	00009713          	slli	a4,ra,0x0
    81fc:	fff00393          	li	t2,-1
    8200:	20771863          	bne	a4,t2,8410 <fail>

00008204 <test_8>:
    8204:	00800193          	li	gp,8
    8208:	fff00093          	li	ra,-1
    820c:	00109713          	slli	a4,ra,0x1
    8210:	ffe00393          	li	t2,-2
    8214:	1e771e63          	bne	a4,t2,8410 <fail>

00008218 <test_9>:
    8218:	00900193          	li	gp,9
    821c:	fff00093          	li	ra,-1
    8220:	00709713          	slli	a4,ra,0x7
    8224:	f8000393          	li	t2,-128
    8228:	1e771463          	bne	a4,t2,8410 <fail>

0000822c <test_10>:
    822c:	00a00193          	li	gp,10
    8230:	fff00093          	li	ra,-1
    8234:	00e09713          	slli	a4,ra,0xe
    8238:	ffffc3b7          	lui	t2,0xffffc
    823c:	1c771a63          	bne	a4,t2,8410 <fail>

00008240 <test_11>:
    8240:	00b00193          	li	gp,11
    8244:	fff00093          	li	ra,-1
    8248:	01f09713          	slli	a4,ra,0x1f
    824c:	800003b7          	lui	t2,0x80000
    8250:	1c771063          	bne	a4,t2,8410 <fail>

00008254 <test_12>:
    8254:	00c00193          	li	gp,12
    8258:	212120b7          	lui	ra,0x21212
    825c:	12108093          	addi	ra,ra,289 # 21212121 <_end+0x21208121>
    8260:	00009713          	slli	a4,ra,0x0
    8264:	212123b7          	lui	t2,0x21212
    8268:	12138393          	addi	t2,t2,289 # 21212121 <_end+0x21208121>
    826c:	1a771263          	bne	a4,t2,8410 <fail>

00008270 <test_13>:
    8270:	00d00193          	li	gp,13
    8274:	212120b7          	lui	ra,0x21212
    8278:	12108093          	addi	ra,ra,289 # 21212121 <_end+0x21208121>
    827c:	00109713          	slli	a4,ra,0x1
    8280:	424243b7          	lui	t2,0x42424
    8284:	24238393          	addi	t2,t2,578 # 42424242 <_end+0x4241a242>
    8288:	18771463          	bne	a4,t2,8410 <fail>

0000828c <test_14>:
    828c:	00e00193          	li	gp,14
    8290:	212120b7          	lui	ra,0x21212
    8294:	12108093          	addi	ra,ra,289 # 21212121 <_end+0x21208121>
    8298:	00709713          	slli	a4,ra,0x7
    829c:	909093b7          	lui	t2,0x90909
    82a0:	08038393          	addi	t2,t2,128 # 90909080 <_end+0x908ff080>
    82a4:	16771663          	bne	a4,t2,8410 <fail>

000082a8 <test_15>:
    82a8:	00f00193          	li	gp,15
    82ac:	212120b7          	lui	ra,0x21212
    82b0:	12108093          	addi	ra,ra,289 # 21212121 <_end+0x21208121>
    82b4:	00e09713          	slli	a4,ra,0xe
    82b8:	484843b7          	lui	t2,0x48484
    82bc:	14771a63          	bne	a4,t2,8410 <fail>

000082c0 <test_16>:
    82c0:	01000193          	li	gp,16
    82c4:	212120b7          	lui	ra,0x21212
    82c8:	12108093          	addi	ra,ra,289 # 21212121 <_end+0x21208121>
    82cc:	01f09713          	slli	a4,ra,0x1f
    82d0:	800003b7          	lui	t2,0x80000
    82d4:	12771e63          	bne	a4,t2,8410 <fail>

000082d8 <test_17>:
    82d8:	01100193          	li	gp,17
    82dc:	00100093          	li	ra,1
    82e0:	00709093          	slli	ra,ra,0x7
    82e4:	08000393          	li	t2,128
    82e8:	12709463          	bne	ra,t2,8410 <fail>

000082ec <test_18>:
    82ec:	01200193          	li	gp,18
    82f0:	00000213          	li	tp,0
    82f4:	00100093          	li	ra,1
    82f8:	00709713          	slli	a4,ra,0x7
    82fc:	00070313          	mv	t1,a4
    8300:	00120213          	addi	tp,tp,1 # 1 <_start-0x7fff>
    8304:	00200293          	li	t0,2
    8308:	fe5216e3          	bne	tp,t0,82f4 <test_18+0x8>
    830c:	08000393          	li	t2,128
    8310:	10731063          	bne	t1,t2,8410 <fail>

00008314 <test_19>:
    8314:	01300193          	li	gp,19
    8318:	00000213          	li	tp,0
    831c:	00100093          	li	ra,1
    8320:	00e09713          	slli	a4,ra,0xe
    8324:	00000013          	nop
    8328:	00070313          	mv	t1,a4
    832c:	00120213          	addi	tp,tp,1 # 1 <_start-0x7fff>
    8330:	00200293          	li	t0,2
    8334:	fe5214e3          	bne	tp,t0,831c <test_19+0x8>
    8338:	000043b7          	lui	t2,0x4
    833c:	0c731a63          	bne	t1,t2,8410 <fail>

00008340 <test_20>:
    8340:	01400193          	li	gp,20
    8344:	00000213          	li	tp,0
    8348:	00100093          	li	ra,1
    834c:	01f09713          	slli	a4,ra,0x1f
    8350:	00000013          	nop
    8354:	00000013          	nop
    8358:	00070313          	mv	t1,a4
    835c:	00120213          	addi	tp,tp,1 # 1 <_start-0x7fff>
    8360:	00200293          	li	t0,2
    8364:	fe5212e3          	bne	tp,t0,8348 <test_20+0x8>
    8368:	800003b7          	lui	t2,0x80000
    836c:	0a731263          	bne	t1,t2,8410 <fail>

00008370 <test_21>:
    8370:	01500193          	li	gp,21
    8374:	00000213          	li	tp,0
    8378:	00100093          	li	ra,1
    837c:	00709713          	slli	a4,ra,0x7
    8380:	00120213          	addi	tp,tp,1 # 1 <_start-0x7fff>
    8384:	00200293          	li	t0,2
    8388:	fe5218e3          	bne	tp,t0,8378 <test_21+0x8>
    838c:	08000393          	li	t2,128
    8390:	08771063          	bne	a4,t2,8410 <fail>

00008394 <test_22>:
    8394:	01600193          	li	gp,22
    8398:	00000213          	li	tp,0
    839c:	00100093          	li	ra,1
    83a0:	00000013          	nop
    83a4:	00e09713          	slli	a4,ra,0xe
    83a8:	00120213          	addi	tp,tp,1 # 1 <_start-0x7fff>
    83ac:	00200293          	li	t0,2
    83b0:	fe5216e3          	bne	tp,t0,839c <test_22+0x8>
    83b4:	000043b7          	lui	t2,0x4
    83b8:	04771c63          	bne	a4,t2,8410 <fail>

000083bc <test_23>:
    83bc:	01700193          	li	gp,23
    83c0:	00000213          	li	tp,0
    83c4:	00100093          	li	ra,1
    83c8:	00000013          	nop
    83cc:	00000013          	nop
    83d0:	01f09713          	slli	a4,ra,0x1f
    83d4:	00120213          	addi	tp,tp,1 # 1 <_start-0x7fff>
    83d8:	00200293          	li	t0,2
    83dc:	fe5214e3          	bne	tp,t0,83c4 <test_23+0x8>
    83e0:	800003b7          	lui	t2,0x80000
    83e4:	02771663          	bne	a4,t2,8410 <fail>

000083e8 <test_24>:
    83e8:	01800193          	li	gp,24
    83ec:	01f01093          	slli	ra,zero,0x1f
    83f0:	00000393          	li	t2,0
    83f4:	00709e63          	bne	ra,t2,8410 <fail>

000083f8 <test_25>:
    83f8:	01900193          	li	gp,25
    83fc:	02100093          	li	ra,33
    8400:	01409013          	slli	zero,ra,0x14
    8404:	00000393          	li	t2,0
    8408:	00701463          	bne	zero,t2,8410 <fail>
    840c:	02301063          	bne	zero,gp,842c <pass>

00008410 <fail>:
    8410:	0ff0000f          	fence
    8414:	00018063          	beqz	gp,8414 <fail+0x4>
    8418:	00119193          	slli	gp,gp,0x1
    841c:	0011e193          	ori	gp,gp,1
    8420:	05d00893          	li	a7,93
    8424:	00018513          	mv	a0,gp
    8428:	00000073          	ecall

0000842c <pass>:
    842c:	0ff0000f          	fence
    8430:	00100193          	li	gp,1
    8434:	05d00893          	li	a7,93
    8438:	00000513          	li	a0,0
    843c:	00000073          	ecall
    8440:	c0001073          	unimp
	...
