
./rv32um-p-mulhsu:     file format elf32-littleriscv


Disassembly of section .text.init:

00008000 <_start>:
    8000:	0500006f          	j	8050 <reset_vector>

00008004 <trap_vector>:
    8004:	34202f73          	csrr	t5,mcause
    8008:	00800f93          	li	t6,8
    800c:	03ff0863          	beq	t5,t6,803c <write_tohost>
    8010:	00900f93          	li	t6,9
    8014:	03ff0463          	beq	t5,t6,803c <write_tohost>
    8018:	00b00f93          	li	t6,11
    801c:	03ff0063          	beq	t5,t6,803c <write_tohost>
    8020:	00000f13          	li	t5,0
    8024:	000f0463          	beqz	t5,802c <trap_vector+0x28>
    8028:	000f0067          	jr	t5
    802c:	34202f73          	csrr	t5,mcause
    8030:	000f5463          	bgez	t5,8038 <handle_exception>
    8034:	0040006f          	j	8038 <handle_exception>

00008038 <handle_exception>:
    8038:	5391e193          	or	gp,gp,1337

0000803c <write_tohost>:
    803c:	00001f17          	auipc	t5,0x1
    8040:	fc3f2223          	sw	gp,-60(t5) # 9000 <tohost>
    8044:	00001f17          	auipc	t5,0x1
    8048:	fc0f2023          	sw	zero,-64(t5) # 9004 <tohost+0x4>
    804c:	ff1ff06f          	j	803c <write_tohost>

00008050 <reset_vector>:
    8050:	00000093          	li	ra,0
    8054:	00000113          	li	sp,0
    8058:	00000193          	li	gp,0
    805c:	00000213          	li	tp,0
    8060:	00000293          	li	t0,0
    8064:	00000313          	li	t1,0
    8068:	00000393          	li	t2,0
    806c:	00000413          	li	s0,0
    8070:	00000493          	li	s1,0
    8074:	00000513          	li	a0,0
    8078:	00000593          	li	a1,0
    807c:	00000613          	li	a2,0
    8080:	00000693          	li	a3,0
    8084:	00000713          	li	a4,0
    8088:	00000793          	li	a5,0
    808c:	00000813          	li	a6,0
    8090:	00000893          	li	a7,0
    8094:	00000913          	li	s2,0
    8098:	00000993          	li	s3,0
    809c:	00000a13          	li	s4,0
    80a0:	00000a93          	li	s5,0
    80a4:	00000b13          	li	s6,0
    80a8:	00000b93          	li	s7,0
    80ac:	00000c13          	li	s8,0
    80b0:	00000c93          	li	s9,0
    80b4:	00000d13          	li	s10,0
    80b8:	00000d93          	li	s11,0
    80bc:	00000e13          	li	t3,0
    80c0:	00000e93          	li	t4,0
    80c4:	00000f13          	li	t5,0
    80c8:	00000f93          	li	t6,0
    80cc:	f1402573          	csrr	a0,mhartid
    80d0:	00051063          	bnez	a0,80d0 <reset_vector+0x80>
    80d4:	00000297          	auipc	t0,0x0
    80d8:	01028293          	add	t0,t0,16 # 80e4 <reset_vector+0x94>
    80dc:	30529073          	csrw	mtvec,t0
    80e0:	74445073          	csrw	0x744,8
    80e4:	00000297          	auipc	t0,0x0
    80e8:	01028293          	add	t0,t0,16 # 80f4 <reset_vector+0xa4>
    80ec:	30529073          	csrw	mtvec,t0
    80f0:	18005073          	csrw	satp,0
    80f4:	00000297          	auipc	t0,0x0
    80f8:	02028293          	add	t0,t0,32 # 8114 <reset_vector+0xc4>
    80fc:	30529073          	csrw	mtvec,t0
    8100:	800002b7          	lui	t0,0x80000
    8104:	fff28293          	add	t0,t0,-1 # 7fffffff <_end+0x7fff5fff>
    8108:	3b029073          	csrw	pmpaddr0,t0
    810c:	01f00293          	li	t0,31
    8110:	3a029073          	csrw	pmpcfg0,t0
    8114:	30405073          	csrw	mie,0
    8118:	00000297          	auipc	t0,0x0
    811c:	01428293          	add	t0,t0,20 # 812c <reset_vector+0xdc>
    8120:	30529073          	csrw	mtvec,t0
    8124:	30205073          	csrw	medeleg,0
    8128:	30305073          	csrw	mideleg,0
    812c:	00000193          	li	gp,0
    8130:	00000297          	auipc	t0,0x0
    8134:	ed428293          	add	t0,t0,-300 # 8004 <trap_vector>
    8138:	30529073          	csrw	mtvec,t0
    813c:	00100513          	li	a0,1
    8140:	01f51513          	sll	a0,a0,0x1f
    8144:	00054c63          	bltz	a0,815c <reset_vector+0x10c>
    8148:	0ff0000f          	fence
    814c:	00100193          	li	gp,1
    8150:	05d00893          	li	a7,93
    8154:	00000513          	li	a0,0
    8158:	00000073          	ecall
    815c:	00000293          	li	t0,0
    8160:	00028a63          	beqz	t0,8174 <reset_vector+0x124>
    8164:	10529073          	csrw	stvec,t0
    8168:	0000b2b7          	lui	t0,0xb
    816c:	10928293          	add	t0,t0,265 # b109 <_end+0x1109>
    8170:	30229073          	csrw	medeleg,t0
    8174:	30005073          	csrw	mstatus,0
    8178:	00000297          	auipc	t0,0x0
    817c:	01428293          	add	t0,t0,20 # 818c <test_2>
    8180:	34129073          	csrw	mepc,t0
    8184:	f1402573          	csrr	a0,mhartid
    8188:	30200073          	mret

0000818c <test_2>:
    818c:	00200193          	li	gp,2
    8190:	00000093          	li	ra,0
    8194:	00000113          	li	sp,0
    8198:	0220a733          	mulhsu	a4,ra,sp
    819c:	00000393          	li	t2,0
    81a0:	4a771a63          	bne	a4,t2,8654 <fail>

000081a4 <test_3>:
    81a4:	00300193          	li	gp,3
    81a8:	00100093          	li	ra,1
    81ac:	00100113          	li	sp,1
    81b0:	0220a733          	mulhsu	a4,ra,sp
    81b4:	00000393          	li	t2,0
    81b8:	48771e63          	bne	a4,t2,8654 <fail>

000081bc <test_4>:
    81bc:	00400193          	li	gp,4
    81c0:	00300093          	li	ra,3
    81c4:	00700113          	li	sp,7
    81c8:	0220a733          	mulhsu	a4,ra,sp
    81cc:	00000393          	li	t2,0
    81d0:	48771263          	bne	a4,t2,8654 <fail>

000081d4 <test_5>:
    81d4:	00500193          	li	gp,5
    81d8:	00000093          	li	ra,0
    81dc:	ffff8137          	lui	sp,0xffff8
    81e0:	0220a733          	mulhsu	a4,ra,sp
    81e4:	00000393          	li	t2,0
    81e8:	46771663          	bne	a4,t2,8654 <fail>

000081ec <test_6>:
    81ec:	00600193          	li	gp,6
    81f0:	800000b7          	lui	ra,0x80000
    81f4:	00000113          	li	sp,0
    81f8:	0220a733          	mulhsu	a4,ra,sp
    81fc:	00000393          	li	t2,0
    8200:	44771a63          	bne	a4,t2,8654 <fail>

00008204 <test_7>:
    8204:	00700193          	li	gp,7
    8208:	800000b7          	lui	ra,0x80000
    820c:	ffff8137          	lui	sp,0xffff8
    8210:	0220a733          	mulhsu	a4,ra,sp
    8214:	800043b7          	lui	t2,0x80004
    8218:	42771e63          	bne	a4,t2,8654 <fail>

0000821c <test_30>:
    821c:	01e00193          	li	gp,30
    8220:	aaaab0b7          	lui	ra,0xaaaab
    8224:	aab08093          	add	ra,ra,-1365 # aaaaaaab <_end+0xaaaa0aab>
    8228:	00030137          	lui	sp,0x30
    822c:	e7d10113          	add	sp,sp,-387 # 2fe7d <_end+0x25e7d>
    8230:	0220a733          	mulhsu	a4,ra,sp
    8234:	ffff03b7          	lui	t2,0xffff0
    8238:	08138393          	add	t2,t2,129 # ffff0081 <_end+0xfffe6081>
    823c:	40771c63          	bne	a4,t2,8654 <fail>

00008240 <test_31>:
    8240:	01f00193          	li	gp,31
    8244:	000300b7          	lui	ra,0x30
    8248:	e7d08093          	add	ra,ra,-387 # 2fe7d <_end+0x25e7d>
    824c:	aaaab137          	lui	sp,0xaaaab
    8250:	aab10113          	add	sp,sp,-1365 # aaaaaaab <_end+0xaaaa0aab>
    8254:	0220a733          	mulhsu	a4,ra,sp
    8258:	000203b7          	lui	t2,0x20
    825c:	efe38393          	add	t2,t2,-258 # 1fefe <_end+0x15efe>
    8260:	3e771a63          	bne	a4,t2,8654 <fail>

00008264 <test_32>:
    8264:	02000193          	li	gp,32
    8268:	ff0000b7          	lui	ra,0xff000
    826c:	ff000137          	lui	sp,0xff000
    8270:	0220a733          	mulhsu	a4,ra,sp
    8274:	ff0103b7          	lui	t2,0xff010
    8278:	3c771e63          	bne	a4,t2,8654 <fail>

0000827c <test_33>:
    827c:	02100193          	li	gp,33
    8280:	fff00093          	li	ra,-1
    8284:	fff00113          	li	sp,-1
    8288:	0220a733          	mulhsu	a4,ra,sp
    828c:	fff00393          	li	t2,-1
    8290:	3c771263          	bne	a4,t2,8654 <fail>

00008294 <test_34>:
    8294:	02200193          	li	gp,34
    8298:	fff00093          	li	ra,-1
    829c:	00100113          	li	sp,1
    82a0:	0220a733          	mulhsu	a4,ra,sp
    82a4:	fff00393          	li	t2,-1
    82a8:	3a771663          	bne	a4,t2,8654 <fail>

000082ac <test_35>:
    82ac:	02300193          	li	gp,35
    82b0:	00100093          	li	ra,1
    82b4:	fff00113          	li	sp,-1
    82b8:	0220a733          	mulhsu	a4,ra,sp
    82bc:	00000393          	li	t2,0
    82c0:	38771a63          	bne	a4,t2,8654 <fail>

000082c4 <test_8>:
    82c4:	00800193          	li	gp,8
    82c8:	00d000b7          	lui	ra,0xd00
    82cc:	00b00137          	lui	sp,0xb00
    82d0:	0220a0b3          	mulhsu	ra,ra,sp
    82d4:	000093b7          	lui	t2,0x9
    82d8:	f0038393          	add	t2,t2,-256 # 8f00 <pass+0x890>
    82dc:	36709c63          	bne	ra,t2,8654 <fail>

000082e0 <test_9>:
    82e0:	00900193          	li	gp,9
    82e4:	00e000b7          	lui	ra,0xe00
    82e8:	00b00137          	lui	sp,0xb00
    82ec:	0220a133          	mulhsu	sp,ra,sp
    82f0:	0000a3b7          	lui	t2,0xa
    82f4:	a0038393          	add	t2,t2,-1536 # 9a00 <fromhost+0x9c0>
    82f8:	34711e63          	bne	sp,t2,8654 <fail>

000082fc <test_10>:
    82fc:	00a00193          	li	gp,10
    8300:	00d000b7          	lui	ra,0xd00
    8304:	0210a0b3          	mulhsu	ra,ra,ra
    8308:	0000b3b7          	lui	t2,0xb
    830c:	90038393          	add	t2,t2,-1792 # a900 <_end+0x900>
    8310:	34709263          	bne	ra,t2,8654 <fail>

00008314 <test_11>:
    8314:	00b00193          	li	gp,11
    8318:	00000213          	li	tp,0
    831c:	00d000b7          	lui	ra,0xd00
    8320:	00b00137          	lui	sp,0xb00
    8324:	0220a733          	mulhsu	a4,ra,sp
    8328:	00070313          	mv	t1,a4
    832c:	00120213          	add	tp,tp,1 # 1 <_start-0x7fff>
    8330:	00200293          	li	t0,2
    8334:	fe5214e3          	bne	tp,t0,831c <test_11+0x8>
    8338:	000093b7          	lui	t2,0x9
    833c:	f0038393          	add	t2,t2,-256 # 8f00 <pass+0x890>
    8340:	30731a63          	bne	t1,t2,8654 <fail>

00008344 <test_12>:
    8344:	00c00193          	li	gp,12
    8348:	00000213          	li	tp,0
    834c:	00e000b7          	lui	ra,0xe00
    8350:	00b00137          	lui	sp,0xb00
    8354:	0220a733          	mulhsu	a4,ra,sp
    8358:	00000013          	nop
    835c:	00070313          	mv	t1,a4
    8360:	00120213          	add	tp,tp,1 # 1 <_start-0x7fff>
    8364:	00200293          	li	t0,2
    8368:	fe5212e3          	bne	tp,t0,834c <test_12+0x8>
    836c:	0000a3b7          	lui	t2,0xa
    8370:	a0038393          	add	t2,t2,-1536 # 9a00 <fromhost+0x9c0>
    8374:	2e731063          	bne	t1,t2,8654 <fail>

00008378 <test_13>:
    8378:	00d00193          	li	gp,13
    837c:	00000213          	li	tp,0
    8380:	00f000b7          	lui	ra,0xf00
    8384:	00b00137          	lui	sp,0xb00
    8388:	0220a733          	mulhsu	a4,ra,sp
    838c:	00000013          	nop
    8390:	00000013          	nop
    8394:	00070313          	mv	t1,a4
    8398:	00120213          	add	tp,tp,1 # 1 <_start-0x7fff>
    839c:	00200293          	li	t0,2
    83a0:	fe5210e3          	bne	tp,t0,8380 <test_13+0x8>
    83a4:	0000a3b7          	lui	t2,0xa
    83a8:	50038393          	add	t2,t2,1280 # a500 <_end+0x500>
    83ac:	2a731463          	bne	t1,t2,8654 <fail>

000083b0 <test_14>:
    83b0:	00e00193          	li	gp,14
    83b4:	00000213          	li	tp,0
    83b8:	00d000b7          	lui	ra,0xd00
    83bc:	00b00137          	lui	sp,0xb00
    83c0:	0220a733          	mulhsu	a4,ra,sp
    83c4:	00120213          	add	tp,tp,1 # 1 <_start-0x7fff>
    83c8:	00200293          	li	t0,2
    83cc:	fe5216e3          	bne	tp,t0,83b8 <test_14+0x8>
    83d0:	000093b7          	lui	t2,0x9
    83d4:	f0038393          	add	t2,t2,-256 # 8f00 <pass+0x890>
    83d8:	26771e63          	bne	a4,t2,8654 <fail>

000083dc <test_15>:
    83dc:	00f00193          	li	gp,15
    83e0:	00000213          	li	tp,0
    83e4:	00e000b7          	lui	ra,0xe00
    83e8:	00b00137          	lui	sp,0xb00
    83ec:	00000013          	nop
    83f0:	0220a733          	mulhsu	a4,ra,sp
    83f4:	00120213          	add	tp,tp,1 # 1 <_start-0x7fff>
    83f8:	00200293          	li	t0,2
    83fc:	fe5214e3          	bne	tp,t0,83e4 <test_15+0x8>
    8400:	0000a3b7          	lui	t2,0xa
    8404:	a0038393          	add	t2,t2,-1536 # 9a00 <fromhost+0x9c0>
    8408:	24771663          	bne	a4,t2,8654 <fail>

0000840c <test_16>:
    840c:	01000193          	li	gp,16
    8410:	00000213          	li	tp,0
    8414:	00f000b7          	lui	ra,0xf00
    8418:	00b00137          	lui	sp,0xb00
    841c:	00000013          	nop
    8420:	00000013          	nop
    8424:	0220a733          	mulhsu	a4,ra,sp
    8428:	00120213          	add	tp,tp,1 # 1 <_start-0x7fff>
    842c:	00200293          	li	t0,2
    8430:	fe5212e3          	bne	tp,t0,8414 <test_16+0x8>
    8434:	0000a3b7          	lui	t2,0xa
    8438:	50038393          	add	t2,t2,1280 # a500 <_end+0x500>
    843c:	20771c63          	bne	a4,t2,8654 <fail>

00008440 <test_17>:
    8440:	01100193          	li	gp,17
    8444:	00000213          	li	tp,0
    8448:	00d000b7          	lui	ra,0xd00
    844c:	00000013          	nop
    8450:	00b00137          	lui	sp,0xb00
    8454:	0220a733          	mulhsu	a4,ra,sp
    8458:	00120213          	add	tp,tp,1 # 1 <_start-0x7fff>
    845c:	00200293          	li	t0,2
    8460:	fe5214e3          	bne	tp,t0,8448 <test_17+0x8>
    8464:	000093b7          	lui	t2,0x9
    8468:	f0038393          	add	t2,t2,-256 # 8f00 <pass+0x890>
    846c:	1e771463          	bne	a4,t2,8654 <fail>

00008470 <test_18>:
    8470:	01200193          	li	gp,18
    8474:	00000213          	li	tp,0
    8478:	00e000b7          	lui	ra,0xe00
    847c:	00000013          	nop
    8480:	00b00137          	lui	sp,0xb00
    8484:	00000013          	nop
    8488:	0220a733          	mulhsu	a4,ra,sp
    848c:	00120213          	add	tp,tp,1 # 1 <_start-0x7fff>
    8490:	00200293          	li	t0,2
    8494:	fe5212e3          	bne	tp,t0,8478 <test_18+0x8>
    8498:	0000a3b7          	lui	t2,0xa
    849c:	a0038393          	add	t2,t2,-1536 # 9a00 <fromhost+0x9c0>
    84a0:	1a771a63          	bne	a4,t2,8654 <fail>

000084a4 <test_19>:
    84a4:	01300193          	li	gp,19
    84a8:	00000213          	li	tp,0
    84ac:	00f000b7          	lui	ra,0xf00
    84b0:	00000013          	nop
    84b4:	00000013          	nop
    84b8:	00b00137          	lui	sp,0xb00
    84bc:	0220a733          	mulhsu	a4,ra,sp
    84c0:	00120213          	add	tp,tp,1 # 1 <_start-0x7fff>
    84c4:	00200293          	li	t0,2
    84c8:	fe5212e3          	bne	tp,t0,84ac <test_19+0x8>
    84cc:	0000a3b7          	lui	t2,0xa
    84d0:	50038393          	add	t2,t2,1280 # a500 <_end+0x500>
    84d4:	18771063          	bne	a4,t2,8654 <fail>

000084d8 <test_20>:
    84d8:	01400193          	li	gp,20
    84dc:	00000213          	li	tp,0
    84e0:	00b00137          	lui	sp,0xb00
    84e4:	00d000b7          	lui	ra,0xd00
    84e8:	0220a733          	mulhsu	a4,ra,sp
    84ec:	00120213          	add	tp,tp,1 # 1 <_start-0x7fff>
    84f0:	00200293          	li	t0,2
    84f4:	fe5216e3          	bne	tp,t0,84e0 <test_20+0x8>
    84f8:	000093b7          	lui	t2,0x9
    84fc:	f0038393          	add	t2,t2,-256 # 8f00 <pass+0x890>
    8500:	14771a63          	bne	a4,t2,8654 <fail>

00008504 <test_21>:
    8504:	01500193          	li	gp,21
    8508:	00000213          	li	tp,0
    850c:	00b00137          	lui	sp,0xb00
    8510:	00e000b7          	lui	ra,0xe00
    8514:	00000013          	nop
    8518:	0220a733          	mulhsu	a4,ra,sp
    851c:	00120213          	add	tp,tp,1 # 1 <_start-0x7fff>
    8520:	00200293          	li	t0,2
    8524:	fe5214e3          	bne	tp,t0,850c <test_21+0x8>
    8528:	0000a3b7          	lui	t2,0xa
    852c:	a0038393          	add	t2,t2,-1536 # 9a00 <fromhost+0x9c0>
    8530:	12771263          	bne	a4,t2,8654 <fail>

00008534 <test_22>:
    8534:	01600193          	li	gp,22
    8538:	00000213          	li	tp,0
    853c:	00b00137          	lui	sp,0xb00
    8540:	00f000b7          	lui	ra,0xf00
    8544:	00000013          	nop
    8548:	00000013          	nop
    854c:	0220a733          	mulhsu	a4,ra,sp
    8550:	00120213          	add	tp,tp,1 # 1 <_start-0x7fff>
    8554:	00200293          	li	t0,2
    8558:	fe5212e3          	bne	tp,t0,853c <test_22+0x8>
    855c:	0000a3b7          	lui	t2,0xa
    8560:	50038393          	add	t2,t2,1280 # a500 <_end+0x500>
    8564:	0e771863          	bne	a4,t2,8654 <fail>

00008568 <test_23>:
    8568:	01700193          	li	gp,23
    856c:	00000213          	li	tp,0
    8570:	00b00137          	lui	sp,0xb00
    8574:	00000013          	nop
    8578:	00d000b7          	lui	ra,0xd00
    857c:	0220a733          	mulhsu	a4,ra,sp
    8580:	00120213          	add	tp,tp,1 # 1 <_start-0x7fff>
    8584:	00200293          	li	t0,2
    8588:	fe5214e3          	bne	tp,t0,8570 <test_23+0x8>
    858c:	000093b7          	lui	t2,0x9
    8590:	f0038393          	add	t2,t2,-256 # 8f00 <pass+0x890>
    8594:	0c771063          	bne	a4,t2,8654 <fail>

00008598 <test_24>:
    8598:	01800193          	li	gp,24
    859c:	00000213          	li	tp,0
    85a0:	00b00137          	lui	sp,0xb00
    85a4:	00000013          	nop
    85a8:	00e000b7          	lui	ra,0xe00
    85ac:	00000013          	nop
    85b0:	0220a733          	mulhsu	a4,ra,sp
    85b4:	00120213          	add	tp,tp,1 # 1 <_start-0x7fff>
    85b8:	00200293          	li	t0,2
    85bc:	fe5212e3          	bne	tp,t0,85a0 <test_24+0x8>
    85c0:	0000a3b7          	lui	t2,0xa
    85c4:	a0038393          	add	t2,t2,-1536 # 9a00 <fromhost+0x9c0>
    85c8:	08771663          	bne	a4,t2,8654 <fail>

000085cc <test_25>:
    85cc:	01900193          	li	gp,25
    85d0:	00000213          	li	tp,0
    85d4:	00b00137          	lui	sp,0xb00
    85d8:	00000013          	nop
    85dc:	00000013          	nop
    85e0:	00f000b7          	lui	ra,0xf00
    85e4:	0220a733          	mulhsu	a4,ra,sp
    85e8:	00120213          	add	tp,tp,1 # 1 <_start-0x7fff>
    85ec:	00200293          	li	t0,2
    85f0:	fe5212e3          	bne	tp,t0,85d4 <test_25+0x8>
    85f4:	0000a3b7          	lui	t2,0xa
    85f8:	50038393          	add	t2,t2,1280 # a500 <_end+0x500>
    85fc:	04771c63          	bne	a4,t2,8654 <fail>

00008600 <test_26>:
    8600:	01a00193          	li	gp,26
    8604:	7c0000b7          	lui	ra,0x7c000
    8608:	02102133          	mulhsu	sp,zero,ra
    860c:	00000393          	li	t2,0
    8610:	04711263          	bne	sp,t2,8654 <fail>

00008614 <test_27>:
    8614:	01b00193          	li	gp,27
    8618:	800000b7          	lui	ra,0x80000
    861c:	0200a133          	mulhsu	sp,ra,zero
    8620:	00000393          	li	t2,0
    8624:	02711863          	bne	sp,t2,8654 <fail>

00008628 <test_28>:
    8628:	01c00193          	li	gp,28
    862c:	020020b3          	mulhsu	ra,zero,zero
    8630:	00000393          	li	t2,0
    8634:	02709063          	bne	ra,t2,8654 <fail>

00008638 <test_29>:
    8638:	01d00193          	li	gp,29
    863c:	021000b7          	lui	ra,0x2100
    8640:	02200137          	lui	sp,0x2200
    8644:	0220a033          	mulhsu	zero,ra,sp
    8648:	00000393          	li	t2,0
    864c:	00701463          	bne	zero,t2,8654 <fail>
    8650:	02301063          	bne	zero,gp,8670 <pass>

00008654 <fail>:
    8654:	0ff0000f          	fence
    8658:	00018063          	beqz	gp,8658 <fail+0x4>
    865c:	00119193          	sll	gp,gp,0x1
    8660:	0011e193          	or	gp,gp,1
    8664:	05d00893          	li	a7,93
    8668:	00018513          	mv	a0,gp
    866c:	00000073          	ecall

00008670 <pass>:
    8670:	0ff0000f          	fence
    8674:	00100193          	li	gp,1
    8678:	05d00893          	li	a7,93
    867c:	00000513          	li	a0,0
    8680:	00000073          	ecall
    8684:	c0001073          	unimp
	...
